(lp0
(I0
S'start_time     : 1500306874\nlast_update    : 1500306874\nfuzzer_pid     : 4844\ncycles_done    : 0\nexecs_done     : 10\nexecs_per_sec  : 172.41\npaths_total    : 1\npaths_favored  : 1\npaths_found    : 0\npaths_imported : 0\nmax_depth      : 1\ncur_path       : 0\npending_favs   : 1\npending_total  : 1\nvariable_paths : 0\nbitmap_cvg     : 0.07%\nunique_crashes : 0\nunique_hangs   : 0\nlast_path      : 0\nlast_crash     : 0\nlast_hang      : 0\nexec_timeout   : 20\nafl_banner     : fuzzer-master\nafl_version    : 1.85b\ncommand_line   : /home/skaramcheti/.virtualenvs/afl/bin/afl-unix/afl-fuzz -i /dev/shm/work/Vector_Graphics_2/input -o /dev/shm/work/Vector_Graphics_2/sync -m 4G -Q -M fuzzer-master -x /dev/shm/work/Vector_Graphics_2/Vector_Graphics_2.dict -- data/linux/processed-challenges/Vector_Graphics_2/bin/Vector_Graphics_2\n'
p1
I5
tp2
a(I120
S'start_time     : 1500306874\nlast_update    : 1500306994\nfuzzer_pid     : 4844\ncycles_done    : 3\nexecs_done     : 124338\nexecs_per_sec  : 1052.83\npaths_total    : 5\npaths_favored  : 5\npaths_found    : 4\npaths_imported : 0\nmax_depth      : 2\ncur_path       : 0\npending_favs   : 0\npending_total  : 0\nvariable_paths : 0\nbitmap_cvg     : 0.10%\nunique_crashes : 0\nunique_hangs   : 0\nlast_path      : 1500306878\nlast_crash     : 0\nlast_hang      : 0\nexec_timeout   : 20\nafl_banner     : fuzzer-master\nafl_version    : 1.85b\ncommand_line   : /home/skaramcheti/.virtualenvs/afl/bin/afl-unix/afl-fuzz -i /dev/shm/work/Vector_Graphics_2/input -o /dev/shm/work/Vector_Graphics_2/sync -m 4G -Q -M fuzzer-master -x /dev/shm/work/Vector_Graphics_2/Vector_Graphics_2.dict -- data/linux/processed-challenges/Vector_Graphics_2/bin/Vector_Graphics_2\n'
p3
I0
tp4
a(I240
S'start_time     : 1500306874\nlast_update    : 1500307114\nfuzzer_pid     : 4844\ncycles_done    : 5\nexecs_done     : 248671\nexecs_per_sec  : 1059.20\npaths_total    : 5\npaths_favored  : 5\npaths_found    : 4\npaths_imported : 0\nmax_depth      : 2\ncur_path       : 3\npending_favs   : 0\npending_total  : 0\nvariable_paths : 0\nbitmap_cvg     : 0.10%\nunique_crashes : 0\nunique_hangs   : 0\nlast_path      : 1500306878\nlast_crash     : 0\nlast_hang      : 0\nexec_timeout   : 20\nafl_banner     : fuzzer-master\nafl_version    : 1.85b\ncommand_line   : /home/skaramcheti/.virtualenvs/afl/bin/afl-unix/afl-fuzz -i /dev/shm/work/Vector_Graphics_2/input -o /dev/shm/work/Vector_Graphics_2/sync -m 4G -Q -M fuzzer-master -x /dev/shm/work/Vector_Graphics_2/Vector_Graphics_2.dict -- data/linux/processed-challenges/Vector_Graphics_2/bin/Vector_Graphics_2\n'
p5
I0
tp6
a(I360
S'start_time     : 1500306874\nlast_update    : 1500307234\nfuzzer_pid     : 4844\ncycles_done    : 8\nexecs_done     : 373758\nexecs_per_sec  : 1044.28\npaths_total    : 5\npaths_favored  : 5\npaths_found    : 4\npaths_imported : 0\nmax_depth      : 2\ncur_path       : 1\npending_favs   : 0\npending_total  : 0\nvariable_paths : 0\nbitmap_cvg     : 0.10%\nunique_crashes : 0\nunique_hangs   : 0\nlast_path      : 1500306878\nlast_crash     : 0\nlast_hang      : 0\nexec_timeout   : 20\nafl_banner     : fuzzer-master\nafl_version    : 1.85b\ncommand_line   : /home/skaramcheti/.virtualenvs/afl/bin/afl-unix/afl-fuzz -i /dev/shm/work/Vector_Graphics_2/input -o /dev/shm/work/Vector_Graphics_2/sync -m 4G -Q -M fuzzer-master -x /dev/shm/work/Vector_Graphics_2/Vector_Graphics_2.dict -- data/linux/processed-challenges/Vector_Graphics_2/bin/Vector_Graphics_2\n'
p7
I0
tp8
a(I480
S'start_time     : 1500306874\nlast_update    : 1500307354\nfuzzer_pid     : 4844\ncycles_done    : 10\nexecs_done     : 498658\nexecs_per_sec  : 1040.77\npaths_total    : 5\npaths_favored  : 5\npaths_found    : 4\npaths_imported : 0\nmax_depth      : 2\ncur_path       : 4\npending_favs   : 0\npending_total  : 0\nvariable_paths : 0\nbitmap_cvg     : 0.10%\nunique_crashes : 0\nunique_hangs   : 0\nlast_path      : 1500306878\nlast_crash     : 0\nlast_hang      : 0\nexec_timeout   : 20\nafl_banner     : fuzzer-master\nafl_version    : 1.85b\ncommand_line   : /home/skaramcheti/.virtualenvs/afl/bin/afl-unix/afl-fuzz -i /dev/shm/work/Vector_Graphics_2/input -o /dev/shm/work/Vector_Graphics_2/sync -m 4G -Q -M fuzzer-master -x /dev/shm/work/Vector_Graphics_2/Vector_Graphics_2.dict -- data/linux/processed-challenges/Vector_Graphics_2/bin/Vector_Graphics_2\n'
p9
I0
tp10
a(I600
S'start_time     : 1500306874\nlast_update    : 1500307475\nfuzzer_pid     : 4844\ncycles_done    : 13\nexecs_done     : 622878\nexecs_per_sec  : 1016.46\npaths_total    : 5\npaths_favored  : 5\npaths_found    : 4\npaths_imported : 0\nmax_depth      : 2\ncur_path       : 3\npending_favs   : 0\npending_total  : 0\nvariable_paths : 0\nbitmap_cvg     : 0.10%\nunique_crashes : 0\nunique_hangs   : 0\nlast_path      : 1500306878\nlast_crash     : 0\nlast_hang      : 0\nexec_timeout   : 20\nafl_banner     : fuzzer-master\nafl_version    : 1.85b\ncommand_line   : /home/skaramcheti/.virtualenvs/afl/bin/afl-unix/afl-fuzz -i /dev/shm/work/Vector_Graphics_2/input -o /dev/shm/work/Vector_Graphics_2/sync -m 4G -Q -M fuzzer-master -x /dev/shm/work/Vector_Graphics_2/Vector_Graphics_2.dict -- data/linux/processed-challenges/Vector_Graphics_2/bin/Vector_Graphics_2\n'
p11
I0
tp12
a(I720
S'start_time     : 1500306874\nlast_update    : 1500307595\nfuzzer_pid     : 4844\ncycles_done    : 16\nexecs_done     : 747058\nexecs_per_sec  : 1032.26\npaths_total    : 5\npaths_favored  : 5\npaths_found    : 4\npaths_imported : 0\nmax_depth      : 2\ncur_path       : 1\npending_favs   : 0\npending_total  : 0\nvariable_paths : 0\nbitmap_cvg     : 0.10%\nunique_crashes : 0\nunique_hangs   : 0\nlast_path      : 1500306878\nlast_crash     : 0\nlast_hang      : 0\nexec_timeout   : 20\nafl_banner     : fuzzer-master\nafl_version    : 1.85b\ncommand_line   : /home/skaramcheti/.virtualenvs/afl/bin/afl-unix/afl-fuzz -i /dev/shm/work/Vector_Graphics_2/input -o /dev/shm/work/Vector_Graphics_2/sync -m 4G -Q -M fuzzer-master -x /dev/shm/work/Vector_Graphics_2/Vector_Graphics_2.dict -- data/linux/processed-challenges/Vector_Graphics_2/bin/Vector_Graphics_2\n'
p13
I0
tp14
a(I840
S'start_time     : 1500306874\nlast_update    : 1500307715\nfuzzer_pid     : 4844\ncycles_done    : 18\nexecs_done     : 871118\nexecs_per_sec  : 998.93\npaths_total    : 5\npaths_favored  : 5\npaths_found    : 4\npaths_imported : 0\nmax_depth      : 2\ncur_path       : 4\npending_favs   : 0\npending_total  : 0\nvariable_paths : 0\nbitmap_cvg     : 0.10%\nunique_crashes : 0\nunique_hangs   : 0\nlast_path      : 1500306878\nlast_crash     : 0\nlast_hang      : 0\nexec_timeout   : 20\nafl_banner     : fuzzer-master\nafl_version    : 1.85b\ncommand_line   : /home/skaramcheti/.virtualenvs/afl/bin/afl-unix/afl-fuzz -i /dev/shm/work/Vector_Graphics_2/input -o /dev/shm/work/Vector_Graphics_2/sync -m 4G -Q -M fuzzer-master -x /dev/shm/work/Vector_Graphics_2/Vector_Graphics_2.dict -- data/linux/processed-challenges/Vector_Graphics_2/bin/Vector_Graphics_2\n'
p15
I0
tp16
a(I960
S'start_time     : 1500306874\nlast_update    : 1500307835\nfuzzer_pid     : 4844\ncycles_done    : 21\nexecs_done     : 994818\nexecs_per_sec  : 1003.05\npaths_total    : 5\npaths_favored  : 5\npaths_found    : 4\npaths_imported : 0\nmax_depth      : 2\ncur_path       : 2\npending_favs   : 0\npending_total  : 0\nvariable_paths : 0\nbitmap_cvg     : 0.10%\nunique_crashes : 0\nunique_hangs   : 0\nlast_path      : 1500306878\nlast_crash     : 0\nlast_hang      : 0\nexec_timeout   : 20\nafl_banner     : fuzzer-master\nafl_version    : 1.85b\ncommand_line   : /home/skaramcheti/.virtualenvs/afl/bin/afl-unix/afl-fuzz -i /dev/shm/work/Vector_Graphics_2/input -o /dev/shm/work/Vector_Graphics_2/sync -m 4G -Q -M fuzzer-master -x /dev/shm/work/Vector_Graphics_2/Vector_Graphics_2.dict -- data/linux/processed-challenges/Vector_Graphics_2/bin/Vector_Graphics_2\n'
p17
I0
tp18
a(I1080
S'start_time     : 1500306874\nlast_update    : 1500307956\nfuzzer_pid     : 4844\ncycles_done    : 24\nexecs_done     : 1118338\nexecs_per_sec  : 1045.46\npaths_total    : 5\npaths_favored  : 5\npaths_found    : 4\npaths_imported : 0\nmax_depth      : 2\ncur_path       : 0\npending_favs   : 0\npending_total  : 0\nvariable_paths : 0\nbitmap_cvg     : 0.10%\nunique_crashes : 0\nunique_hangs   : 0\nlast_path      : 1500306878\nlast_crash     : 0\nlast_hang      : 0\nexec_timeout   : 20\nafl_banner     : fuzzer-master\nafl_version    : 1.85b\ncommand_line   : /home/skaramcheti/.virtualenvs/afl/bin/afl-unix/afl-fuzz -i /dev/shm/work/Vector_Graphics_2/input -o /dev/shm/work/Vector_Graphics_2/sync -m 4G -Q -M fuzzer-master -x /dev/shm/work/Vector_Graphics_2/Vector_Graphics_2.dict -- data/linux/processed-challenges/Vector_Graphics_2/bin/Vector_Graphics_2\n'
p19
I0
tp20
a(I1200
S'start_time     : 1500306874\nlast_update    : 1500308076\nfuzzer_pid     : 4844\ncycles_done    : 26\nexecs_done     : 1243218\nexecs_per_sec  : 1041.90\npaths_total    : 5\npaths_favored  : 5\npaths_found    : 4\npaths_imported : 0\nmax_depth      : 2\ncur_path       : 4\npending_favs   : 0\npending_total  : 0\nvariable_paths : 0\nbitmap_cvg     : 0.10%\nunique_crashes : 0\nunique_hangs   : 0\nlast_path      : 1500306878\nlast_crash     : 0\nlast_hang      : 0\nexec_timeout   : 20\nafl_banner     : fuzzer-master\nafl_version    : 1.85b\ncommand_line   : /home/skaramcheti/.virtualenvs/afl/bin/afl-unix/afl-fuzz -i /dev/shm/work/Vector_Graphics_2/input -o /dev/shm/work/Vector_Graphics_2/sync -m 4G -Q -M fuzzer-master -x /dev/shm/work/Vector_Graphics_2/Vector_Graphics_2.dict -- data/linux/processed-challenges/Vector_Graphics_2/bin/Vector_Graphics_2\n'
p21
I0
tp22
a(I1320
S'start_time     : 1500306874\nlast_update    : 1500308196\nfuzzer_pid     : 4844\ncycles_done    : 29\nexecs_done     : 1366678\nexecs_per_sec  : 1041.94\npaths_total    : 5\npaths_favored  : 5\npaths_found    : 4\npaths_imported : 0\nmax_depth      : 2\ncur_path       : 2\npending_favs   : 0\npending_total  : 0\nvariable_paths : 0\nbitmap_cvg     : 0.10%\nunique_crashes : 0\nunique_hangs   : 0\nlast_path      : 1500306878\nlast_crash     : 0\nlast_hang      : 0\nexec_timeout   : 20\nafl_banner     : fuzzer-master\nafl_version    : 1.85b\ncommand_line   : /home/skaramcheti/.virtualenvs/afl/bin/afl-unix/afl-fuzz -i /dev/shm/work/Vector_Graphics_2/input -o /dev/shm/work/Vector_Graphics_2/sync -m 4G -Q -M fuzzer-master -x /dev/shm/work/Vector_Graphics_2/Vector_Graphics_2.dict -- data/linux/processed-challenges/Vector_Graphics_2/bin/Vector_Graphics_2\n'
p23
I0
tp24
a(I1440
S'start_time     : 1500306874\nlast_update    : 1500308316\nfuzzer_pid     : 4844\ncycles_done    : 32\nexecs_done     : 1491465\nexecs_per_sec  : 1058.49\npaths_total    : 5\npaths_favored  : 5\npaths_found    : 4\npaths_imported : 0\nmax_depth      : 2\ncur_path       : 0\npending_favs   : 0\npending_total  : 0\nvariable_paths : 0\nbitmap_cvg     : 0.10%\nunique_crashes : 0\nunique_hangs   : 0\nlast_path      : 1500306878\nlast_crash     : 0\nlast_hang      : 0\nexec_timeout   : 20\nafl_banner     : fuzzer-master\nafl_version    : 1.85b\ncommand_line   : /home/skaramcheti/.virtualenvs/afl/bin/afl-unix/afl-fuzz -i /dev/shm/work/Vector_Graphics_2/input -o /dev/shm/work/Vector_Graphics_2/sync -m 4G -Q -M fuzzer-master -x /dev/shm/work/Vector_Graphics_2/Vector_Graphics_2.dict -- data/linux/processed-challenges/Vector_Graphics_2/bin/Vector_Graphics_2\n'
p25
I0
tp26
a(I1560
S'start_time     : 1500306874\nlast_update    : 1500308437\nfuzzer_pid     : 4844\ncycles_done    : 34\nexecs_done     : 1614618\nexecs_per_sec  : 1022.40\npaths_total    : 5\npaths_favored  : 5\npaths_found    : 4\npaths_imported : 0\nmax_depth      : 2\ncur_path       : 3\npending_favs   : 0\npending_total  : 0\nvariable_paths : 0\nbitmap_cvg     : 0.10%\nunique_crashes : 0\nunique_hangs   : 0\nlast_path      : 1500306878\nlast_crash     : 0\nlast_hang      : 0\nexec_timeout   : 20\nafl_banner     : fuzzer-master\nafl_version    : 1.85b\ncommand_line   : /home/skaramcheti/.virtualenvs/afl/bin/afl-unix/afl-fuzz -i /dev/shm/work/Vector_Graphics_2/input -o /dev/shm/work/Vector_Graphics_2/sync -m 4G -Q -M fuzzer-master -x /dev/shm/work/Vector_Graphics_2/Vector_Graphics_2.dict -- data/linux/processed-challenges/Vector_Graphics_2/bin/Vector_Graphics_2\n'
p27
I0
tp28
a(I1680
S'start_time     : 1500306874\nlast_update    : 1500308557\nfuzzer_pid     : 4844\ncycles_done    : 37\nexecs_done     : 1738558\nexecs_per_sec  : 1021.93\npaths_total    : 5\npaths_favored  : 5\npaths_found    : 4\npaths_imported : 0\nmax_depth      : 2\ncur_path       : 2\npending_favs   : 0\npending_total  : 0\nvariable_paths : 0\nbitmap_cvg     : 0.10%\nunique_crashes : 0\nunique_hangs   : 1\nlast_path      : 1500306878\nlast_crash     : 0\nlast_hang      : 1500308469\nexec_timeout   : 20\nafl_banner     : fuzzer-master\nafl_version    : 1.85b\ncommand_line   : /home/skaramcheti/.virtualenvs/afl/bin/afl-unix/afl-fuzz -i /dev/shm/work/Vector_Graphics_2/input -o /dev/shm/work/Vector_Graphics_2/sync -m 4G -Q -M fuzzer-master -x /dev/shm/work/Vector_Graphics_2/Vector_Graphics_2.dict -- data/linux/processed-challenges/Vector_Graphics_2/bin/Vector_Graphics_2\n'
p29
I0
tp30
a(I1800
S'start_time     : 1500306874\nlast_update    : 1500308677\nfuzzer_pid     : 4844\ncycles_done    : 39\nexecs_done     : 1861059\nexecs_per_sec  : 996.33\npaths_total    : 5\npaths_favored  : 5\npaths_found    : 4\npaths_imported : 0\nmax_depth      : 2\ncur_path       : 4\npending_favs   : 0\npending_total  : 0\nvariable_paths : 0\nbitmap_cvg     : 0.10%\nunique_crashes : 0\nunique_hangs   : 1\nlast_path      : 1500306878\nlast_crash     : 0\nlast_hang      : 1500308469\nexec_timeout   : 20\nafl_banner     : fuzzer-master\nafl_version    : 1.85b\ncommand_line   : /home/skaramcheti/.virtualenvs/afl/bin/afl-unix/afl-fuzz -i /dev/shm/work/Vector_Graphics_2/input -o /dev/shm/work/Vector_Graphics_2/sync -m 4G -Q -M fuzzer-master -x /dev/shm/work/Vector_Graphics_2/Vector_Graphics_2.dict -- data/linux/processed-challenges/Vector_Graphics_2/bin/Vector_Graphics_2\n'
p31
I0
tp32
a(I1920
S'start_time     : 1500306874\nlast_update    : 1500308797\nfuzzer_pid     : 4844\ncycles_done    : 42\nexecs_done     : 1984318\nexecs_per_sec  : 1019.08\npaths_total    : 5\npaths_favored  : 5\npaths_found    : 4\npaths_imported : 0\nmax_depth      : 2\ncur_path       : 2\npending_favs   : 0\npending_total  : 0\nvariable_paths : 0\nbitmap_cvg     : 0.10%\nunique_crashes : 0\nunique_hangs   : 1\nlast_path      : 1500306878\nlast_crash     : 0\nlast_hang      : 1500308469\nexec_timeout   : 20\nafl_banner     : fuzzer-master\nafl_version    : 1.85b\ncommand_line   : /home/skaramcheti/.virtualenvs/afl/bin/afl-unix/afl-fuzz -i /dev/shm/work/Vector_Graphics_2/input -o /dev/shm/work/Vector_Graphics_2/sync -m 4G -Q -M fuzzer-master -x /dev/shm/work/Vector_Graphics_2/Vector_Graphics_2.dict -- data/linux/processed-challenges/Vector_Graphics_2/bin/Vector_Graphics_2\n'
p33
I0
tp34
a(I2040
S'start_time     : 1500306874\nlast_update    : 1500308917\nfuzzer_pid     : 4844\ncycles_done    : 45\nexecs_done     : 2107218\nexecs_per_sec  : 1013.85\npaths_total    : 5\npaths_favored  : 5\npaths_found    : 4\npaths_imported : 0\nmax_depth      : 2\ncur_path       : 1\npending_favs   : 0\npending_total  : 0\nvariable_paths : 0\nbitmap_cvg     : 0.10%\nunique_crashes : 0\nunique_hangs   : 1\nlast_path      : 1500306878\nlast_crash     : 0\nlast_hang      : 1500308469\nexec_timeout   : 20\nafl_banner     : fuzzer-master\nafl_version    : 1.85b\ncommand_line   : /home/skaramcheti/.virtualenvs/afl/bin/afl-unix/afl-fuzz -i /dev/shm/work/Vector_Graphics_2/input -o /dev/shm/work/Vector_Graphics_2/sync -m 4G -Q -M fuzzer-master -x /dev/shm/work/Vector_Graphics_2/Vector_Graphics_2.dict -- data/linux/processed-challenges/Vector_Graphics_2/bin/Vector_Graphics_2\n'
p35
I0
tp36
a(I2160
S'start_time     : 1500306874\nlast_update    : 1500309038\nfuzzer_pid     : 4844\ncycles_done    : 47\nexecs_done     : 2230398\nexecs_per_sec  : 1025.57\npaths_total    : 5\npaths_favored  : 5\npaths_found    : 4\npaths_imported : 0\nmax_depth      : 2\ncur_path       : 4\npending_favs   : 0\npending_total  : 0\nvariable_paths : 0\nbitmap_cvg     : 0.10%\nunique_crashes : 0\nunique_hangs   : 1\nlast_path      : 1500306878\nlast_crash     : 0\nlast_hang      : 1500308469\nexec_timeout   : 20\nafl_banner     : fuzzer-master\nafl_version    : 1.85b\ncommand_line   : /home/skaramcheti/.virtualenvs/afl/bin/afl-unix/afl-fuzz -i /dev/shm/work/Vector_Graphics_2/input -o /dev/shm/work/Vector_Graphics_2/sync -m 4G -Q -M fuzzer-master -x /dev/shm/work/Vector_Graphics_2/Vector_Graphics_2.dict -- data/linux/processed-challenges/Vector_Graphics_2/bin/Vector_Graphics_2\n'
p37
I0
tp38
a(I2280
S'start_time     : 1500306874\nlast_update    : 1500309158\nfuzzer_pid     : 4844\ncycles_done    : 50\nexecs_done     : 2355198\nexecs_per_sec  : 1047.55\npaths_total    : 5\npaths_favored  : 5\npaths_found    : 4\npaths_imported : 0\nmax_depth      : 2\ncur_path       : 2\npending_favs   : 0\npending_total  : 0\nvariable_paths : 0\nbitmap_cvg     : 0.10%\nunique_crashes : 0\nunique_hangs   : 1\nlast_path      : 1500306878\nlast_crash     : 0\nlast_hang      : 1500308469\nexec_timeout   : 20\nafl_banner     : fuzzer-master\nafl_version    : 1.85b\ncommand_line   : /home/skaramcheti/.virtualenvs/afl/bin/afl-unix/afl-fuzz -i /dev/shm/work/Vector_Graphics_2/input -o /dev/shm/work/Vector_Graphics_2/sync -m 4G -Q -M fuzzer-master -x /dev/shm/work/Vector_Graphics_2/Vector_Graphics_2.dict -- data/linux/processed-challenges/Vector_Graphics_2/bin/Vector_Graphics_2\n'
p39
I0
tp40
a(I2400
S'start_time     : 1500306874\nlast_update    : 1500309278\nfuzzer_pid     : 4844\ncycles_done    : 53\nexecs_done     : 2478376\nexecs_per_sec  : 976.30\npaths_total    : 5\npaths_favored  : 5\npaths_found    : 4\npaths_imported : 0\nmax_depth      : 2\ncur_path       : 0\npending_favs   : 0\npending_total  : 0\nvariable_paths : 0\nbitmap_cvg     : 0.10%\nunique_crashes : 0\nunique_hangs   : 1\nlast_path      : 1500306878\nlast_crash     : 0\nlast_hang      : 1500308469\nexec_timeout   : 20\nafl_banner     : fuzzer-master\nafl_version    : 1.85b\ncommand_line   : /home/skaramcheti/.virtualenvs/afl/bin/afl-unix/afl-fuzz -i /dev/shm/work/Vector_Graphics_2/input -o /dev/shm/work/Vector_Graphics_2/sync -m 4G -Q -M fuzzer-master -x /dev/shm/work/Vector_Graphics_2/Vector_Graphics_2.dict -- data/linux/processed-challenges/Vector_Graphics_2/bin/Vector_Graphics_2\n'
p41
I0
tp42
a(I2520
S'start_time     : 1500306874\nlast_update    : 1500309398\nfuzzer_pid     : 4844\ncycles_done    : 55\nexecs_done     : 2601576\nexecs_per_sec  : 1055.71\npaths_total    : 5\npaths_favored  : 5\npaths_found    : 4\npaths_imported : 0\nmax_depth      : 2\ncur_path       : 2\npending_favs   : 0\npending_total  : 0\nvariable_paths : 0\nbitmap_cvg     : 0.10%\nunique_crashes : 0\nunique_hangs   : 1\nlast_path      : 1500306878\nlast_crash     : 0\nlast_hang      : 1500308469\nexec_timeout   : 20\nafl_banner     : fuzzer-master\nafl_version    : 1.85b\ncommand_line   : /home/skaramcheti/.virtualenvs/afl/bin/afl-unix/afl-fuzz -i /dev/shm/work/Vector_Graphics_2/input -o /dev/shm/work/Vector_Graphics_2/sync -m 4G -Q -M fuzzer-master -x /dev/shm/work/Vector_Graphics_2/Vector_Graphics_2.dict -- data/linux/processed-challenges/Vector_Graphics_2/bin/Vector_Graphics_2\n'
p43
I0
tp44
a(I2640
S'start_time     : 1500306874\nlast_update    : 1500309519\nfuzzer_pid     : 4844\ncycles_done    : 58\nexecs_done     : 2725858\nexecs_per_sec  : 1044.07\npaths_total    : 5\npaths_favored  : 5\npaths_found    : 4\npaths_imported : 0\nmax_depth      : 2\ncur_path       : 1\npending_favs   : 0\npending_total  : 0\nvariable_paths : 0\nbitmap_cvg     : 0.10%\nunique_crashes : 0\nunique_hangs   : 1\nlast_path      : 1500306878\nlast_crash     : 0\nlast_hang      : 1500308469\nexec_timeout   : 20\nafl_banner     : fuzzer-master\nafl_version    : 1.85b\ncommand_line   : /home/skaramcheti/.virtualenvs/afl/bin/afl-unix/afl-fuzz -i /dev/shm/work/Vector_Graphics_2/input -o /dev/shm/work/Vector_Graphics_2/sync -m 4G -Q -M fuzzer-master -x /dev/shm/work/Vector_Graphics_2/Vector_Graphics_2.dict -- data/linux/processed-challenges/Vector_Graphics_2/bin/Vector_Graphics_2\n'
p45
I0
tp46
a(I2760
S'start_time     : 1500306874\nlast_update    : 1500309639\nfuzzer_pid     : 4844\ncycles_done    : 60\nexecs_done     : 2847278\nexecs_per_sec  : 1004.26\npaths_total    : 5\npaths_favored  : 5\npaths_found    : 4\npaths_imported : 0\nmax_depth      : 2\ncur_path       : 4\npending_favs   : 0\npending_total  : 0\nvariable_paths : 0\nbitmap_cvg     : 0.10%\nunique_crashes : 0\nunique_hangs   : 1\nlast_path      : 1500306878\nlast_crash     : 0\nlast_hang      : 1500308469\nexec_timeout   : 20\nafl_banner     : fuzzer-master\nafl_version    : 1.85b\ncommand_line   : /home/skaramcheti/.virtualenvs/afl/bin/afl-unix/afl-fuzz -i /dev/shm/work/Vector_Graphics_2/input -o /dev/shm/work/Vector_Graphics_2/sync -m 4G -Q -M fuzzer-master -x /dev/shm/work/Vector_Graphics_2/Vector_Graphics_2.dict -- data/linux/processed-challenges/Vector_Graphics_2/bin/Vector_Graphics_2\n'
p47
I0
tp48
a(I2880
S'start_time     : 1500306874\nlast_update    : 1500309759\nfuzzer_pid     : 4844\ncycles_done    : 63\nexecs_done     : 2970518\nexecs_per_sec  : 1025.44\npaths_total    : 5\npaths_favored  : 5\npaths_found    : 4\npaths_imported : 0\nmax_depth      : 2\ncur_path       : 2\npending_favs   : 0\npending_total  : 0\nvariable_paths : 0\nbitmap_cvg     : 0.10%\nunique_crashes : 0\nunique_hangs   : 1\nlast_path      : 1500306878\nlast_crash     : 0\nlast_hang      : 1500308469\nexec_timeout   : 20\nafl_banner     : fuzzer-master\nafl_version    : 1.85b\ncommand_line   : /home/skaramcheti/.virtualenvs/afl/bin/afl-unix/afl-fuzz -i /dev/shm/work/Vector_Graphics_2/input -o /dev/shm/work/Vector_Graphics_2/sync -m 4G -Q -M fuzzer-master -x /dev/shm/work/Vector_Graphics_2/Vector_Graphics_2.dict -- data/linux/processed-challenges/Vector_Graphics_2/bin/Vector_Graphics_2\n'
p49
I0
tp50
a(I3000
S'start_time     : 1500306874\nlast_update    : 1500309879\nfuzzer_pid     : 4844\ncycles_done    : 65\nexecs_done     : 3092654\nexecs_per_sec  : 999.34\npaths_total    : 5\npaths_favored  : 5\npaths_found    : 4\npaths_imported : 0\nmax_depth      : 2\ncur_path       : 4\npending_favs   : 0\npending_total  : 0\nvariable_paths : 0\nbitmap_cvg     : 0.10%\nunique_crashes : 0\nunique_hangs   : 1\nlast_path      : 1500306878\nlast_crash     : 0\nlast_hang      : 1500308469\nexec_timeout   : 20\nafl_banner     : fuzzer-master\nafl_version    : 1.85b\ncommand_line   : /home/skaramcheti/.virtualenvs/afl/bin/afl-unix/afl-fuzz -i /dev/shm/work/Vector_Graphics_2/input -o /dev/shm/work/Vector_Graphics_2/sync -m 4G -Q -M fuzzer-master -x /dev/shm/work/Vector_Graphics_2/Vector_Graphics_2.dict -- data/linux/processed-challenges/Vector_Graphics_2/bin/Vector_Graphics_2\n'
p51
I0
tp52
a(I3120
S'start_time     : 1500306874\nlast_update    : 1500309999\nfuzzer_pid     : 4844\ncycles_done    : 68\nexecs_done     : 3214518\nexecs_per_sec  : 1020.75\npaths_total    : 5\npaths_favored  : 5\npaths_found    : 4\npaths_imported : 0\nmax_depth      : 2\ncur_path       : 2\npending_favs   : 0\npending_total  : 0\nvariable_paths : 0\nbitmap_cvg     : 0.10%\nunique_crashes : 0\nunique_hangs   : 1\nlast_path      : 1500306878\nlast_crash     : 0\nlast_hang      : 1500308469\nexec_timeout   : 20\nafl_banner     : fuzzer-master\nafl_version    : 1.85b\ncommand_line   : /home/skaramcheti/.virtualenvs/afl/bin/afl-unix/afl-fuzz -i /dev/shm/work/Vector_Graphics_2/input -o /dev/shm/work/Vector_Graphics_2/sync -m 4G -Q -M fuzzer-master -x /dev/shm/work/Vector_Graphics_2/Vector_Graphics_2.dict -- data/linux/processed-challenges/Vector_Graphics_2/bin/Vector_Graphics_2\n'
p53
I0
tp54
a(I3240
S'start_time     : 1500306874\nlast_update    : 1500310119\nfuzzer_pid     : 4844\ncycles_done    : 71\nexecs_done     : 3336611\nexecs_per_sec  : 1002.41\npaths_total    : 5\npaths_favored  : 5\npaths_found    : 4\npaths_imported : 0\nmax_depth      : 2\ncur_path       : 0\npending_favs   : 0\npending_total  : 0\nvariable_paths : 0\nbitmap_cvg     : 0.10%\nunique_crashes : 0\nunique_hangs   : 1\nlast_path      : 1500306878\nlast_crash     : 0\nlast_hang      : 1500308469\nexec_timeout   : 20\nafl_banner     : fuzzer-master\nafl_version    : 1.85b\ncommand_line   : /home/skaramcheti/.virtualenvs/afl/bin/afl-unix/afl-fuzz -i /dev/shm/work/Vector_Graphics_2/input -o /dev/shm/work/Vector_Graphics_2/sync -m 4G -Q -M fuzzer-master -x /dev/shm/work/Vector_Graphics_2/Vector_Graphics_2.dict -- data/linux/processed-challenges/Vector_Graphics_2/bin/Vector_Graphics_2\n'
p55
I0
tp56
a(I3360
S'start_time     : 1500306874\nlast_update    : 1500310240\nfuzzer_pid     : 4844\ncycles_done    : 73\nexecs_done     : 3459398\nexecs_per_sec  : 1033.41\npaths_total    : 5\npaths_favored  : 5\npaths_found    : 4\npaths_imported : 0\nmax_depth      : 2\ncur_path       : 3\npending_favs   : 0\npending_total  : 0\nvariable_paths : 0\nbitmap_cvg     : 0.10%\nunique_crashes : 0\nunique_hangs   : 1\nlast_path      : 1500306878\nlast_crash     : 0\nlast_hang      : 1500308469\nexec_timeout   : 20\nafl_banner     : fuzzer-master\nafl_version    : 1.85b\ncommand_line   : /home/skaramcheti/.virtualenvs/afl/bin/afl-unix/afl-fuzz -i /dev/shm/work/Vector_Graphics_2/input -o /dev/shm/work/Vector_Graphics_2/sync -m 4G -Q -M fuzzer-master -x /dev/shm/work/Vector_Graphics_2/Vector_Graphics_2.dict -- data/linux/processed-challenges/Vector_Graphics_2/bin/Vector_Graphics_2\n'
p57
I0
tp58
a(I3480
S'start_time     : 1500306874\nlast_update    : 1500310360\nfuzzer_pid     : 4844\ncycles_done    : 76\nexecs_done     : 3583618\nexecs_per_sec  : 1029.34\npaths_total    : 5\npaths_favored  : 5\npaths_found    : 4\npaths_imported : 0\nmax_depth      : 2\ncur_path       : 1\npending_favs   : 0\npending_total  : 0\nvariable_paths : 0\nbitmap_cvg     : 0.10%\nunique_crashes : 0\nunique_hangs   : 1\nlast_path      : 1500306878\nlast_crash     : 0\nlast_hang      : 1500308469\nexec_timeout   : 20\nafl_banner     : fuzzer-master\nafl_version    : 1.85b\ncommand_line   : /home/skaramcheti/.virtualenvs/afl/bin/afl-unix/afl-fuzz -i /dev/shm/work/Vector_Graphics_2/input -o /dev/shm/work/Vector_Graphics_2/sync -m 4G -Q -M fuzzer-master -x /dev/shm/work/Vector_Graphics_2/Vector_Graphics_2.dict -- data/linux/processed-challenges/Vector_Graphics_2/bin/Vector_Graphics_2\n'
p59
I0
tp60
a(I3600
S'start_time     : 1500306874\nlast_update    : 1500310480\nfuzzer_pid     : 4844\ncycles_done    : 78\nexecs_done     : 3706318\nexecs_per_sec  : 1021.30\npaths_total    : 5\npaths_favored  : 5\npaths_found    : 4\npaths_imported : 0\nmax_depth      : 2\ncur_path       : 4\npending_favs   : 0\npending_total  : 0\nvariable_paths : 0\nbitmap_cvg     : 0.10%\nunique_crashes : 0\nunique_hangs   : 1\nlast_path      : 1500306878\nlast_crash     : 0\nlast_hang      : 1500308469\nexec_timeout   : 20\nafl_banner     : fuzzer-master\nafl_version    : 1.85b\ncommand_line   : /home/skaramcheti/.virtualenvs/afl/bin/afl-unix/afl-fuzz -i /dev/shm/work/Vector_Graphics_2/input -o /dev/shm/work/Vector_Graphics_2/sync -m 4G -Q -M fuzzer-master -x /dev/shm/work/Vector_Graphics_2/Vector_Graphics_2.dict -- data/linux/processed-challenges/Vector_Graphics_2/bin/Vector_Graphics_2\n'
p61
I0
tp62
a(I3720
S'start_time     : 1500306874\nlast_update    : 1500310601\nfuzzer_pid     : 4844\ncycles_done    : 81\nexecs_done     : 3830318\nexecs_per_sec  : 1007.35\npaths_total    : 5\npaths_favored  : 5\npaths_found    : 4\npaths_imported : 0\nmax_depth      : 2\ncur_path       : 1\npending_favs   : 0\npending_total  : 0\nvariable_paths : 0\nbitmap_cvg     : 0.10%\nunique_crashes : 0\nunique_hangs   : 1\nlast_path      : 1500306878\nlast_crash     : 0\nlast_hang      : 1500308469\nexec_timeout   : 20\nafl_banner     : fuzzer-master\nafl_version    : 1.85b\ncommand_line   : /home/skaramcheti/.virtualenvs/afl/bin/afl-unix/afl-fuzz -i /dev/shm/work/Vector_Graphics_2/input -o /dev/shm/work/Vector_Graphics_2/sync -m 4G -Q -M fuzzer-master -x /dev/shm/work/Vector_Graphics_2/Vector_Graphics_2.dict -- data/linux/processed-challenges/Vector_Graphics_2/bin/Vector_Graphics_2\n'
p63
I0
tp64
a(I3840
S'start_time     : 1500306874\nlast_update    : 1500310721\nfuzzer_pid     : 4844\ncycles_done    : 83\nexecs_done     : 3953697\nexecs_per_sec  : 1022.43\npaths_total    : 5\npaths_favored  : 5\npaths_found    : 4\npaths_imported : 0\nmax_depth      : 2\ncur_path       : 4\npending_favs   : 0\npending_total  : 0\nvariable_paths : 0\nbitmap_cvg     : 0.10%\nunique_crashes : 0\nunique_hangs   : 1\nlast_path      : 1500306878\nlast_crash     : 0\nlast_hang      : 1500308469\nexec_timeout   : 20\nafl_banner     : fuzzer-master\nafl_version    : 1.85b\ncommand_line   : /home/skaramcheti/.virtualenvs/afl/bin/afl-unix/afl-fuzz -i /dev/shm/work/Vector_Graphics_2/input -o /dev/shm/work/Vector_Graphics_2/sync -m 4G -Q -M fuzzer-master -x /dev/shm/work/Vector_Graphics_2/Vector_Graphics_2.dict -- data/linux/processed-challenges/Vector_Graphics_2/bin/Vector_Graphics_2\n'
p65
I0
tp66
a(I3960
S'start_time     : 1500306874\nlast_update    : 1500310841\nfuzzer_pid     : 4844\ncycles_done    : 86\nexecs_done     : 4077378\nexecs_per_sec  : 1048.45\npaths_total    : 5\npaths_favored  : 5\npaths_found    : 4\npaths_imported : 0\nmax_depth      : 2\ncur_path       : 3\npending_favs   : 0\npending_total  : 0\nvariable_paths : 0\nbitmap_cvg     : 0.10%\nunique_crashes : 0\nunique_hangs   : 1\nlast_path      : 1500306878\nlast_crash     : 0\nlast_hang      : 1500308469\nexec_timeout   : 20\nafl_banner     : fuzzer-master\nafl_version    : 1.85b\ncommand_line   : /home/skaramcheti/.virtualenvs/afl/bin/afl-unix/afl-fuzz -i /dev/shm/work/Vector_Graphics_2/input -o /dev/shm/work/Vector_Graphics_2/sync -m 4G -Q -M fuzzer-master -x /dev/shm/work/Vector_Graphics_2/Vector_Graphics_2.dict -- data/linux/processed-challenges/Vector_Graphics_2/bin/Vector_Graphics_2\n'
p67
I0
tp68
a(I4080
S'start_time     : 1500306874\nlast_update    : 1500310961\nfuzzer_pid     : 4844\ncycles_done    : 89\nexecs_done     : 4200418\nexecs_per_sec  : 1018.19\npaths_total    : 5\npaths_favored  : 5\npaths_found    : 4\npaths_imported : 0\nmax_depth      : 2\ncur_path       : 1\npending_favs   : 0\npending_total  : 0\nvariable_paths : 0\nbitmap_cvg     : 0.10%\nunique_crashes : 0\nunique_hangs   : 1\nlast_path      : 1500306878\nlast_crash     : 0\nlast_hang      : 1500308469\nexec_timeout   : 20\nafl_banner     : fuzzer-master\nafl_version    : 1.85b\ncommand_line   : /home/skaramcheti/.virtualenvs/afl/bin/afl-unix/afl-fuzz -i /dev/shm/work/Vector_Graphics_2/input -o /dev/shm/work/Vector_Graphics_2/sync -m 4G -Q -M fuzzer-master -x /dev/shm/work/Vector_Graphics_2/Vector_Graphics_2.dict -- data/linux/processed-challenges/Vector_Graphics_2/bin/Vector_Graphics_2\n'
p69
I0
tp70
a(I4200
S'start_time     : 1500306874\nlast_update    : 1500311082\nfuzzer_pid     : 4844\ncycles_done    : 91\nexecs_done     : 4321676\nexecs_per_sec  : 1071.75\npaths_total    : 5\npaths_favored  : 5\npaths_found    : 4\npaths_imported : 0\nmax_depth      : 2\ncur_path       : 3\npending_favs   : 0\npending_total  : 0\nvariable_paths : 0\nbitmap_cvg     : 0.10%\nunique_crashes : 0\nunique_hangs   : 1\nlast_path      : 1500306878\nlast_crash     : 0\nlast_hang      : 1500308469\nexec_timeout   : 20\nafl_banner     : fuzzer-master\nafl_version    : 1.85b\ncommand_line   : /home/skaramcheti/.virtualenvs/afl/bin/afl-unix/afl-fuzz -i /dev/shm/work/Vector_Graphics_2/input -o /dev/shm/work/Vector_Graphics_2/sync -m 4G -Q -M fuzzer-master -x /dev/shm/work/Vector_Graphics_2/Vector_Graphics_2.dict -- data/linux/processed-challenges/Vector_Graphics_2/bin/Vector_Graphics_2\n'
p71
I0
tp72
a(I4320
S'start_time     : 1500306874\nlast_update    : 1500311202\nfuzzer_pid     : 4844\ncycles_done    : 94\nexecs_done     : 4446038\nexecs_per_sec  : 1017.35\npaths_total    : 5\npaths_favored  : 5\npaths_found    : 4\npaths_imported : 0\nmax_depth      : 2\ncur_path       : 1\npending_favs   : 0\npending_total  : 0\nvariable_paths : 0\nbitmap_cvg     : 0.10%\nunique_crashes : 0\nunique_hangs   : 1\nlast_path      : 1500306878\nlast_crash     : 0\nlast_hang      : 1500308469\nexec_timeout   : 20\nafl_banner     : fuzzer-master\nafl_version    : 1.85b\ncommand_line   : /home/skaramcheti/.virtualenvs/afl/bin/afl-unix/afl-fuzz -i /dev/shm/work/Vector_Graphics_2/input -o /dev/shm/work/Vector_Graphics_2/sync -m 4G -Q -M fuzzer-master -x /dev/shm/work/Vector_Graphics_2/Vector_Graphics_2.dict -- data/linux/processed-challenges/Vector_Graphics_2/bin/Vector_Graphics_2\n'
p73
I0
tp74
a(I4440
S'start_time     : 1500306874\nlast_update    : 1500311322\nfuzzer_pid     : 4844\ncycles_done    : 96\nexecs_done     : 4570839\nexecs_per_sec  : 1060.53\npaths_total    : 5\npaths_favored  : 5\npaths_found    : 4\npaths_imported : 0\nmax_depth      : 2\ncur_path       : 4\npending_favs   : 0\npending_total  : 0\nvariable_paths : 0\nbitmap_cvg     : 0.10%\nunique_crashes : 0\nunique_hangs   : 1\nlast_path      : 1500306878\nlast_crash     : 0\nlast_hang      : 1500308469\nexec_timeout   : 20\nafl_banner     : fuzzer-master\nafl_version    : 1.85b\ncommand_line   : /home/skaramcheti/.virtualenvs/afl/bin/afl-unix/afl-fuzz -i /dev/shm/work/Vector_Graphics_2/input -o /dev/shm/work/Vector_Graphics_2/sync -m 4G -Q -M fuzzer-master -x /dev/shm/work/Vector_Graphics_2/Vector_Graphics_2.dict -- data/linux/processed-challenges/Vector_Graphics_2/bin/Vector_Graphics_2\n'
p75
I0
tp76
a(I4560
S'start_time     : 1500306874\nlast_update    : 1500311442\nfuzzer_pid     : 4844\ncycles_done    : 99\nexecs_done     : 4695458\nexecs_per_sec  : 1014.26\npaths_total    : 5\npaths_favored  : 5\npaths_found    : 4\npaths_imported : 0\nmax_depth      : 2\ncur_path       : 2\npending_favs   : 0\npending_total  : 0\nvariable_paths : 0\nbitmap_cvg     : 0.10%\nunique_crashes : 0\nunique_hangs   : 1\nlast_path      : 1500306878\nlast_crash     : 0\nlast_hang      : 1500308469\nexec_timeout   : 20\nafl_banner     : fuzzer-master\nafl_version    : 1.85b\ncommand_line   : /home/skaramcheti/.virtualenvs/afl/bin/afl-unix/afl-fuzz -i /dev/shm/work/Vector_Graphics_2/input -o /dev/shm/work/Vector_Graphics_2/sync -m 4G -Q -M fuzzer-master -x /dev/shm/work/Vector_Graphics_2/Vector_Graphics_2.dict -- data/linux/processed-challenges/Vector_Graphics_2/bin/Vector_Graphics_2\n'
p77
I0
tp78
a(I4680
S'start_time     : 1500306874\nlast_update    : 1500311562\nfuzzer_pid     : 4844\ncycles_done    : 102\nexecs_done     : 4819738\nexecs_per_sec  : 1045.91\npaths_total    : 5\npaths_favored  : 5\npaths_found    : 4\npaths_imported : 0\nmax_depth      : 2\ncur_path       : 1\npending_favs   : 0\npending_total  : 0\nvariable_paths : 0\nbitmap_cvg     : 0.10%\nunique_crashes : 0\nunique_hangs   : 1\nlast_path      : 1500306878\nlast_crash     : 0\nlast_hang      : 1500308469\nexec_timeout   : 20\nafl_banner     : fuzzer-master\nafl_version    : 1.85b\ncommand_line   : /home/skaramcheti/.virtualenvs/afl/bin/afl-unix/afl-fuzz -i /dev/shm/work/Vector_Graphics_2/input -o /dev/shm/work/Vector_Graphics_2/sync -m 4G -Q -M fuzzer-master -x /dev/shm/work/Vector_Graphics_2/Vector_Graphics_2.dict -- data/linux/processed-challenges/Vector_Graphics_2/bin/Vector_Graphics_2\n'
p79
I0
tp80
a(I4800
S'start_time     : 1500306874\nlast_update    : 1500311683\nfuzzer_pid     : 4844\ncycles_done    : 104\nexecs_done     : 4945160\nexecs_per_sec  : 1061.28\npaths_total    : 5\npaths_favored  : 5\npaths_found    : 4\npaths_imported : 0\nmax_depth      : 2\ncur_path       : 4\npending_favs   : 0\npending_total  : 0\nvariable_paths : 0\nbitmap_cvg     : 0.10%\nunique_crashes : 0\nunique_hangs   : 1\nlast_path      : 1500306878\nlast_crash     : 0\nlast_hang      : 1500308469\nexec_timeout   : 20\nafl_banner     : fuzzer-master\nafl_version    : 1.85b\ncommand_line   : /home/skaramcheti/.virtualenvs/afl/bin/afl-unix/afl-fuzz -i /dev/shm/work/Vector_Graphics_2/input -o /dev/shm/work/Vector_Graphics_2/sync -m 4G -Q -M fuzzer-master -x /dev/shm/work/Vector_Graphics_2/Vector_Graphics_2.dict -- data/linux/processed-challenges/Vector_Graphics_2/bin/Vector_Graphics_2\n'
p81
I0
tp82
a(I4920
S'start_time     : 1500306874\nlast_update    : 1500311803\nfuzzer_pid     : 4844\ncycles_done    : 107\nexecs_done     : 5071281\nexecs_per_sec  : 1067.16\npaths_total    : 5\npaths_favored  : 5\npaths_found    : 4\npaths_imported : 0\nmax_depth      : 2\ncur_path       : 2\npending_favs   : 0\npending_total  : 0\nvariable_paths : 0\nbitmap_cvg     : 0.10%\nunique_crashes : 0\nunique_hangs   : 1\nlast_path      : 1500306878\nlast_crash     : 0\nlast_hang      : 1500308469\nexec_timeout   : 20\nafl_banner     : fuzzer-master\nafl_version    : 1.85b\ncommand_line   : /home/skaramcheti/.virtualenvs/afl/bin/afl-unix/afl-fuzz -i /dev/shm/work/Vector_Graphics_2/input -o /dev/shm/work/Vector_Graphics_2/sync -m 4G -Q -M fuzzer-master -x /dev/shm/work/Vector_Graphics_2/Vector_Graphics_2.dict -- data/linux/processed-challenges/Vector_Graphics_2/bin/Vector_Graphics_2\n'
p83
I0
tp84
a(I5040
S'start_time     : 1500306874\nlast_update    : 1500311923\nfuzzer_pid     : 4844\ncycles_done    : 110\nexecs_done     : 5197758\nexecs_per_sec  : 1044.87\npaths_total    : 5\npaths_favored  : 5\npaths_found    : 4\npaths_imported : 0\nmax_depth      : 2\ncur_path       : 0\npending_favs   : 0\npending_total  : 0\nvariable_paths : 0\nbitmap_cvg     : 0.10%\nunique_crashes : 0\nunique_hangs   : 1\nlast_path      : 1500306878\nlast_crash     : 0\nlast_hang      : 1500308469\nexec_timeout   : 20\nafl_banner     : fuzzer-master\nafl_version    : 1.85b\ncommand_line   : /home/skaramcheti/.virtualenvs/afl/bin/afl-unix/afl-fuzz -i /dev/shm/work/Vector_Graphics_2/input -o /dev/shm/work/Vector_Graphics_2/sync -m 4G -Q -M fuzzer-master -x /dev/shm/work/Vector_Graphics_2/Vector_Graphics_2.dict -- data/linux/processed-challenges/Vector_Graphics_2/bin/Vector_Graphics_2\n'
p85
I0
tp86
a(I5160
S'start_time     : 1500306874\nlast_update    : 1500312043\nfuzzer_pid     : 4844\ncycles_done    : 112\nexecs_done     : 5323098\nexecs_per_sec  : 1044.52\npaths_total    : 5\npaths_favored  : 5\npaths_found    : 4\npaths_imported : 0\nmax_depth      : 2\ncur_path       : 3\npending_favs   : 0\npending_total  : 0\nvariable_paths : 0\nbitmap_cvg     : 0.10%\nunique_crashes : 0\nunique_hangs   : 1\nlast_path      : 1500306878\nlast_crash     : 0\nlast_hang      : 1500308469\nexec_timeout   : 20\nafl_banner     : fuzzer-master\nafl_version    : 1.85b\ncommand_line   : /home/skaramcheti/.virtualenvs/afl/bin/afl-unix/afl-fuzz -i /dev/shm/work/Vector_Graphics_2/input -o /dev/shm/work/Vector_Graphics_2/sync -m 4G -Q -M fuzzer-master -x /dev/shm/work/Vector_Graphics_2/Vector_Graphics_2.dict -- data/linux/processed-challenges/Vector_Graphics_2/bin/Vector_Graphics_2\n'
p87
I0
tp88
a(I5280
S'start_time     : 1500306874\nlast_update    : 1500312164\nfuzzer_pid     : 4844\ncycles_done    : 115\nexecs_done     : 5448158\nexecs_per_sec  : 1042.23\npaths_total    : 5\npaths_favored  : 5\npaths_found    : 4\npaths_imported : 0\nmax_depth      : 2\ncur_path       : 1\npending_favs   : 0\npending_total  : 0\nvariable_paths : 0\nbitmap_cvg     : 0.10%\nunique_crashes : 0\nunique_hangs   : 1\nlast_path      : 1500306878\nlast_crash     : 0\nlast_hang      : 1500308469\nexec_timeout   : 20\nafl_banner     : fuzzer-master\nafl_version    : 1.85b\ncommand_line   : /home/skaramcheti/.virtualenvs/afl/bin/afl-unix/afl-fuzz -i /dev/shm/work/Vector_Graphics_2/input -o /dev/shm/work/Vector_Graphics_2/sync -m 4G -Q -M fuzzer-master -x /dev/shm/work/Vector_Graphics_2/Vector_Graphics_2.dict -- data/linux/processed-challenges/Vector_Graphics_2/bin/Vector_Graphics_2\n'
p89
I0
tp90
a(I5400
S'start_time     : 1500306874\nlast_update    : 1500312284\nfuzzer_pid     : 4844\ncycles_done    : 117\nexecs_done     : 5572438\nexecs_per_sec  : 1033.04\npaths_total    : 5\npaths_favored  : 5\npaths_found    : 4\npaths_imported : 0\nmax_depth      : 2\ncur_path       : 4\npending_favs   : 0\npending_total  : 0\nvariable_paths : 0\nbitmap_cvg     : 0.10%\nunique_crashes : 0\nunique_hangs   : 1\nlast_path      : 1500306878\nlast_crash     : 0\nlast_hang      : 1500308469\nexec_timeout   : 20\nafl_banner     : fuzzer-master\nafl_version    : 1.85b\ncommand_line   : /home/skaramcheti/.virtualenvs/afl/bin/afl-unix/afl-fuzz -i /dev/shm/work/Vector_Graphics_2/input -o /dev/shm/work/Vector_Graphics_2/sync -m 4G -Q -M fuzzer-master -x /dev/shm/work/Vector_Graphics_2/Vector_Graphics_2.dict -- data/linux/processed-challenges/Vector_Graphics_2/bin/Vector_Graphics_2\n'
p91
I0
tp92
a(I5520
S'start_time     : 1500306874\nlast_update    : 1500312404\nfuzzer_pid     : 4844\ncycles_done    : 120\nexecs_done     : 5696318\nexecs_per_sec  : 1037.99\npaths_total    : 5\npaths_favored  : 5\npaths_found    : 4\npaths_imported : 0\nmax_depth      : 2\ncur_path       : 2\npending_favs   : 0\npending_total  : 0\nvariable_paths : 0\nbitmap_cvg     : 0.10%\nunique_crashes : 0\nunique_hangs   : 1\nlast_path      : 1500306878\nlast_crash     : 0\nlast_hang      : 1500308469\nexec_timeout   : 20\nafl_banner     : fuzzer-master\nafl_version    : 1.85b\ncommand_line   : /home/skaramcheti/.virtualenvs/afl/bin/afl-unix/afl-fuzz -i /dev/shm/work/Vector_Graphics_2/input -o /dev/shm/work/Vector_Graphics_2/sync -m 4G -Q -M fuzzer-master -x /dev/shm/work/Vector_Graphics_2/Vector_Graphics_2.dict -- data/linux/processed-challenges/Vector_Graphics_2/bin/Vector_Graphics_2\n'
p93
I0
tp94
a(I5640
S'start_time     : 1500306874\nlast_update    : 1500312524\nfuzzer_pid     : 4844\ncycles_done    : 122\nexecs_done     : 5819697\nexecs_per_sec  : 991.79\npaths_total    : 5\npaths_favored  : 5\npaths_found    : 4\npaths_imported : 0\nmax_depth      : 2\ncur_path       : 4\npending_favs   : 0\npending_total  : 0\nvariable_paths : 0\nbitmap_cvg     : 0.10%\nunique_crashes : 0\nunique_hangs   : 1\nlast_path      : 1500306878\nlast_crash     : 0\nlast_hang      : 1500308469\nexec_timeout   : 20\nafl_banner     : fuzzer-master\nafl_version    : 1.85b\ncommand_line   : /home/skaramcheti/.virtualenvs/afl/bin/afl-unix/afl-fuzz -i /dev/shm/work/Vector_Graphics_2/input -o /dev/shm/work/Vector_Graphics_2/sync -m 4G -Q -M fuzzer-master -x /dev/shm/work/Vector_Graphics_2/Vector_Graphics_2.dict -- data/linux/processed-challenges/Vector_Graphics_2/bin/Vector_Graphics_2\n'
p95
I0
tp96
a(I5760
S'start_time     : 1500306874\nlast_update    : 1500312644\nfuzzer_pid     : 4844\ncycles_done    : 125\nexecs_done     : 5943578\nexecs_per_sec  : 1061.05\npaths_total    : 5\npaths_favored  : 5\npaths_found    : 4\npaths_imported : 0\nmax_depth      : 2\ncur_path       : 3\npending_favs   : 0\npending_total  : 0\nvariable_paths : 0\nbitmap_cvg     : 0.10%\nunique_crashes : 0\nunique_hangs   : 1\nlast_path      : 1500306878\nlast_crash     : 0\nlast_hang      : 1500308469\nexec_timeout   : 20\nafl_banner     : fuzzer-master\nafl_version    : 1.85b\ncommand_line   : /home/skaramcheti/.virtualenvs/afl/bin/afl-unix/afl-fuzz -i /dev/shm/work/Vector_Graphics_2/input -o /dev/shm/work/Vector_Graphics_2/sync -m 4G -Q -M fuzzer-master -x /dev/shm/work/Vector_Graphics_2/Vector_Graphics_2.dict -- data/linux/processed-challenges/Vector_Graphics_2/bin/Vector_Graphics_2\n'
p97
I0
tp98
a(I5880
S'start_time     : 1500306874\nlast_update    : 1500312765\nfuzzer_pid     : 4844\ncycles_done    : 128\nexecs_done     : 6068378\nexecs_per_sec  : 1043.15\npaths_total    : 5\npaths_favored  : 5\npaths_found    : 4\npaths_imported : 0\nmax_depth      : 2\ncur_path       : 1\npending_favs   : 0\npending_total  : 0\nvariable_paths : 0\nbitmap_cvg     : 0.10%\nunique_crashes : 0\nunique_hangs   : 1\nlast_path      : 1500306878\nlast_crash     : 0\nlast_hang      : 1500308469\nexec_timeout   : 20\nafl_banner     : fuzzer-master\nafl_version    : 1.85b\ncommand_line   : /home/skaramcheti/.virtualenvs/afl/bin/afl-unix/afl-fuzz -i /dev/shm/work/Vector_Graphics_2/input -o /dev/shm/work/Vector_Graphics_2/sync -m 4G -Q -M fuzzer-master -x /dev/shm/work/Vector_Graphics_2/Vector_Graphics_2.dict -- data/linux/processed-challenges/Vector_Graphics_2/bin/Vector_Graphics_2\n'
p99
I0
tp100
a(I6000
S'start_time     : 1500306874\nlast_update    : 1500312825\nfuzzer_pid     : 4844\ncycles_done    : 129\nexecs_done     : 6131639\nexecs_per_sec  : 1081.13\npaths_total    : 5\npaths_favored  : 5\npaths_found    : 4\npaths_imported : 0\nmax_depth      : 2\ncur_path       : 3\npending_favs   : 0\npending_total  : 0\nvariable_paths : 0\nbitmap_cvg     : 0.10%\nunique_crashes : 0\nunique_hangs   : 1\nlast_path      : 1500306878\nlast_crash     : 0\nlast_hang      : 1500308469\nexec_timeout   : 20\nafl_banner     : fuzzer-master\nafl_version    : 1.85b\ncommand_line   : /home/skaramcheti/.virtualenvs/afl/bin/afl-unix/afl-fuzz -i /dev/shm/work/Vector_Graphics_2/input -o /dev/shm/work/Vector_Graphics_2/sync -m 4G -Q -M fuzzer-master -x /dev/shm/work/Vector_Graphics_2/Vector_Graphics_2.dict -- data/linux/processed-challenges/Vector_Graphics_2/bin/Vector_Graphics_2\n'
p101
I0
tp102
a(I6120
S'start_time     : 1500306874\nlast_update    : 1500312945\nfuzzer_pid     : 4844\ncycles_done    : 132\nexecs_done     : 6257258\nexecs_per_sec  : 1024.78\npaths_total    : 5\npaths_favored  : 5\npaths_found    : 4\npaths_imported : 0\nmax_depth      : 2\ncur_path       : 1\npending_favs   : 0\npending_total  : 0\nvariable_paths : 0\nbitmap_cvg     : 0.10%\nunique_crashes : 0\nunique_hangs   : 1\nlast_path      : 1500306878\nlast_crash     : 0\nlast_hang      : 1500308469\nexec_timeout   : 20\nafl_banner     : fuzzer-master\nafl_version    : 1.85b\ncommand_line   : /home/skaramcheti/.virtualenvs/afl/bin/afl-unix/afl-fuzz -i /dev/shm/work/Vector_Graphics_2/input -o /dev/shm/work/Vector_Graphics_2/sync -m 4G -Q -M fuzzer-master -x /dev/shm/work/Vector_Graphics_2/Vector_Graphics_2.dict -- data/linux/processed-challenges/Vector_Graphics_2/bin/Vector_Graphics_2\n'
p103
I0
tp104
a(I6240
S'start_time     : 1500306874\nlast_update    : 1500313065\nfuzzer_pid     : 4844\ncycles_done    : 135\nexecs_done     : 6383038\nexecs_per_sec  : 1041.83\npaths_total    : 5\npaths_favored  : 5\npaths_found    : 4\npaths_imported : 0\nmax_depth      : 2\ncur_path       : 0\npending_favs   : 0\npending_total  : 0\nvariable_paths : 0\nbitmap_cvg     : 0.10%\nunique_crashes : 0\nunique_hangs   : 2\nlast_path      : 1500306878\nlast_crash     : 0\nlast_hang      : 1500313041\nexec_timeout   : 20\nafl_banner     : fuzzer-master\nafl_version    : 1.85b\ncommand_line   : /home/skaramcheti/.virtualenvs/afl/bin/afl-unix/afl-fuzz -i /dev/shm/work/Vector_Graphics_2/input -o /dev/shm/work/Vector_Graphics_2/sync -m 4G -Q -M fuzzer-master -x /dev/shm/work/Vector_Graphics_2/Vector_Graphics_2.dict -- data/linux/processed-challenges/Vector_Graphics_2/bin/Vector_Graphics_2\n'
p105
I0
tp106
a(I6360
S'start_time     : 1500306874\nlast_update    : 1500313186\nfuzzer_pid     : 4844\ncycles_done    : 137\nexecs_done     : 6509998\nexecs_per_sec  : 1028.36\npaths_total    : 5\npaths_favored  : 5\npaths_found    : 4\npaths_imported : 0\nmax_depth      : 2\ncur_path       : 4\npending_favs   : 0\npending_total  : 0\nvariable_paths : 0\nbitmap_cvg     : 0.10%\nunique_crashes : 0\nunique_hangs   : 2\nlast_path      : 1500306878\nlast_crash     : 0\nlast_hang      : 1500313041\nexec_timeout   : 20\nafl_banner     : fuzzer-master\nafl_version    : 1.85b\ncommand_line   : /home/skaramcheti/.virtualenvs/afl/bin/afl-unix/afl-fuzz -i /dev/shm/work/Vector_Graphics_2/input -o /dev/shm/work/Vector_Graphics_2/sync -m 4G -Q -M fuzzer-master -x /dev/shm/work/Vector_Graphics_2/Vector_Graphics_2.dict -- data/linux/processed-challenges/Vector_Graphics_2/bin/Vector_Graphics_2\n'
p107
I0
tp108
a(I6480
S'start_time     : 1500306874\nlast_update    : 1500313306\nfuzzer_pid     : 4844\ncycles_done    : 140\nexecs_done     : 6633798\nexecs_per_sec  : 1016.23\npaths_total    : 5\npaths_favored  : 5\npaths_found    : 4\npaths_imported : 0\nmax_depth      : 2\ncur_path       : 1\npending_favs   : 0\npending_total  : 0\nvariable_paths : 0\nbitmap_cvg     : 0.10%\nunique_crashes : 0\nunique_hangs   : 2\nlast_path      : 1500306878\nlast_crash     : 0\nlast_hang      : 1500313041\nexec_timeout   : 20\nafl_banner     : fuzzer-master\nafl_version    : 1.85b\ncommand_line   : /home/skaramcheti/.virtualenvs/afl/bin/afl-unix/afl-fuzz -i /dev/shm/work/Vector_Graphics_2/input -o /dev/shm/work/Vector_Graphics_2/sync -m 4G -Q -M fuzzer-master -x /dev/shm/work/Vector_Graphics_2/Vector_Graphics_2.dict -- data/linux/processed-challenges/Vector_Graphics_2/bin/Vector_Graphics_2\n'
p109
I0
tp110
a(I6600
S'start_time     : 1500306874\nlast_update    : 1500313426\nfuzzer_pid     : 4844\ncycles_done    : 142\nexecs_done     : 6757158\nexecs_per_sec  : 1031.84\npaths_total    : 5\npaths_favored  : 5\npaths_found    : 4\npaths_imported : 0\nmax_depth      : 2\ncur_path       : 4\npending_favs   : 0\npending_total  : 0\nvariable_paths : 0\nbitmap_cvg     : 0.10%\nunique_crashes : 0\nunique_hangs   : 2\nlast_path      : 1500306878\nlast_crash     : 0\nlast_hang      : 1500313041\nexec_timeout   : 20\nafl_banner     : fuzzer-master\nafl_version    : 1.85b\ncommand_line   : /home/skaramcheti/.virtualenvs/afl/bin/afl-unix/afl-fuzz -i /dev/shm/work/Vector_Graphics_2/input -o /dev/shm/work/Vector_Graphics_2/sync -m 4G -Q -M fuzzer-master -x /dev/shm/work/Vector_Graphics_2/Vector_Graphics_2.dict -- data/linux/processed-challenges/Vector_Graphics_2/bin/Vector_Graphics_2\n'
p111
I0
tp112
a(I6720
S'start_time     : 1500306874\nlast_update    : 1500313546\nfuzzer_pid     : 4844\ncycles_done    : 145\nexecs_done     : 6880658\nexecs_per_sec  : 1009.94\npaths_total    : 5\npaths_favored  : 5\npaths_found    : 4\npaths_imported : 0\nmax_depth      : 2\ncur_path       : 2\npending_favs   : 0\npending_total  : 0\nvariable_paths : 0\nbitmap_cvg     : 0.10%\nunique_crashes : 0\nunique_hangs   : 2\nlast_path      : 1500306878\nlast_crash     : 0\nlast_hang      : 1500313041\nexec_timeout   : 20\nafl_banner     : fuzzer-master\nafl_version    : 1.85b\ncommand_line   : /home/skaramcheti/.virtualenvs/afl/bin/afl-unix/afl-fuzz -i /dev/shm/work/Vector_Graphics_2/input -o /dev/shm/work/Vector_Graphics_2/sync -m 4G -Q -M fuzzer-master -x /dev/shm/work/Vector_Graphics_2/Vector_Graphics_2.dict -- data/linux/processed-challenges/Vector_Graphics_2/bin/Vector_Graphics_2\n'
p113
I0
tp114
a(I6840
S'start_time     : 1500306874\nlast_update    : 1500313666\nfuzzer_pid     : 4844\ncycles_done    : 148\nexecs_done     : 7004818\nexecs_per_sec  : 1036.85\npaths_total    : 5\npaths_favored  : 5\npaths_found    : 4\npaths_imported : 0\nmax_depth      : 2\ncur_path       : 0\npending_favs   : 0\npending_total  : 0\nvariable_paths : 0\nbitmap_cvg     : 0.10%\nunique_crashes : 0\nunique_hangs   : 2\nlast_path      : 1500306878\nlast_crash     : 0\nlast_hang      : 1500313041\nexec_timeout   : 20\nafl_banner     : fuzzer-master\nafl_version    : 1.85b\ncommand_line   : /home/skaramcheti/.virtualenvs/afl/bin/afl-unix/afl-fuzz -i /dev/shm/work/Vector_Graphics_2/input -o /dev/shm/work/Vector_Graphics_2/sync -m 4G -Q -M fuzzer-master -x /dev/shm/work/Vector_Graphics_2/Vector_Graphics_2.dict -- data/linux/processed-challenges/Vector_Graphics_2/bin/Vector_Graphics_2\n'
p115
I0
tp116
a(I6960
S'start_time     : 1500306874\nlast_update    : 1500313787\nfuzzer_pid     : 4844\ncycles_done    : 150\nexecs_done     : 7131168\nexecs_per_sec  : 1062.85\npaths_total    : 5\npaths_favored  : 5\npaths_found    : 4\npaths_imported : 0\nmax_depth      : 2\ncur_path       : 4\npending_favs   : 0\npending_total  : 0\nvariable_paths : 0\nbitmap_cvg     : 0.10%\nunique_crashes : 0\nunique_hangs   : 2\nlast_path      : 1500306878\nlast_crash     : 0\nlast_hang      : 1500313041\nexec_timeout   : 20\nafl_banner     : fuzzer-master\nafl_version    : 1.85b\ncommand_line   : /home/skaramcheti/.virtualenvs/afl/bin/afl-unix/afl-fuzz -i /dev/shm/work/Vector_Graphics_2/input -o /dev/shm/work/Vector_Graphics_2/sync -m 4G -Q -M fuzzer-master -x /dev/shm/work/Vector_Graphics_2/Vector_Graphics_2.dict -- data/linux/processed-challenges/Vector_Graphics_2/bin/Vector_Graphics_2\n'
p117
I0
tp118
a(I7080
S'start_time     : 1500306874\nlast_update    : 1500313907\nfuzzer_pid     : 4844\ncycles_done    : 153\nexecs_done     : 7257366\nexecs_per_sec  : 1051.28\npaths_total    : 5\npaths_favored  : 5\npaths_found    : 4\npaths_imported : 0\nmax_depth      : 2\ncur_path       : 1\npending_favs   : 0\npending_total  : 0\nvariable_paths : 0\nbitmap_cvg     : 0.10%\nunique_crashes : 0\nunique_hangs   : 2\nlast_path      : 1500306878\nlast_crash     : 0\nlast_hang      : 1500313041\nexec_timeout   : 20\nafl_banner     : fuzzer-master\nafl_version    : 1.85b\ncommand_line   : /home/skaramcheti/.virtualenvs/afl/bin/afl-unix/afl-fuzz -i /dev/shm/work/Vector_Graphics_2/input -o /dev/shm/work/Vector_Graphics_2/sync -m 4G -Q -M fuzzer-master -x /dev/shm/work/Vector_Graphics_2/Vector_Graphics_2.dict -- data/linux/processed-challenges/Vector_Graphics_2/bin/Vector_Graphics_2\n'
p119
I0
tp120
a(I7200
S'start_time     : 1500306874\nlast_update    : 1500314027\nfuzzer_pid     : 4844\ncycles_done    : 155\nexecs_done     : 7382197\nexecs_per_sec  : 1025.16\npaths_total    : 5\npaths_favored  : 5\npaths_found    : 4\npaths_imported : 0\nmax_depth      : 2\ncur_path       : 4\npending_favs   : 0\npending_total  : 0\nvariable_paths : 0\nbitmap_cvg     : 0.10%\nunique_crashes : 0\nunique_hangs   : 2\nlast_path      : 1500306878\nlast_crash     : 0\nlast_hang      : 1500313041\nexec_timeout   : 20\nafl_banner     : fuzzer-master\nafl_version    : 1.85b\ncommand_line   : /home/skaramcheti/.virtualenvs/afl/bin/afl-unix/afl-fuzz -i /dev/shm/work/Vector_Graphics_2/input -o /dev/shm/work/Vector_Graphics_2/sync -m 4G -Q -M fuzzer-master -x /dev/shm/work/Vector_Graphics_2/Vector_Graphics_2.dict -- data/linux/processed-challenges/Vector_Graphics_2/bin/Vector_Graphics_2\n'
p121
I0
tp122
a(I7320
S'start_time     : 1500306874\nlast_update    : 1500314148\nfuzzer_pid     : 4844\ncycles_done    : 158\nexecs_done     : 7507598\nexecs_per_sec  : 1044.96\npaths_total    : 5\npaths_favored  : 5\npaths_found    : 4\npaths_imported : 0\nmax_depth      : 2\ncur_path       : 3\npending_favs   : 0\npending_total  : 0\nvariable_paths : 0\nbitmap_cvg     : 0.10%\nunique_crashes : 0\nunique_hangs   : 2\nlast_path      : 1500306878\nlast_crash     : 0\nlast_hang      : 1500313041\nexec_timeout   : 20\nafl_banner     : fuzzer-master\nafl_version    : 1.85b\ncommand_line   : /home/skaramcheti/.virtualenvs/afl/bin/afl-unix/afl-fuzz -i /dev/shm/work/Vector_Graphics_2/input -o /dev/shm/work/Vector_Graphics_2/sync -m 4G -Q -M fuzzer-master -x /dev/shm/work/Vector_Graphics_2/Vector_Graphics_2.dict -- data/linux/processed-challenges/Vector_Graphics_2/bin/Vector_Graphics_2\n'
p123
I0
tp124
a(I7440
S'start_time     : 1500306874\nlast_update    : 1500314268\nfuzzer_pid     : 4844\ncycles_done    : 161\nexecs_done     : 7634366\nexecs_per_sec  : 1046.20\npaths_total    : 5\npaths_favored  : 5\npaths_found    : 4\npaths_imported : 0\nmax_depth      : 2\ncur_path       : 1\npending_favs   : 0\npending_total  : 0\nvariable_paths : 0\nbitmap_cvg     : 0.10%\nunique_crashes : 0\nunique_hangs   : 2\nlast_path      : 1500306878\nlast_crash     : 0\nlast_hang      : 1500313041\nexec_timeout   : 20\nafl_banner     : fuzzer-master\nafl_version    : 1.85b\ncommand_line   : /home/skaramcheti/.virtualenvs/afl/bin/afl-unix/afl-fuzz -i /dev/shm/work/Vector_Graphics_2/input -o /dev/shm/work/Vector_Graphics_2/sync -m 4G -Q -M fuzzer-master -x /dev/shm/work/Vector_Graphics_2/Vector_Graphics_2.dict -- data/linux/processed-challenges/Vector_Graphics_2/bin/Vector_Graphics_2\n'
p125
I0
tp126
a(I7560
S'start_time     : 1500306874\nlast_update    : 1500314388\nfuzzer_pid     : 4844\ncycles_done    : 164\nexecs_done     : 7761698\nexecs_per_sec  : 1045.01\npaths_total    : 5\npaths_favored  : 5\npaths_found    : 4\npaths_imported : 0\nmax_depth      : 2\ncur_path       : 0\npending_favs   : 0\npending_total  : 0\nvariable_paths : 0\nbitmap_cvg     : 0.10%\nunique_crashes : 0\nunique_hangs   : 2\nlast_path      : 1500306878\nlast_crash     : 0\nlast_hang      : 1500313041\nexec_timeout   : 20\nafl_banner     : fuzzer-master\nafl_version    : 1.85b\ncommand_line   : /home/skaramcheti/.virtualenvs/afl/bin/afl-unix/afl-fuzz -i /dev/shm/work/Vector_Graphics_2/input -o /dev/shm/work/Vector_Graphics_2/sync -m 4G -Q -M fuzzer-master -x /dev/shm/work/Vector_Graphics_2/Vector_Graphics_2.dict -- data/linux/processed-challenges/Vector_Graphics_2/bin/Vector_Graphics_2\n'
p127
I0
tp128
a(I7680
S'start_time     : 1500306874\nlast_update    : 1500314508\nfuzzer_pid     : 4844\ncycles_done    : 166\nexecs_done     : 7887908\nexecs_per_sec  : 1058.44\npaths_total    : 5\npaths_favored  : 5\npaths_found    : 4\npaths_imported : 0\nmax_depth      : 2\ncur_path       : 4\npending_favs   : 0\npending_total  : 0\nvariable_paths : 0\nbitmap_cvg     : 0.10%\nunique_crashes : 0\nunique_hangs   : 2\nlast_path      : 1500306878\nlast_crash     : 0\nlast_hang      : 1500313041\nexec_timeout   : 20\nafl_banner     : fuzzer-master\nafl_version    : 1.85b\ncommand_line   : /home/skaramcheti/.virtualenvs/afl/bin/afl-unix/afl-fuzz -i /dev/shm/work/Vector_Graphics_2/input -o /dev/shm/work/Vector_Graphics_2/sync -m 4G -Q -M fuzzer-master -x /dev/shm/work/Vector_Graphics_2/Vector_Graphics_2.dict -- data/linux/processed-challenges/Vector_Graphics_2/bin/Vector_Graphics_2\n'
p129
I0
tp130
a(I7800
S'start_time     : 1500306874\nlast_update    : 1500314628\nfuzzer_pid     : 4844\ncycles_done    : 169\nexecs_done     : 8014798\nexecs_per_sec  : 1035.28\npaths_total    : 5\npaths_favored  : 5\npaths_found    : 4\npaths_imported : 0\nmax_depth      : 2\ncur_path       : 1\npending_favs   : 0\npending_total  : 0\nvariable_paths : 0\nbitmap_cvg     : 0.10%\nunique_crashes : 0\nunique_hangs   : 2\nlast_path      : 1500306878\nlast_crash     : 0\nlast_hang      : 1500313041\nexec_timeout   : 20\nafl_banner     : fuzzer-master\nafl_version    : 1.85b\ncommand_line   : /home/skaramcheti/.virtualenvs/afl/bin/afl-unix/afl-fuzz -i /dev/shm/work/Vector_Graphics_2/input -o /dev/shm/work/Vector_Graphics_2/sync -m 4G -Q -M fuzzer-master -x /dev/shm/work/Vector_Graphics_2/Vector_Graphics_2.dict -- data/linux/processed-challenges/Vector_Graphics_2/bin/Vector_Graphics_2\n'
p131
I0
tp132
a(I7920
S'start_time     : 1500306874\nlast_update    : 1500314748\nfuzzer_pid     : 4844\ncycles_done    : 172\nexecs_done     : 8141055\nexecs_per_sec  : 1054.37\npaths_total    : 5\npaths_favored  : 5\npaths_found    : 4\npaths_imported : 0\nmax_depth      : 2\ncur_path       : 0\npending_favs   : 0\npending_total  : 0\nvariable_paths : 0\nbitmap_cvg     : 0.10%\nunique_crashes : 0\nunique_hangs   : 2\nlast_path      : 1500306878\nlast_crash     : 0\nlast_hang      : 1500313041\nexec_timeout   : 20\nafl_banner     : fuzzer-master\nafl_version    : 1.85b\ncommand_line   : /home/skaramcheti/.virtualenvs/afl/bin/afl-unix/afl-fuzz -i /dev/shm/work/Vector_Graphics_2/input -o /dev/shm/work/Vector_Graphics_2/sync -m 4G -Q -M fuzzer-master -x /dev/shm/work/Vector_Graphics_2/Vector_Graphics_2.dict -- data/linux/processed-challenges/Vector_Graphics_2/bin/Vector_Graphics_2\n'
p133
I0
tp134
a(I8040
S'start_time     : 1500306874\nlast_update    : 1500314869\nfuzzer_pid     : 4844\ncycles_done    : 174\nexecs_done     : 8266078\nexecs_per_sec  : 1037.98\npaths_total    : 5\npaths_favored  : 5\npaths_found    : 4\npaths_imported : 0\nmax_depth      : 2\ncur_path       : 2\npending_favs   : 0\npending_total  : 0\nvariable_paths : 0\nbitmap_cvg     : 0.10%\nunique_crashes : 0\nunique_hangs   : 2\nlast_path      : 1500306878\nlast_crash     : 0\nlast_hang      : 1500313041\nexec_timeout   : 20\nafl_banner     : fuzzer-master\nafl_version    : 1.85b\ncommand_line   : /home/skaramcheti/.virtualenvs/afl/bin/afl-unix/afl-fuzz -i /dev/shm/work/Vector_Graphics_2/input -o /dev/shm/work/Vector_Graphics_2/sync -m 4G -Q -M fuzzer-master -x /dev/shm/work/Vector_Graphics_2/Vector_Graphics_2.dict -- data/linux/processed-challenges/Vector_Graphics_2/bin/Vector_Graphics_2\n'
p135
I0
tp136
a(I8160
S'start_time     : 1500306874\nlast_update    : 1500314989\nfuzzer_pid     : 4844\ncycles_done    : 177\nexecs_done     : 8390744\nexecs_per_sec  : 1043.82\npaths_total    : 5\npaths_favored  : 5\npaths_found    : 4\npaths_imported : 0\nmax_depth      : 2\ncur_path       : 1\npending_favs   : 0\npending_total  : 0\nvariable_paths : 0\nbitmap_cvg     : 0.10%\nunique_crashes : 0\nunique_hangs   : 2\nlast_path      : 1500306878\nlast_crash     : 0\nlast_hang      : 1500313041\nexec_timeout   : 20\nafl_banner     : fuzzer-master\nafl_version    : 1.85b\ncommand_line   : /home/skaramcheti/.virtualenvs/afl/bin/afl-unix/afl-fuzz -i /dev/shm/work/Vector_Graphics_2/input -o /dev/shm/work/Vector_Graphics_2/sync -m 4G -Q -M fuzzer-master -x /dev/shm/work/Vector_Graphics_2/Vector_Graphics_2.dict -- data/linux/processed-challenges/Vector_Graphics_2/bin/Vector_Graphics_2\n'
p137
I0
tp138
a(I8280
S'start_time     : 1500306874\nlast_update    : 1500315109\nfuzzer_pid     : 4844\ncycles_done    : 179\nexecs_done     : 8514538\nexecs_per_sec  : 1030.63\npaths_total    : 5\npaths_favored  : 5\npaths_found    : 4\npaths_imported : 0\nmax_depth      : 2\ncur_path       : 4\npending_favs   : 0\npending_total  : 0\nvariable_paths : 0\nbitmap_cvg     : 0.10%\nunique_crashes : 0\nunique_hangs   : 2\nlast_path      : 1500306878\nlast_crash     : 0\nlast_hang      : 1500313041\nexec_timeout   : 20\nafl_banner     : fuzzer-master\nafl_version    : 1.85b\ncommand_line   : /home/skaramcheti/.virtualenvs/afl/bin/afl-unix/afl-fuzz -i /dev/shm/work/Vector_Graphics_2/input -o /dev/shm/work/Vector_Graphics_2/sync -m 4G -Q -M fuzzer-master -x /dev/shm/work/Vector_Graphics_2/Vector_Graphics_2.dict -- data/linux/processed-challenges/Vector_Graphics_2/bin/Vector_Graphics_2\n'
p139
I0
tp140
a(I8400
S'start_time     : 1500306874\nlast_update    : 1500315229\nfuzzer_pid     : 4844\ncycles_done    : 182\nexecs_done     : 8638798\nexecs_per_sec  : 1043.31\npaths_total    : 5\npaths_favored  : 5\npaths_found    : 4\npaths_imported : 0\nmax_depth      : 2\ncur_path       : 2\npending_favs   : 0\npending_total  : 0\nvariable_paths : 0\nbitmap_cvg     : 0.10%\nunique_crashes : 0\nunique_hangs   : 2\nlast_path      : 1500306878\nlast_crash     : 0\nlast_hang      : 1500313041\nexec_timeout   : 20\nafl_banner     : fuzzer-master\nafl_version    : 1.85b\ncommand_line   : /home/skaramcheti/.virtualenvs/afl/bin/afl-unix/afl-fuzz -i /dev/shm/work/Vector_Graphics_2/input -o /dev/shm/work/Vector_Graphics_2/sync -m 4G -Q -M fuzzer-master -x /dev/shm/work/Vector_Graphics_2/Vector_Graphics_2.dict -- data/linux/processed-challenges/Vector_Graphics_2/bin/Vector_Graphics_2\n'
p141
I0
tp142
a(I8520
S'start_time     : 1500306874\nlast_update    : 1500315350\nfuzzer_pid     : 4844\ncycles_done    : 185\nexecs_done     : 8763578\nexecs_per_sec  : 1029.61\npaths_total    : 5\npaths_favored  : 5\npaths_found    : 4\npaths_imported : 0\nmax_depth      : 2\ncur_path       : 0\npending_favs   : 0\npending_total  : 0\nvariable_paths : 0\nbitmap_cvg     : 0.10%\nunique_crashes : 0\nunique_hangs   : 2\nlast_path      : 1500306878\nlast_crash     : 0\nlast_hang      : 1500313041\nexec_timeout   : 20\nafl_banner     : fuzzer-master\nafl_version    : 1.85b\ncommand_line   : /home/skaramcheti/.virtualenvs/afl/bin/afl-unix/afl-fuzz -i /dev/shm/work/Vector_Graphics_2/input -o /dev/shm/work/Vector_Graphics_2/sync -m 4G -Q -M fuzzer-master -x /dev/shm/work/Vector_Graphics_2/Vector_Graphics_2.dict -- data/linux/processed-challenges/Vector_Graphics_2/bin/Vector_Graphics_2\n'
p143
I0
tp144
a(I8640
S'start_time     : 1500306874\nlast_update    : 1500315470\nfuzzer_pid     : 4844\ncycles_done    : 187\nexecs_done     : 8889013\nexecs_per_sec  : 1059.15\npaths_total    : 5\npaths_favored  : 5\npaths_found    : 4\npaths_imported : 0\nmax_depth      : 2\ncur_path       : 4\npending_favs   : 0\npending_total  : 0\nvariable_paths : 0\nbitmap_cvg     : 0.10%\nunique_crashes : 0\nunique_hangs   : 2\nlast_path      : 1500306878\nlast_crash     : 0\nlast_hang      : 1500313041\nexec_timeout   : 20\nafl_banner     : fuzzer-master\nafl_version    : 1.85b\ncommand_line   : /home/skaramcheti/.virtualenvs/afl/bin/afl-unix/afl-fuzz -i /dev/shm/work/Vector_Graphics_2/input -o /dev/shm/work/Vector_Graphics_2/sync -m 4G -Q -M fuzzer-master -x /dev/shm/work/Vector_Graphics_2/Vector_Graphics_2.dict -- data/linux/processed-challenges/Vector_Graphics_2/bin/Vector_Graphics_2\n'
p145
I0
tp146
a(I8760
S'start_time     : 1500306874\nlast_update    : 1500315590\nfuzzer_pid     : 4844\ncycles_done    : 190\nexecs_done     : 9013197\nexecs_per_sec  : 1016.34\npaths_total    : 5\npaths_favored  : 5\npaths_found    : 4\npaths_imported : 0\nmax_depth      : 2\ncur_path       : 1\npending_favs   : 0\npending_total  : 0\nvariable_paths : 0\nbitmap_cvg     : 0.10%\nunique_crashes : 0\nunique_hangs   : 2\nlast_path      : 1500306878\nlast_crash     : 0\nlast_hang      : 1500313041\nexec_timeout   : 20\nafl_banner     : fuzzer-master\nafl_version    : 1.85b\ncommand_line   : /home/skaramcheti/.virtualenvs/afl/bin/afl-unix/afl-fuzz -i /dev/shm/work/Vector_Graphics_2/input -o /dev/shm/work/Vector_Graphics_2/sync -m 4G -Q -M fuzzer-master -x /dev/shm/work/Vector_Graphics_2/Vector_Graphics_2.dict -- data/linux/processed-challenges/Vector_Graphics_2/bin/Vector_Graphics_2\n'
p147
I0
tp148
a(I8880
S'start_time     : 1500306874\nlast_update    : 1500315710\nfuzzer_pid     : 4844\ncycles_done    : 192\nexecs_done     : 9136697\nexecs_per_sec  : 1042.09\npaths_total    : 5\npaths_favored  : 5\npaths_found    : 4\npaths_imported : 0\nmax_depth      : 2\ncur_path       : 4\npending_favs   : 0\npending_total  : 0\nvariable_paths : 0\nbitmap_cvg     : 0.10%\nunique_crashes : 0\nunique_hangs   : 2\nlast_path      : 1500306878\nlast_crash     : 0\nlast_hang      : 1500313041\nexec_timeout   : 20\nafl_banner     : fuzzer-master\nafl_version    : 1.85b\ncommand_line   : /home/skaramcheti/.virtualenvs/afl/bin/afl-unix/afl-fuzz -i /dev/shm/work/Vector_Graphics_2/input -o /dev/shm/work/Vector_Graphics_2/sync -m 4G -Q -M fuzzer-master -x /dev/shm/work/Vector_Graphics_2/Vector_Graphics_2.dict -- data/linux/processed-challenges/Vector_Graphics_2/bin/Vector_Graphics_2\n'
p149
I0
tp150
a(I9000
S'start_time     : 1500306874\nlast_update    : 1500315831\nfuzzer_pid     : 4844\ncycles_done    : 195\nexecs_done     : 9260518\nexecs_per_sec  : 1000.51\npaths_total    : 5\npaths_favored  : 5\npaths_found    : 4\npaths_imported : 0\nmax_depth      : 2\ncur_path       : 2\npending_favs   : 0\npending_total  : 0\nvariable_paths : 0\nbitmap_cvg     : 0.10%\nunique_crashes : 0\nunique_hangs   : 2\nlast_path      : 1500306878\nlast_crash     : 0\nlast_hang      : 1500313041\nexec_timeout   : 20\nafl_banner     : fuzzer-master\nafl_version    : 1.85b\ncommand_line   : /home/skaramcheti/.virtualenvs/afl/bin/afl-unix/afl-fuzz -i /dev/shm/work/Vector_Graphics_2/input -o /dev/shm/work/Vector_Graphics_2/sync -m 4G -Q -M fuzzer-master -x /dev/shm/work/Vector_Graphics_2/Vector_Graphics_2.dict -- data/linux/processed-challenges/Vector_Graphics_2/bin/Vector_Graphics_2\n'
p151
I0
tp152
a(I9120
S'start_time     : 1500306874\nlast_update    : 1500315951\nfuzzer_pid     : 4844\ncycles_done    : 198\nexecs_done     : 9383818\nexecs_per_sec  : 1002.78\npaths_total    : 5\npaths_favored  : 5\npaths_found    : 4\npaths_imported : 0\nmax_depth      : 2\ncur_path       : 0\npending_favs   : 0\npending_total  : 0\nvariable_paths : 0\nbitmap_cvg     : 0.10%\nunique_crashes : 0\nunique_hangs   : 2\nlast_path      : 1500306878\nlast_crash     : 0\nlast_hang      : 1500313041\nexec_timeout   : 20\nafl_banner     : fuzzer-master\nafl_version    : 1.85b\ncommand_line   : /home/skaramcheti/.virtualenvs/afl/bin/afl-unix/afl-fuzz -i /dev/shm/work/Vector_Graphics_2/input -o /dev/shm/work/Vector_Graphics_2/sync -m 4G -Q -M fuzzer-master -x /dev/shm/work/Vector_Graphics_2/Vector_Graphics_2.dict -- data/linux/processed-challenges/Vector_Graphics_2/bin/Vector_Graphics_2\n'
p153
I0
tp154
a(I9240
S'start_time     : 1500306874\nlast_update    : 1500316071\nfuzzer_pid     : 4844\ncycles_done    : 200\nexecs_done     : 9506492\nexecs_per_sec  : 1002.83\npaths_total    : 5\npaths_favored  : 5\npaths_found    : 4\npaths_imported : 0\nmax_depth      : 2\ncur_path       : 2\npending_favs   : 0\npending_total  : 0\nvariable_paths : 0\nbitmap_cvg     : 0.10%\nunique_crashes : 0\nunique_hangs   : 2\nlast_path      : 1500306878\nlast_crash     : 0\nlast_hang      : 1500313041\nexec_timeout   : 20\nafl_banner     : fuzzer-master\nafl_version    : 1.85b\ncommand_line   : /home/skaramcheti/.virtualenvs/afl/bin/afl-unix/afl-fuzz -i /dev/shm/work/Vector_Graphics_2/input -o /dev/shm/work/Vector_Graphics_2/sync -m 4G -Q -M fuzzer-master -x /dev/shm/work/Vector_Graphics_2/Vector_Graphics_2.dict -- data/linux/processed-challenges/Vector_Graphics_2/bin/Vector_Graphics_2\n'
p155
I0
tp156
a(I9360
S'start_time     : 1500306874\nlast_update    : 1500316191\nfuzzer_pid     : 4844\ncycles_done    : 203\nexecs_done     : 9628697\nexecs_per_sec  : 1020.68\npaths_total    : 5\npaths_favored  : 5\npaths_found    : 4\npaths_imported : 0\nmax_depth      : 2\ncur_path       : 0\npending_favs   : 0\npending_total  : 0\nvariable_paths : 0\nbitmap_cvg     : 0.10%\nunique_crashes : 0\nunique_hangs   : 2\nlast_path      : 1500306878\nlast_crash     : 0\nlast_hang      : 1500313041\nexec_timeout   : 20\nafl_banner     : fuzzer-master\nafl_version    : 1.85b\ncommand_line   : /home/skaramcheti/.virtualenvs/afl/bin/afl-unix/afl-fuzz -i /dev/shm/work/Vector_Graphics_2/input -o /dev/shm/work/Vector_Graphics_2/sync -m 4G -Q -M fuzzer-master -x /dev/shm/work/Vector_Graphics_2/Vector_Graphics_2.dict -- data/linux/processed-challenges/Vector_Graphics_2/bin/Vector_Graphics_2\n'
p157
I0
tp158
a(I9480
S'start_time     : 1500306874\nlast_update    : 1500316311\nfuzzer_pid     : 4844\ncycles_done    : 205\nexecs_done     : 9750502\nexecs_per_sec  : 973.36\npaths_total    : 5\npaths_favored  : 5\npaths_found    : 4\npaths_imported : 0\nmax_depth      : 2\ncur_path       : 2\npending_favs   : 0\npending_total  : 0\nvariable_paths : 0\nbitmap_cvg     : 0.10%\nunique_crashes : 0\nunique_hangs   : 2\nlast_path      : 1500306878\nlast_crash     : 0\nlast_hang      : 1500313041\nexec_timeout   : 20\nafl_banner     : fuzzer-master\nafl_version    : 1.85b\ncommand_line   : /home/skaramcheti/.virtualenvs/afl/bin/afl-unix/afl-fuzz -i /dev/shm/work/Vector_Graphics_2/input -o /dev/shm/work/Vector_Graphics_2/sync -m 4G -Q -M fuzzer-master -x /dev/shm/work/Vector_Graphics_2/Vector_Graphics_2.dict -- data/linux/processed-challenges/Vector_Graphics_2/bin/Vector_Graphics_2\n'
p159
I0
tp160
a(I9600
S'start_time     : 1500306874\nlast_update    : 1500316431\nfuzzer_pid     : 4844\ncycles_done    : 208\nexecs_done     : 9870945\nexecs_per_sec  : 995.52\npaths_total    : 5\npaths_favored  : 5\npaths_found    : 4\npaths_imported : 0\nmax_depth      : 2\ncur_path       : 0\npending_favs   : 0\npending_total  : 0\nvariable_paths : 0\nbitmap_cvg     : 0.10%\nunique_crashes : 0\nunique_hangs   : 2\nlast_path      : 1500306878\nlast_crash     : 0\nlast_hang      : 1500313041\nexec_timeout   : 20\nafl_banner     : fuzzer-master\nafl_version    : 1.85b\ncommand_line   : /home/skaramcheti/.virtualenvs/afl/bin/afl-unix/afl-fuzz -i /dev/shm/work/Vector_Graphics_2/input -o /dev/shm/work/Vector_Graphics_2/sync -m 4G -Q -M fuzzer-master -x /dev/shm/work/Vector_Graphics_2/Vector_Graphics_2.dict -- data/linux/processed-challenges/Vector_Graphics_2/bin/Vector_Graphics_2\n'
p161
I0
tp162
a(I9720
S'start_time     : 1500306874\nlast_update    : 1500316552\nfuzzer_pid     : 4844\ncycles_done    : 210\nexecs_done     : 9991018\nexecs_per_sec  : 1029.26\npaths_total    : 5\npaths_favored  : 5\npaths_found    : 4\npaths_imported : 0\nmax_depth      : 2\ncur_path       : 3\npending_favs   : 0\npending_total  : 0\nvariable_paths : 0\nbitmap_cvg     : 0.10%\nunique_crashes : 0\nunique_hangs   : 2\nlast_path      : 1500306878\nlast_crash     : 0\nlast_hang      : 1500313041\nexec_timeout   : 20\nafl_banner     : fuzzer-master\nafl_version    : 1.85b\ncommand_line   : /home/skaramcheti/.virtualenvs/afl/bin/afl-unix/afl-fuzz -i /dev/shm/work/Vector_Graphics_2/input -o /dev/shm/work/Vector_Graphics_2/sync -m 4G -Q -M fuzzer-master -x /dev/shm/work/Vector_Graphics_2/Vector_Graphics_2.dict -- data/linux/processed-challenges/Vector_Graphics_2/bin/Vector_Graphics_2\n'
p163
I0
tp164
a(I9840
S'start_time     : 1500306874\nlast_update    : 1500316672\nfuzzer_pid     : 4844\ncycles_done    : 213\nexecs_done     : 10110850\nexecs_per_sec  : 960.27\npaths_total    : 5\npaths_favored  : 5\npaths_found    : 4\npaths_imported : 0\nmax_depth      : 2\ncur_path       : 0\npending_favs   : 0\npending_total  : 0\nvariable_paths : 0\nbitmap_cvg     : 0.10%\nunique_crashes : 0\nunique_hangs   : 2\nlast_path      : 1500306878\nlast_crash     : 0\nlast_hang      : 1500313041\nexec_timeout   : 20\nafl_banner     : fuzzer-master\nafl_version    : 1.85b\ncommand_line   : /home/skaramcheti/.virtualenvs/afl/bin/afl-unix/afl-fuzz -i /dev/shm/work/Vector_Graphics_2/input -o /dev/shm/work/Vector_Graphics_2/sync -m 4G -Q -M fuzzer-master -x /dev/shm/work/Vector_Graphics_2/Vector_Graphics_2.dict -- data/linux/processed-challenges/Vector_Graphics_2/bin/Vector_Graphics_2\n'
p165
I0
tp166
a(I9960
S'start_time     : 1500306874\nlast_update    : 1500316792\nfuzzer_pid     : 4844\ncycles_done    : 215\nexecs_done     : 10232138\nexecs_per_sec  : 1040.50\npaths_total    : 5\npaths_favored  : 5\npaths_found    : 4\npaths_imported : 0\nmax_depth      : 2\ncur_path       : 4\npending_favs   : 0\npending_total  : 0\nvariable_paths : 0\nbitmap_cvg     : 0.10%\nunique_crashes : 0\nunique_hangs   : 2\nlast_path      : 1500306878\nlast_crash     : 0\nlast_hang      : 1500313041\nexec_timeout   : 20\nafl_banner     : fuzzer-master\nafl_version    : 1.85b\ncommand_line   : /home/skaramcheti/.virtualenvs/afl/bin/afl-unix/afl-fuzz -i /dev/shm/work/Vector_Graphics_2/input -o /dev/shm/work/Vector_Graphics_2/sync -m 4G -Q -M fuzzer-master -x /dev/shm/work/Vector_Graphics_2/Vector_Graphics_2.dict -- data/linux/processed-challenges/Vector_Graphics_2/bin/Vector_Graphics_2\n'
p167
I0
tp168
a(I10080
S'start_time     : 1500306874\nlast_update    : 1500316912\nfuzzer_pid     : 4844\ncycles_done    : 218\nexecs_done     : 10354002\nexecs_per_sec  : 971.26\npaths_total    : 5\npaths_favored  : 5\npaths_found    : 4\npaths_imported : 0\nmax_depth      : 2\ncur_path       : 1\npending_favs   : 0\npending_total  : 0\nvariable_paths : 0\nbitmap_cvg     : 0.10%\nunique_crashes : 0\nunique_hangs   : 2\nlast_path      : 1500306878\nlast_crash     : 0\nlast_hang      : 1500313041\nexec_timeout   : 20\nafl_banner     : fuzzer-master\nafl_version    : 1.85b\ncommand_line   : /home/skaramcheti/.virtualenvs/afl/bin/afl-unix/afl-fuzz -i /dev/shm/work/Vector_Graphics_2/input -o /dev/shm/work/Vector_Graphics_2/sync -m 4G -Q -M fuzzer-master -x /dev/shm/work/Vector_Graphics_2/Vector_Graphics_2.dict -- data/linux/processed-challenges/Vector_Graphics_2/bin/Vector_Graphics_2\n'
p169
I0
tp170
a(I10200
S'start_time     : 1500306874\nlast_update    : 1500317032\nfuzzer_pid     : 4844\ncycles_done    : 220\nexecs_done     : 10474778\nexecs_per_sec  : 1032.27\npaths_total    : 5\npaths_favored  : 5\npaths_found    : 4\npaths_imported : 0\nmax_depth      : 2\ncur_path       : 4\npending_favs   : 0\npending_total  : 0\nvariable_paths : 0\nbitmap_cvg     : 0.10%\nunique_crashes : 0\nunique_hangs   : 2\nlast_path      : 1500306878\nlast_crash     : 0\nlast_hang      : 1500313041\nexec_timeout   : 20\nafl_banner     : fuzzer-master\nafl_version    : 1.85b\ncommand_line   : /home/skaramcheti/.virtualenvs/afl/bin/afl-unix/afl-fuzz -i /dev/shm/work/Vector_Graphics_2/input -o /dev/shm/work/Vector_Graphics_2/sync -m 4G -Q -M fuzzer-master -x /dev/shm/work/Vector_Graphics_2/Vector_Graphics_2.dict -- data/linux/processed-challenges/Vector_Graphics_2/bin/Vector_Graphics_2\n'
p171
I0
tp172
a(I10320
S'start_time     : 1500306874\nlast_update    : 1500317153\nfuzzer_pid     : 4844\ncycles_done    : 223\nexecs_done     : 10596003\nexecs_per_sec  : 963.22\npaths_total    : 5\npaths_favored  : 5\npaths_found    : 4\npaths_imported : 0\nmax_depth      : 2\ncur_path       : 1\npending_favs   : 0\npending_total  : 0\nvariable_paths : 0\nbitmap_cvg     : 0.10%\nunique_crashes : 0\nunique_hangs   : 2\nlast_path      : 1500306878\nlast_crash     : 0\nlast_hang      : 1500313041\nexec_timeout   : 20\nafl_banner     : fuzzer-master\nafl_version    : 1.85b\ncommand_line   : /home/skaramcheti/.virtualenvs/afl/bin/afl-unix/afl-fuzz -i /dev/shm/work/Vector_Graphics_2/input -o /dev/shm/work/Vector_Graphics_2/sync -m 4G -Q -M fuzzer-master -x /dev/shm/work/Vector_Graphics_2/Vector_Graphics_2.dict -- data/linux/processed-challenges/Vector_Graphics_2/bin/Vector_Graphics_2\n'
p173
I0
tp174
a(I10440
S'start_time     : 1500306874\nlast_update    : 1500317273\nfuzzer_pid     : 4844\ncycles_done    : 225\nexecs_done     : 10716598\nexecs_per_sec  : 1030.30\npaths_total    : 5\npaths_favored  : 5\npaths_found    : 4\npaths_imported : 0\nmax_depth      : 2\ncur_path       : 3\npending_favs   : 0\npending_total  : 0\nvariable_paths : 0\nbitmap_cvg     : 0.10%\nunique_crashes : 0\nunique_hangs   : 2\nlast_path      : 1500306878\nlast_crash     : 0\nlast_hang      : 1500313041\nexec_timeout   : 20\nafl_banner     : fuzzer-master\nafl_version    : 1.85b\ncommand_line   : /home/skaramcheti/.virtualenvs/afl/bin/afl-unix/afl-fuzz -i /dev/shm/work/Vector_Graphics_2/input -o /dev/shm/work/Vector_Graphics_2/sync -m 4G -Q -M fuzzer-master -x /dev/shm/work/Vector_Graphics_2/Vector_Graphics_2.dict -- data/linux/processed-challenges/Vector_Graphics_2/bin/Vector_Graphics_2\n'
p175
I0
tp176
a(I10560
S'start_time     : 1500306874\nlast_update    : 1500317393\nfuzzer_pid     : 4844\ncycles_done    : 228\nexecs_done     : 10838745\nexecs_per_sec  : 984.56\npaths_total    : 5\npaths_favored  : 5\npaths_found    : 4\npaths_imported : 0\nmax_depth      : 2\ncur_path       : 1\npending_favs   : 0\npending_total  : 0\nvariable_paths : 0\nbitmap_cvg     : 0.10%\nunique_crashes : 0\nunique_hangs   : 2\nlast_path      : 1500306878\nlast_crash     : 0\nlast_hang      : 1500313041\nexec_timeout   : 20\nafl_banner     : fuzzer-master\nafl_version    : 1.85b\ncommand_line   : /home/skaramcheti/.virtualenvs/afl/bin/afl-unix/afl-fuzz -i /dev/shm/work/Vector_Graphics_2/input -o /dev/shm/work/Vector_Graphics_2/sync -m 4G -Q -M fuzzer-master -x /dev/shm/work/Vector_Graphics_2/Vector_Graphics_2.dict -- data/linux/processed-challenges/Vector_Graphics_2/bin/Vector_Graphics_2\n'
p177
I0
tp178
a(I10680
S'start_time     : 1500306874\nlast_update    : 1500317513\nfuzzer_pid     : 4844\ncycles_done    : 230\nexecs_done     : 10965761\nexecs_per_sec  : 1075.09\npaths_total    : 5\npaths_favored  : 5\npaths_found    : 4\npaths_imported : 0\nmax_depth      : 2\ncur_path       : 4\npending_favs   : 0\npending_total  : 0\nvariable_paths : 0\nbitmap_cvg     : 0.10%\nunique_crashes : 0\nunique_hangs   : 2\nlast_path      : 1500306878\nlast_crash     : 0\nlast_hang      : 1500313041\nexec_timeout   : 20\nafl_banner     : fuzzer-master\nafl_version    : 1.85b\ncommand_line   : /home/skaramcheti/.virtualenvs/afl/bin/afl-unix/afl-fuzz -i /dev/shm/work/Vector_Graphics_2/input -o /dev/shm/work/Vector_Graphics_2/sync -m 4G -Q -M fuzzer-master -x /dev/shm/work/Vector_Graphics_2/Vector_Graphics_2.dict -- data/linux/processed-challenges/Vector_Graphics_2/bin/Vector_Graphics_2\n'
p179
I0
tp180
a.