(lp0
(I0
S'start_time     : 1500144297\nlast_update    : 1500144297\nfuzzer_pid     : 14278\ncycles_done    : 0\nexecs_done     : 10\nexecs_per_sec  : 204.08\npaths_total    : 1\npaths_favored  : 1\npaths_found    : 0\npaths_imported : 0\nmax_depth      : 1\ncur_path       : 0\npending_favs   : 1\npending_total  : 1\nvariable_paths : 0\nbitmap_cvg     : 0.28%\nunique_crashes : 0\nunique_hangs   : 0\nlast_path      : 0\nlast_crash     : 0\nlast_hang      : 0\nexec_timeout   : 20\nafl_banner     : fuzzer-master\nafl_version    : 1.85b\ncommand_line   : /home/skaramcheti/.virtualenvs/afl/bin/afl-unix/afl-fuzz -i /dev/shm/work/CNMP/input -o /dev/shm/work/CNMP/sync -m 4G -Q -M fuzzer-master -x /dev/shm/work/CNMP/CNMP.dict -- data/linux/processed-challenges/CNMP/bin/CNMP\n'
p1
I11
tp2
a(I120
S'start_time     : 1500144297\nlast_update    : 1500144417\nfuzzer_pid     : 14278\ncycles_done    : 0\nexecs_done     : 135590\nexecs_per_sec  : 1094.20\npaths_total    : 19\npaths_favored  : 1\npaths_found    : 18\npaths_imported : 0\nmax_depth      : 2\ncur_path       : 0\npending_favs   : 1\npending_total  : 19\nvariable_paths : 0\nbitmap_cvg     : 0.40%\nunique_crashes : 0\nunique_hangs   : 0\nlast_path      : 1500144372\nlast_crash     : 0\nlast_hang      : 0\nexec_timeout   : 20\nafl_banner     : fuzzer-master\nafl_version    : 1.85b\ncommand_line   : /home/skaramcheti/.virtualenvs/afl/bin/afl-unix/afl-fuzz -i /dev/shm/work/CNMP/input -o /dev/shm/work/CNMP/sync -m 4G -Q -M fuzzer-master -x /dev/shm/work/CNMP/CNMP.dict -- data/linux/processed-challenges/CNMP/bin/CNMP\n'
p3
I9
tp4
a(I240
S'start_time     : 1500144297\nlast_update    : 1500144537\nfuzzer_pid     : 14278\ncycles_done    : 0\nexecs_done     : 260113\nexecs_per_sec  : 1086.36\npaths_total    : 42\npaths_favored  : 16\npaths_found    : 41\npaths_imported : 0\nmax_depth      : 4\ncur_path       : 23\npending_favs   : 11\npending_total  : 36\nvariable_paths : 0\nbitmap_cvg     : 0.71%\nunique_crashes : 0\nunique_hangs   : 0\nlast_path      : 1500144536\nlast_crash     : 0\nlast_hang      : 0\nexec_timeout   : 20\nafl_banner     : fuzzer-master\nafl_version    : 1.85b\ncommand_line   : /home/skaramcheti/.virtualenvs/afl/bin/afl-unix/afl-fuzz -i /dev/shm/work/CNMP/input -o /dev/shm/work/CNMP/sync -m 4G -Q -M fuzzer-master -x /dev/shm/work/CNMP/CNMP.dict -- data/linux/processed-challenges/CNMP/bin/CNMP\n'
p5
I22
tp6
a(I360
S'start_time     : 1500144297\nlast_update    : 1500144657\nfuzzer_pid     : 14278\ncycles_done    : 0\nexecs_done     : 388286\nexecs_per_sec  : 1068.77\npaths_total    : 60\npaths_favored  : 20\npaths_found    : 59\npaths_imported : 0\nmax_depth      : 4\ncur_path       : 31\npending_favs   : 9\npending_total  : 48\nvariable_paths : 0\nbitmap_cvg     : 0.83%\nunique_crashes : 0\nunique_hangs   : 0\nlast_path      : 1500144657\nlast_crash     : 0\nlast_hang      : 0\nexec_timeout   : 20\nafl_banner     : fuzzer-master\nafl_version    : 1.85b\ncommand_line   : /home/skaramcheti/.virtualenvs/afl/bin/afl-unix/afl-fuzz -i /dev/shm/work/CNMP/input -o /dev/shm/work/CNMP/sync -m 4G -Q -M fuzzer-master -x /dev/shm/work/CNMP/CNMP.dict -- data/linux/processed-challenges/CNMP/bin/CNMP\n'
p7
I18
tp8
a(I480
S'start_time     : 1500144297\nlast_update    : 1500144778\nfuzzer_pid     : 14278\ncycles_done    : 0\nexecs_done     : 518182\nexecs_per_sec  : 1078.65\npaths_total    : 64\npaths_favored  : 33\npaths_found    : 63\npaths_imported : 0\nmax_depth      : 4\ncur_path       : 34\npending_favs   : 22\npending_total  : 51\nvariable_paths : 0\nbitmap_cvg     : 0.84%\nunique_crashes : 0\nunique_hangs   : 0\nlast_path      : 1500144732\nlast_crash     : 0\nlast_hang      : 0\nexec_timeout   : 20\nafl_banner     : fuzzer-master\nafl_version    : 1.85b\ncommand_line   : /home/skaramcheti/.virtualenvs/afl/bin/afl-unix/afl-fuzz -i /dev/shm/work/CNMP/input -o /dev/shm/work/CNMP/sync -m 4G -Q -M fuzzer-master -x /dev/shm/work/CNMP/CNMP.dict -- data/linux/processed-challenges/CNMP/bin/CNMP\n'
p9
I7
tp10
a(I600
S'start_time     : 1500144297\nlast_update    : 1500144898\nfuzzer_pid     : 14278\ncycles_done    : 0\nexecs_done     : 647915\nexecs_per_sec  : 1093.12\npaths_total    : 71\npaths_favored  : 34\npaths_found    : 70\npaths_imported : 0\nmax_depth      : 5\ncur_path       : 37\npending_favs   : 22\npending_total  : 56\nvariable_paths : 0\nbitmap_cvg     : 0.85%\nunique_crashes : 0\nunique_hangs   : 0\nlast_path      : 1500144846\nlast_crash     : 0\nlast_hang      : 0\nexec_timeout   : 20\nafl_banner     : fuzzer-master\nafl_version    : 1.85b\ncommand_line   : /home/skaramcheti/.virtualenvs/afl/bin/afl-unix/afl-fuzz -i /dev/shm/work/CNMP/input -o /dev/shm/work/CNMP/sync -m 4G -Q -M fuzzer-master -x /dev/shm/work/CNMP/CNMP.dict -- data/linux/processed-challenges/CNMP/bin/CNMP\n'
p11
I4
tp12
a(I720
S'start_time     : 1500144297\nlast_update    : 1500145018\nfuzzer_pid     : 14278\ncycles_done    : 0\nexecs_done     : 772725\nexecs_per_sec  : 1009.38\npaths_total    : 73\npaths_favored  : 35\npaths_found    : 72\npaths_imported : 0\nmax_depth      : 5\ncur_path       : 41\npending_favs   : 20\npending_total  : 55\nvariable_paths : 0\nbitmap_cvg     : 0.85%\nunique_crashes : 0\nunique_hangs   : 0\nlast_path      : 1500145010\nlast_crash     : 0\nlast_hang      : 0\nexec_timeout   : 20\nafl_banner     : fuzzer-master\nafl_version    : 1.85b\ncommand_line   : /home/skaramcheti/.virtualenvs/afl/bin/afl-unix/afl-fuzz -i /dev/shm/work/CNMP/input -o /dev/shm/work/CNMP/sync -m 4G -Q -M fuzzer-master -x /dev/shm/work/CNMP/CNMP.dict -- data/linux/processed-challenges/CNMP/bin/CNMP\n'
p13
I2
tp14
a(I840
S'start_time     : 1500144297\nlast_update    : 1500145138\nfuzzer_pid     : 14278\ncycles_done    : 0\nexecs_done     : 897253\nexecs_per_sec  : 1050.85\npaths_total    : 79\npaths_favored  : 36\npaths_found    : 78\npaths_imported : 0\nmax_depth      : 5\ncur_path       : 42\npending_favs   : 20\npending_total  : 60\nvariable_paths : 0\nbitmap_cvg     : 0.85%\nunique_crashes : 0\nunique_hangs   : 0\nlast_path      : 1500145135\nlast_crash     : 0\nlast_hang      : 0\nexec_timeout   : 20\nafl_banner     : fuzzer-master\nafl_version    : 1.85b\ncommand_line   : /home/skaramcheti/.virtualenvs/afl/bin/afl-unix/afl-fuzz -i /dev/shm/work/CNMP/input -o /dev/shm/work/CNMP/sync -m 4G -Q -M fuzzer-master -x /dev/shm/work/CNMP/CNMP.dict -- data/linux/processed-challenges/CNMP/bin/CNMP\n'
p15
I6
tp16
a(I960
S'start_time     : 1500144297\nlast_update    : 1500145258\nfuzzer_pid     : 14278\ncycles_done    : 0\nexecs_done     : 1026068\nexecs_per_sec  : 1090.48\npaths_total    : 89\npaths_favored  : 35\npaths_found    : 88\npaths_imported : 0\nmax_depth      : 5\ncur_path       : 45\npending_favs   : 18\npending_total  : 68\nvariable_paths : 0\nbitmap_cvg     : 0.87%\nunique_crashes : 0\nunique_hangs   : 0\nlast_path      : 1500145231\nlast_crash     : 0\nlast_hang      : 0\nexec_timeout   : 20\nafl_banner     : fuzzer-master\nafl_version    : 1.85b\ncommand_line   : /home/skaramcheti/.virtualenvs/afl/bin/afl-unix/afl-fuzz -i /dev/shm/work/CNMP/input -o /dev/shm/work/CNMP/sync -m 4G -Q -M fuzzer-master -x /dev/shm/work/CNMP/CNMP.dict -- data/linux/processed-challenges/CNMP/bin/CNMP\n'
p17
I10
tp18
a(I1080
S'start_time     : 1500144297\nlast_update    : 1500145379\nfuzzer_pid     : 14278\ncycles_done    : 0\nexecs_done     : 1154947\nexecs_per_sec  : 1063.30\npaths_total    : 100\npaths_favored  : 38\npaths_found    : 99\npaths_imported : 0\nmax_depth      : 5\ncur_path       : 48\npending_favs   : 20\npending_total  : 78\nvariable_paths : 0\nbitmap_cvg     : 0.90%\nunique_crashes : 0\nunique_hangs   : 0\nlast_path      : 1500145377\nlast_crash     : 0\nlast_hang      : 0\nexec_timeout   : 20\nafl_banner     : fuzzer-master\nafl_version    : 1.85b\ncommand_line   : /home/skaramcheti/.virtualenvs/afl/bin/afl-unix/afl-fuzz -i /dev/shm/work/CNMP/input -o /dev/shm/work/CNMP/sync -m 4G -Q -M fuzzer-master -x /dev/shm/work/CNMP/CNMP.dict -- data/linux/processed-challenges/CNMP/bin/CNMP\n'
p19
I11
tp20
a(I1200
S'start_time     : 1500144297\nlast_update    : 1500145499\nfuzzer_pid     : 14278\ncycles_done    : 0\nexecs_done     : 1283529\nexecs_per_sec  : 1094.37\npaths_total    : 102\npaths_favored  : 38\npaths_found    : 101\npaths_imported : 0\nmax_depth      : 5\ncur_path       : 48\npending_favs   : 20\npending_total  : 80\nvariable_paths : 0\nbitmap_cvg     : 0.90%\nunique_crashes : 0\nunique_hangs   : 0\nlast_path      : 1500145426\nlast_crash     : 0\nlast_hang      : 0\nexec_timeout   : 20\nafl_banner     : fuzzer-master\nafl_version    : 1.85b\ncommand_line   : /home/skaramcheti/.virtualenvs/afl/bin/afl-unix/afl-fuzz -i /dev/shm/work/CNMP/input -o /dev/shm/work/CNMP/sync -m 4G -Q -M fuzzer-master -x /dev/shm/work/CNMP/CNMP.dict -- data/linux/processed-challenges/CNMP/bin/CNMP\n'
p21
I2
tp22
a(I1320
S'start_time     : 1500144297\nlast_update    : 1500145619\nfuzzer_pid     : 14278\ncycles_done    : 0\nexecs_done     : 1405937\nexecs_per_sec  : 1020.63\npaths_total    : 111\npaths_favored  : 48\npaths_found    : 110\npaths_imported : 0\nmax_depth      : 5\ncur_path       : 60\npending_favs   : 25\npending_total  : 84\nvariable_paths : 0\nbitmap_cvg     : 0.91%\nunique_crashes : 0\nunique_hangs   : 0\nlast_path      : 1500145591\nlast_crash     : 0\nlast_hang      : 0\nexec_timeout   : 20\nafl_banner     : fuzzer-master\nafl_version    : 1.85b\ncommand_line   : /home/skaramcheti/.virtualenvs/afl/bin/afl-unix/afl-fuzz -i /dev/shm/work/CNMP/input -o /dev/shm/work/CNMP/sync -m 4G -Q -M fuzzer-master -x /dev/shm/work/CNMP/CNMP.dict -- data/linux/processed-challenges/CNMP/bin/CNMP\n'
p23
I9
tp24
a(I1440
S'start_time     : 1500144297\nlast_update    : 1500145740\nfuzzer_pid     : 14278\ncycles_done    : 0\nexecs_done     : 1529427\nexecs_per_sec  : 997.44\npaths_total    : 113\npaths_favored  : 48\npaths_found    : 112\npaths_imported : 0\nmax_depth      : 5\ncur_path       : 80\npending_favs   : 20\npending_total  : 81\nvariable_paths : 0\nbitmap_cvg     : 0.91%\nunique_crashes : 0\nunique_hangs   : 0\nlast_path      : 1500145685\nlast_crash     : 0\nlast_hang      : 0\nexec_timeout   : 20\nafl_banner     : fuzzer-master\nafl_version    : 1.85b\ncommand_line   : /home/skaramcheti/.virtualenvs/afl/bin/afl-unix/afl-fuzz -i /dev/shm/work/CNMP/input -o /dev/shm/work/CNMP/sync -m 4G -Q -M fuzzer-master -x /dev/shm/work/CNMP/CNMP.dict -- data/linux/processed-challenges/CNMP/bin/CNMP\n'
p25
I3
tp26
a(I1560
S'start_time     : 1500144297\nlast_update    : 1500145860\nfuzzer_pid     : 14278\ncycles_done    : 0\nexecs_done     : 1652037\nexecs_per_sec  : 1056.39\npaths_total    : 119\npaths_favored  : 52\npaths_found    : 118\npaths_imported : 0\nmax_depth      : 6\ncur_path       : 91\npending_favs   : 19\npending_total  : 82\nvariable_paths : 0\nbitmap_cvg     : 0.92%\nunique_crashes : 0\nunique_hangs   : 0\nlast_path      : 1500145805\nlast_crash     : 0\nlast_hang      : 0\nexec_timeout   : 20\nafl_banner     : fuzzer-master\nafl_version    : 1.85b\ncommand_line   : /home/skaramcheti/.virtualenvs/afl/bin/afl-unix/afl-fuzz -i /dev/shm/work/CNMP/input -o /dev/shm/work/CNMP/sync -m 4G -Q -M fuzzer-master -x /dev/shm/work/CNMP/CNMP.dict -- data/linux/processed-challenges/CNMP/bin/CNMP\n'
p27
I5
tp28
a(I1680
S'start_time     : 1500144297\nlast_update    : 1500145980\nfuzzer_pid     : 14278\ncycles_done    : 0\nexecs_done     : 1776997\nexecs_per_sec  : 1041.90\npaths_total    : 122\npaths_favored  : 52\npaths_found    : 121\npaths_imported : 0\nmax_depth      : 6\ncur_path       : 96\npending_favs   : 15\npending_total  : 81\nvariable_paths : 0\nbitmap_cvg     : 0.92%\nunique_crashes : 0\nunique_hangs   : 0\nlast_path      : 1500145978\nlast_crash     : 0\nlast_hang      : 0\nexec_timeout   : 20\nafl_banner     : fuzzer-master\nafl_version    : 1.85b\ncommand_line   : /home/skaramcheti/.virtualenvs/afl/bin/afl-unix/afl-fuzz -i /dev/shm/work/CNMP/input -o /dev/shm/work/CNMP/sync -m 4G -Q -M fuzzer-master -x /dev/shm/work/CNMP/CNMP.dict -- data/linux/processed-challenges/CNMP/bin/CNMP\n'
p29
I3
tp30
a(I1800
S'start_time     : 1500144297\nlast_update    : 1500146100\nfuzzer_pid     : 14278\ncycles_done    : 0\nexecs_done     : 1896396\nexecs_per_sec  : 1046.38\npaths_total    : 129\npaths_favored  : 52\npaths_found    : 128\npaths_imported : 0\nmax_depth      : 6\ncur_path       : 99\npending_favs   : 12\npending_total  : 85\nvariable_paths : 0\nbitmap_cvg     : 0.92%\nunique_crashes : 0\nunique_hangs   : 0\nlast_path      : 1500146100\nlast_crash     : 0\nlast_hang      : 0\nexec_timeout   : 20\nafl_banner     : fuzzer-master\nafl_version    : 1.85b\ncommand_line   : /home/skaramcheti/.virtualenvs/afl/bin/afl-unix/afl-fuzz -i /dev/shm/work/CNMP/input -o /dev/shm/work/CNMP/sync -m 4G -Q -M fuzzer-master -x /dev/shm/work/CNMP/CNMP.dict -- data/linux/processed-challenges/CNMP/bin/CNMP\n'
p31
I7
tp32
a(I1920
S'start_time     : 1500144297\nlast_update    : 1500146220\nfuzzer_pid     : 14278\ncycles_done    : 0\nexecs_done     : 2021026\nexecs_per_sec  : 1035.98\npaths_total    : 132\npaths_favored  : 52\npaths_found    : 131\npaths_imported : 0\nmax_depth      : 6\ncur_path       : 99\npending_favs   : 12\npending_total  : 88\nvariable_paths : 0\nbitmap_cvg     : 0.92%\nunique_crashes : 0\nunique_hangs   : 0\nlast_path      : 1500146210\nlast_crash     : 0\nlast_hang      : 0\nexec_timeout   : 20\nafl_banner     : fuzzer-master\nafl_version    : 1.85b\ncommand_line   : /home/skaramcheti/.virtualenvs/afl/bin/afl-unix/afl-fuzz -i /dev/shm/work/CNMP/input -o /dev/shm/work/CNMP/sync -m 4G -Q -M fuzzer-master -x /dev/shm/work/CNMP/CNMP.dict -- data/linux/processed-challenges/CNMP/bin/CNMP\n'
p33
I3
tp34
a(I2040
S'start_time     : 1500144297\nlast_update    : 1500146341\nfuzzer_pid     : 14278\ncycles_done    : 0\nexecs_done     : 2143171\nexecs_per_sec  : 1004.81\npaths_total    : 135\npaths_favored  : 53\npaths_found    : 134\npaths_imported : 0\nmax_depth      : 6\ncur_path       : 107\npending_favs   : 10\npending_total  : 87\nvariable_paths : 0\nbitmap_cvg     : 0.92%\nunique_crashes : 0\nunique_hangs   : 0\nlast_path      : 1500146317\nlast_crash     : 0\nlast_hang      : 0\nexec_timeout   : 20\nafl_banner     : fuzzer-master\nafl_version    : 1.85b\ncommand_line   : /home/skaramcheti/.virtualenvs/afl/bin/afl-unix/afl-fuzz -i /dev/shm/work/CNMP/input -o /dev/shm/work/CNMP/sync -m 4G -Q -M fuzzer-master -x /dev/shm/work/CNMP/CNMP.dict -- data/linux/processed-challenges/CNMP/bin/CNMP\n'
p35
I3
tp36
a(I2160
S'start_time     : 1500144297\nlast_update    : 1500146461\nfuzzer_pid     : 14278\ncycles_done    : 0\nexecs_done     : 2261537\nexecs_per_sec  : 939.18\npaths_total    : 136\npaths_favored  : 53\npaths_found    : 135\npaths_imported : 0\nmax_depth      : 7\ncur_path       : 118\npending_favs   : 5\npending_total  : 83\nvariable_paths : 0\nbitmap_cvg     : 0.92%\nunique_crashes : 0\nunique_hangs   : 0\nlast_path      : 1500146459\nlast_crash     : 0\nlast_hang      : 0\nexec_timeout   : 20\nafl_banner     : fuzzer-master\nafl_version    : 1.85b\ncommand_line   : /home/skaramcheti/.virtualenvs/afl/bin/afl-unix/afl-fuzz -i /dev/shm/work/CNMP/input -o /dev/shm/work/CNMP/sync -m 4G -Q -M fuzzer-master -x /dev/shm/work/CNMP/CNMP.dict -- data/linux/processed-challenges/CNMP/bin/CNMP\n'
p37
I4
tp38
a(I2280
S'start_time     : 1500144297\nlast_update    : 1500146581\nfuzzer_pid     : 14278\ncycles_done    : 0\nexecs_done     : 2383754\nexecs_per_sec  : 1017.20\npaths_total    : 141\npaths_favored  : 53\npaths_found    : 140\npaths_imported : 0\nmax_depth      : 7\ncur_path       : 118\npending_favs   : 5\npending_total  : 88\nvariable_paths : 0\nbitmap_cvg     : 0.93%\nunique_crashes : 0\nunique_hangs   : 0\nlast_path      : 1500146509\nlast_crash     : 0\nlast_hang      : 0\nexec_timeout   : 20\nafl_banner     : fuzzer-master\nafl_version    : 1.85b\ncommand_line   : /home/skaramcheti/.virtualenvs/afl/bin/afl-unix/afl-fuzz -i /dev/shm/work/CNMP/input -o /dev/shm/work/CNMP/sync -m 4G -Q -M fuzzer-master -x /dev/shm/work/CNMP/CNMP.dict -- data/linux/processed-challenges/CNMP/bin/CNMP\n'
p39
I2
tp40
a(I2400
S'start_time     : 1500144297\nlast_update    : 1500146701\nfuzzer_pid     : 14278\ncycles_done    : 0\nexecs_done     : 2504112\nexecs_per_sec  : 1007.60\npaths_total    : 144\npaths_favored  : 54\npaths_found    : 143\npaths_imported : 0\nmax_depth      : 7\ncur_path       : 129\npending_favs   : 3\npending_total  : 88\nvariable_paths : 0\nbitmap_cvg     : 0.93%\nunique_crashes : 0\nunique_hangs   : 0\nlast_path      : 1500146694\nlast_crash     : 0\nlast_hang      : 0\nexec_timeout   : 20\nafl_banner     : fuzzer-master\nafl_version    : 1.85b\ncommand_line   : /home/skaramcheti/.virtualenvs/afl/bin/afl-unix/afl-fuzz -i /dev/shm/work/CNMP/input -o /dev/shm/work/CNMP/sync -m 4G -Q -M fuzzer-master -x /dev/shm/work/CNMP/CNMP.dict -- data/linux/processed-challenges/CNMP/bin/CNMP\n'
p41
I3
tp42
a(I2520
S'start_time     : 1500144297\nlast_update    : 1500146822\nfuzzer_pid     : 14278\ncycles_done    : 0\nexecs_done     : 2623071\nexecs_per_sec  : 963.10\npaths_total    : 149\npaths_favored  : 55\npaths_found    : 148\npaths_imported : 0\nmax_depth      : 8\ncur_path       : 143\npending_favs   : 3\npending_total  : 89\nvariable_paths : 0\nbitmap_cvg     : 0.94%\nunique_crashes : 0\nunique_hangs   : 0\nlast_path      : 1500146812\nlast_crash     : 0\nlast_hang      : 0\nexec_timeout   : 20\nafl_banner     : fuzzer-master\nafl_version    : 1.85b\ncommand_line   : /home/skaramcheti/.virtualenvs/afl/bin/afl-unix/afl-fuzz -i /dev/shm/work/CNMP/input -o /dev/shm/work/CNMP/sync -m 4G -Q -M fuzzer-master -x /dev/shm/work/CNMP/CNMP.dict -- data/linux/processed-challenges/CNMP/bin/CNMP\n'
p43
I5
tp44
a(I2640
S'start_time     : 1500144297\nlast_update    : 1500146942\nfuzzer_pid     : 14278\ncycles_done    : 0\nexecs_done     : 2739420\nexecs_per_sec  : 945.32\npaths_total    : 150\npaths_favored  : 57\npaths_found    : 149\npaths_imported : 0\nmax_depth      : 9\ncur_path       : 146\npending_favs   : 4\npending_total  : 88\nvariable_paths : 0\nbitmap_cvg     : 0.94%\nunique_crashes : 0\nunique_hangs   : 0\nlast_path      : 1500146878\nlast_crash     : 0\nlast_hang      : 0\nexec_timeout   : 20\nafl_banner     : fuzzer-master\nafl_version    : 1.85b\ncommand_line   : /home/skaramcheti/.virtualenvs/afl/bin/afl-unix/afl-fuzz -i /dev/shm/work/CNMP/input -o /dev/shm/work/CNMP/sync -m 4G -Q -M fuzzer-master -x /dev/shm/work/CNMP/CNMP.dict -- data/linux/processed-challenges/CNMP/bin/CNMP\n'
p45
I1
tp46
a(I2760
S'start_time     : 1500144297\nlast_update    : 1500147062\nfuzzer_pid     : 14278\ncycles_done    : 0\nexecs_done     : 2857422\nexecs_per_sec  : 868.10\npaths_total    : 152\npaths_favored  : 57\npaths_found    : 151\npaths_imported : 0\nmax_depth      : 9\ncur_path       : 147\npending_favs   : 3\npending_total  : 89\nvariable_paths : 0\nbitmap_cvg     : 0.94%\nunique_crashes : 0\nunique_hangs   : 0\nlast_path      : 1500146981\nlast_crash     : 0\nlast_hang      : 0\nexec_timeout   : 20\nafl_banner     : fuzzer-master\nafl_version    : 1.85b\ncommand_line   : /home/skaramcheti/.virtualenvs/afl/bin/afl-unix/afl-fuzz -i /dev/shm/work/CNMP/input -o /dev/shm/work/CNMP/sync -m 4G -Q -M fuzzer-master -x /dev/shm/work/CNMP/CNMP.dict -- data/linux/processed-challenges/CNMP/bin/CNMP\n'
p47
I2
tp48
a(I2880
S'start_time     : 1500144297\nlast_update    : 1500147182\nfuzzer_pid     : 14278\ncycles_done    : 1\nexecs_done     : 2976450\nexecs_per_sec  : 1022.01\npaths_total    : 152\npaths_favored  : 57\npaths_found    : 151\npaths_imported : 0\nmax_depth      : 9\ncur_path       : 65\npending_favs   : 0\npending_total  : 85\nvariable_paths : 0\nbitmap_cvg     : 0.94%\nunique_crashes : 0\nunique_hangs   : 0\nlast_path      : 1500146981\nlast_crash     : 0\nlast_hang      : 0\nexec_timeout   : 20\nafl_banner     : fuzzer-master\nafl_version    : 1.85b\ncommand_line   : /home/skaramcheti/.virtualenvs/afl/bin/afl-unix/afl-fuzz -i /dev/shm/work/CNMP/input -o /dev/shm/work/CNMP/sync -m 4G -Q -M fuzzer-master -x /dev/shm/work/CNMP/CNMP.dict -- data/linux/processed-challenges/CNMP/bin/CNMP\n'
p49
I0
tp50
a(I3000
S'start_time     : 1500144297\nlast_update    : 1500147302\nfuzzer_pid     : 14278\ncycles_done    : 1\nexecs_done     : 3053116\nexecs_per_sec  : 778.99\npaths_total    : 157\npaths_favored  : 57\npaths_found    : 156\npaths_imported : 0\nmax_depth      : 9\ncur_path       : 75\npending_favs   : 0\npending_total  : 90\nvariable_paths : 0\nbitmap_cvg     : 0.94%\nunique_crashes : 0\nunique_hangs   : 0\nlast_path      : 1500147300\nlast_crash     : 0\nlast_hang      : 0\nexec_timeout   : 20\nafl_banner     : fuzzer-master\nafl_version    : 1.85b\ncommand_line   : /home/skaramcheti/.virtualenvs/afl/bin/afl-unix/afl-fuzz -i /dev/shm/work/CNMP/input -o /dev/shm/work/CNMP/sync -m 4G -Q -M fuzzer-master -x /dev/shm/work/CNMP/CNMP.dict -- data/linux/processed-challenges/CNMP/bin/CNMP\n'
p51
I5
tp52
a(I3120
S'start_time     : 1500144297\nlast_update    : 1500147422\nfuzzer_pid     : 14278\ncycles_done    : 1\nexecs_done     : 3150040\nexecs_per_sec  : 820.56\npaths_total    : 160\npaths_favored  : 57\npaths_found    : 159\npaths_imported : 0\nmax_depth      : 9\ncur_path       : 75\npending_favs   : 0\npending_total  : 93\nvariable_paths : 0\nbitmap_cvg     : 0.94%\nunique_crashes : 0\nunique_hangs   : 0\nlast_path      : 1500147351\nlast_crash     : 0\nlast_hang      : 0\nexec_timeout   : 20\nafl_banner     : fuzzer-master\nafl_version    : 1.85b\ncommand_line   : /home/skaramcheti/.virtualenvs/afl/bin/afl-unix/afl-fuzz -i /dev/shm/work/CNMP/input -o /dev/shm/work/CNMP/sync -m 4G -Q -M fuzzer-master -x /dev/shm/work/CNMP/CNMP.dict -- data/linux/processed-challenges/CNMP/bin/CNMP\n'
p53
I3
tp54
a(I3240
S'start_time     : 1500144297\nlast_update    : 1500147543\nfuzzer_pid     : 14278\ncycles_done    : 1\nexecs_done     : 3250205\nexecs_per_sec  : 816.56\npaths_total    : 160\npaths_favored  : 57\npaths_found    : 159\npaths_imported : 0\nmax_depth      : 9\ncur_path       : 77\npending_favs   : 0\npending_total  : 92\nvariable_paths : 0\nbitmap_cvg     : 0.94%\nunique_crashes : 0\nunique_hangs   : 0\nlast_path      : 1500147351\nlast_crash     : 0\nlast_hang      : 0\nexec_timeout   : 20\nafl_banner     : fuzzer-master\nafl_version    : 1.85b\ncommand_line   : /home/skaramcheti/.virtualenvs/afl/bin/afl-unix/afl-fuzz -i /dev/shm/work/CNMP/input -o /dev/shm/work/CNMP/sync -m 4G -Q -M fuzzer-master -x /dev/shm/work/CNMP/CNMP.dict -- data/linux/processed-challenges/CNMP/bin/CNMP\n'
p55
I0
tp56
a(I3360
S'start_time     : 1500144297\nlast_update    : 1500147663\nfuzzer_pid     : 14278\ncycles_done    : 1\nexecs_done     : 3371395\nexecs_per_sec  : 1065.50\npaths_total    : 162\npaths_favored  : 57\npaths_found    : 161\npaths_imported : 0\nmax_depth      : 9\ncur_path       : 94\npending_favs   : 0\npending_total  : 93\nvariable_paths : 0\nbitmap_cvg     : 0.94%\nunique_crashes : 0\nunique_hangs   : 0\nlast_path      : 1500147619\nlast_crash     : 0\nlast_hang      : 0\nexec_timeout   : 20\nafl_banner     : fuzzer-master\nafl_version    : 1.85b\ncommand_line   : /home/skaramcheti/.virtualenvs/afl/bin/afl-unix/afl-fuzz -i /dev/shm/work/CNMP/input -o /dev/shm/work/CNMP/sync -m 4G -Q -M fuzzer-master -x /dev/shm/work/CNMP/CNMP.dict -- data/linux/processed-challenges/CNMP/bin/CNMP\n'
p57
I2
tp58
a(I3480
S'start_time     : 1500144297\nlast_update    : 1500147783\nfuzzer_pid     : 14278\ncycles_done    : 1\nexecs_done     : 3495412\nexecs_per_sec  : 1051.56\npaths_total    : 162\npaths_favored  : 57\npaths_found    : 161\npaths_imported : 0\nmax_depth      : 9\ncur_path       : 109\npending_favs   : 0\npending_total  : 91\nvariable_paths : 0\nbitmap_cvg     : 0.94%\nunique_crashes : 0\nunique_hangs   : 0\nlast_path      : 1500147619\nlast_crash     : 0\nlast_hang      : 0\nexec_timeout   : 20\nafl_banner     : fuzzer-master\nafl_version    : 1.85b\ncommand_line   : /home/skaramcheti/.virtualenvs/afl/bin/afl-unix/afl-fuzz -i /dev/shm/work/CNMP/input -o /dev/shm/work/CNMP/sync -m 4G -Q -M fuzzer-master -x /dev/shm/work/CNMP/CNMP.dict -- data/linux/processed-challenges/CNMP/bin/CNMP\n'
p59
I0
tp60
a(I3600
S'start_time     : 1500144297\nlast_update    : 1500147903\nfuzzer_pid     : 14278\ncycles_done    : 1\nexecs_done     : 3621294\nexecs_per_sec  : 1066.13\npaths_total    : 164\npaths_favored  : 57\npaths_found    : 163\npaths_imported : 0\nmax_depth      : 9\ncur_path       : 142\npending_favs   : 0\npending_total  : 92\nvariable_paths : 0\nbitmap_cvg     : 0.94%\nunique_crashes : 0\nunique_hangs   : 0\nlast_path      : 1500147812\nlast_crash     : 0\nlast_hang      : 0\nexec_timeout   : 20\nafl_banner     : fuzzer-master\nafl_version    : 1.85b\ncommand_line   : /home/skaramcheti/.virtualenvs/afl/bin/afl-unix/afl-fuzz -i /dev/shm/work/CNMP/input -o /dev/shm/work/CNMP/sync -m 4G -Q -M fuzzer-master -x /dev/shm/work/CNMP/CNMP.dict -- data/linux/processed-challenges/CNMP/bin/CNMP\n'
p61
I2
tp62
a(I3720
S'start_time     : 1500144297\nlast_update    : 1500148024\nfuzzer_pid     : 14278\ncycles_done    : 1\nexecs_done     : 3743149\nexecs_per_sec  : 892.92\npaths_total    : 165\npaths_favored  : 56\npaths_found    : 164\npaths_imported : 0\nmax_depth      : 9\ncur_path       : 164\npending_favs   : 1\npending_total  : 93\nvariable_paths : 0\nbitmap_cvg     : 0.94%\nunique_crashes : 0\nunique_hangs   : 0\nlast_path      : 1500147970\nlast_crash     : 0\nlast_hang      : 0\nexec_timeout   : 20\nafl_banner     : fuzzer-master\nafl_version    : 1.85b\ncommand_line   : /home/skaramcheti/.virtualenvs/afl/bin/afl-unix/afl-fuzz -i /dev/shm/work/CNMP/input -o /dev/shm/work/CNMP/sync -m 4G -Q -M fuzzer-master -x /dev/shm/work/CNMP/CNMP.dict -- data/linux/processed-challenges/CNMP/bin/CNMP\n'
p63
I1
tp64
a(I3840
S'start_time     : 1500144297\nlast_update    : 1500148144\nfuzzer_pid     : 14278\ncycles_done    : 2\nexecs_done     : 3863616\nexecs_per_sec  : 1004.37\npaths_total    : 165\npaths_favored  : 56\npaths_found    : 164\npaths_imported : 0\nmax_depth      : 9\ncur_path       : 20\npending_favs   : 0\npending_total  : 89\nvariable_paths : 0\nbitmap_cvg     : 0.94%\nunique_crashes : 0\nunique_hangs   : 0\nlast_path      : 1500147970\nlast_crash     : 0\nlast_hang      : 0\nexec_timeout   : 20\nafl_banner     : fuzzer-master\nafl_version    : 1.85b\ncommand_line   : /home/skaramcheti/.virtualenvs/afl/bin/afl-unix/afl-fuzz -i /dev/shm/work/CNMP/input -o /dev/shm/work/CNMP/sync -m 4G -Q -M fuzzer-master -x /dev/shm/work/CNMP/CNMP.dict -- data/linux/processed-challenges/CNMP/bin/CNMP\n'
p65
I0
tp66
a(I3960
S'start_time     : 1500144297\nlast_update    : 1500148264\nfuzzer_pid     : 14278\ncycles_done    : 2\nexecs_done     : 3984542\nexecs_per_sec  : 1062.35\npaths_total    : 165\npaths_favored  : 56\npaths_found    : 164\npaths_imported : 0\nmax_depth      : 9\ncur_path       : 37\npending_favs   : 0\npending_total  : 86\nvariable_paths : 0\nbitmap_cvg     : 0.94%\nunique_crashes : 0\nunique_hangs   : 0\nlast_path      : 1500147970\nlast_crash     : 0\nlast_hang      : 0\nexec_timeout   : 20\nafl_banner     : fuzzer-master\nafl_version    : 1.85b\ncommand_line   : /home/skaramcheti/.virtualenvs/afl/bin/afl-unix/afl-fuzz -i /dev/shm/work/CNMP/input -o /dev/shm/work/CNMP/sync -m 4G -Q -M fuzzer-master -x /dev/shm/work/CNMP/CNMP.dict -- data/linux/processed-challenges/CNMP/bin/CNMP\n'
p67
I0
tp68
a(I4080
S'start_time     : 1500144297\nlast_update    : 1500148384\nfuzzer_pid     : 14278\ncycles_done    : 2\nexecs_done     : 4098979\nexecs_per_sec  : 876.70\npaths_total    : 166\npaths_favored  : 56\npaths_found    : 165\npaths_imported : 0\nmax_depth      : 9\ncur_path       : 44\npending_favs   : 0\npending_total  : 87\nvariable_paths : 0\nbitmap_cvg     : 0.94%\nunique_crashes : 0\nunique_hangs   : 0\nlast_path      : 1500148296\nlast_crash     : 0\nlast_hang      : 0\nexec_timeout   : 20\nafl_banner     : fuzzer-master\nafl_version    : 1.85b\ncommand_line   : /home/skaramcheti/.virtualenvs/afl/bin/afl-unix/afl-fuzz -i /dev/shm/work/CNMP/input -o /dev/shm/work/CNMP/sync -m 4G -Q -M fuzzer-master -x /dev/shm/work/CNMP/CNMP.dict -- data/linux/processed-challenges/CNMP/bin/CNMP\n'
p69
I1
tp70
a(I4200
S'start_time     : 1500144297\nlast_update    : 1500148504\nfuzzer_pid     : 14278\ncycles_done    : 2\nexecs_done     : 4221340\nexecs_per_sec  : 987.18\npaths_total    : 166\npaths_favored  : 56\npaths_found    : 165\npaths_imported : 0\nmax_depth      : 9\ncur_path       : 56\npending_favs   : 0\npending_total  : 84\nvariable_paths : 0\nbitmap_cvg     : 0.94%\nunique_crashes : 0\nunique_hangs   : 0\nlast_path      : 1500148296\nlast_crash     : 0\nlast_hang      : 0\nexec_timeout   : 20\nafl_banner     : fuzzer-master\nafl_version    : 1.85b\ncommand_line   : /home/skaramcheti/.virtualenvs/afl/bin/afl-unix/afl-fuzz -i /dev/shm/work/CNMP/input -o /dev/shm/work/CNMP/sync -m 4G -Q -M fuzzer-master -x /dev/shm/work/CNMP/CNMP.dict -- data/linux/processed-challenges/CNMP/bin/CNMP\n'
p71
I0
tp72
a(I4320
S'start_time     : 1500144297\nlast_update    : 1500148624\nfuzzer_pid     : 14278\ncycles_done    : 2\nexecs_done     : 4334189\nexecs_per_sec  : 585.63\npaths_total    : 166\npaths_favored  : 56\npaths_found    : 165\npaths_imported : 0\nmax_depth      : 9\ncur_path       : 74\npending_favs   : 0\npending_total  : 82\nvariable_paths : 0\nbitmap_cvg     : 0.94%\nunique_crashes : 0\nunique_hangs   : 0\nlast_path      : 1500148296\nlast_crash     : 0\nlast_hang      : 0\nexec_timeout   : 20\nafl_banner     : fuzzer-master\nafl_version    : 1.85b\ncommand_line   : /home/skaramcheti/.virtualenvs/afl/bin/afl-unix/afl-fuzz -i /dev/shm/work/CNMP/input -o /dev/shm/work/CNMP/sync -m 4G -Q -M fuzzer-master -x /dev/shm/work/CNMP/CNMP.dict -- data/linux/processed-challenges/CNMP/bin/CNMP\n'
p73
I0
tp74
a(I4440
S'start_time     : 1500144297\nlast_update    : 1500148745\nfuzzer_pid     : 14278\ncycles_done    : 2\nexecs_done     : 4439008\nexecs_per_sec  : 1043.66\npaths_total    : 166\npaths_favored  : 56\npaths_found    : 165\npaths_imported : 0\nmax_depth      : 9\ncur_path       : 91\npending_favs   : 0\npending_total  : 80\nvariable_paths : 0\nbitmap_cvg     : 0.94%\nunique_crashes : 0\nunique_hangs   : 0\nlast_path      : 1500148296\nlast_crash     : 0\nlast_hang      : 0\nexec_timeout   : 20\nafl_banner     : fuzzer-master\nafl_version    : 1.85b\ncommand_line   : /home/skaramcheti/.virtualenvs/afl/bin/afl-unix/afl-fuzz -i /dev/shm/work/CNMP/input -o /dev/shm/work/CNMP/sync -m 4G -Q -M fuzzer-master -x /dev/shm/work/CNMP/CNMP.dict -- data/linux/processed-challenges/CNMP/bin/CNMP\n'
p75
I0
tp76
a(I4560
S'start_time     : 1500144297\nlast_update    : 1500148865\nfuzzer_pid     : 14278\ncycles_done    : 2\nexecs_done     : 4564380\nexecs_per_sec  : 1029.20\npaths_total    : 166\npaths_favored  : 56\npaths_found    : 165\npaths_imported : 0\nmax_depth      : 9\ncur_path       : 107\npending_favs   : 0\npending_total  : 79\nvariable_paths : 0\nbitmap_cvg     : 0.94%\nunique_crashes : 0\nunique_hangs   : 0\nlast_path      : 1500148296\nlast_crash     : 0\nlast_hang      : 0\nexec_timeout   : 20\nafl_banner     : fuzzer-master\nafl_version    : 1.85b\ncommand_line   : /home/skaramcheti/.virtualenvs/afl/bin/afl-unix/afl-fuzz -i /dev/shm/work/CNMP/input -o /dev/shm/work/CNMP/sync -m 4G -Q -M fuzzer-master -x /dev/shm/work/CNMP/CNMP.dict -- data/linux/processed-challenges/CNMP/bin/CNMP\n'
p77
I0
tp78
a(I4680
S'start_time     : 1500144297\nlast_update    : 1500148985\nfuzzer_pid     : 14278\ncycles_done    : 2\nexecs_done     : 4680251\nexecs_per_sec  : 883.45\npaths_total    : 168\npaths_favored  : 56\npaths_found    : 167\npaths_imported : 0\nmax_depth      : 9\ncur_path       : 114\npending_favs   : 0\npending_total  : 80\nvariable_paths : 0\nbitmap_cvg     : 0.94%\nunique_crashes : 0\nunique_hangs   : 0\nlast_path      : 1500148904\nlast_crash     : 0\nlast_hang      : 0\nexec_timeout   : 20\nafl_banner     : fuzzer-master\nafl_version    : 1.85b\ncommand_line   : /home/skaramcheti/.virtualenvs/afl/bin/afl-unix/afl-fuzz -i /dev/shm/work/CNMP/input -o /dev/shm/work/CNMP/sync -m 4G -Q -M fuzzer-master -x /dev/shm/work/CNMP/CNMP.dict -- data/linux/processed-challenges/CNMP/bin/CNMP\n'
p79
I2
tp80
a(I4800
S'start_time     : 1500144297\nlast_update    : 1500149105\nfuzzer_pid     : 14278\ncycles_done    : 2\nexecs_done     : 4799660\nexecs_per_sec  : 907.91\npaths_total    : 170\npaths_favored  : 56\npaths_found    : 169\npaths_imported : 0\nmax_depth      : 9\ncur_path       : 124\npending_favs   : 0\npending_total  : 80\nvariable_paths : 0\nbitmap_cvg     : 0.94%\nunique_crashes : 0\nunique_hangs   : 0\nlast_path      : 1500149004\nlast_crash     : 0\nlast_hang      : 0\nexec_timeout   : 20\nafl_banner     : fuzzer-master\nafl_version    : 1.85b\ncommand_line   : /home/skaramcheti/.virtualenvs/afl/bin/afl-unix/afl-fuzz -i /dev/shm/work/CNMP/input -o /dev/shm/work/CNMP/sync -m 4G -Q -M fuzzer-master -x /dev/shm/work/CNMP/CNMP.dict -- data/linux/processed-challenges/CNMP/bin/CNMP\n'
p81
I2
tp82
a(I4920
S'start_time     : 1500144297\nlast_update    : 1500149225\nfuzzer_pid     : 14278\ncycles_done    : 2\nexecs_done     : 4904697\nexecs_per_sec  : 801.12\npaths_total    : 173\npaths_favored  : 57\npaths_found    : 172\npaths_imported : 0\nmax_depth      : 9\ncur_path       : 149\npending_favs   : 1\npending_total  : 82\nvariable_paths : 0\nbitmap_cvg     : 0.94%\nunique_crashes : 0\nunique_hangs   : 0\nlast_path      : 1500149137\nlast_crash     : 0\nlast_hang      : 0\nexec_timeout   : 20\nafl_banner     : fuzzer-master\nafl_version    : 1.85b\ncommand_line   : /home/skaramcheti/.virtualenvs/afl/bin/afl-unix/afl-fuzz -i /dev/shm/work/CNMP/input -o /dev/shm/work/CNMP/sync -m 4G -Q -M fuzzer-master -x /dev/shm/work/CNMP/CNMP.dict -- data/linux/processed-challenges/CNMP/bin/CNMP\n'
p83
I3
tp84
a(I5040
S'start_time     : 1500144297\nlast_update    : 1500149346\nfuzzer_pid     : 14278\ncycles_done    : 2\nexecs_done     : 5006597\nexecs_per_sec  : 910.40\npaths_total    : 175\npaths_favored  : 57\npaths_found    : 174\npaths_imported : 0\nmax_depth      : 10\ncur_path       : 149\npending_favs   : 1\npending_total  : 84\nvariable_paths : 0\nbitmap_cvg     : 0.94%\nunique_crashes : 0\nunique_hangs   : 0\nlast_path      : 1500149297\nlast_crash     : 0\nlast_hang      : 0\nexec_timeout   : 20\nafl_banner     : fuzzer-master\nafl_version    : 1.85b\ncommand_line   : /home/skaramcheti/.virtualenvs/afl/bin/afl-unix/afl-fuzz -i /dev/shm/work/CNMP/input -o /dev/shm/work/CNMP/sync -m 4G -Q -M fuzzer-master -x /dev/shm/work/CNMP/CNMP.dict -- data/linux/processed-challenges/CNMP/bin/CNMP\n'
p85
I2
tp86
a(I5160
S'start_time     : 1500144297\nlast_update    : 1500149466\nfuzzer_pid     : 14278\ncycles_done    : 3\nexecs_done     : 5116549\nexecs_per_sec  : 1064.58\npaths_total    : 175\npaths_favored  : 57\npaths_found    : 174\npaths_imported : 0\nmax_depth      : 10\ncur_path       : 5\npending_favs   : 0\npending_total  : 80\nvariable_paths : 0\nbitmap_cvg     : 0.94%\nunique_crashes : 0\nunique_hangs   : 0\nlast_path      : 1500149297\nlast_crash     : 0\nlast_hang      : 0\nexec_timeout   : 20\nafl_banner     : fuzzer-master\nafl_version    : 1.85b\ncommand_line   : /home/skaramcheti/.virtualenvs/afl/bin/afl-unix/afl-fuzz -i /dev/shm/work/CNMP/input -o /dev/shm/work/CNMP/sync -m 4G -Q -M fuzzer-master -x /dev/shm/work/CNMP/CNMP.dict -- data/linux/processed-challenges/CNMP/bin/CNMP\n'
p87
I0
tp88
a(I5280
S'start_time     : 1500144297\nlast_update    : 1500149586\nfuzzer_pid     : 14278\ncycles_done    : 3\nexecs_done     : 5240708\nexecs_per_sec  : 1073.33\npaths_total    : 175\npaths_favored  : 57\npaths_found    : 174\npaths_imported : 0\nmax_depth      : 10\ncur_path       : 37\npending_favs   : 0\npending_total  : 76\nvariable_paths : 0\nbitmap_cvg     : 0.94%\nunique_crashes : 0\nunique_hangs   : 0\nlast_path      : 1500149297\nlast_crash     : 0\nlast_hang      : 0\nexec_timeout   : 20\nafl_banner     : fuzzer-master\nafl_version    : 1.85b\ncommand_line   : /home/skaramcheti/.virtualenvs/afl/bin/afl-unix/afl-fuzz -i /dev/shm/work/CNMP/input -o /dev/shm/work/CNMP/sync -m 4G -Q -M fuzzer-master -x /dev/shm/work/CNMP/CNMP.dict -- data/linux/processed-challenges/CNMP/bin/CNMP\n'
p89
I0
tp90
a(I5400
S'start_time     : 1500144297\nlast_update    : 1500149706\nfuzzer_pid     : 14278\ncycles_done    : 3\nexecs_done     : 5368817\nexecs_per_sec  : 1045.66\npaths_total    : 175\npaths_favored  : 57\npaths_found    : 174\npaths_imported : 0\nmax_depth      : 10\ncur_path       : 65\npending_favs   : 0\npending_total  : 76\nvariable_paths : 0\nbitmap_cvg     : 0.94%\nunique_crashes : 0\nunique_hangs   : 0\nlast_path      : 1500149297\nlast_crash     : 0\nlast_hang      : 0\nexec_timeout   : 20\nafl_banner     : fuzzer-master\nafl_version    : 1.85b\ncommand_line   : /home/skaramcheti/.virtualenvs/afl/bin/afl-unix/afl-fuzz -i /dev/shm/work/CNMP/input -o /dev/shm/work/CNMP/sync -m 4G -Q -M fuzzer-master -x /dev/shm/work/CNMP/CNMP.dict -- data/linux/processed-challenges/CNMP/bin/CNMP\n'
p91
I0
tp92
a(I5520
S'start_time     : 1500144297\nlast_update    : 1500149827\nfuzzer_pid     : 14278\ncycles_done    : 3\nexecs_done     : 5486723\nexecs_per_sec  : 989.43\npaths_total    : 179\npaths_favored  : 57\npaths_found    : 178\npaths_imported : 0\nmax_depth      : 10\ncur_path       : 69\npending_favs   : 0\npending_total  : 79\nvariable_paths : 0\nbitmap_cvg     : 0.94%\nunique_crashes : 0\nunique_hangs   : 0\nlast_path      : 1500149805\nlast_crash     : 0\nlast_hang      : 0\nexec_timeout   : 20\nafl_banner     : fuzzer-master\nafl_version    : 1.85b\ncommand_line   : /home/skaramcheti/.virtualenvs/afl/bin/afl-unix/afl-fuzz -i /dev/shm/work/CNMP/input -o /dev/shm/work/CNMP/sync -m 4G -Q -M fuzzer-master -x /dev/shm/work/CNMP/CNMP.dict -- data/linux/processed-challenges/CNMP/bin/CNMP\n'
p93
I4
tp94
a(I5640
S'start_time     : 1500144297\nlast_update    : 1500149947\nfuzzer_pid     : 14278\ncycles_done    : 3\nexecs_done     : 5610376\nexecs_per_sec  : 1066.14\npaths_total    : 179\npaths_favored  : 57\npaths_found    : 178\npaths_imported : 0\nmax_depth      : 10\ncur_path       : 69\npending_favs   : 0\npending_total  : 79\nvariable_paths : 0\nbitmap_cvg     : 0.94%\nunique_crashes : 0\nunique_hangs   : 0\nlast_path      : 1500149805\nlast_crash     : 0\nlast_hang      : 0\nexec_timeout   : 20\nafl_banner     : fuzzer-master\nafl_version    : 1.85b\ncommand_line   : /home/skaramcheti/.virtualenvs/afl/bin/afl-unix/afl-fuzz -i /dev/shm/work/CNMP/input -o /dev/shm/work/CNMP/sync -m 4G -Q -M fuzzer-master -x /dev/shm/work/CNMP/CNMP.dict -- data/linux/processed-challenges/CNMP/bin/CNMP\n'
p95
I0
tp96
a(I5760
S'start_time     : 1500144297\nlast_update    : 1500150067\nfuzzer_pid     : 14278\ncycles_done    : 3\nexecs_done     : 5700116\nexecs_per_sec  : 818.33\npaths_total    : 179\npaths_favored  : 57\npaths_found    : 178\npaths_imported : 0\nmax_depth      : 10\ncur_path       : 72\npending_favs   : 0\npending_total  : 77\nvariable_paths : 0\nbitmap_cvg     : 0.94%\nunique_crashes : 0\nunique_hangs   : 0\nlast_path      : 1500149805\nlast_crash     : 0\nlast_hang      : 0\nexec_timeout   : 20\nafl_banner     : fuzzer-master\nafl_version    : 1.85b\ncommand_line   : /home/skaramcheti/.virtualenvs/afl/bin/afl-unix/afl-fuzz -i /dev/shm/work/CNMP/input -o /dev/shm/work/CNMP/sync -m 4G -Q -M fuzzer-master -x /dev/shm/work/CNMP/CNMP.dict -- data/linux/processed-challenges/CNMP/bin/CNMP\n'
p97
I0
tp98
a(I5880
S'start_time     : 1500144297\nlast_update    : 1500150187\nfuzzer_pid     : 14278\ncycles_done    : 3\nexecs_done     : 5804889\nexecs_per_sec  : 1056.15\npaths_total    : 179\npaths_favored  : 57\npaths_found    : 178\npaths_imported : 0\nmax_depth      : 10\ncur_path       : 85\npending_favs   : 0\npending_total  : 75\nvariable_paths : 0\nbitmap_cvg     : 0.94%\nunique_crashes : 0\nunique_hangs   : 0\nlast_path      : 1500149805\nlast_crash     : 0\nlast_hang      : 0\nexec_timeout   : 20\nafl_banner     : fuzzer-master\nafl_version    : 1.85b\ncommand_line   : /home/skaramcheti/.virtualenvs/afl/bin/afl-unix/afl-fuzz -i /dev/shm/work/CNMP/input -o /dev/shm/work/CNMP/sync -m 4G -Q -M fuzzer-master -x /dev/shm/work/CNMP/CNMP.dict -- data/linux/processed-challenges/CNMP/bin/CNMP\n'
p99
I0
tp100
a(I6000
S'start_time     : 1500144297\nlast_update    : 1500150308\nfuzzer_pid     : 14278\ncycles_done    : 3\nexecs_done     : 5930298\nexecs_per_sec  : 1048.22\npaths_total    : 179\npaths_favored  : 57\npaths_found    : 178\npaths_imported : 0\nmax_depth      : 10\ncur_path       : 101\npending_favs   : 0\npending_total  : 74\nvariable_paths : 0\nbitmap_cvg     : 0.94%\nunique_crashes : 0\nunique_hangs   : 0\nlast_path      : 1500149805\nlast_crash     : 0\nlast_hang      : 0\nexec_timeout   : 20\nafl_banner     : fuzzer-master\nafl_version    : 1.85b\ncommand_line   : /home/skaramcheti/.virtualenvs/afl/bin/afl-unix/afl-fuzz -i /dev/shm/work/CNMP/input -o /dev/shm/work/CNMP/sync -m 4G -Q -M fuzzer-master -x /dev/shm/work/CNMP/CNMP.dict -- data/linux/processed-challenges/CNMP/bin/CNMP\n'
p101
I0
tp102
a(I6120
S'start_time     : 1500144297\nlast_update    : 1500150428\nfuzzer_pid     : 14278\ncycles_done    : 3\nexecs_done     : 6053221\nexecs_per_sec  : 914.33\npaths_total    : 180\npaths_favored  : 57\npaths_found    : 179\npaths_imported : 0\nmax_depth      : 10\ncur_path       : 131\npending_favs   : 0\npending_total  : 75\nvariable_paths : 0\nbitmap_cvg     : 0.94%\nunique_crashes : 0\nunique_hangs   : 0\nlast_path      : 1500150372\nlast_crash     : 0\nlast_hang      : 0\nexec_timeout   : 20\nafl_banner     : fuzzer-master\nafl_version    : 1.85b\ncommand_line   : /home/skaramcheti/.virtualenvs/afl/bin/afl-unix/afl-fuzz -i /dev/shm/work/CNMP/input -o /dev/shm/work/CNMP/sync -m 4G -Q -M fuzzer-master -x /dev/shm/work/CNMP/CNMP.dict -- data/linux/processed-challenges/CNMP/bin/CNMP\n'
p103
I1
tp104
a(I6240
S'start_time     : 1500144297\nlast_update    : 1500150548\nfuzzer_pid     : 14278\ncycles_done    : 3\nexecs_done     : 6162599\nexecs_per_sec  : 854.01\npaths_total    : 180\npaths_favored  : 57\npaths_found    : 179\npaths_imported : 0\nmax_depth      : 10\ncur_path       : 136\npending_favs   : 0\npending_total  : 73\nvariable_paths : 0\nbitmap_cvg     : 0.94%\nunique_crashes : 0\nunique_hangs   : 0\nlast_path      : 1500150372\nlast_crash     : 0\nlast_hang      : 0\nexec_timeout   : 20\nafl_banner     : fuzzer-master\nafl_version    : 1.85b\ncommand_line   : /home/skaramcheti/.virtualenvs/afl/bin/afl-unix/afl-fuzz -i /dev/shm/work/CNMP/input -o /dev/shm/work/CNMP/sync -m 4G -Q -M fuzzer-master -x /dev/shm/work/CNMP/CNMP.dict -- data/linux/processed-challenges/CNMP/bin/CNMP\n'
p105
I0
tp106
a(I6360
S'start_time     : 1500144297\nlast_update    : 1500150668\nfuzzer_pid     : 14278\ncycles_done    : 3\nexecs_done     : 6275466\nexecs_per_sec  : 857.37\npaths_total    : 183\npaths_favored  : 57\npaths_found    : 182\npaths_imported : 0\nmax_depth      : 10\ncur_path       : 141\npending_favs   : 0\npending_total  : 75\nvariable_paths : 0\nbitmap_cvg     : 0.94%\nunique_crashes : 0\nunique_hangs   : 0\nlast_path      : 1500150583\nlast_crash     : 0\nlast_hang      : 0\nexec_timeout   : 20\nafl_banner     : fuzzer-master\nafl_version    : 1.85b\ncommand_line   : /home/skaramcheti/.virtualenvs/afl/bin/afl-unix/afl-fuzz -i /dev/shm/work/CNMP/input -o /dev/shm/work/CNMP/sync -m 4G -Q -M fuzzer-master -x /dev/shm/work/CNMP/CNMP.dict -- data/linux/processed-challenges/CNMP/bin/CNMP\n'
p107
I3
tp108
a(I6480
S'start_time     : 1500144297\nlast_update    : 1500150789\nfuzzer_pid     : 14278\ncycles_done    : 3\nexecs_done     : 6383062\nexecs_per_sec  : 1028.60\npaths_total    : 184\npaths_favored  : 57\npaths_found    : 183\npaths_imported : 0\nmax_depth      : 10\ncur_path       : 145\npending_favs   : 0\npending_total  : 75\nvariable_paths : 0\nbitmap_cvg     : 0.94%\nunique_crashes : 0\nunique_hangs   : 0\nlast_path      : 1500150748\nlast_crash     : 0\nlast_hang      : 0\nexec_timeout   : 20\nafl_banner     : fuzzer-master\nafl_version    : 1.85b\ncommand_line   : /home/skaramcheti/.virtualenvs/afl/bin/afl-unix/afl-fuzz -i /dev/shm/work/CNMP/input -o /dev/shm/work/CNMP/sync -m 4G -Q -M fuzzer-master -x /dev/shm/work/CNMP/CNMP.dict -- data/linux/processed-challenges/CNMP/bin/CNMP\n'
p109
I1
tp110
a(I6600
S'start_time     : 1500144297\nlast_update    : 1500150909\nfuzzer_pid     : 14278\ncycles_done    : 3\nexecs_done     : 6475194\nexecs_per_sec  : 391.17\npaths_total    : 184\npaths_favored  : 57\npaths_found    : 183\npaths_imported : 0\nmax_depth      : 10\ncur_path       : 154\npending_favs   : 0\npending_total  : 75\nvariable_paths : 0\nbitmap_cvg     : 0.94%\nunique_crashes : 0\nunique_hangs   : 0\nlast_path      : 1500150748\nlast_crash     : 0\nlast_hang      : 0\nexec_timeout   : 20\nafl_banner     : fuzzer-master\nafl_version    : 1.85b\ncommand_line   : /home/skaramcheti/.virtualenvs/afl/bin/afl-unix/afl-fuzz -i /dev/shm/work/CNMP/input -o /dev/shm/work/CNMP/sync -m 4G -Q -M fuzzer-master -x /dev/shm/work/CNMP/CNMP.dict -- data/linux/processed-challenges/CNMP/bin/CNMP\n'
p111
I0
tp112
a(I6720
S'start_time     : 1500144297\nlast_update    : 1500150969\nfuzzer_pid     : 14278\ncycles_done    : 3\nexecs_done     : 6497801\nexecs_per_sec  : 375.93\npaths_total    : 184\npaths_favored  : 57\npaths_found    : 183\npaths_imported : 0\nmax_depth      : 10\ncur_path       : 154\npending_favs   : 0\npending_total  : 75\nvariable_paths : 0\nbitmap_cvg     : 0.94%\nunique_crashes : 0\nunique_hangs   : 0\nlast_path      : 1500150748\nlast_crash     : 0\nlast_hang      : 0\nexec_timeout   : 20\nafl_banner     : fuzzer-master\nafl_version    : 1.85b\ncommand_line   : /home/skaramcheti/.virtualenvs/afl/bin/afl-unix/afl-fuzz -i /dev/shm/work/CNMP/input -o /dev/shm/work/CNMP/sync -m 4G -Q -M fuzzer-master -x /dev/shm/work/CNMP/CNMP.dict -- data/linux/processed-challenges/CNMP/bin/CNMP\n'
p113
I0
tp114
a(I6840
S'start_time     : 1500144297\nlast_update    : 1500151089\nfuzzer_pid     : 14278\ncycles_done    : 3\nexecs_done     : 6551720\nexecs_per_sec  : 685.49\npaths_total    : 186\npaths_favored  : 57\npaths_found    : 185\npaths_imported : 0\nmax_depth      : 10\ncur_path       : 154\npending_favs   : 0\npending_total  : 77\nvariable_paths : 0\nbitmap_cvg     : 0.94%\nunique_crashes : 0\nunique_hangs   : 0\nlast_path      : 1500151081\nlast_crash     : 0\nlast_hang      : 0\nexec_timeout   : 20\nafl_banner     : fuzzer-master\nafl_version    : 1.85b\ncommand_line   : /home/skaramcheti/.virtualenvs/afl/bin/afl-unix/afl-fuzz -i /dev/shm/work/CNMP/input -o /dev/shm/work/CNMP/sync -m 4G -Q -M fuzzer-master -x /dev/shm/work/CNMP/CNMP.dict -- data/linux/processed-challenges/CNMP/bin/CNMP\n'
p115
I2
tp116
a(I6960
S'start_time     : 1500144297\nlast_update    : 1500151210\nfuzzer_pid     : 14278\ncycles_done    : 3\nexecs_done     : 6589235\nexecs_per_sec  : 208.92\npaths_total    : 186\npaths_favored  : 57\npaths_found    : 185\npaths_imported : 0\nmax_depth      : 10\ncur_path       : 158\npending_favs   : 0\npending_total  : 76\nvariable_paths : 0\nbitmap_cvg     : 0.94%\nunique_crashes : 0\nunique_hangs   : 0\nlast_path      : 1500151081\nlast_crash     : 0\nlast_hang      : 0\nexec_timeout   : 20\nafl_banner     : fuzzer-master\nafl_version    : 1.85b\ncommand_line   : /home/skaramcheti/.virtualenvs/afl/bin/afl-unix/afl-fuzz -i /dev/shm/work/CNMP/input -o /dev/shm/work/CNMP/sync -m 4G -Q -M fuzzer-master -x /dev/shm/work/CNMP/CNMP.dict -- data/linux/processed-challenges/CNMP/bin/CNMP\n'
p117
I0
tp118
a(I7080
S'start_time     : 1500144297\nlast_update    : 1500151330\nfuzzer_pid     : 14278\ncycles_done    : 3\nexecs_done     : 6616073\nexecs_per_sec  : 218.39\npaths_total    : 187\npaths_favored  : 57\npaths_found    : 186\npaths_imported : 0\nmax_depth      : 10\ncur_path       : 158\npending_favs   : 0\npending_total  : 77\nvariable_paths : 0\nbitmap_cvg     : 0.94%\nunique_crashes : 0\nunique_hangs   : 0\nlast_path      : 1500151306\nlast_crash     : 0\nlast_hang      : 0\nexec_timeout   : 20\nafl_banner     : fuzzer-master\nafl_version    : 1.85b\ncommand_line   : /home/skaramcheti/.virtualenvs/afl/bin/afl-unix/afl-fuzz -i /dev/shm/work/CNMP/input -o /dev/shm/work/CNMP/sync -m 4G -Q -M fuzzer-master -x /dev/shm/work/CNMP/CNMP.dict -- data/linux/processed-challenges/CNMP/bin/CNMP\n'
p119
I1
tp120
a(I7200
S'start_time     : 1500144297\nlast_update    : 1500151450\nfuzzer_pid     : 14278\ncycles_done    : 3\nexecs_done     : 6642363\nexecs_per_sec  : 226.00\npaths_total    : 187\npaths_favored  : 57\npaths_found    : 186\npaths_imported : 0\nmax_depth      : 10\ncur_path       : 158\npending_favs   : 0\npending_total  : 77\nvariable_paths : 0\nbitmap_cvg     : 0.94%\nunique_crashes : 0\nunique_hangs   : 1\nlast_path      : 1500151306\nlast_crash     : 0\nlast_hang      : 1500151356\nexec_timeout   : 20\nafl_banner     : fuzzer-master\nafl_version    : 1.85b\ncommand_line   : /home/skaramcheti/.virtualenvs/afl/bin/afl-unix/afl-fuzz -i /dev/shm/work/CNMP/input -o /dev/shm/work/CNMP/sync -m 4G -Q -M fuzzer-master -x /dev/shm/work/CNMP/CNMP.dict -- data/linux/processed-challenges/CNMP/bin/CNMP\n'
p121
I0
tp122
a(I7320
S'start_time     : 1500144297\nlast_update    : 1500151570\nfuzzer_pid     : 14278\ncycles_done    : 3\nexecs_done     : 6668771\nexecs_per_sec  : 216.84\npaths_total    : 187\npaths_favored  : 57\npaths_found    : 186\npaths_imported : 0\nmax_depth      : 10\ncur_path       : 158\npending_favs   : 0\npending_total  : 77\nvariable_paths : 0\nbitmap_cvg     : 0.94%\nunique_crashes : 0\nunique_hangs   : 1\nlast_path      : 1500151306\nlast_crash     : 0\nlast_hang      : 1500151356\nexec_timeout   : 20\nafl_banner     : fuzzer-master\nafl_version    : 1.85b\ncommand_line   : /home/skaramcheti/.virtualenvs/afl/bin/afl-unix/afl-fuzz -i /dev/shm/work/CNMP/input -o /dev/shm/work/CNMP/sync -m 4G -Q -M fuzzer-master -x /dev/shm/work/CNMP/CNMP.dict -- data/linux/processed-challenges/CNMP/bin/CNMP\n'
p123
I1
tp124
a(I7440
S'start_time     : 1500144297\nlast_update    : 1500151690\nfuzzer_pid     : 14278\ncycles_done    : 3\nexecs_done     : 6693983\nexecs_per_sec  : 205.08\npaths_total    : 189\npaths_favored  : 57\npaths_found    : 188\npaths_imported : 0\nmax_depth      : 10\ncur_path       : 158\npending_favs   : 0\npending_total  : 79\nvariable_paths : 0\nbitmap_cvg     : 0.94%\nunique_crashes : 0\nunique_hangs   : 2\nlast_path      : 1500151632\nlast_crash     : 0\nlast_hang      : 1500151665\nexec_timeout   : 20\nafl_banner     : fuzzer-master\nafl_version    : 1.85b\ncommand_line   : /home/skaramcheti/.virtualenvs/afl/bin/afl-unix/afl-fuzz -i /dev/shm/work/CNMP/input -o /dev/shm/work/CNMP/sync -m 4G -Q -M fuzzer-master -x /dev/shm/work/CNMP/CNMP.dict -- data/linux/processed-challenges/CNMP/bin/CNMP\n'
p125
I1
tp126
a(I7560
S'start_time     : 1500144297\nlast_update    : 1500151810\nfuzzer_pid     : 14278\ncycles_done    : 3\nexecs_done     : 6718511\nexecs_per_sec  : 204.05\npaths_total    : 189\npaths_favored  : 57\npaths_found    : 188\npaths_imported : 0\nmax_depth      : 10\ncur_path       : 158\npending_favs   : 0\npending_total  : 79\nvariable_paths : 0\nbitmap_cvg     : 0.94%\nunique_crashes : 0\nunique_hangs   : 2\nlast_path      : 1500151632\nlast_crash     : 0\nlast_hang      : 1500151665\nexec_timeout   : 20\nafl_banner     : fuzzer-master\nafl_version    : 1.85b\ncommand_line   : /home/skaramcheti/.virtualenvs/afl/bin/afl-unix/afl-fuzz -i /dev/shm/work/CNMP/input -o /dev/shm/work/CNMP/sync -m 4G -Q -M fuzzer-master -x /dev/shm/work/CNMP/CNMP.dict -- data/linux/processed-challenges/CNMP/bin/CNMP\n'
p127
I1
tp128
a(I7680
S'start_time     : 1500144297\nlast_update    : 1500151931\nfuzzer_pid     : 14278\ncycles_done    : 3\nexecs_done     : 6809969\nexecs_per_sec  : 1027.50\npaths_total    : 191\npaths_favored  : 57\npaths_found    : 190\npaths_imported : 0\nmax_depth      : 10\ncur_path       : 170\npending_favs   : 0\npending_total  : 79\nvariable_paths : 0\nbitmap_cvg     : 0.94%\nunique_crashes : 0\nunique_hangs   : 2\nlast_path      : 1500151921\nlast_crash     : 0\nlast_hang      : 1500151665\nexec_timeout   : 20\nafl_banner     : fuzzer-master\nafl_version    : 1.85b\ncommand_line   : /home/skaramcheti/.virtualenvs/afl/bin/afl-unix/afl-fuzz -i /dev/shm/work/CNMP/input -o /dev/shm/work/CNMP/sync -m 4G -Q -M fuzzer-master -x /dev/shm/work/CNMP/CNMP.dict -- data/linux/processed-challenges/CNMP/bin/CNMP\n'
p129
I1
tp130
a(I7800
S'start_time     : 1500144297\nlast_update    : 1500152051\nfuzzer_pid     : 14278\ncycles_done    : 3\nexecs_done     : 6903077\nexecs_per_sec  : 735.32\npaths_total    : 191\npaths_favored  : 57\npaths_found    : 190\npaths_imported : 0\nmax_depth      : 10\ncur_path       : 172\npending_favs   : 0\npending_total  : 79\nvariable_paths : 0\nbitmap_cvg     : 0.94%\nunique_crashes : 0\nunique_hangs   : 2\nlast_path      : 1500151921\nlast_crash     : 0\nlast_hang      : 1500151665\nexec_timeout   : 20\nafl_banner     : fuzzer-master\nafl_version    : 1.85b\ncommand_line   : /home/skaramcheti/.virtualenvs/afl/bin/afl-unix/afl-fuzz -i /dev/shm/work/CNMP/input -o /dev/shm/work/CNMP/sync -m 4G -Q -M fuzzer-master -x /dev/shm/work/CNMP/CNMP.dict -- data/linux/processed-challenges/CNMP/bin/CNMP\n'
p131
I0
tp132
a(I7920
S'start_time     : 1500144297\nlast_update    : 1500152171\nfuzzer_pid     : 14278\ncycles_done    : 3\nexecs_done     : 6989547\nexecs_per_sec  : 855.88\npaths_total    : 193\npaths_favored  : 57\npaths_found    : 192\npaths_imported : 0\nmax_depth      : 10\ncur_path       : 172\npending_favs   : 0\npending_total  : 81\nvariable_paths : 0\nbitmap_cvg     : 0.94%\nunique_crashes : 0\nunique_hangs   : 2\nlast_path      : 1500152158\nlast_crash     : 0\nlast_hang      : 1500151665\nexec_timeout   : 20\nafl_banner     : fuzzer-master\nafl_version    : 1.85b\ncommand_line   : /home/skaramcheti/.virtualenvs/afl/bin/afl-unix/afl-fuzz -i /dev/shm/work/CNMP/input -o /dev/shm/work/CNMP/sync -m 4G -Q -M fuzzer-master -x /dev/shm/work/CNMP/CNMP.dict -- data/linux/processed-challenges/CNMP/bin/CNMP\n'
p133
I2
tp134
a(I8040
S'start_time     : 1500144297\nlast_update    : 1500152291\nfuzzer_pid     : 14278\ncycles_done    : 3\nexecs_done     : 7089462\nexecs_per_sec  : 792.09\npaths_total    : 193\npaths_favored  : 57\npaths_found    : 192\npaths_imported : 0\nmax_depth      : 10\ncur_path       : 175\npending_favs   : 0\npending_total  : 80\nvariable_paths : 0\nbitmap_cvg     : 0.94%\nunique_crashes : 0\nunique_hangs   : 2\nlast_path      : 1500152158\nlast_crash     : 0\nlast_hang      : 1500151665\nexec_timeout   : 20\nafl_banner     : fuzzer-master\nafl_version    : 1.85b\ncommand_line   : /home/skaramcheti/.virtualenvs/afl/bin/afl-unix/afl-fuzz -i /dev/shm/work/CNMP/input -o /dev/shm/work/CNMP/sync -m 4G -Q -M fuzzer-master -x /dev/shm/work/CNMP/CNMP.dict -- data/linux/processed-challenges/CNMP/bin/CNMP\n'
p135
I1
tp136
a(I8160
S'start_time     : 1500144297\nlast_update    : 1500152411\nfuzzer_pid     : 14278\ncycles_done    : 3\nexecs_done     : 7178454\nexecs_per_sec  : 465.81\npaths_total    : 194\npaths_favored  : 57\npaths_found    : 193\npaths_imported : 0\nmax_depth      : 10\ncur_path       : 183\npending_favs   : 0\npending_total  : 80\nvariable_paths : 0\nbitmap_cvg     : 0.94%\nunique_crashes : 0\nunique_hangs   : 2\nlast_path      : 1500152330\nlast_crash     : 0\nlast_hang      : 1500151665\nexec_timeout   : 20\nafl_banner     : fuzzer-master\nafl_version    : 1.85b\ncommand_line   : /home/skaramcheti/.virtualenvs/afl/bin/afl-unix/afl-fuzz -i /dev/shm/work/CNMP/input -o /dev/shm/work/CNMP/sync -m 4G -Q -M fuzzer-master -x /dev/shm/work/CNMP/CNMP.dict -- data/linux/processed-challenges/CNMP/bin/CNMP\n'
p137
I0
tp138
a(I8280
S'start_time     : 1500144297\nlast_update    : 1500152531\nfuzzer_pid     : 14278\ncycles_done    : 3\nexecs_done     : 7236172\nexecs_per_sec  : 486.31\npaths_total    : 194\npaths_favored  : 57\npaths_found    : 193\npaths_imported : 0\nmax_depth      : 10\ncur_path       : 183\npending_favs   : 0\npending_total  : 80\nvariable_paths : 0\nbitmap_cvg     : 0.94%\nunique_crashes : 0\nunique_hangs   : 3\nlast_path      : 1500152330\nlast_crash     : 0\nlast_hang      : 1500152495\nexec_timeout   : 20\nafl_banner     : fuzzer-master\nafl_version    : 1.85b\ncommand_line   : /home/skaramcheti/.virtualenvs/afl/bin/afl-unix/afl-fuzz -i /dev/shm/work/CNMP/input -o /dev/shm/work/CNMP/sync -m 4G -Q -M fuzzer-master -x /dev/shm/work/CNMP/CNMP.dict -- data/linux/processed-challenges/CNMP/bin/CNMP\n'
p139
I0
tp140
a(I8400
S'start_time     : 1500144297\nlast_update    : 1500152652\nfuzzer_pid     : 14278\ncycles_done    : 3\nexecs_done     : 7296465\nexecs_per_sec  : 483.46\npaths_total    : 194\npaths_favored  : 57\npaths_found    : 193\npaths_imported : 0\nmax_depth      : 10\ncur_path       : 183\npending_favs   : 0\npending_total  : 80\nvariable_paths : 0\nbitmap_cvg     : 0.94%\nunique_crashes : 0\nunique_hangs   : 3\nlast_path      : 1500152330\nlast_crash     : 0\nlast_hang      : 1500152495\nexec_timeout   : 20\nafl_banner     : fuzzer-master\nafl_version    : 1.85b\ncommand_line   : /home/skaramcheti/.virtualenvs/afl/bin/afl-unix/afl-fuzz -i /dev/shm/work/CNMP/input -o /dev/shm/work/CNMP/sync -m 4G -Q -M fuzzer-master -x /dev/shm/work/CNMP/CNMP.dict -- data/linux/processed-challenges/CNMP/bin/CNMP\n'
p141
I0
tp142
a(I8520
S'start_time     : 1500144297\nlast_update    : 1500152772\nfuzzer_pid     : 14278\ncycles_done    : 3\nexecs_done     : 7355199\nexecs_per_sec  : 540.00\npaths_total    : 194\npaths_favored  : 57\npaths_found    : 193\npaths_imported : 0\nmax_depth      : 10\ncur_path       : 183\npending_favs   : 0\npending_total  : 80\nvariable_paths : 0\nbitmap_cvg     : 0.94%\nunique_crashes : 0\nunique_hangs   : 3\nlast_path      : 1500152330\nlast_crash     : 0\nlast_hang      : 1500152495\nexec_timeout   : 20\nafl_banner     : fuzzer-master\nafl_version    : 1.85b\ncommand_line   : /home/skaramcheti/.virtualenvs/afl/bin/afl-unix/afl-fuzz -i /dev/shm/work/CNMP/input -o /dev/shm/work/CNMP/sync -m 4G -Q -M fuzzer-master -x /dev/shm/work/CNMP/CNMP.dict -- data/linux/processed-challenges/CNMP/bin/CNMP\n'
p143
I0
tp144
a(I8640
S'start_time     : 1500144297\nlast_update    : 1500152892\nfuzzer_pid     : 14278\ncycles_done    : 3\nexecs_done     : 7414602\nexecs_per_sec  : 495.42\npaths_total    : 194\npaths_favored  : 57\npaths_found    : 193\npaths_imported : 0\nmax_depth      : 10\ncur_path       : 183\npending_favs   : 0\npending_total  : 80\nvariable_paths : 0\nbitmap_cvg     : 0.94%\nunique_crashes : 0\nunique_hangs   : 3\nlast_path      : 1500152330\nlast_crash     : 0\nlast_hang      : 1500152495\nexec_timeout   : 20\nafl_banner     : fuzzer-master\nafl_version    : 1.85b\ncommand_line   : /home/skaramcheti/.virtualenvs/afl/bin/afl-unix/afl-fuzz -i /dev/shm/work/CNMP/input -o /dev/shm/work/CNMP/sync -m 4G -Q -M fuzzer-master -x /dev/shm/work/CNMP/CNMP.dict -- data/linux/processed-challenges/CNMP/bin/CNMP\n'
p145
I0
tp146
a(I8760
S'start_time     : 1500144297\nlast_update    : 1500153012\nfuzzer_pid     : 14278\ncycles_done    : 3\nexecs_done     : 7474137\nexecs_per_sec  : 481.93\npaths_total    : 194\npaths_favored  : 57\npaths_found    : 193\npaths_imported : 0\nmax_depth      : 10\ncur_path       : 183\npending_favs   : 0\npending_total  : 80\nvariable_paths : 0\nbitmap_cvg     : 0.94%\nunique_crashes : 0\nunique_hangs   : 4\nlast_path      : 1500152330\nlast_crash     : 0\nlast_hang      : 1500153001\nexec_timeout   : 20\nafl_banner     : fuzzer-master\nafl_version    : 1.85b\ncommand_line   : /home/skaramcheti/.virtualenvs/afl/bin/afl-unix/afl-fuzz -i /dev/shm/work/CNMP/input -o /dev/shm/work/CNMP/sync -m 4G -Q -M fuzzer-master -x /dev/shm/work/CNMP/CNMP.dict -- data/linux/processed-challenges/CNMP/bin/CNMP\n'
p147
I0
tp148
a(I8880
S'start_time     : 1500144297\nlast_update    : 1500153133\nfuzzer_pid     : 14278\ncycles_done    : 3\nexecs_done     : 7532619\nexecs_per_sec  : 482.91\npaths_total    : 194\npaths_favored  : 57\npaths_found    : 193\npaths_imported : 0\nmax_depth      : 10\ncur_path       : 183\npending_favs   : 0\npending_total  : 80\nvariable_paths : 0\nbitmap_cvg     : 0.94%\nunique_crashes : 0\nunique_hangs   : 4\nlast_path      : 1500152330\nlast_crash     : 0\nlast_hang      : 1500153001\nexec_timeout   : 20\nafl_banner     : fuzzer-master\nafl_version    : 1.85b\ncommand_line   : /home/skaramcheti/.virtualenvs/afl/bin/afl-unix/afl-fuzz -i /dev/shm/work/CNMP/input -o /dev/shm/work/CNMP/sync -m 4G -Q -M fuzzer-master -x /dev/shm/work/CNMP/CNMP.dict -- data/linux/processed-challenges/CNMP/bin/CNMP\n'
p149
I0
tp150
a(I9000
S'start_time     : 1500144297\nlast_update    : 1500153253\nfuzzer_pid     : 14278\ncycles_done    : 3\nexecs_done     : 7590627\nexecs_per_sec  : 610.44\npaths_total    : 197\npaths_favored  : 57\npaths_found    : 196\npaths_imported : 0\nmax_depth      : 10\ncur_path       : 183\npending_favs   : 0\npending_total  : 83\nvariable_paths : 0\nbitmap_cvg     : 0.94%\nunique_crashes : 0\nunique_hangs   : 4\nlast_path      : 1500153252\nlast_crash     : 0\nlast_hang      : 1500153001\nexec_timeout   : 20\nafl_banner     : fuzzer-master\nafl_version    : 1.85b\ncommand_line   : /home/skaramcheti/.virtualenvs/afl/bin/afl-unix/afl-fuzz -i /dev/shm/work/CNMP/input -o /dev/shm/work/CNMP/sync -m 4G -Q -M fuzzer-master -x /dev/shm/work/CNMP/CNMP.dict -- data/linux/processed-challenges/CNMP/bin/CNMP\n'
p151
I9
tp152
a(I9120
S'start_time     : 1500144297\nlast_update    : 1500153373\nfuzzer_pid     : 14278\ncycles_done    : 3\nexecs_done     : 7668584\nexecs_per_sec  : 656.48\npaths_total    : 203\npaths_favored  : 57\npaths_found    : 202\npaths_imported : 0\nmax_depth      : 10\ncur_path       : 183\npending_favs   : 0\npending_total  : 89\nvariable_paths : 0\nbitmap_cvg     : 0.94%\nunique_crashes : 0\nunique_hangs   : 4\nlast_path      : 1500153307\nlast_crash     : 0\nlast_hang      : 1500153001\nexec_timeout   : 20\nafl_banner     : fuzzer-master\nafl_version    : 1.85b\ncommand_line   : /home/skaramcheti/.virtualenvs/afl/bin/afl-unix/afl-fuzz -i /dev/shm/work/CNMP/input -o /dev/shm/work/CNMP/sync -m 4G -Q -M fuzzer-master -x /dev/shm/work/CNMP/CNMP.dict -- data/linux/processed-challenges/CNMP/bin/CNMP\n'
p153
I0
tp154
a(I9240
S'start_time     : 1500144297\nlast_update    : 1500153493\nfuzzer_pid     : 14278\ncycles_done    : 3\nexecs_done     : 7699505\nexecs_per_sec  : 213.04\npaths_total    : 203\npaths_favored  : 57\npaths_found    : 202\npaths_imported : 0\nmax_depth      : 10\ncur_path       : 187\npending_favs   : 0\npending_total  : 88\nvariable_paths : 0\nbitmap_cvg     : 0.94%\nunique_crashes : 0\nunique_hangs   : 5\nlast_path      : 1500153307\nlast_crash     : 0\nlast_hang      : 1500153459\nexec_timeout   : 20\nafl_banner     : fuzzer-master\nafl_version    : 1.85b\ncommand_line   : /home/skaramcheti/.virtualenvs/afl/bin/afl-unix/afl-fuzz -i /dev/shm/work/CNMP/input -o /dev/shm/work/CNMP/sync -m 4G -Q -M fuzzer-master -x /dev/shm/work/CNMP/CNMP.dict -- data/linux/processed-challenges/CNMP/bin/CNMP\n'
p155
I0
tp156
a(I9360
S'start_time     : 1500144297\nlast_update    : 1500153614\nfuzzer_pid     : 14278\ncycles_done    : 3\nexecs_done     : 7726548\nexecs_per_sec  : 219.17\npaths_total    : 203\npaths_favored  : 57\npaths_found    : 202\npaths_imported : 0\nmax_depth      : 10\ncur_path       : 187\npending_favs   : 0\npending_total  : 88\nvariable_paths : 0\nbitmap_cvg     : 0.94%\nunique_crashes : 0\nunique_hangs   : 5\nlast_path      : 1500153307\nlast_crash     : 0\nlast_hang      : 1500153459\nexec_timeout   : 20\nafl_banner     : fuzzer-master\nafl_version    : 1.85b\ncommand_line   : /home/skaramcheti/.virtualenvs/afl/bin/afl-unix/afl-fuzz -i /dev/shm/work/CNMP/input -o /dev/shm/work/CNMP/sync -m 4G -Q -M fuzzer-master -x /dev/shm/work/CNMP/CNMP.dict -- data/linux/processed-challenges/CNMP/bin/CNMP\n'
p157
I1
tp158
a(I9480
S'start_time     : 1500144297\nlast_update    : 1500153734\nfuzzer_pid     : 14278\ncycles_done    : 3\nexecs_done     : 7753897\nexecs_per_sec  : 237.22\npaths_total    : 204\npaths_favored  : 57\npaths_found    : 203\npaths_imported : 0\nmax_depth      : 10\ncur_path       : 187\npending_favs   : 0\npending_total  : 89\nvariable_paths : 0\nbitmap_cvg     : 0.94%\nunique_crashes : 0\nunique_hangs   : 5\nlast_path      : 1500153635\nlast_crash     : 0\nlast_hang      : 1500153459\nexec_timeout   : 20\nafl_banner     : fuzzer-master\nafl_version    : 1.85b\ncommand_line   : /home/skaramcheti/.virtualenvs/afl/bin/afl-unix/afl-fuzz -i /dev/shm/work/CNMP/input -o /dev/shm/work/CNMP/sync -m 4G -Q -M fuzzer-master -x /dev/shm/work/CNMP/CNMP.dict -- data/linux/processed-challenges/CNMP/bin/CNMP\n'
p159
I0
tp160
a(I9600
S'start_time     : 1500144297\nlast_update    : 1500153854\nfuzzer_pid     : 14278\ncycles_done    : 3\nexecs_done     : 7780965\nexecs_per_sec  : 220.21\npaths_total    : 204\npaths_favored  : 57\npaths_found    : 203\npaths_imported : 0\nmax_depth      : 10\ncur_path       : 187\npending_favs   : 0\npending_total  : 89\nvariable_paths : 0\nbitmap_cvg     : 0.94%\nunique_crashes : 0\nunique_hangs   : 5\nlast_path      : 1500153635\nlast_crash     : 0\nlast_hang      : 1500153459\nexec_timeout   : 20\nafl_banner     : fuzzer-master\nafl_version    : 1.85b\ncommand_line   : /home/skaramcheti/.virtualenvs/afl/bin/afl-unix/afl-fuzz -i /dev/shm/work/CNMP/input -o /dev/shm/work/CNMP/sync -m 4G -Q -M fuzzer-master -x /dev/shm/work/CNMP/CNMP.dict -- data/linux/processed-challenges/CNMP/bin/CNMP\n'
p161
I0
tp162
a(I9720
S'start_time     : 1500144297\nlast_update    : 1500153975\nfuzzer_pid     : 14278\ncycles_done    : 3\nexecs_done     : 7806809\nexecs_per_sec  : 214.21\npaths_total    : 204\npaths_favored  : 57\npaths_found    : 203\npaths_imported : 0\nmax_depth      : 10\ncur_path       : 187\npending_favs   : 0\npending_total  : 89\nvariable_paths : 0\nbitmap_cvg     : 0.94%\nunique_crashes : 0\nunique_hangs   : 5\nlast_path      : 1500153635\nlast_crash     : 0\nlast_hang      : 1500153459\nexec_timeout   : 20\nafl_banner     : fuzzer-master\nafl_version    : 1.85b\ncommand_line   : /home/skaramcheti/.virtualenvs/afl/bin/afl-unix/afl-fuzz -i /dev/shm/work/CNMP/input -o /dev/shm/work/CNMP/sync -m 4G -Q -M fuzzer-master -x /dev/shm/work/CNMP/CNMP.dict -- data/linux/processed-challenges/CNMP/bin/CNMP\n'
p163
I0
tp164
a(I9840
S'start_time     : 1500144297\nlast_update    : 1500154095\nfuzzer_pid     : 14278\ncycles_done    : 3\nexecs_done     : 7838381\nexecs_per_sec  : 448.79\npaths_total    : 206\npaths_favored  : 57\npaths_found    : 205\npaths_imported : 0\nmax_depth      : 10\ncur_path       : 187\npending_favs   : 0\npending_total  : 91\nvariable_paths : 0\nbitmap_cvg     : 0.94%\nunique_crashes : 0\nunique_hangs   : 5\nlast_path      : 1500154086\nlast_crash     : 0\nlast_hang      : 1500153459\nexec_timeout   : 20\nafl_banner     : fuzzer-master\nafl_version    : 1.85b\ncommand_line   : /home/skaramcheti/.virtualenvs/afl/bin/afl-unix/afl-fuzz -i /dev/shm/work/CNMP/input -o /dev/shm/work/CNMP/sync -m 4G -Q -M fuzzer-master -x /dev/shm/work/CNMP/CNMP.dict -- data/linux/processed-challenges/CNMP/bin/CNMP\n'
p165
I2
tp166
a(I9960
S'start_time     : 1500144297\nlast_update    : 1500154215\nfuzzer_pid     : 14278\ncycles_done    : 3\nexecs_done     : 7873100\nexecs_per_sec  : 119.83\npaths_total    : 206\npaths_favored  : 57\npaths_found    : 205\npaths_imported : 0\nmax_depth      : 10\ncur_path       : 189\npending_favs   : 0\npending_total  : 90\nvariable_paths : 0\nbitmap_cvg     : 0.94%\nunique_crashes : 0\nunique_hangs   : 7\nlast_path      : 1500154086\nlast_crash     : 0\nlast_hang      : 1500154184\nexec_timeout   : 20\nafl_banner     : fuzzer-master\nafl_version    : 1.85b\ncommand_line   : /home/skaramcheti/.virtualenvs/afl/bin/afl-unix/afl-fuzz -i /dev/shm/work/CNMP/input -o /dev/shm/work/CNMP/sync -m 4G -Q -M fuzzer-master -x /dev/shm/work/CNMP/CNMP.dict -- data/linux/processed-challenges/CNMP/bin/CNMP\n'
p167
I0
tp168
a(I10080
S'start_time     : 1500144297\nlast_update    : 1500154335\nfuzzer_pid     : 14278\ncycles_done    : 3\nexecs_done     : 7887380\nexecs_per_sec  : 122.28\npaths_total    : 206\npaths_favored  : 57\npaths_found    : 205\npaths_imported : 0\nmax_depth      : 10\ncur_path       : 189\npending_favs   : 0\npending_total  : 90\nvariable_paths : 0\nbitmap_cvg     : 0.94%\nunique_crashes : 0\nunique_hangs   : 7\nlast_path      : 1500154086\nlast_crash     : 0\nlast_hang      : 1500154184\nexec_timeout   : 20\nafl_banner     : fuzzer-master\nafl_version    : 1.85b\ncommand_line   : /home/skaramcheti/.virtualenvs/afl/bin/afl-unix/afl-fuzz -i /dev/shm/work/CNMP/input -o /dev/shm/work/CNMP/sync -m 4G -Q -M fuzzer-master -x /dev/shm/work/CNMP/CNMP.dict -- data/linux/processed-challenges/CNMP/bin/CNMP\n'
p169
I0
tp170
a(I10200
S'start_time     : 1500144297\nlast_update    : 1500154455\nfuzzer_pid     : 14278\ncycles_done    : 3\nexecs_done     : 7901668\nexecs_per_sec  : 121.88\npaths_total    : 206\npaths_favored  : 57\npaths_found    : 205\npaths_imported : 0\nmax_depth      : 10\ncur_path       : 189\npending_favs   : 0\npending_total  : 90\nvariable_paths : 0\nbitmap_cvg     : 0.94%\nunique_crashes : 0\nunique_hangs   : 7\nlast_path      : 1500154086\nlast_crash     : 0\nlast_hang      : 1500154184\nexec_timeout   : 20\nafl_banner     : fuzzer-master\nafl_version    : 1.85b\ncommand_line   : /home/skaramcheti/.virtualenvs/afl/bin/afl-unix/afl-fuzz -i /dev/shm/work/CNMP/input -o /dev/shm/work/CNMP/sync -m 4G -Q -M fuzzer-master -x /dev/shm/work/CNMP/CNMP.dict -- data/linux/processed-challenges/CNMP/bin/CNMP\n'
p171
I0
tp172
a(I10320
S'start_time     : 1500144297\nlast_update    : 1500154576\nfuzzer_pid     : 14278\ncycles_done    : 3\nexecs_done     : 7916030\nexecs_per_sec  : 120.64\npaths_total    : 206\npaths_favored  : 57\npaths_found    : 205\npaths_imported : 0\nmax_depth      : 10\ncur_path       : 189\npending_favs   : 0\npending_total  : 90\nvariable_paths : 0\nbitmap_cvg     : 0.94%\nunique_crashes : 0\nunique_hangs   : 7\nlast_path      : 1500154086\nlast_crash     : 0\nlast_hang      : 1500154184\nexec_timeout   : 20\nafl_banner     : fuzzer-master\nafl_version    : 1.85b\ncommand_line   : /home/skaramcheti/.virtualenvs/afl/bin/afl-unix/afl-fuzz -i /dev/shm/work/CNMP/input -o /dev/shm/work/CNMP/sync -m 4G -Q -M fuzzer-master -x /dev/shm/work/CNMP/CNMP.dict -- data/linux/processed-challenges/CNMP/bin/CNMP\n'
p173
I0
tp174
a(I10440
S'start_time     : 1500144297\nlast_update    : 1500154696\nfuzzer_pid     : 14278\ncycles_done    : 3\nexecs_done     : 7931122\nexecs_per_sec  : 132.16\npaths_total    : 206\npaths_favored  : 57\npaths_found    : 205\npaths_imported : 0\nmax_depth      : 10\ncur_path       : 189\npending_favs   : 0\npending_total  : 90\nvariable_paths : 0\nbitmap_cvg     : 0.94%\nunique_crashes : 0\nunique_hangs   : 7\nlast_path      : 1500154086\nlast_crash     : 0\nlast_hang      : 1500154184\nexec_timeout   : 20\nafl_banner     : fuzzer-master\nafl_version    : 1.85b\ncommand_line   : /home/skaramcheti/.virtualenvs/afl/bin/afl-unix/afl-fuzz -i /dev/shm/work/CNMP/input -o /dev/shm/work/CNMP/sync -m 4G -Q -M fuzzer-master -x /dev/shm/work/CNMP/CNMP.dict -- data/linux/processed-challenges/CNMP/bin/CNMP\n'
p175
I0
tp176
a(I10560
S'start_time     : 1500144297\nlast_update    : 1500154816\nfuzzer_pid     : 14278\ncycles_done    : 3\nexecs_done     : 7946702\nexecs_per_sec  : 129.38\npaths_total    : 206\npaths_favored  : 57\npaths_found    : 205\npaths_imported : 0\nmax_depth      : 10\ncur_path       : 189\npending_favs   : 0\npending_total  : 90\nvariable_paths : 0\nbitmap_cvg     : 0.94%\nunique_crashes : 0\nunique_hangs   : 7\nlast_path      : 1500154086\nlast_crash     : 0\nlast_hang      : 1500154184\nexec_timeout   : 20\nafl_banner     : fuzzer-master\nafl_version    : 1.85b\ncommand_line   : /home/skaramcheti/.virtualenvs/afl/bin/afl-unix/afl-fuzz -i /dev/shm/work/CNMP/input -o /dev/shm/work/CNMP/sync -m 4G -Q -M fuzzer-master -x /dev/shm/work/CNMP/CNMP.dict -- data/linux/processed-challenges/CNMP/bin/CNMP\n'
p177
I0
tp178
a(I10680
S'start_time     : 1500144297\nlast_update    : 1500154936\nfuzzer_pid     : 14278\ncycles_done    : 3\nexecs_done     : 7961774\nexecs_per_sec  : 125.98\npaths_total    : 206\npaths_favored  : 57\npaths_found    : 205\npaths_imported : 0\nmax_depth      : 10\ncur_path       : 189\npending_favs   : 0\npending_total  : 90\nvariable_paths : 0\nbitmap_cvg     : 0.94%\nunique_crashes : 0\nunique_hangs   : 7\nlast_path      : 1500154086\nlast_crash     : 0\nlast_hang      : 1500154184\nexec_timeout   : 20\nafl_banner     : fuzzer-master\nafl_version    : 1.85b\ncommand_line   : /home/skaramcheti/.virtualenvs/afl/bin/afl-unix/afl-fuzz -i /dev/shm/work/CNMP/input -o /dev/shm/work/CNMP/sync -m 4G -Q -M fuzzer-master -x /dev/shm/work/CNMP/CNMP.dict -- data/linux/processed-challenges/CNMP/bin/CNMP\n'
p179
I0
tp180
a.