(lp0
(I0
S'start_time     : 1500036120\nlast_update    : 1500036120\nfuzzer_pid     : 24840\ncycles_done    : 0\nexecs_done     : 10\nexecs_per_sec  : 212.77\npaths_total    : 1\npaths_favored  : 1\npaths_found    : 0\npaths_imported : 0\nmax_depth      : 1\ncur_path       : 0\npending_favs   : 1\npending_total  : 1\nvariable_paths : 0\nbitmap_cvg     : 0.15%\nunique_crashes : 0\nunique_hangs   : 0\nlast_path      : 0\nlast_crash     : 0\nlast_hang      : 0\nexec_timeout   : 20\nafl_banner     : fuzzer-master\nafl_version    : 1.85b\ncommand_line   : /home/skaramcheti/.virtualenvs/afl/bin/afl-unix/afl-fuzz -i /dev/shm/work/CGC_Planet_Markup_Language_Parser/input -o /dev/shm/work/CGC_Planet_Markup_Language_Parser/sync -m 4G -Q -M fuzzer-master -x /dev/shm/work/CGC_Planet_Markup_Language_Parser/CGC_Planet_Markup_Language_Parser.dict -- data/linux/processed-challenges/CGC_Planet_Markup_Language_Parser/bin/CGC_Planet_Markup_Language_Parser\n'
p1
I20
tp2
a(I120
S'start_time     : 1500036120\nlast_update    : 1500036240\nfuzzer_pid     : 24840\ncycles_done    : 0\nexecs_done     : 152404\nexecs_per_sec  : 1262.49\npaths_total    : 106\npaths_favored  : 1\npaths_found    : 105\npaths_imported : 0\nmax_depth      : 2\ncur_path       : 0\npending_favs   : 1\npending_total  : 106\nvariable_paths : 0\nbitmap_cvg     : 0.57%\nunique_crashes : 0\nunique_hangs   : 0\nlast_path      : 1500036233\nlast_crash     : 0\nlast_hang      : 0\nexec_timeout   : 20\nafl_banner     : fuzzer-master\nafl_version    : 1.85b\ncommand_line   : /home/skaramcheti/.virtualenvs/afl/bin/afl-unix/afl-fuzz -i /dev/shm/work/CGC_Planet_Markup_Language_Parser/input -o /dev/shm/work/CGC_Planet_Markup_Language_Parser/sync -m 4G -Q -M fuzzer-master -x /dev/shm/work/CGC_Planet_Markup_Language_Parser/CGC_Planet_Markup_Language_Parser.dict -- data/linux/processed-challenges/CGC_Planet_Markup_Language_Parser/bin/CGC_Planet_Markup_Language_Parser\n'
p3
I86
tp4
a(I240
S'start_time     : 1500036120\nlast_update    : 1500036360\nfuzzer_pid     : 24840\ncycles_done    : 0\nexecs_done     : 303938\nexecs_per_sec  : 1238.03\npaths_total    : 123\npaths_favored  : 43\npaths_found    : 122\npaths_imported : 0\nmax_depth      : 3\ncur_path       : 6\npending_favs   : 43\npending_total  : 122\nvariable_paths : 0\nbitmap_cvg     : 0.61%\nunique_crashes : 0\nunique_hangs   : 0\nlast_path      : 1500036355\nlast_crash     : 0\nlast_hang      : 0\nexec_timeout   : 20\nafl_banner     : fuzzer-master\nafl_version    : 1.85b\ncommand_line   : /home/skaramcheti/.virtualenvs/afl/bin/afl-unix/afl-fuzz -i /dev/shm/work/CGC_Planet_Markup_Language_Parser/input -o /dev/shm/work/CGC_Planet_Markup_Language_Parser/sync -m 4G -Q -M fuzzer-master -x /dev/shm/work/CGC_Planet_Markup_Language_Parser/CGC_Planet_Markup_Language_Parser.dict -- data/linux/processed-challenges/CGC_Planet_Markup_Language_Parser/bin/CGC_Planet_Markup_Language_Parser\n'
p5
I17
tp6
a(I360
S'start_time     : 1500036120\nlast_update    : 1500036480\nfuzzer_pid     : 24840\ncycles_done    : 0\nexecs_done     : 452185\nexecs_per_sec  : 1199.22\npaths_total    : 134\npaths_favored  : 49\npaths_found    : 133\npaths_imported : 0\nmax_depth      : 3\ncur_path       : 7\npending_favs   : 48\npending_total  : 132\nvariable_paths : 0\nbitmap_cvg     : 0.62%\nunique_crashes : 0\nunique_hangs   : 0\nlast_path      : 1500036469\nlast_crash     : 0\nlast_hang      : 0\nexec_timeout   : 20\nafl_banner     : fuzzer-master\nafl_version    : 1.85b\ncommand_line   : /home/skaramcheti/.virtualenvs/afl/bin/afl-unix/afl-fuzz -i /dev/shm/work/CGC_Planet_Markup_Language_Parser/input -o /dev/shm/work/CGC_Planet_Markup_Language_Parser/sync -m 4G -Q -M fuzzer-master -x /dev/shm/work/CGC_Planet_Markup_Language_Parser/CGC_Planet_Markup_Language_Parser.dict -- data/linux/processed-challenges/CGC_Planet_Markup_Language_Parser/bin/CGC_Planet_Markup_Language_Parser\n'
p7
I11
tp8
a(I480
S'start_time     : 1500036120\nlast_update    : 1500036600\nfuzzer_pid     : 24840\ncycles_done    : 0\nexecs_done     : 573543\nexecs_per_sec  : 557.00\npaths_total    : 144\npaths_favored  : 54\npaths_found    : 143\npaths_imported : 0\nmax_depth      : 3\ncur_path       : 60\npending_favs   : 47\npending_total  : 135\nvariable_paths : 0\nbitmap_cvg     : 0.63%\nunique_crashes : 0\nunique_hangs   : 0\nlast_path      : 1500036581\nlast_crash     : 0\nlast_hang      : 0\nexec_timeout   : 20\nafl_banner     : fuzzer-master\nafl_version    : 1.85b\ncommand_line   : /home/skaramcheti/.virtualenvs/afl/bin/afl-unix/afl-fuzz -i /dev/shm/work/CGC_Planet_Markup_Language_Parser/input -o /dev/shm/work/CGC_Planet_Markup_Language_Parser/sync -m 4G -Q -M fuzzer-master -x /dev/shm/work/CGC_Planet_Markup_Language_Parser/CGC_Planet_Markup_Language_Parser.dict -- data/linux/processed-challenges/CGC_Planet_Markup_Language_Parser/bin/CGC_Planet_Markup_Language_Parser\n'
p9
I10
tp10
a(I600
S'start_time     : 1500036120\nlast_update    : 1500036721\nfuzzer_pid     : 24840\ncycles_done    : 0\nexecs_done     : 646726\nexecs_per_sec  : 713.33\npaths_total    : 164\npaths_favored  : 54\npaths_found    : 163\npaths_imported : 0\nmax_depth      : 3\ncur_path       : 60\npending_favs   : 47\npending_total  : 155\nvariable_paths : 0\nbitmap_cvg     : 0.70%\nunique_crashes : 0\nunique_hangs   : 0\nlast_path      : 1500036714\nlast_crash     : 0\nlast_hang      : 0\nexec_timeout   : 20\nafl_banner     : fuzzer-master\nafl_version    : 1.85b\ncommand_line   : /home/skaramcheti/.virtualenvs/afl/bin/afl-unix/afl-fuzz -i /dev/shm/work/CGC_Planet_Markup_Language_Parser/input -o /dev/shm/work/CGC_Planet_Markup_Language_Parser/sync -m 4G -Q -M fuzzer-master -x /dev/shm/work/CGC_Planet_Markup_Language_Parser/CGC_Planet_Markup_Language_Parser.dict -- data/linux/processed-challenges/CGC_Planet_Markup_Language_Parser/bin/CGC_Planet_Markup_Language_Parser\n'
p11
I20
tp12
a(I720
S'start_time     : 1500036120\nlast_update    : 1500036781\nfuzzer_pid     : 24840\ncycles_done    : 0\nexecs_done     : 689354\nexecs_per_sec  : 702.06\npaths_total    : 168\npaths_favored  : 54\npaths_found    : 167\npaths_imported : 0\nmax_depth      : 3\ncur_path       : 60\npending_favs   : 47\npending_total  : 159\nvariable_paths : 0\nbitmap_cvg     : 0.71%\nunique_crashes : 0\nunique_hangs   : 0\nlast_path      : 1500036757\nlast_crash     : 0\nlast_hang      : 0\nexec_timeout   : 20\nafl_banner     : fuzzer-master\nafl_version    : 1.85b\ncommand_line   : /home/skaramcheti/.virtualenvs/afl/bin/afl-unix/afl-fuzz -i /dev/shm/work/CGC_Planet_Markup_Language_Parser/input -o /dev/shm/work/CGC_Planet_Markup_Language_Parser/sync -m 4G -Q -M fuzzer-master -x /dev/shm/work/CGC_Planet_Markup_Language_Parser/CGC_Planet_Markup_Language_Parser.dict -- data/linux/processed-challenges/CGC_Planet_Markup_Language_Parser/bin/CGC_Planet_Markup_Language_Parser\n'
p13
I13
tp14
a(I840
S'start_time     : 1500036120\nlast_update    : 1500036901\nfuzzer_pid     : 24840\ncycles_done    : 0\nexecs_done     : 784237\nexecs_per_sec  : 1176.03\npaths_total    : 179\npaths_favored  : 62\npaths_found    : 178\npaths_imported : 0\nmax_depth      : 3\ncur_path       : 64\npending_favs   : 53\npending_total  : 167\nvariable_paths : 0\nbitmap_cvg     : 0.72%\nunique_crashes : 0\nunique_hangs   : 0\nlast_path      : 1500036863\nlast_crash     : 0\nlast_hang      : 0\nexec_timeout   : 20\nafl_banner     : fuzzer-master\nafl_version    : 1.85b\ncommand_line   : /home/skaramcheti/.virtualenvs/afl/bin/afl-unix/afl-fuzz -i /dev/shm/work/CGC_Planet_Markup_Language_Parser/input -o /dev/shm/work/CGC_Planet_Markup_Language_Parser/sync -m 4G -Q -M fuzzer-master -x /dev/shm/work/CGC_Planet_Markup_Language_Parser/CGC_Planet_Markup_Language_Parser.dict -- data/linux/processed-challenges/CGC_Planet_Markup_Language_Parser/bin/CGC_Planet_Markup_Language_Parser\n'
p15
I9
tp16
a(I960
S'start_time     : 1500036120\nlast_update    : 1500037021\nfuzzer_pid     : 24840\ncycles_done    : 0\nexecs_done     : 904232\nexecs_per_sec  : 1031.38\npaths_total    : 187\npaths_favored  : 62\npaths_found    : 186\npaths_imported : 0\nmax_depth      : 3\ncur_path       : 65\npending_favs   : 52\npending_total  : 174\nvariable_paths : 0\nbitmap_cvg     : 0.73%\nunique_crashes : 0\nunique_hangs   : 0\nlast_path      : 1500036983\nlast_crash     : 0\nlast_hang      : 0\nexec_timeout   : 20\nafl_banner     : fuzzer-master\nafl_version    : 1.85b\ncommand_line   : /home/skaramcheti/.virtualenvs/afl/bin/afl-unix/afl-fuzz -i /dev/shm/work/CGC_Planet_Markup_Language_Parser/input -o /dev/shm/work/CGC_Planet_Markup_Language_Parser/sync -m 4G -Q -M fuzzer-master -x /dev/shm/work/CGC_Planet_Markup_Language_Parser/CGC_Planet_Markup_Language_Parser.dict -- data/linux/processed-challenges/CGC_Planet_Markup_Language_Parser/bin/CGC_Planet_Markup_Language_Parser\n'
p17
I4
tp18
a(I1080
S'start_time     : 1500036120\nlast_update    : 1500037142\nfuzzer_pid     : 24840\ncycles_done    : 0\nexecs_done     : 1023713\nexecs_per_sec  : 1017.92\npaths_total    : 192\npaths_favored  : 67\npaths_found    : 191\npaths_imported : 0\nmax_depth      : 3\ncur_path       : 81\npending_favs   : 51\npending_total  : 172\nvariable_paths : 0\nbitmap_cvg     : 0.78%\nunique_crashes : 0\nunique_hangs   : 0\nlast_path      : 1500037116\nlast_crash     : 0\nlast_hang      : 0\nexec_timeout   : 20\nafl_banner     : fuzzer-master\nafl_version    : 1.85b\ncommand_line   : /home/skaramcheti/.virtualenvs/afl/bin/afl-unix/afl-fuzz -i /dev/shm/work/CGC_Planet_Markup_Language_Parser/input -o /dev/shm/work/CGC_Planet_Markup_Language_Parser/sync -m 4G -Q -M fuzzer-master -x /dev/shm/work/CGC_Planet_Markup_Language_Parser/CGC_Planet_Markup_Language_Parser.dict -- data/linux/processed-challenges/CGC_Planet_Markup_Language_Parser/bin/CGC_Planet_Markup_Language_Parser\n'
p19
I6
tp20
a(I1200
S'start_time     : 1500036120\nlast_update    : 1500037262\nfuzzer_pid     : 24840\ncycles_done    : 0\nexecs_done     : 1087813\nexecs_per_sec  : 334.84\npaths_total    : 201\npaths_favored  : 67\npaths_found    : 200\npaths_imported : 0\nmax_depth      : 3\ncur_path       : 85\npending_favs   : 47\npending_total  : 177\nvariable_paths : 0\nbitmap_cvg     : 0.79%\nunique_crashes : 0\nunique_hangs   : 0\nlast_path      : 1500037262\nlast_crash     : 0\nlast_hang      : 0\nexec_timeout   : 20\nafl_banner     : fuzzer-master\nafl_version    : 1.85b\ncommand_line   : /home/skaramcheti/.virtualenvs/afl/bin/afl-unix/afl-fuzz -i /dev/shm/work/CGC_Planet_Markup_Language_Parser/input -o /dev/shm/work/CGC_Planet_Markup_Language_Parser/sync -m 4G -Q -M fuzzer-master -x /dev/shm/work/CGC_Planet_Markup_Language_Parser/CGC_Planet_Markup_Language_Parser.dict -- data/linux/processed-challenges/CGC_Planet_Markup_Language_Parser/bin/CGC_Planet_Markup_Language_Parser\n'
p21
I6
tp22
a(I1320
S'start_time     : 1500036120\nlast_update    : 1500037382\nfuzzer_pid     : 24840\ncycles_done    : 0\nexecs_done     : 1128447\nexecs_per_sec  : 453.31\npaths_total    : 208\npaths_favored  : 67\npaths_found    : 207\npaths_imported : 0\nmax_depth      : 3\ncur_path       : 85\npending_favs   : 47\npending_total  : 184\nvariable_paths : 0\nbitmap_cvg     : 0.79%\nunique_crashes : 0\nunique_hangs   : 0\nlast_path      : 1500037381\nlast_crash     : 0\nlast_hang      : 0\nexec_timeout   : 20\nafl_banner     : fuzzer-master\nafl_version    : 1.85b\ncommand_line   : /home/skaramcheti/.virtualenvs/afl/bin/afl-unix/afl-fuzz -i /dev/shm/work/CGC_Planet_Markup_Language_Parser/input -o /dev/shm/work/CGC_Planet_Markup_Language_Parser/sync -m 4G -Q -M fuzzer-master -x /dev/shm/work/CGC_Planet_Markup_Language_Parser/CGC_Planet_Markup_Language_Parser.dict -- data/linux/processed-challenges/CGC_Planet_Markup_Language_Parser/bin/CGC_Planet_Markup_Language_Parser\n'
p23
I12
tp24
a(I1440
S'start_time     : 1500036120\nlast_update    : 1500037502\nfuzzer_pid     : 24840\ncycles_done    : 0\nexecs_done     : 1183671\nexecs_per_sec  : 452.52\npaths_total    : 217\npaths_favored  : 67\npaths_found    : 216\npaths_imported : 0\nmax_depth      : 3\ncur_path       : 85\npending_favs   : 47\npending_total  : 193\nvariable_paths : 0\nbitmap_cvg     : 0.80%\nunique_crashes : 0\nunique_hangs   : 0\nlast_path      : 1500037497\nlast_crash     : 0\nlast_hang      : 0\nexec_timeout   : 20\nafl_banner     : fuzzer-master\nafl_version    : 1.85b\ncommand_line   : /home/skaramcheti/.virtualenvs/afl/bin/afl-unix/afl-fuzz -i /dev/shm/work/CGC_Planet_Markup_Language_Parser/input -o /dev/shm/work/CGC_Planet_Markup_Language_Parser/sync -m 4G -Q -M fuzzer-master -x /dev/shm/work/CGC_Planet_Markup_Language_Parser/CGC_Planet_Markup_Language_Parser.dict -- data/linux/processed-challenges/CGC_Planet_Markup_Language_Parser/bin/CGC_Planet_Markup_Language_Parser\n'
p25
I7
tp26
a(I1560
S'start_time     : 1500036120\nlast_update    : 1500037622\nfuzzer_pid     : 24840\ncycles_done    : 0\nexecs_done     : 1238128\nexecs_per_sec  : 450.69\npaths_total    : 224\npaths_favored  : 67\npaths_found    : 223\npaths_imported : 0\nmax_depth      : 3\ncur_path       : 85\npending_favs   : 47\npending_total  : 200\nvariable_paths : 0\nbitmap_cvg     : 0.81%\nunique_crashes : 0\nunique_hangs   : 0\nlast_path      : 1500037619\nlast_crash     : 0\nlast_hang      : 0\nexec_timeout   : 20\nafl_banner     : fuzzer-master\nafl_version    : 1.85b\ncommand_line   : /home/skaramcheti/.virtualenvs/afl/bin/afl-unix/afl-fuzz -i /dev/shm/work/CGC_Planet_Markup_Language_Parser/input -o /dev/shm/work/CGC_Planet_Markup_Language_Parser/sync -m 4G -Q -M fuzzer-master -x /dev/shm/work/CGC_Planet_Markup_Language_Parser/CGC_Planet_Markup_Language_Parser.dict -- data/linux/processed-challenges/CGC_Planet_Markup_Language_Parser/bin/CGC_Planet_Markup_Language_Parser\n'
p27
I5
tp28
a(I1680
S'start_time     : 1500036120\nlast_update    : 1500037743\nfuzzer_pid     : 24840\ncycles_done    : 0\nexecs_done     : 1309498\nexecs_per_sec  : 759.26\npaths_total    : 231\npaths_favored  : 71\npaths_found    : 230\npaths_imported : 0\nmax_depth      : 3\ncur_path       : 91\npending_favs   : 50\npending_total  : 205\nvariable_paths : 0\nbitmap_cvg     : 0.89%\nunique_crashes : 0\nunique_hangs   : 0\nlast_path      : 1500037739\nlast_crash     : 0\nlast_hang      : 0\nexec_timeout   : 20\nafl_banner     : fuzzer-master\nafl_version    : 1.85b\ncommand_line   : /home/skaramcheti/.virtualenvs/afl/bin/afl-unix/afl-fuzz -i /dev/shm/work/CGC_Planet_Markup_Language_Parser/input -o /dev/shm/work/CGC_Planet_Markup_Language_Parser/sync -m 4G -Q -M fuzzer-master -x /dev/shm/work/CGC_Planet_Markup_Language_Parser/CGC_Planet_Markup_Language_Parser.dict -- data/linux/processed-challenges/CGC_Planet_Markup_Language_Parser/bin/CGC_Planet_Markup_Language_Parser\n'
p29
I6
tp30
a(I1800
S'start_time     : 1500036120\nlast_update    : 1500037863\nfuzzer_pid     : 24840\ncycles_done    : 0\nexecs_done     : 1399473\nexecs_per_sec  : 749.05\npaths_total    : 234\npaths_favored  : 71\npaths_found    : 233\npaths_imported : 0\nmax_depth      : 3\ncur_path       : 91\npending_favs   : 50\npending_total  : 208\nvariable_paths : 0\nbitmap_cvg     : 0.89%\nunique_crashes : 0\nunique_hangs   : 0\nlast_path      : 1500037829\nlast_crash     : 0\nlast_hang      : 0\nexec_timeout   : 20\nafl_banner     : fuzzer-master\nafl_version    : 1.85b\ncommand_line   : /home/skaramcheti/.virtualenvs/afl/bin/afl-unix/afl-fuzz -i /dev/shm/work/CGC_Planet_Markup_Language_Parser/input -o /dev/shm/work/CGC_Planet_Markup_Language_Parser/sync -m 4G -Q -M fuzzer-master -x /dev/shm/work/CGC_Planet_Markup_Language_Parser/CGC_Planet_Markup_Language_Parser.dict -- data/linux/processed-challenges/CGC_Planet_Markup_Language_Parser/bin/CGC_Planet_Markup_Language_Parser\n'
p31
I4
tp32
a(I1920
S'start_time     : 1500036120\nlast_update    : 1500037983\nfuzzer_pid     : 24840\ncycles_done    : 0\nexecs_done     : 1480616\nexecs_per_sec  : 434.49\npaths_total    : 236\npaths_favored  : 73\npaths_found    : 235\npaths_imported : 0\nmax_depth      : 3\ncur_path       : 95\npending_favs   : 51\npending_total  : 208\nvariable_paths : 0\nbitmap_cvg     : 0.89%\nunique_crashes : 0\nunique_hangs   : 0\nlast_path      : 1500037916\nlast_crash     : 0\nlast_hang      : 0\nexec_timeout   : 20\nafl_banner     : fuzzer-master\nafl_version    : 1.85b\ncommand_line   : /home/skaramcheti/.virtualenvs/afl/bin/afl-unix/afl-fuzz -i /dev/shm/work/CGC_Planet_Markup_Language_Parser/input -o /dev/shm/work/CGC_Planet_Markup_Language_Parser/sync -m 4G -Q -M fuzzer-master -x /dev/shm/work/CGC_Planet_Markup_Language_Parser/CGC_Planet_Markup_Language_Parser.dict -- data/linux/processed-challenges/CGC_Planet_Markup_Language_Parser/bin/CGC_Planet_Markup_Language_Parser\n'
p33
I1
tp34
a(I2040
S'start_time     : 1500036120\nlast_update    : 1500038103\nfuzzer_pid     : 24840\ncycles_done    : 0\nexecs_done     : 1558328\nexecs_per_sec  : 998.89\npaths_total    : 240\npaths_favored  : 75\npaths_found    : 239\npaths_imported : 0\nmax_depth      : 3\ncur_path       : 105\npending_favs   : 49\npending_total  : 208\nvariable_paths : 0\nbitmap_cvg     : 0.90%\nunique_crashes : 0\nunique_hangs   : 0\nlast_path      : 1500038077\nlast_crash     : 0\nlast_hang      : 0\nexec_timeout   : 20\nafl_banner     : fuzzer-master\nafl_version    : 1.85b\ncommand_line   : /home/skaramcheti/.virtualenvs/afl/bin/afl-unix/afl-fuzz -i /dev/shm/work/CGC_Planet_Markup_Language_Parser/input -o /dev/shm/work/CGC_Planet_Markup_Language_Parser/sync -m 4G -Q -M fuzzer-master -x /dev/shm/work/CGC_Planet_Markup_Language_Parser/CGC_Planet_Markup_Language_Parser.dict -- data/linux/processed-challenges/CGC_Planet_Markup_Language_Parser/bin/CGC_Planet_Markup_Language_Parser\n'
p35
I3
tp36
a(I2160
S'start_time     : 1500036120\nlast_update    : 1500038223\nfuzzer_pid     : 24840\ncycles_done    : 0\nexecs_done     : 1678448\nexecs_per_sec  : 1115.31\npaths_total    : 241\npaths_favored  : 73\npaths_found    : 240\npaths_imported : 0\nmax_depth      : 4\ncur_path       : 125\npending_favs   : 39\npending_total  : 199\nvariable_paths : 0\nbitmap_cvg     : 0.90%\nunique_crashes : 0\nunique_hangs   : 0\nlast_path      : 1500038201\nlast_crash     : 0\nlast_hang      : 0\nexec_timeout   : 20\nafl_banner     : fuzzer-master\nafl_version    : 1.85b\ncommand_line   : /home/skaramcheti/.virtualenvs/afl/bin/afl-unix/afl-fuzz -i /dev/shm/work/CGC_Planet_Markup_Language_Parser/input -o /dev/shm/work/CGC_Planet_Markup_Language_Parser/sync -m 4G -Q -M fuzzer-master -x /dev/shm/work/CGC_Planet_Markup_Language_Parser/CGC_Planet_Markup_Language_Parser.dict -- data/linux/processed-challenges/CGC_Planet_Markup_Language_Parser/bin/CGC_Planet_Markup_Language_Parser\n'
p37
I9
tp38
a(I2280
S'start_time     : 1500036120\nlast_update    : 1500038344\nfuzzer_pid     : 24840\ncycles_done    : 0\nexecs_done     : 1814777\nexecs_per_sec  : 1134.16\npaths_total    : 251\npaths_favored  : 73\npaths_found    : 250\npaths_imported : 0\nmax_depth      : 4\ncur_path       : 135\npending_favs   : 36\npending_total  : 206\nvariable_paths : 0\nbitmap_cvg     : 0.91%\nunique_crashes : 0\nunique_hangs   : 0\nlast_path      : 1500038314\nlast_crash     : 0\nlast_hang      : 0\nexec_timeout   : 20\nafl_banner     : fuzzer-master\nafl_version    : 1.85b\ncommand_line   : /home/skaramcheti/.virtualenvs/afl/bin/afl-unix/afl-fuzz -i /dev/shm/work/CGC_Planet_Markup_Language_Parser/input -o /dev/shm/work/CGC_Planet_Markup_Language_Parser/sync -m 4G -Q -M fuzzer-master -x /dev/shm/work/CGC_Planet_Markup_Language_Parser/CGC_Planet_Markup_Language_Parser.dict -- data/linux/processed-challenges/CGC_Planet_Markup_Language_Parser/bin/CGC_Planet_Markup_Language_Parser\n'
p39
I4
tp40
a(I2400
S'start_time     : 1500036120\nlast_update    : 1500038464\nfuzzer_pid     : 24840\ncycles_done    : 0\nexecs_done     : 1913542\nexecs_per_sec  : 230.94\npaths_total    : 253\npaths_favored  : 75\npaths_found    : 252\npaths_imported : 0\nmax_depth      : 4\ncur_path       : 153\npending_favs   : 33\npending_total  : 204\nvariable_paths : 0\nbitmap_cvg     : 0.91%\nunique_crashes : 0\nunique_hangs   : 0\nlast_path      : 1500038387\nlast_crash     : 0\nlast_hang      : 0\nexec_timeout   : 20\nafl_banner     : fuzzer-master\nafl_version    : 1.85b\ncommand_line   : /home/skaramcheti/.virtualenvs/afl/bin/afl-unix/afl-fuzz -i /dev/shm/work/CGC_Planet_Markup_Language_Parser/input -o /dev/shm/work/CGC_Planet_Markup_Language_Parser/sync -m 4G -Q -M fuzzer-master -x /dev/shm/work/CGC_Planet_Markup_Language_Parser/CGC_Planet_Markup_Language_Parser.dict -- data/linux/processed-challenges/CGC_Planet_Markup_Language_Parser/bin/CGC_Planet_Markup_Language_Parser\n'
p41
I0
tp42
a(I2520
S'start_time     : 1500036120\nlast_update    : 1500038584\nfuzzer_pid     : 24840\ncycles_done    : 0\nexecs_done     : 1941022\nexecs_per_sec  : 224.94\npaths_total    : 253\npaths_favored  : 75\npaths_found    : 252\npaths_imported : 0\nmax_depth      : 4\ncur_path       : 153\npending_favs   : 33\npending_total  : 204\nvariable_paths : 0\nbitmap_cvg     : 0.91%\nunique_crashes : 0\nunique_hangs   : 0\nlast_path      : 1500038387\nlast_crash     : 0\nlast_hang      : 0\nexec_timeout   : 20\nafl_banner     : fuzzer-master\nafl_version    : 1.85b\ncommand_line   : /home/skaramcheti/.virtualenvs/afl/bin/afl-unix/afl-fuzz -i /dev/shm/work/CGC_Planet_Markup_Language_Parser/input -o /dev/shm/work/CGC_Planet_Markup_Language_Parser/sync -m 4G -Q -M fuzzer-master -x /dev/shm/work/CGC_Planet_Markup_Language_Parser/CGC_Planet_Markup_Language_Parser.dict -- data/linux/processed-challenges/CGC_Planet_Markup_Language_Parser/bin/CGC_Planet_Markup_Language_Parser\n'
p43
I0
tp44
a(I2640
S'start_time     : 1500036120\nlast_update    : 1500038704\nfuzzer_pid     : 24840\ncycles_done    : 0\nexecs_done     : 1967061\nexecs_per_sec  : 207.31\npaths_total    : 253\npaths_favored  : 75\npaths_found    : 252\npaths_imported : 0\nmax_depth      : 4\ncur_path       : 153\npending_favs   : 33\npending_total  : 204\nvariable_paths : 0\nbitmap_cvg     : 0.91%\nunique_crashes : 0\nunique_hangs   : 0\nlast_path      : 1500038387\nlast_crash     : 0\nlast_hang      : 0\nexec_timeout   : 20\nafl_banner     : fuzzer-master\nafl_version    : 1.85b\ncommand_line   : /home/skaramcheti/.virtualenvs/afl/bin/afl-unix/afl-fuzz -i /dev/shm/work/CGC_Planet_Markup_Language_Parser/input -o /dev/shm/work/CGC_Planet_Markup_Language_Parser/sync -m 4G -Q -M fuzzer-master -x /dev/shm/work/CGC_Planet_Markup_Language_Parser/CGC_Planet_Markup_Language_Parser.dict -- data/linux/processed-challenges/CGC_Planet_Markup_Language_Parser/bin/CGC_Planet_Markup_Language_Parser\n'
p45
I0
tp46
a(I2760
S'start_time     : 1500036120\nlast_update    : 1500038824\nfuzzer_pid     : 24840\ncycles_done    : 0\nexecs_done     : 1992457\nexecs_per_sec  : 206.04\npaths_total    : 253\npaths_favored  : 75\npaths_found    : 252\npaths_imported : 0\nmax_depth      : 4\ncur_path       : 153\npending_favs   : 33\npending_total  : 204\nvariable_paths : 0\nbitmap_cvg     : 0.91%\nunique_crashes : 0\nunique_hangs   : 0\nlast_path      : 1500038387\nlast_crash     : 0\nlast_hang      : 0\nexec_timeout   : 20\nafl_banner     : fuzzer-master\nafl_version    : 1.85b\ncommand_line   : /home/skaramcheti/.virtualenvs/afl/bin/afl-unix/afl-fuzz -i /dev/shm/work/CGC_Planet_Markup_Language_Parser/input -o /dev/shm/work/CGC_Planet_Markup_Language_Parser/sync -m 4G -Q -M fuzzer-master -x /dev/shm/work/CGC_Planet_Markup_Language_Parser/CGC_Planet_Markup_Language_Parser.dict -- data/linux/processed-challenges/CGC_Planet_Markup_Language_Parser/bin/CGC_Planet_Markup_Language_Parser\n'
p47
I0
tp48
a(I2880
S'start_time     : 1500036120\nlast_update    : 1500038945\nfuzzer_pid     : 24840\ncycles_done    : 0\nexecs_done     : 2022620\nexecs_per_sec  : 698.90\npaths_total    : 253\npaths_favored  : 75\npaths_found    : 252\npaths_imported : 0\nmax_depth      : 4\ncur_path       : 159\npending_favs   : 32\npending_total  : 203\nvariable_paths : 0\nbitmap_cvg     : 0.91%\nunique_crashes : 0\nunique_hangs   : 0\nlast_path      : 1500038387\nlast_crash     : 0\nlast_hang      : 0\nexec_timeout   : 20\nafl_banner     : fuzzer-master\nafl_version    : 1.85b\ncommand_line   : /home/skaramcheti/.virtualenvs/afl/bin/afl-unix/afl-fuzz -i /dev/shm/work/CGC_Planet_Markup_Language_Parser/input -o /dev/shm/work/CGC_Planet_Markup_Language_Parser/sync -m 4G -Q -M fuzzer-master -x /dev/shm/work/CGC_Planet_Markup_Language_Parser/CGC_Planet_Markup_Language_Parser.dict -- data/linux/processed-challenges/CGC_Planet_Markup_Language_Parser/bin/CGC_Planet_Markup_Language_Parser\n'
p49
I0
tp50
a(I3000
S'start_time     : 1500036120\nlast_update    : 1500039065\nfuzzer_pid     : 24840\ncycles_done    : 0\nexecs_done     : 2075160\nexecs_per_sec  : 331.70\npaths_total    : 254\npaths_favored  : 75\npaths_found    : 253\npaths_imported : 0\nmax_depth      : 4\ncur_path       : 169\npending_favs   : 31\npending_total  : 203\nvariable_paths : 0\nbitmap_cvg     : 0.91%\nunique_crashes : 0\nunique_hangs   : 0\nlast_path      : 1500039009\nlast_crash     : 0\nlast_hang      : 0\nexec_timeout   : 20\nafl_banner     : fuzzer-master\nafl_version    : 1.85b\ncommand_line   : /home/skaramcheti/.virtualenvs/afl/bin/afl-unix/afl-fuzz -i /dev/shm/work/CGC_Planet_Markup_Language_Parser/input -o /dev/shm/work/CGC_Planet_Markup_Language_Parser/sync -m 4G -Q -M fuzzer-master -x /dev/shm/work/CGC_Planet_Markup_Language_Parser/CGC_Planet_Markup_Language_Parser.dict -- data/linux/processed-challenges/CGC_Planet_Markup_Language_Parser/bin/CGC_Planet_Markup_Language_Parser\n'
p51
I1
tp52
a(I3120
S'start_time     : 1500036120\nlast_update    : 1500039185\nfuzzer_pid     : 24840\ncycles_done    : 0\nexecs_done     : 2117002\nexecs_per_sec  : 435.11\npaths_total    : 255\npaths_favored  : 75\npaths_found    : 254\npaths_imported : 0\nmax_depth      : 4\ncur_path       : 169\npending_favs   : 31\npending_total  : 204\nvariable_paths : 0\nbitmap_cvg     : 0.91%\nunique_crashes : 0\nunique_hangs   : 0\nlast_path      : 1500039162\nlast_crash     : 0\nlast_hang      : 0\nexec_timeout   : 20\nafl_banner     : fuzzer-master\nafl_version    : 1.85b\ncommand_line   : /home/skaramcheti/.virtualenvs/afl/bin/afl-unix/afl-fuzz -i /dev/shm/work/CGC_Planet_Markup_Language_Parser/input -o /dev/shm/work/CGC_Planet_Markup_Language_Parser/sync -m 4G -Q -M fuzzer-master -x /dev/shm/work/CGC_Planet_Markup_Language_Parser/CGC_Planet_Markup_Language_Parser.dict -- data/linux/processed-challenges/CGC_Planet_Markup_Language_Parser/bin/CGC_Planet_Markup_Language_Parser\n'
p53
I3
tp54
a(I3240
S'start_time     : 1500036120\nlast_update    : 1500039305\nfuzzer_pid     : 24840\ncycles_done    : 0\nexecs_done     : 2189860\nexecs_per_sec  : 698.54\npaths_total    : 259\npaths_favored  : 76\npaths_found    : 258\npaths_imported : 0\nmax_depth      : 4\ncur_path       : 178\npending_favs   : 30\npending_total  : 206\nvariable_paths : 0\nbitmap_cvg     : 0.91%\nunique_crashes : 0\nunique_hangs   : 0\nlast_path      : 1500039284\nlast_crash     : 0\nlast_hang      : 0\nexec_timeout   : 20\nafl_banner     : fuzzer-master\nafl_version    : 1.85b\ncommand_line   : /home/skaramcheti/.virtualenvs/afl/bin/afl-unix/afl-fuzz -i /dev/shm/work/CGC_Planet_Markup_Language_Parser/input -o /dev/shm/work/CGC_Planet_Markup_Language_Parser/sync -m 4G -Q -M fuzzer-master -x /dev/shm/work/CGC_Planet_Markup_Language_Parser/CGC_Planet_Markup_Language_Parser.dict -- data/linux/processed-challenges/CGC_Planet_Markup_Language_Parser/bin/CGC_Planet_Markup_Language_Parser\n'
p55
I2
tp56
a(I3360
S'start_time     : 1500036120\nlast_update    : 1500039425\nfuzzer_pid     : 24840\ncycles_done    : 0\nexecs_done     : 2257595\nexecs_per_sec  : 714.96\npaths_total    : 259\npaths_favored  : 76\npaths_found    : 258\npaths_imported : 0\nmax_depth      : 4\ncur_path       : 180\npending_favs   : 28\npending_total  : 204\nvariable_paths : 0\nbitmap_cvg     : 0.91%\nunique_crashes : 0\nunique_hangs   : 0\nlast_path      : 1500039284\nlast_crash     : 0\nlast_hang      : 0\nexec_timeout   : 20\nafl_banner     : fuzzer-master\nafl_version    : 1.85b\ncommand_line   : /home/skaramcheti/.virtualenvs/afl/bin/afl-unix/afl-fuzz -i /dev/shm/work/CGC_Planet_Markup_Language_Parser/input -o /dev/shm/work/CGC_Planet_Markup_Language_Parser/sync -m 4G -Q -M fuzzer-master -x /dev/shm/work/CGC_Planet_Markup_Language_Parser/CGC_Planet_Markup_Language_Parser.dict -- data/linux/processed-challenges/CGC_Planet_Markup_Language_Parser/bin/CGC_Planet_Markup_Language_Parser\n'
p57
I0
tp58
a(I3480
S'start_time     : 1500036120\nlast_update    : 1500039546\nfuzzer_pid     : 24840\ncycles_done    : 0\nexecs_done     : 2323650\nexecs_per_sec  : 346.20\npaths_total    : 259\npaths_favored  : 76\npaths_found    : 258\npaths_imported : 0\nmax_depth      : 4\ncur_path       : 184\npending_favs   : 25\npending_total  : 201\nvariable_paths : 0\nbitmap_cvg     : 0.91%\nunique_crashes : 0\nunique_hangs   : 0\nlast_path      : 1500039284\nlast_crash     : 0\nlast_hang      : 0\nexec_timeout   : 20\nafl_banner     : fuzzer-master\nafl_version    : 1.85b\ncommand_line   : /home/skaramcheti/.virtualenvs/afl/bin/afl-unix/afl-fuzz -i /dev/shm/work/CGC_Planet_Markup_Language_Parser/input -o /dev/shm/work/CGC_Planet_Markup_Language_Parser/sync -m 4G -Q -M fuzzer-master -x /dev/shm/work/CGC_Planet_Markup_Language_Parser/CGC_Planet_Markup_Language_Parser.dict -- data/linux/processed-challenges/CGC_Planet_Markup_Language_Parser/bin/CGC_Planet_Markup_Language_Parser\n'
p59
I0
tp60
a(I3600
S'start_time     : 1500036120\nlast_update    : 1500039666\nfuzzer_pid     : 24840\ncycles_done    : 0\nexecs_done     : 2361158\nexecs_per_sec  : 303.16\npaths_total    : 259\npaths_favored  : 76\npaths_found    : 258\npaths_imported : 0\nmax_depth      : 4\ncur_path       : 184\npending_favs   : 25\npending_total  : 201\nvariable_paths : 0\nbitmap_cvg     : 0.91%\nunique_crashes : 0\nunique_hangs   : 0\nlast_path      : 1500039284\nlast_crash     : 0\nlast_hang      : 0\nexec_timeout   : 20\nafl_banner     : fuzzer-master\nafl_version    : 1.85b\ncommand_line   : /home/skaramcheti/.virtualenvs/afl/bin/afl-unix/afl-fuzz -i /dev/shm/work/CGC_Planet_Markup_Language_Parser/input -o /dev/shm/work/CGC_Planet_Markup_Language_Parser/sync -m 4G -Q -M fuzzer-master -x /dev/shm/work/CGC_Planet_Markup_Language_Parser/CGC_Planet_Markup_Language_Parser.dict -- data/linux/processed-challenges/CGC_Planet_Markup_Language_Parser/bin/CGC_Planet_Markup_Language_Parser\n'
p61
I1
tp62
a(I3720
S'start_time     : 1500036120\nlast_update    : 1500039786\nfuzzer_pid     : 24840\ncycles_done    : 0\nexecs_done     : 2433025\nexecs_per_sec  : 511.05\npaths_total    : 261\npaths_favored  : 76\npaths_found    : 260\npaths_imported : 0\nmax_depth      : 4\ncur_path       : 187\npending_favs   : 23\npending_total  : 201\nvariable_paths : 0\nbitmap_cvg     : 0.91%\nunique_crashes : 0\nunique_hangs   : 0\nlast_path      : 1500039724\nlast_crash     : 0\nlast_hang      : 0\nexec_timeout   : 20\nafl_banner     : fuzzer-master\nafl_version    : 1.85b\ncommand_line   : /home/skaramcheti/.virtualenvs/afl/bin/afl-unix/afl-fuzz -i /dev/shm/work/CGC_Planet_Markup_Language_Parser/input -o /dev/shm/work/CGC_Planet_Markup_Language_Parser/sync -m 4G -Q -M fuzzer-master -x /dev/shm/work/CGC_Planet_Markup_Language_Parser/CGC_Planet_Markup_Language_Parser.dict -- data/linux/processed-challenges/CGC_Planet_Markup_Language_Parser/bin/CGC_Planet_Markup_Language_Parser\n'
p63
I5
tp64
a(I3840
S'start_time     : 1500036120\nlast_update    : 1500039906\nfuzzer_pid     : 24840\ncycles_done    : 0\nexecs_done     : 2490823\nexecs_per_sec  : 412.02\npaths_total    : 265\npaths_favored  : 76\npaths_found    : 264\npaths_imported : 0\nmax_depth      : 4\ncur_path       : 189\npending_favs   : 22\npending_total  : 204\nvariable_paths : 0\nbitmap_cvg     : 0.92%\nunique_crashes : 0\nunique_hangs   : 0\nlast_path      : 1500039823\nlast_crash     : 0\nlast_hang      : 0\nexec_timeout   : 20\nafl_banner     : fuzzer-master\nafl_version    : 1.85b\ncommand_line   : /home/skaramcheti/.virtualenvs/afl/bin/afl-unix/afl-fuzz -i /dev/shm/work/CGC_Planet_Markup_Language_Parser/input -o /dev/shm/work/CGC_Planet_Markup_Language_Parser/sync -m 4G -Q -M fuzzer-master -x /dev/shm/work/CGC_Planet_Markup_Language_Parser/CGC_Planet_Markup_Language_Parser.dict -- data/linux/processed-challenges/CGC_Planet_Markup_Language_Parser/bin/CGC_Planet_Markup_Language_Parser\n'
p65
I2
tp66
a(I3960
S'start_time     : 1500036120\nlast_update    : 1500040026\nfuzzer_pid     : 24840\ncycles_done    : 0\nexecs_done     : 2560326\nexecs_per_sec  : 465.58\npaths_total    : 267\npaths_favored  : 80\npaths_found    : 266\npaths_imported : 0\nmax_depth      : 4\ncur_path       : 195\npending_favs   : 23\npending_total  : 203\nvariable_paths : 0\nbitmap_cvg     : 0.92%\nunique_crashes : 0\nunique_hangs   : 0\nlast_path      : 1500039950\nlast_crash     : 0\nlast_hang      : 0\nexec_timeout   : 20\nafl_banner     : fuzzer-master\nafl_version    : 1.85b\ncommand_line   : /home/skaramcheti/.virtualenvs/afl/bin/afl-unix/afl-fuzz -i /dev/shm/work/CGC_Planet_Markup_Language_Parser/input -o /dev/shm/work/CGC_Planet_Markup_Language_Parser/sync -m 4G -Q -M fuzzer-master -x /dev/shm/work/CGC_Planet_Markup_Language_Parser/CGC_Planet_Markup_Language_Parser.dict -- data/linux/processed-challenges/CGC_Planet_Markup_Language_Parser/bin/CGC_Planet_Markup_Language_Parser\n'
p67
I2
tp68
a(I4080
S'start_time     : 1500036120\nlast_update    : 1500040147\nfuzzer_pid     : 24840\ncycles_done    : 0\nexecs_done     : 2607651\nexecs_per_sec  : 413.49\npaths_total    : 274\npaths_favored  : 80\npaths_found    : 273\npaths_imported : 0\nmax_depth      : 4\ncur_path       : 195\npending_favs   : 23\npending_total  : 210\nvariable_paths : 0\nbitmap_cvg     : 1.01%\nunique_crashes : 0\nunique_hangs   : 0\nlast_path      : 1500040143\nlast_crash     : 0\nlast_hang      : 0\nexec_timeout   : 20\nafl_banner     : fuzzer-master\nafl_version    : 1.85b\ncommand_line   : /home/skaramcheti/.virtualenvs/afl/bin/afl-unix/afl-fuzz -i /dev/shm/work/CGC_Planet_Markup_Language_Parser/input -o /dev/shm/work/CGC_Planet_Markup_Language_Parser/sync -m 4G -Q -M fuzzer-master -x /dev/shm/work/CGC_Planet_Markup_Language_Parser/CGC_Planet_Markup_Language_Parser.dict -- data/linux/processed-challenges/CGC_Planet_Markup_Language_Parser/bin/CGC_Planet_Markup_Language_Parser\n'
p69
I8
tp70
a(I4200
S'start_time     : 1500036120\nlast_update    : 1500040267\nfuzzer_pid     : 24840\ncycles_done    : 0\nexecs_done     : 2669228\nexecs_per_sec  : 451.08\npaths_total    : 277\npaths_favored  : 80\npaths_found    : 276\npaths_imported : 0\nmax_depth      : 4\ncur_path       : 217\npending_favs   : 24\npending_total  : 212\nvariable_paths : 0\nbitmap_cvg     : 1.01%\nunique_crashes : 0\nunique_hangs   : 0\nlast_path      : 1500040168\nlast_crash     : 0\nlast_hang      : 0\nexec_timeout   : 20\nafl_banner     : fuzzer-master\nafl_version    : 1.85b\ncommand_line   : /home/skaramcheti/.virtualenvs/afl/bin/afl-unix/afl-fuzz -i /dev/shm/work/CGC_Planet_Markup_Language_Parser/input -o /dev/shm/work/CGC_Planet_Markup_Language_Parser/sync -m 4G -Q -M fuzzer-master -x /dev/shm/work/CGC_Planet_Markup_Language_Parser/CGC_Planet_Markup_Language_Parser.dict -- data/linux/processed-challenges/CGC_Planet_Markup_Language_Parser/bin/CGC_Planet_Markup_Language_Parser\n'
p71
I3
tp72
a(I4320
S'start_time     : 1500036120\nlast_update    : 1500040387\nfuzzer_pid     : 24840\ncycles_done    : 0\nexecs_done     : 2729801\nexecs_per_sec  : 430.08\npaths_total    : 284\npaths_favored  : 82\npaths_found    : 283\npaths_imported : 0\nmax_depth      : 4\ncur_path       : 225\npending_favs   : 25\npending_total  : 218\nvariable_paths : 0\nbitmap_cvg     : 1.14%\nunique_crashes : 0\nunique_hangs   : 0\nlast_path      : 1500040372\nlast_crash     : 0\nlast_hang      : 0\nexec_timeout   : 20\nafl_banner     : fuzzer-master\nafl_version    : 1.85b\ncommand_line   : /home/skaramcheti/.virtualenvs/afl/bin/afl-unix/afl-fuzz -i /dev/shm/work/CGC_Planet_Markup_Language_Parser/input -o /dev/shm/work/CGC_Planet_Markup_Language_Parser/sync -m 4G -Q -M fuzzer-master -x /dev/shm/work/CGC_Planet_Markup_Language_Parser/CGC_Planet_Markup_Language_Parser.dict -- data/linux/processed-challenges/CGC_Planet_Markup_Language_Parser/bin/CGC_Planet_Markup_Language_Parser\n'
p73
I7
tp74
a(I4440
S'start_time     : 1500036120\nlast_update    : 1500040507\nfuzzer_pid     : 24840\ncycles_done    : 0\nexecs_done     : 2810680\nexecs_per_sec  : 740.14\npaths_total    : 290\npaths_favored  : 82\npaths_found    : 289\npaths_imported : 0\nmax_depth      : 4\ncur_path       : 225\npending_favs   : 25\npending_total  : 224\nvariable_paths : 0\nbitmap_cvg     : 1.19%\nunique_crashes : 0\nunique_hangs   : 0\nlast_path      : 1500040466\nlast_crash     : 0\nlast_hang      : 0\nexec_timeout   : 20\nafl_banner     : fuzzer-master\nafl_version    : 1.85b\ncommand_line   : /home/skaramcheti/.virtualenvs/afl/bin/afl-unix/afl-fuzz -i /dev/shm/work/CGC_Planet_Markup_Language_Parser/input -o /dev/shm/work/CGC_Planet_Markup_Language_Parser/sync -m 4G -Q -M fuzzer-master -x /dev/shm/work/CGC_Planet_Markup_Language_Parser/CGC_Planet_Markup_Language_Parser.dict -- data/linux/processed-challenges/CGC_Planet_Markup_Language_Parser/bin/CGC_Planet_Markup_Language_Parser\n'
p75
I3
tp76
a(I4560
S'start_time     : 1500036120\nlast_update    : 1500040628\nfuzzer_pid     : 24840\ncycles_done    : 0\nexecs_done     : 2889333\nexecs_per_sec  : 553.14\npaths_total    : 291\npaths_favored  : 86\npaths_found    : 290\npaths_imported : 0\nmax_depth      : 4\ncur_path       : 226\npending_favs   : 30\npending_total  : 224\nvariable_paths : 0\nbitmap_cvg     : 1.19%\nunique_crashes : 0\nunique_hangs   : 0\nlast_path      : 1500040583\nlast_crash     : 0\nlast_hang      : 0\nexec_timeout   : 20\nafl_banner     : fuzzer-master\nafl_version    : 1.85b\ncommand_line   : /home/skaramcheti/.virtualenvs/afl/bin/afl-unix/afl-fuzz -i /dev/shm/work/CGC_Planet_Markup_Language_Parser/input -o /dev/shm/work/CGC_Planet_Markup_Language_Parser/sync -m 4G -Q -M fuzzer-master -x /dev/shm/work/CGC_Planet_Markup_Language_Parser/CGC_Planet_Markup_Language_Parser.dict -- data/linux/processed-challenges/CGC_Planet_Markup_Language_Parser/bin/CGC_Planet_Markup_Language_Parser\n'
p77
I2
tp78
a(I4680
S'start_time     : 1500036120\nlast_update    : 1500040748\nfuzzer_pid     : 24840\ncycles_done    : 0\nexecs_done     : 2955862\nexecs_per_sec  : 476.96\npaths_total    : 293\npaths_favored  : 88\npaths_found    : 292\npaths_imported : 0\nmax_depth      : 4\ncur_path       : 230\npending_favs   : 31\npending_total  : 224\nvariable_paths : 0\nbitmap_cvg     : 1.20%\nunique_crashes : 0\nunique_hangs   : 0\nlast_path      : 1500040687\nlast_crash     : 0\nlast_hang      : 0\nexec_timeout   : 20\nafl_banner     : fuzzer-master\nafl_version    : 1.85b\ncommand_line   : /home/skaramcheti/.virtualenvs/afl/bin/afl-unix/afl-fuzz -i /dev/shm/work/CGC_Planet_Markup_Language_Parser/input -o /dev/shm/work/CGC_Planet_Markup_Language_Parser/sync -m 4G -Q -M fuzzer-master -x /dev/shm/work/CGC_Planet_Markup_Language_Parser/CGC_Planet_Markup_Language_Parser.dict -- data/linux/processed-challenges/CGC_Planet_Markup_Language_Parser/bin/CGC_Planet_Markup_Language_Parser\n'
p79
I3
tp80
a(I4800
S'start_time     : 1500036120\nlast_update    : 1500040868\nfuzzer_pid     : 24840\ncycles_done    : 0\nexecs_done     : 3017264\nexecs_per_sec  : 379.11\npaths_total    : 295\npaths_favored  : 88\npaths_found    : 294\npaths_imported : 0\nmax_depth      : 4\ncur_path       : 233\npending_favs   : 30\npending_total  : 225\nvariable_paths : 0\nbitmap_cvg     : 1.20%\nunique_crashes : 0\nunique_hangs   : 0\nlast_path      : 1500040782\nlast_crash     : 0\nlast_hang      : 0\nexec_timeout   : 20\nafl_banner     : fuzzer-master\nafl_version    : 1.85b\ncommand_line   : /home/skaramcheti/.virtualenvs/afl/bin/afl-unix/afl-fuzz -i /dev/shm/work/CGC_Planet_Markup_Language_Parser/input -o /dev/shm/work/CGC_Planet_Markup_Language_Parser/sync -m 4G -Q -M fuzzer-master -x /dev/shm/work/CGC_Planet_Markup_Language_Parser/CGC_Planet_Markup_Language_Parser.dict -- data/linux/processed-challenges/CGC_Planet_Markup_Language_Parser/bin/CGC_Planet_Markup_Language_Parser\n'
p81
I0
tp82
a(I4920
S'start_time     : 1500036120\nlast_update    : 1500040988\nfuzzer_pid     : 24840\ncycles_done    : 0\nexecs_done     : 3087779\nexecs_per_sec  : 576.38\npaths_total    : 297\npaths_favored  : 88\npaths_found    : 296\npaths_imported : 0\nmax_depth      : 5\ncur_path       : 240\npending_favs   : 27\npending_total  : 224\nvariable_paths : 0\nbitmap_cvg     : 1.20%\nunique_crashes : 0\nunique_hangs   : 0\nlast_path      : 1500040958\nlast_crash     : 0\nlast_hang      : 0\nexec_timeout   : 20\nafl_banner     : fuzzer-master\nafl_version    : 1.85b\ncommand_line   : /home/skaramcheti/.virtualenvs/afl/bin/afl-unix/afl-fuzz -i /dev/shm/work/CGC_Planet_Markup_Language_Parser/input -o /dev/shm/work/CGC_Planet_Markup_Language_Parser/sync -m 4G -Q -M fuzzer-master -x /dev/shm/work/CGC_Planet_Markup_Language_Parser/CGC_Planet_Markup_Language_Parser.dict -- data/linux/processed-challenges/CGC_Planet_Markup_Language_Parser/bin/CGC_Planet_Markup_Language_Parser\n'
p83
I24
tp84
a(I5040
S'start_time     : 1500036120\nlast_update    : 1500041108\nfuzzer_pid     : 24840\ncycles_done    : 0\nexecs_done     : 3182789\nexecs_per_sec  : 806.91\npaths_total    : 331\npaths_favored  : 88\npaths_found    : 330\npaths_imported : 0\nmax_depth      : 5\ncur_path       : 240\npending_favs   : 27\npending_total  : 258\nvariable_paths : 0\nbitmap_cvg     : 1.41%\nunique_crashes : 2\nunique_hangs   : 0\nlast_path      : 1500041107\nlast_crash     : 1500041085\nlast_hang      : 0\nexec_timeout   : 20\nafl_banner     : fuzzer-master\nafl_version    : 1.85b\ncommand_line   : /home/skaramcheti/.virtualenvs/afl/bin/afl-unix/afl-fuzz -i /dev/shm/work/CGC_Planet_Markup_Language_Parser/input -o /dev/shm/work/CGC_Planet_Markup_Language_Parser/sync -m 4G -Q -M fuzzer-master -x /dev/shm/work/CGC_Planet_Markup_Language_Parser/CGC_Planet_Markup_Language_Parser.dict -- data/linux/processed-challenges/CGC_Planet_Markup_Language_Parser/bin/CGC_Planet_Markup_Language_Parser\n'
p85
I13
tp86
a(I5160
S'start_time     : 1500036120\nlast_update    : 1500041228\nfuzzer_pid     : 24840\ncycles_done    : 0\nexecs_done     : 3255239\nexecs_per_sec  : 480.84\npaths_total    : 335\npaths_favored  : 81\npaths_found    : 334\npaths_imported : 0\nmax_depth      : 5\ncur_path       : 245\npending_favs   : 28\npending_total  : 261\nvariable_paths : 0\nbitmap_cvg     : 1.41%\nunique_crashes : 2\nunique_hangs   : 0\nlast_path      : 1500041206\nlast_crash     : 1500041085\nlast_hang      : 0\nexec_timeout   : 20\nafl_banner     : fuzzer-master\nafl_version    : 1.85b\ncommand_line   : /home/skaramcheti/.virtualenvs/afl/bin/afl-unix/afl-fuzz -i /dev/shm/work/CGC_Planet_Markup_Language_Parser/input -o /dev/shm/work/CGC_Planet_Markup_Language_Parser/sync -m 4G -Q -M fuzzer-master -x /dev/shm/work/CGC_Planet_Markup_Language_Parser/CGC_Planet_Markup_Language_Parser.dict -- data/linux/processed-challenges/CGC_Planet_Markup_Language_Parser/bin/CGC_Planet_Markup_Language_Parser\n'
p87
I8
tp88
a(I5280
S'start_time     : 1500036120\nlast_update    : 1500041349\nfuzzer_pid     : 24840\ncycles_done    : 0\nexecs_done     : 3330570\nexecs_per_sec  : 664.18\npaths_total    : 344\npaths_favored  : 81\npaths_found    : 343\npaths_imported : 0\nmax_depth      : 5\ncur_path       : 245\npending_favs   : 28\npending_total  : 270\nvariable_paths : 0\nbitmap_cvg     : 1.41%\nunique_crashes : 2\nunique_hangs   : 0\nlast_path      : 1500041346\nlast_crash     : 1500041085\nlast_hang      : 0\nexec_timeout   : 20\nafl_banner     : fuzzer-master\nafl_version    : 1.85b\ncommand_line   : /home/skaramcheti/.virtualenvs/afl/bin/afl-unix/afl-fuzz -i /dev/shm/work/CGC_Planet_Markup_Language_Parser/input -o /dev/shm/work/CGC_Planet_Markup_Language_Parser/sync -m 4G -Q -M fuzzer-master -x /dev/shm/work/CGC_Planet_Markup_Language_Parser/CGC_Planet_Markup_Language_Parser.dict -- data/linux/processed-challenges/CGC_Planet_Markup_Language_Parser/bin/CGC_Planet_Markup_Language_Parser\n'
p89
I4
tp90
a(I5400
S'start_time     : 1500036120\nlast_update    : 1500041469\nfuzzer_pid     : 24840\ncycles_done    : 0\nexecs_done     : 3414568\nexecs_per_sec  : 540.40\npaths_total    : 344\npaths_favored  : 83\npaths_found    : 343\npaths_imported : 0\nmax_depth      : 5\ncur_path       : 248\npending_favs   : 29\npending_total  : 268\nvariable_paths : 0\nbitmap_cvg     : 1.41%\nunique_crashes : 2\nunique_hangs   : 0\nlast_path      : 1500041346\nlast_crash     : 1500041085\nlast_hang      : 0\nexec_timeout   : 20\nafl_banner     : fuzzer-master\nafl_version    : 1.85b\ncommand_line   : /home/skaramcheti/.virtualenvs/afl/bin/afl-unix/afl-fuzz -i /dev/shm/work/CGC_Planet_Markup_Language_Parser/input -o /dev/shm/work/CGC_Planet_Markup_Language_Parser/sync -m 4G -Q -M fuzzer-master -x /dev/shm/work/CGC_Planet_Markup_Language_Parser/CGC_Planet_Markup_Language_Parser.dict -- data/linux/processed-challenges/CGC_Planet_Markup_Language_Parser/bin/CGC_Planet_Markup_Language_Parser\n'
p91
I0
tp92
a(I5520
S'start_time     : 1500036120\nlast_update    : 1500041589\nfuzzer_pid     : 24840\ncycles_done    : 0\nexecs_done     : 3462234\nexecs_per_sec  : 353.27\npaths_total    : 344\npaths_favored  : 83\npaths_found    : 343\npaths_imported : 0\nmax_depth      : 5\ncur_path       : 248\npending_favs   : 29\npending_total  : 268\nvariable_paths : 0\nbitmap_cvg     : 1.41%\nunique_crashes : 2\nunique_hangs   : 0\nlast_path      : 1500041346\nlast_crash     : 1500041085\nlast_hang      : 0\nexec_timeout   : 20\nafl_banner     : fuzzer-master\nafl_version    : 1.85b\ncommand_line   : /home/skaramcheti/.virtualenvs/afl/bin/afl-unix/afl-fuzz -i /dev/shm/work/CGC_Planet_Markup_Language_Parser/input -o /dev/shm/work/CGC_Planet_Markup_Language_Parser/sync -m 4G -Q -M fuzzer-master -x /dev/shm/work/CGC_Planet_Markup_Language_Parser/CGC_Planet_Markup_Language_Parser.dict -- data/linux/processed-challenges/CGC_Planet_Markup_Language_Parser/bin/CGC_Planet_Markup_Language_Parser\n'
p93
I6
tp94
a(I5640
S'start_time     : 1500036120\nlast_update    : 1500041709\nfuzzer_pid     : 24840\ncycles_done    : 0\nexecs_done     : 3530168\nexecs_per_sec  : 568.80\npaths_total    : 353\npaths_favored  : 83\npaths_found    : 352\npaths_imported : 0\nmax_depth      : 5\ncur_path       : 248\npending_favs   : 29\npending_total  : 277\nvariable_paths : 0\nbitmap_cvg     : 1.45%\nunique_crashes : 2\nunique_hangs   : 0\nlast_path      : 1500041680\nlast_crash     : 1500041085\nlast_hang      : 0\nexec_timeout   : 20\nafl_banner     : fuzzer-master\nafl_version    : 1.85b\ncommand_line   : /home/skaramcheti/.virtualenvs/afl/bin/afl-unix/afl-fuzz -i /dev/shm/work/CGC_Planet_Markup_Language_Parser/input -o /dev/shm/work/CGC_Planet_Markup_Language_Parser/sync -m 4G -Q -M fuzzer-master -x /dev/shm/work/CGC_Planet_Markup_Language_Parser/CGC_Planet_Markup_Language_Parser.dict -- data/linux/processed-challenges/CGC_Planet_Markup_Language_Parser/bin/CGC_Planet_Markup_Language_Parser\n'
p95
I6
tp96
a(I5760
S'start_time     : 1500036120\nlast_update    : 1500041830\nfuzzer_pid     : 24840\ncycles_done    : 0\nexecs_done     : 3601545\nexecs_per_sec  : 609.98\npaths_total    : 358\npaths_favored  : 90\npaths_found    : 357\npaths_imported : 0\nmax_depth      : 5\ncur_path       : 252\npending_favs   : 37\npending_total  : 281\nvariable_paths : 0\nbitmap_cvg     : 1.45%\nunique_crashes : 2\nunique_hangs   : 0\nlast_path      : 1500041800\nlast_crash     : 1500041085\nlast_hang      : 0\nexec_timeout   : 20\nafl_banner     : fuzzer-master\nafl_version    : 1.85b\ncommand_line   : /home/skaramcheti/.virtualenvs/afl/bin/afl-unix/afl-fuzz -i /dev/shm/work/CGC_Planet_Markup_Language_Parser/input -o /dev/shm/work/CGC_Planet_Markup_Language_Parser/sync -m 4G -Q -M fuzzer-master -x /dev/shm/work/CGC_Planet_Markup_Language_Parser/CGC_Planet_Markup_Language_Parser.dict -- data/linux/processed-challenges/CGC_Planet_Markup_Language_Parser/bin/CGC_Planet_Markup_Language_Parser\n'
p97
I9
tp98
a(I5880
S'start_time     : 1500036120\nlast_update    : 1500041950\nfuzzer_pid     : 24840\ncycles_done    : 0\nexecs_done     : 3706679\nexecs_per_sec  : 913.92\npaths_total    : 369\npaths_favored  : 90\npaths_found    : 368\npaths_imported : 0\nmax_depth      : 5\ncur_path       : 252\npending_favs   : 37\npending_total  : 292\nvariable_paths : 0\nbitmap_cvg     : 1.47%\nunique_crashes : 2\nunique_hangs   : 0\nlast_path      : 1500041948\nlast_crash     : 1500041085\nlast_hang      : 0\nexec_timeout   : 20\nafl_banner     : fuzzer-master\nafl_version    : 1.85b\ncommand_line   : /home/skaramcheti/.virtualenvs/afl/bin/afl-unix/afl-fuzz -i /dev/shm/work/CGC_Planet_Markup_Language_Parser/input -o /dev/shm/work/CGC_Planet_Markup_Language_Parser/sync -m 4G -Q -M fuzzer-master -x /dev/shm/work/CGC_Planet_Markup_Language_Parser/CGC_Planet_Markup_Language_Parser.dict -- data/linux/processed-challenges/CGC_Planet_Markup_Language_Parser/bin/CGC_Planet_Markup_Language_Parser\n'
p99
I6
tp100
a(I6000
S'start_time     : 1500036120\nlast_update    : 1500042070\nfuzzer_pid     : 24840\ncycles_done    : 0\nexecs_done     : 3787655\nexecs_per_sec  : 391.37\npaths_total    : 372\npaths_favored  : 94\npaths_found    : 371\npaths_imported : 0\nmax_depth      : 5\ncur_path       : 253\npending_favs   : 41\npending_total  : 294\nvariable_paths : 0\nbitmap_cvg     : 1.49%\nunique_crashes : 2\nunique_hangs   : 0\nlast_path      : 1500042006\nlast_crash     : 1500041085\nlast_hang      : 0\nexec_timeout   : 20\nafl_banner     : fuzzer-master\nafl_version    : 1.85b\ncommand_line   : /home/skaramcheti/.virtualenvs/afl/bin/afl-unix/afl-fuzz -i /dev/shm/work/CGC_Planet_Markup_Language_Parser/input -o /dev/shm/work/CGC_Planet_Markup_Language_Parser/sync -m 4G -Q -M fuzzer-master -x /dev/shm/work/CGC_Planet_Markup_Language_Parser/CGC_Planet_Markup_Language_Parser.dict -- data/linux/processed-challenges/CGC_Planet_Markup_Language_Parser/bin/CGC_Planet_Markup_Language_Parser\n'
p101
I1
tp102
a(I6120
S'start_time     : 1500036120\nlast_update    : 1500042190\nfuzzer_pid     : 24840\ncycles_done    : 0\nexecs_done     : 3831724\nexecs_per_sec  : 373.97\npaths_total    : 372\npaths_favored  : 94\npaths_found    : 371\npaths_imported : 0\nmax_depth      : 5\ncur_path       : 253\npending_favs   : 41\npending_total  : 294\nvariable_paths : 0\nbitmap_cvg     : 1.49%\nunique_crashes : 2\nunique_hangs   : 0\nlast_path      : 1500042006\nlast_crash     : 1500041085\nlast_hang      : 0\nexec_timeout   : 20\nafl_banner     : fuzzer-master\nafl_version    : 1.85b\ncommand_line   : /home/skaramcheti/.virtualenvs/afl/bin/afl-unix/afl-fuzz -i /dev/shm/work/CGC_Planet_Markup_Language_Parser/input -o /dev/shm/work/CGC_Planet_Markup_Language_Parser/sync -m 4G -Q -M fuzzer-master -x /dev/shm/work/CGC_Planet_Markup_Language_Parser/CGC_Planet_Markup_Language_Parser.dict -- data/linux/processed-challenges/CGC_Planet_Markup_Language_Parser/bin/CGC_Planet_Markup_Language_Parser\n'
p103
I0
tp104
a(I6240
S'start_time     : 1500036120\nlast_update    : 1500042310\nfuzzer_pid     : 24840\ncycles_done    : 0\nexecs_done     : 3894141\nexecs_per_sec  : 710.88\npaths_total    : 372\npaths_favored  : 94\npaths_found    : 371\npaths_imported : 0\nmax_depth      : 5\ncur_path       : 259\npending_favs   : 40\npending_total  : 293\nvariable_paths : 0\nbitmap_cvg     : 1.49%\nunique_crashes : 2\nunique_hangs   : 0\nlast_path      : 1500042006\nlast_crash     : 1500041085\nlast_hang      : 0\nexec_timeout   : 20\nafl_banner     : fuzzer-master\nafl_version    : 1.85b\ncommand_line   : /home/skaramcheti/.virtualenvs/afl/bin/afl-unix/afl-fuzz -i /dev/shm/work/CGC_Planet_Markup_Language_Parser/input -o /dev/shm/work/CGC_Planet_Markup_Language_Parser/sync -m 4G -Q -M fuzzer-master -x /dev/shm/work/CGC_Planet_Markup_Language_Parser/CGC_Planet_Markup_Language_Parser.dict -- data/linux/processed-challenges/CGC_Planet_Markup_Language_Parser/bin/CGC_Planet_Markup_Language_Parser\n'
p105
I0
tp106
a(I6360
S'start_time     : 1500036120\nlast_update    : 1500042430\nfuzzer_pid     : 24840\ncycles_done    : 0\nexecs_done     : 3951826\nexecs_per_sec  : 416.76\npaths_total    : 372\npaths_favored  : 94\npaths_found    : 371\npaths_imported : 0\nmax_depth      : 5\ncur_path       : 263\npending_favs   : 39\npending_total  : 292\nvariable_paths : 0\nbitmap_cvg     : 1.49%\nunique_crashes : 2\nunique_hangs   : 0\nlast_path      : 1500042006\nlast_crash     : 1500041085\nlast_hang      : 0\nexec_timeout   : 20\nafl_banner     : fuzzer-master\nafl_version    : 1.85b\ncommand_line   : /home/skaramcheti/.virtualenvs/afl/bin/afl-unix/afl-fuzz -i /dev/shm/work/CGC_Planet_Markup_Language_Parser/input -o /dev/shm/work/CGC_Planet_Markup_Language_Parser/sync -m 4G -Q -M fuzzer-master -x /dev/shm/work/CGC_Planet_Markup_Language_Parser/CGC_Planet_Markup_Language_Parser.dict -- data/linux/processed-challenges/CGC_Planet_Markup_Language_Parser/bin/CGC_Planet_Markup_Language_Parser\n'
p107
I0
tp108
a(I6480
S'start_time     : 1500036120\nlast_update    : 1500042550\nfuzzer_pid     : 24840\ncycles_done    : 0\nexecs_done     : 4006779\nexecs_per_sec  : 403.43\npaths_total    : 372\npaths_favored  : 94\npaths_found    : 371\npaths_imported : 0\nmax_depth      : 5\ncur_path       : 269\npending_favs   : 38\npending_total  : 291\nvariable_paths : 0\nbitmap_cvg     : 1.49%\nunique_crashes : 2\nunique_hangs   : 0\nlast_path      : 1500042006\nlast_crash     : 1500041085\nlast_hang      : 0\nexec_timeout   : 20\nafl_banner     : fuzzer-master\nafl_version    : 1.85b\ncommand_line   : /home/skaramcheti/.virtualenvs/afl/bin/afl-unix/afl-fuzz -i /dev/shm/work/CGC_Planet_Markup_Language_Parser/input -o /dev/shm/work/CGC_Planet_Markup_Language_Parser/sync -m 4G -Q -M fuzzer-master -x /dev/shm/work/CGC_Planet_Markup_Language_Parser/CGC_Planet_Markup_Language_Parser.dict -- data/linux/processed-challenges/CGC_Planet_Markup_Language_Parser/bin/CGC_Planet_Markup_Language_Parser\n'
p109
I0
tp110
a(I6600
S'start_time     : 1500036120\nlast_update    : 1500042671\nfuzzer_pid     : 24840\ncycles_done    : 0\nexecs_done     : 4050646\nexecs_per_sec  : 385.63\npaths_total    : 372\npaths_favored  : 94\npaths_found    : 371\npaths_imported : 0\nmax_depth      : 5\ncur_path       : 269\npending_favs   : 38\npending_total  : 291\nvariable_paths : 0\nbitmap_cvg     : 1.49%\nunique_crashes : 2\nunique_hangs   : 0\nlast_path      : 1500042006\nlast_crash     : 1500041085\nlast_hang      : 0\nexec_timeout   : 20\nafl_banner     : fuzzer-master\nafl_version    : 1.85b\ncommand_line   : /home/skaramcheti/.virtualenvs/afl/bin/afl-unix/afl-fuzz -i /dev/shm/work/CGC_Planet_Markup_Language_Parser/input -o /dev/shm/work/CGC_Planet_Markup_Language_Parser/sync -m 4G -Q -M fuzzer-master -x /dev/shm/work/CGC_Planet_Markup_Language_Parser/CGC_Planet_Markup_Language_Parser.dict -- data/linux/processed-challenges/CGC_Planet_Markup_Language_Parser/bin/CGC_Planet_Markup_Language_Parser\n'
p111
I5
tp112
a(I6720
S'start_time     : 1500036120\nlast_update    : 1500042791\nfuzzer_pid     : 24840\ncycles_done    : 0\nexecs_done     : 4096844\nexecs_per_sec  : 352.56\npaths_total    : 394\npaths_favored  : 94\npaths_found    : 393\npaths_imported : 0\nmax_depth      : 5\ncur_path       : 278\npending_favs   : 37\npending_total  : 312\nvariable_paths : 0\nbitmap_cvg     : 1.64%\nunique_crashes : 2\nunique_hangs   : 0\nlast_path      : 1500042789\nlast_crash     : 1500041085\nlast_hang      : 0\nexec_timeout   : 20\nafl_banner     : fuzzer-master\nafl_version    : 1.85b\ncommand_line   : /home/skaramcheti/.virtualenvs/afl/bin/afl-unix/afl-fuzz -i /dev/shm/work/CGC_Planet_Markup_Language_Parser/input -o /dev/shm/work/CGC_Planet_Markup_Language_Parser/sync -m 4G -Q -M fuzzer-master -x /dev/shm/work/CGC_Planet_Markup_Language_Parser/CGC_Planet_Markup_Language_Parser.dict -- data/linux/processed-challenges/CGC_Planet_Markup_Language_Parser/bin/CGC_Planet_Markup_Language_Parser\n'
p113
I27
tp114
a(I6840
S'start_time     : 1500036120\nlast_update    : 1500042911\nfuzzer_pid     : 24840\ncycles_done    : 0\nexecs_done     : 4134281\nexecs_per_sec  : 242.47\npaths_total    : 413\npaths_favored  : 94\npaths_found    : 412\npaths_imported : 0\nmax_depth      : 5\ncur_path       : 278\npending_favs   : 37\npending_total  : 331\nvariable_paths : 0\nbitmap_cvg     : 1.69%\nunique_crashes : 2\nunique_hangs   : 0\nlast_path      : 1500042898\nlast_crash     : 1500041085\nlast_hang      : 0\nexec_timeout   : 20\nafl_banner     : fuzzer-master\nafl_version    : 1.85b\ncommand_line   : /home/skaramcheti/.virtualenvs/afl/bin/afl-unix/afl-fuzz -i /dev/shm/work/CGC_Planet_Markup_Language_Parser/input -o /dev/shm/work/CGC_Planet_Markup_Language_Parser/sync -m 4G -Q -M fuzzer-master -x /dev/shm/work/CGC_Planet_Markup_Language_Parser/CGC_Planet_Markup_Language_Parser.dict -- data/linux/processed-challenges/CGC_Planet_Markup_Language_Parser/bin/CGC_Planet_Markup_Language_Parser\n'
p115
I14
tp116
a(I6960
S'start_time     : 1500036120\nlast_update    : 1500043031\nfuzzer_pid     : 24840\ncycles_done    : 0\nexecs_done     : 4190882\nexecs_per_sec  : 475.23\npaths_total    : 424\npaths_favored  : 94\npaths_found    : 423\npaths_imported : 0\nmax_depth      : 5\ncur_path       : 278\npending_favs   : 37\npending_total  : 342\nvariable_paths : 0\nbitmap_cvg     : 1.71%\nunique_crashes : 2\nunique_hangs   : 0\nlast_path      : 1500043004\nlast_crash     : 1500041085\nlast_hang      : 0\nexec_timeout   : 20\nafl_banner     : fuzzer-master\nafl_version    : 1.85b\ncommand_line   : /home/skaramcheti/.virtualenvs/afl/bin/afl-unix/afl-fuzz -i /dev/shm/work/CGC_Planet_Markup_Language_Parser/input -o /dev/shm/work/CGC_Planet_Markup_Language_Parser/sync -m 4G -Q -M fuzzer-master -x /dev/shm/work/CGC_Planet_Markup_Language_Parser/CGC_Planet_Markup_Language_Parser.dict -- data/linux/processed-challenges/CGC_Planet_Markup_Language_Parser/bin/CGC_Planet_Markup_Language_Parser\n'
p117
I8
tp118
a(I7080
S'start_time     : 1500036120\nlast_update    : 1500043151\nfuzzer_pid     : 24840\ncycles_done    : 0\nexecs_done     : 4250499\nexecs_per_sec  : 447.97\npaths_total    : 429\npaths_favored  : 131\npaths_found    : 428\npaths_imported : 0\nmax_depth      : 5\ncur_path       : 281\npending_favs   : 75\npending_total  : 346\nvariable_paths : 0\nbitmap_cvg     : 1.73%\nunique_crashes : 2\nunique_hangs   : 0\nlast_path      : 1500043112\nlast_crash     : 1500041085\nlast_hang      : 0\nexec_timeout   : 20\nafl_banner     : fuzzer-master\nafl_version    : 1.85b\ncommand_line   : /home/skaramcheti/.virtualenvs/afl/bin/afl-unix/afl-fuzz -i /dev/shm/work/CGC_Planet_Markup_Language_Parser/input -o /dev/shm/work/CGC_Planet_Markup_Language_Parser/sync -m 4G -Q -M fuzzer-master -x /dev/shm/work/CGC_Planet_Markup_Language_Parser/CGC_Planet_Markup_Language_Parser.dict -- data/linux/processed-challenges/CGC_Planet_Markup_Language_Parser/bin/CGC_Planet_Markup_Language_Parser\n'
p119
I3
tp120
a(I7200
S'start_time     : 1500036120\nlast_update    : 1500043272\nfuzzer_pid     : 24840\ncycles_done    : 0\nexecs_done     : 4323988\nexecs_per_sec  : 511.01\npaths_total    : 446\npaths_favored  : 132\npaths_found    : 445\npaths_imported : 0\nmax_depth      : 5\ncur_path       : 283\npending_favs   : 75\npending_total  : 361\nvariable_paths : 0\nbitmap_cvg     : 1.83%\nunique_crashes : 2\nunique_hangs   : 0\nlast_path      : 1500043271\nlast_crash     : 1500041085\nlast_hang      : 0\nexec_timeout   : 20\nafl_banner     : fuzzer-master\nafl_version    : 1.85b\ncommand_line   : /home/skaramcheti/.virtualenvs/afl/bin/afl-unix/afl-fuzz -i /dev/shm/work/CGC_Planet_Markup_Language_Parser/input -o /dev/shm/work/CGC_Planet_Markup_Language_Parser/sync -m 4G -Q -M fuzzer-master -x /dev/shm/work/CGC_Planet_Markup_Language_Parser/CGC_Planet_Markup_Language_Parser.dict -- data/linux/processed-challenges/CGC_Planet_Markup_Language_Parser/bin/CGC_Planet_Markup_Language_Parser\n'
p121
I29
tp122
a(I7320
S'start_time     : 1500036120\nlast_update    : 1500043392\nfuzzer_pid     : 24840\ncycles_done    : 0\nexecs_done     : 4389568\nexecs_per_sec  : 702.82\npaths_total    : 463\npaths_favored  : 132\npaths_found    : 462\npaths_imported : 0\nmax_depth      : 5\ncur_path       : 283\npending_favs   : 75\npending_total  : 378\nvariable_paths : 0\nbitmap_cvg     : 2.06%\nunique_crashes : 2\nunique_hangs   : 0\nlast_path      : 1500043384\nlast_crash     : 1500041085\nlast_hang      : 0\nexec_timeout   : 20\nafl_banner     : fuzzer-master\nafl_version    : 1.85b\ncommand_line   : /home/skaramcheti/.virtualenvs/afl/bin/afl-unix/afl-fuzz -i /dev/shm/work/CGC_Planet_Markup_Language_Parser/input -o /dev/shm/work/CGC_Planet_Markup_Language_Parser/sync -m 4G -Q -M fuzzer-master -x /dev/shm/work/CGC_Planet_Markup_Language_Parser/CGC_Planet_Markup_Language_Parser.dict -- data/linux/processed-challenges/CGC_Planet_Markup_Language_Parser/bin/CGC_Planet_Markup_Language_Parser\n'
p123
I8
tp124
a(I7440
S'start_time     : 1500036120\nlast_update    : 1500043512\nfuzzer_pid     : 24840\ncycles_done    : 0\nexecs_done     : 4475942\nexecs_per_sec  : 710.88\npaths_total    : 468\npaths_favored  : 132\npaths_found    : 467\npaths_imported : 0\nmax_depth      : 5\ncur_path       : 283\npending_favs   : 75\npending_total  : 383\nvariable_paths : 0\nbitmap_cvg     : 2.10%\nunique_crashes : 2\nunique_hangs   : 0\nlast_path      : 1500043494\nlast_crash     : 1500041085\nlast_hang      : 0\nexec_timeout   : 20\nafl_banner     : fuzzer-master\nafl_version    : 1.85b\ncommand_line   : /home/skaramcheti/.virtualenvs/afl/bin/afl-unix/afl-fuzz -i /dev/shm/work/CGC_Planet_Markup_Language_Parser/input -o /dev/shm/work/CGC_Planet_Markup_Language_Parser/sync -m 4G -Q -M fuzzer-master -x /dev/shm/work/CGC_Planet_Markup_Language_Parser/CGC_Planet_Markup_Language_Parser.dict -- data/linux/processed-challenges/CGC_Planet_Markup_Language_Parser/bin/CGC_Planet_Markup_Language_Parser\n'
p125
I3
tp126
a(I7560
S'start_time     : 1500036120\nlast_update    : 1500043632\nfuzzer_pid     : 24840\ncycles_done    : 0\nexecs_done     : 4530917\nexecs_per_sec  : 444.56\npaths_total    : 469\npaths_favored  : 152\npaths_found    : 468\npaths_imported : 0\nmax_depth      : 5\ncur_path       : 284\npending_favs   : 96\npending_total  : 383\nvariable_paths : 0\nbitmap_cvg     : 2.12%\nunique_crashes : 2\nunique_hangs   : 0\nlast_path      : 1500043518\nlast_crash     : 1500041085\nlast_hang      : 0\nexec_timeout   : 20\nafl_banner     : fuzzer-master\nafl_version    : 1.85b\ncommand_line   : /home/skaramcheti/.virtualenvs/afl/bin/afl-unix/afl-fuzz -i /dev/shm/work/CGC_Planet_Markup_Language_Parser/input -o /dev/shm/work/CGC_Planet_Markup_Language_Parser/sync -m 4G -Q -M fuzzer-master -x /dev/shm/work/CGC_Planet_Markup_Language_Parser/CGC_Planet_Markup_Language_Parser.dict -- data/linux/processed-challenges/CGC_Planet_Markup_Language_Parser/bin/CGC_Planet_Markup_Language_Parser\n'
p127
I3
tp128
a(I7680
S'start_time     : 1500036120\nlast_update    : 1500043752\nfuzzer_pid     : 24840\ncycles_done    : 0\nexecs_done     : 4599995\nexecs_per_sec  : 325.73\npaths_total    : 472\npaths_favored  : 153\npaths_found    : 471\npaths_imported : 0\nmax_depth      : 5\ncur_path       : 285\npending_favs   : 96\npending_total  : 385\nvariable_paths : 0\nbitmap_cvg     : 2.12%\nunique_crashes : 2\nunique_hangs   : 0\nlast_path      : 1500043663\nlast_crash     : 1500041085\nlast_hang      : 0\nexec_timeout   : 20\nafl_banner     : fuzzer-master\nafl_version    : 1.85b\ncommand_line   : /home/skaramcheti/.virtualenvs/afl/bin/afl-unix/afl-fuzz -i /dev/shm/work/CGC_Planet_Markup_Language_Parser/input -o /dev/shm/work/CGC_Planet_Markup_Language_Parser/sync -m 4G -Q -M fuzzer-master -x /dev/shm/work/CGC_Planet_Markup_Language_Parser/CGC_Planet_Markup_Language_Parser.dict -- data/linux/processed-challenges/CGC_Planet_Markup_Language_Parser/bin/CGC_Planet_Markup_Language_Parser\n'
p129
I0
tp130
a(I7800
S'start_time     : 1500036120\nlast_update    : 1500043872\nfuzzer_pid     : 24840\ncycles_done    : 0\nexecs_done     : 4638354\nexecs_per_sec  : 315.28\npaths_total    : 472\npaths_favored  : 153\npaths_found    : 471\npaths_imported : 0\nmax_depth      : 5\ncur_path       : 285\npending_favs   : 96\npending_total  : 385\nvariable_paths : 0\nbitmap_cvg     : 2.12%\nunique_crashes : 2\nunique_hangs   : 0\nlast_path      : 1500043663\nlast_crash     : 1500041085\nlast_hang      : 0\nexec_timeout   : 20\nafl_banner     : fuzzer-master\nafl_version    : 1.85b\ncommand_line   : /home/skaramcheti/.virtualenvs/afl/bin/afl-unix/afl-fuzz -i /dev/shm/work/CGC_Planet_Markup_Language_Parser/input -o /dev/shm/work/CGC_Planet_Markup_Language_Parser/sync -m 4G -Q -M fuzzer-master -x /dev/shm/work/CGC_Planet_Markup_Language_Parser/CGC_Planet_Markup_Language_Parser.dict -- data/linux/processed-challenges/CGC_Planet_Markup_Language_Parser/bin/CGC_Planet_Markup_Language_Parser\n'
p131
I0
tp132
a(I7920
S'start_time     : 1500036120\nlast_update    : 1500043993\nfuzzer_pid     : 24840\ncycles_done    : 0\nexecs_done     : 4673492\nexecs_per_sec  : 290.71\npaths_total    : 472\npaths_favored  : 153\npaths_found    : 471\npaths_imported : 0\nmax_depth      : 5\ncur_path       : 285\npending_favs   : 96\npending_total  : 385\nvariable_paths : 0\nbitmap_cvg     : 2.12%\nunique_crashes : 2\nunique_hangs   : 0\nlast_path      : 1500043663\nlast_crash     : 1500041085\nlast_hang      : 0\nexec_timeout   : 20\nafl_banner     : fuzzer-master\nafl_version    : 1.85b\ncommand_line   : /home/skaramcheti/.virtualenvs/afl/bin/afl-unix/afl-fuzz -i /dev/shm/work/CGC_Planet_Markup_Language_Parser/input -o /dev/shm/work/CGC_Planet_Markup_Language_Parser/sync -m 4G -Q -M fuzzer-master -x /dev/shm/work/CGC_Planet_Markup_Language_Parser/CGC_Planet_Markup_Language_Parser.dict -- data/linux/processed-challenges/CGC_Planet_Markup_Language_Parser/bin/CGC_Planet_Markup_Language_Parser\n'
p133
I0
tp134
a(I8040
S'start_time     : 1500036120\nlast_update    : 1500044113\nfuzzer_pid     : 24840\ncycles_done    : 0\nexecs_done     : 4720898\nexecs_per_sec  : 609.21\npaths_total    : 472\npaths_favored  : 153\npaths_found    : 471\npaths_imported : 0\nmax_depth      : 5\ncur_path       : 287\npending_favs   : 95\npending_total  : 384\nvariable_paths : 0\nbitmap_cvg     : 2.12%\nunique_crashes : 2\nunique_hangs   : 0\nlast_path      : 1500043663\nlast_crash     : 1500041085\nlast_hang      : 0\nexec_timeout   : 20\nafl_banner     : fuzzer-master\nafl_version    : 1.85b\ncommand_line   : /home/skaramcheti/.virtualenvs/afl/bin/afl-unix/afl-fuzz -i /dev/shm/work/CGC_Planet_Markup_Language_Parser/input -o /dev/shm/work/CGC_Planet_Markup_Language_Parser/sync -m 4G -Q -M fuzzer-master -x /dev/shm/work/CGC_Planet_Markup_Language_Parser/CGC_Planet_Markup_Language_Parser.dict -- data/linux/processed-challenges/CGC_Planet_Markup_Language_Parser/bin/CGC_Planet_Markup_Language_Parser\n'
p135
I1
tp136
a(I8160
S'start_time     : 1500036120\nlast_update    : 1500044233\nfuzzer_pid     : 24840\ncycles_done    : 0\nexecs_done     : 4790155\nexecs_per_sec  : 756.02\npaths_total    : 473\npaths_favored  : 153\npaths_found    : 472\npaths_imported : 0\nmax_depth      : 5\ncur_path       : 291\npending_favs   : 94\npending_total  : 384\nvariable_paths : 0\nbitmap_cvg     : 2.13%\nunique_crashes : 2\nunique_hangs   : 0\nlast_path      : 1500044157\nlast_crash     : 1500041085\nlast_hang      : 0\nexec_timeout   : 20\nafl_banner     : fuzzer-master\nafl_version    : 1.85b\ncommand_line   : /home/skaramcheti/.virtualenvs/afl/bin/afl-unix/afl-fuzz -i /dev/shm/work/CGC_Planet_Markup_Language_Parser/input -o /dev/shm/work/CGC_Planet_Markup_Language_Parser/sync -m 4G -Q -M fuzzer-master -x /dev/shm/work/CGC_Planet_Markup_Language_Parser/CGC_Planet_Markup_Language_Parser.dict -- data/linux/processed-challenges/CGC_Planet_Markup_Language_Parser/bin/CGC_Planet_Markup_Language_Parser\n'
p137
I0
tp138
a(I8280
S'start_time     : 1500036120\nlast_update    : 1500044353\nfuzzer_pid     : 24840\ncycles_done    : 0\nexecs_done     : 4858325\nexecs_per_sec  : 499.02\npaths_total    : 473\npaths_favored  : 154\npaths_found    : 472\npaths_imported : 0\nmax_depth      : 5\ncur_path       : 299\npending_favs   : 93\npending_total  : 382\nvariable_paths : 0\nbitmap_cvg     : 2.13%\nunique_crashes : 2\nunique_hangs   : 0\nlast_path      : 1500044157\nlast_crash     : 1500041085\nlast_hang      : 0\nexec_timeout   : 20\nafl_banner     : fuzzer-master\nafl_version    : 1.85b\ncommand_line   : /home/skaramcheti/.virtualenvs/afl/bin/afl-unix/afl-fuzz -i /dev/shm/work/CGC_Planet_Markup_Language_Parser/input -o /dev/shm/work/CGC_Planet_Markup_Language_Parser/sync -m 4G -Q -M fuzzer-master -x /dev/shm/work/CGC_Planet_Markup_Language_Parser/CGC_Planet_Markup_Language_Parser.dict -- data/linux/processed-challenges/CGC_Planet_Markup_Language_Parser/bin/CGC_Planet_Markup_Language_Parser\n'
p139
I0
tp140
a(I8400
S'start_time     : 1500036120\nlast_update    : 1500044473\nfuzzer_pid     : 24840\ncycles_done    : 0\nexecs_done     : 4924378\nexecs_per_sec  : 614.10\npaths_total    : 478\npaths_favored  : 154\npaths_found    : 477\npaths_imported : 0\nmax_depth      : 6\ncur_path       : 299\npending_favs   : 93\npending_total  : 387\nvariable_paths : 0\nbitmap_cvg     : 2.13%\nunique_crashes : 4\nunique_hangs   : 0\nlast_path      : 1500044464\nlast_crash     : 1500044471\nlast_hang      : 0\nexec_timeout   : 20\nafl_banner     : fuzzer-master\nafl_version    : 1.85b\ncommand_line   : /home/skaramcheti/.virtualenvs/afl/bin/afl-unix/afl-fuzz -i /dev/shm/work/CGC_Planet_Markup_Language_Parser/input -o /dev/shm/work/CGC_Planet_Markup_Language_Parser/sync -m 4G -Q -M fuzzer-master -x /dev/shm/work/CGC_Planet_Markup_Language_Parser/CGC_Planet_Markup_Language_Parser.dict -- data/linux/processed-challenges/CGC_Planet_Markup_Language_Parser/bin/CGC_Planet_Markup_Language_Parser\n'
p141
I10
tp142
a(I8520
S'start_time     : 1500036120\nlast_update    : 1500044594\nfuzzer_pid     : 24840\ncycles_done    : 0\nexecs_done     : 4999122\nexecs_per_sec  : 611.46\npaths_total    : 486\npaths_favored  : 154\npaths_found    : 485\npaths_imported : 0\nmax_depth      : 6\ncur_path       : 299\npending_favs   : 93\npending_total  : 395\nvariable_paths : 0\nbitmap_cvg     : 2.14%\nunique_crashes : 5\nunique_hangs   : 0\nlast_path      : 1500044589\nlast_crash     : 1500044577\nlast_hang      : 0\nexec_timeout   : 20\nafl_banner     : fuzzer-master\nafl_version    : 1.85b\ncommand_line   : /home/skaramcheti/.virtualenvs/afl/bin/afl-unix/afl-fuzz -i /dev/shm/work/CGC_Planet_Markup_Language_Parser/input -o /dev/shm/work/CGC_Planet_Markup_Language_Parser/sync -m 4G -Q -M fuzzer-master -x /dev/shm/work/CGC_Planet_Markup_Language_Parser/CGC_Planet_Markup_Language_Parser.dict -- data/linux/processed-challenges/CGC_Planet_Markup_Language_Parser/bin/CGC_Planet_Markup_Language_Parser\n'
p143
I8
tp144
a(I8640
S'start_time     : 1500036120\nlast_update    : 1500044714\nfuzzer_pid     : 24840\ncycles_done    : 0\nexecs_done     : 5064616\nexecs_per_sec  : 436.47\npaths_total    : 493\npaths_favored  : 153\npaths_found    : 492\npaths_imported : 0\nmax_depth      : 6\ncur_path       : 314\npending_favs   : 92\npending_total  : 401\nvariable_paths : 0\nbitmap_cvg     : 2.15%\nunique_crashes : 5\nunique_hangs   : 0\nlast_path      : 1500044672\nlast_crash     : 1500044577\nlast_hang      : 0\nexec_timeout   : 20\nafl_banner     : fuzzer-master\nafl_version    : 1.85b\ncommand_line   : /home/skaramcheti/.virtualenvs/afl/bin/afl-unix/afl-fuzz -i /dev/shm/work/CGC_Planet_Markup_Language_Parser/input -o /dev/shm/work/CGC_Planet_Markup_Language_Parser/sync -m 4G -Q -M fuzzer-master -x /dev/shm/work/CGC_Planet_Markup_Language_Parser/CGC_Planet_Markup_Language_Parser.dict -- data/linux/processed-challenges/CGC_Planet_Markup_Language_Parser/bin/CGC_Planet_Markup_Language_Parser\n'
p145
I2
tp146
a(I8760
S'start_time     : 1500036120\nlast_update    : 1500044834\nfuzzer_pid     : 24840\ncycles_done    : 0\nexecs_done     : 5124127\nexecs_per_sec  : 611.48\npaths_total    : 510\npaths_favored  : 153\npaths_found    : 509\npaths_imported : 0\nmax_depth      : 6\ncur_path       : 314\npending_favs   : 92\npending_total  : 418\nvariable_paths : 0\nbitmap_cvg     : 2.21%\nunique_crashes : 8\nunique_hangs   : 0\nlast_path      : 1500044834\nlast_crash     : 1500044803\nlast_hang      : 0\nexec_timeout   : 20\nafl_banner     : fuzzer-master\nafl_version    : 1.85b\ncommand_line   : /home/skaramcheti/.virtualenvs/afl/bin/afl-unix/afl-fuzz -i /dev/shm/work/CGC_Planet_Markup_Language_Parser/input -o /dev/shm/work/CGC_Planet_Markup_Language_Parser/sync -m 4G -Q -M fuzzer-master -x /dev/shm/work/CGC_Planet_Markup_Language_Parser/CGC_Planet_Markup_Language_Parser.dict -- data/linux/processed-challenges/CGC_Planet_Markup_Language_Parser/bin/CGC_Planet_Markup_Language_Parser\n'
p147
I26
tp148
a(I8880
S'start_time     : 1500036120\nlast_update    : 1500044954\nfuzzer_pid     : 24840\ncycles_done    : 0\nexecs_done     : 5196101\nexecs_per_sec  : 586.95\npaths_total    : 526\npaths_favored  : 153\npaths_found    : 525\npaths_imported : 0\nmax_depth      : 6\ncur_path       : 314\npending_favs   : 92\npending_total  : 434\nvariable_paths : 0\nbitmap_cvg     : 2.23%\nunique_crashes : 12\nunique_hangs   : 0\nlast_path      : 1500044948\nlast_crash     : 1500044924\nlast_hang      : 0\nexec_timeout   : 20\nafl_banner     : fuzzer-master\nafl_version    : 1.85b\ncommand_line   : /home/skaramcheti/.virtualenvs/afl/bin/afl-unix/afl-fuzz -i /dev/shm/work/CGC_Planet_Markup_Language_Parser/input -o /dev/shm/work/CGC_Planet_Markup_Language_Parser/sync -m 4G -Q -M fuzzer-master -x /dev/shm/work/CGC_Planet_Markup_Language_Parser/CGC_Planet_Markup_Language_Parser.dict -- data/linux/processed-challenges/CGC_Planet_Markup_Language_Parser/bin/CGC_Planet_Markup_Language_Parser\n'
p149
I9
tp150
a(I9000
S'start_time     : 1500036120\nlast_update    : 1500045074\nfuzzer_pid     : 24840\ncycles_done    : 0\nexecs_done     : 5264218\nexecs_per_sec  : 753.46\npaths_total    : 543\npaths_favored  : 157\npaths_found    : 542\npaths_imported : 0\nmax_depth      : 6\ncur_path       : 316\npending_favs   : 96\npending_total  : 450\nvariable_paths : 0\nbitmap_cvg     : 2.26%\nunique_crashes : 12\nunique_hangs   : 0\nlast_path      : 1500045067\nlast_crash     : 1500044924\nlast_hang      : 0\nexec_timeout   : 20\nafl_banner     : fuzzer-master\nafl_version    : 1.85b\ncommand_line   : /home/skaramcheti/.virtualenvs/afl/bin/afl-unix/afl-fuzz -i /dev/shm/work/CGC_Planet_Markup_Language_Parser/input -o /dev/shm/work/CGC_Planet_Markup_Language_Parser/sync -m 4G -Q -M fuzzer-master -x /dev/shm/work/CGC_Planet_Markup_Language_Parser/CGC_Planet_Markup_Language_Parser.dict -- data/linux/processed-challenges/CGC_Planet_Markup_Language_Parser/bin/CGC_Planet_Markup_Language_Parser\n'
p151
I24
tp152
a(I9120
S'start_time     : 1500036120\nlast_update    : 1500045195\nfuzzer_pid     : 24840\ncycles_done    : 0\nexecs_done     : 5353772\nexecs_per_sec  : 750.91\npaths_total    : 558\npaths_favored  : 157\npaths_found    : 557\npaths_imported : 0\nmax_depth      : 6\ncur_path       : 316\npending_favs   : 96\npending_total  : 465\nvariable_paths : 0\nbitmap_cvg     : 2.31%\nunique_crashes : 14\nunique_hangs   : 0\nlast_path      : 1500045194\nlast_crash     : 1500045194\nlast_hang      : 0\nexec_timeout   : 20\nafl_banner     : fuzzer-master\nafl_version    : 1.85b\ncommand_line   : /home/skaramcheti/.virtualenvs/afl/bin/afl-unix/afl-fuzz -i /dev/shm/work/CGC_Planet_Markup_Language_Parser/input -o /dev/shm/work/CGC_Planet_Markup_Language_Parser/sync -m 4G -Q -M fuzzer-master -x /dev/shm/work/CGC_Planet_Markup_Language_Parser/CGC_Planet_Markup_Language_Parser.dict -- data/linux/processed-challenges/CGC_Planet_Markup_Language_Parser/bin/CGC_Planet_Markup_Language_Parser\n'
p153
I12
tp154
a(I9240
S'start_time     : 1500036120\nlast_update    : 1500045315\nfuzzer_pid     : 24840\ncycles_done    : 0\nexecs_done     : 5416682\nexecs_per_sec  : 268.84\npaths_total    : 572\npaths_favored  : 163\npaths_found    : 571\npaths_imported : 0\nmax_depth      : 6\ncur_path       : 318\npending_favs   : 105\npending_total  : 478\nvariable_paths : 0\nbitmap_cvg     : 2.32%\nunique_crashes : 14\nunique_hangs   : 0\nlast_path      : 1500045291\nlast_crash     : 1500045194\nlast_hang      : 0\nexec_timeout   : 20\nafl_banner     : fuzzer-master\nafl_version    : 1.85b\ncommand_line   : /home/skaramcheti/.virtualenvs/afl/bin/afl-unix/afl-fuzz -i /dev/shm/work/CGC_Planet_Markup_Language_Parser/input -o /dev/shm/work/CGC_Planet_Markup_Language_Parser/sync -m 4G -Q -M fuzzer-master -x /dev/shm/work/CGC_Planet_Markup_Language_Parser/CGC_Planet_Markup_Language_Parser.dict -- data/linux/processed-challenges/CGC_Planet_Markup_Language_Parser/bin/CGC_Planet_Markup_Language_Parser\n'
p155
I10
tp156
a(I9360
S'start_time     : 1500036120\nlast_update    : 1500045435\nfuzzer_pid     : 24840\ncycles_done    : 0\nexecs_done     : 5461078\nexecs_per_sec  : 457.02\npaths_total    : 579\npaths_favored  : 165\npaths_found    : 578\npaths_imported : 0\nmax_depth      : 6\ncur_path       : 332\npending_favs   : 107\npending_total  : 484\nvariable_paths : 0\nbitmap_cvg     : 2.33%\nunique_crashes : 14\nunique_hangs   : 0\nlast_path      : 1500045391\nlast_crash     : 1500045194\nlast_hang      : 0\nexec_timeout   : 20\nafl_banner     : fuzzer-master\nafl_version    : 1.85b\ncommand_line   : /home/skaramcheti/.virtualenvs/afl/bin/afl-unix/afl-fuzz -i /dev/shm/work/CGC_Planet_Markup_Language_Parser/input -o /dev/shm/work/CGC_Planet_Markup_Language_Parser/sync -m 4G -Q -M fuzzer-master -x /dev/shm/work/CGC_Planet_Markup_Language_Parser/CGC_Planet_Markup_Language_Parser.dict -- data/linux/processed-challenges/CGC_Planet_Markup_Language_Parser/bin/CGC_Planet_Markup_Language_Parser\n'
p157
I14
tp158
a(I9480
S'start_time     : 1500036120\nlast_update    : 1500045555\nfuzzer_pid     : 24840\ncycles_done    : 0\nexecs_done     : 5525755\nexecs_per_sec  : 675.84\npaths_total    : 596\npaths_favored  : 165\npaths_found    : 595\npaths_imported : 0\nmax_depth      : 6\ncur_path       : 332\npending_favs   : 107\npending_total  : 501\nvariable_paths : 0\nbitmap_cvg     : 2.35%\nunique_crashes : 14\nunique_hangs   : 0\nlast_path      : 1500045555\nlast_crash     : 1500045194\nlast_hang      : 0\nexec_timeout   : 20\nafl_banner     : fuzzer-master\nafl_version    : 1.85b\ncommand_line   : /home/skaramcheti/.virtualenvs/afl/bin/afl-unix/afl-fuzz -i /dev/shm/work/CGC_Planet_Markup_Language_Parser/input -o /dev/shm/work/CGC_Planet_Markup_Language_Parser/sync -m 4G -Q -M fuzzer-master -x /dev/shm/work/CGC_Planet_Markup_Language_Parser/CGC_Planet_Markup_Language_Parser.dict -- data/linux/processed-challenges/CGC_Planet_Markup_Language_Parser/bin/CGC_Planet_Markup_Language_Parser\n'
p159
I14
tp160
a(I9600
S'start_time     : 1500036120\nlast_update    : 1500045676\nfuzzer_pid     : 24840\ncycles_done    : 0\nexecs_done     : 5606397\nexecs_per_sec  : 664.93\npaths_total    : 608\npaths_favored  : 165\npaths_found    : 607\npaths_imported : 0\nmax_depth      : 6\ncur_path       : 332\npending_favs   : 107\npending_total  : 513\nvariable_paths : 0\nbitmap_cvg     : 2.35%\nunique_crashes : 14\nunique_hangs   : 0\nlast_path      : 1500045670\nlast_crash     : 1500045194\nlast_hang      : 0\nexec_timeout   : 20\nafl_banner     : fuzzer-master\nafl_version    : 1.85b\ncommand_line   : /home/skaramcheti/.virtualenvs/afl/bin/afl-unix/afl-fuzz -i /dev/shm/work/CGC_Planet_Markup_Language_Parser/input -o /dev/shm/work/CGC_Planet_Markup_Language_Parser/sync -m 4G -Q -M fuzzer-master -x /dev/shm/work/CGC_Planet_Markup_Language_Parser/CGC_Planet_Markup_Language_Parser.dict -- data/linux/processed-challenges/CGC_Planet_Markup_Language_Parser/bin/CGC_Planet_Markup_Language_Parser\n'
p161
I13
tp162
a(I9720
S'start_time     : 1500036120\nlast_update    : 1500045796\nfuzzer_pid     : 24840\ncycles_done    : 0\nexecs_done     : 5655466\nexecs_per_sec  : 227.36\npaths_total    : 620\npaths_favored  : 174\npaths_found    : 619\npaths_imported : 0\nmax_depth      : 6\ncur_path       : 353\npending_favs   : 116\npending_total  : 524\nvariable_paths : 0\nbitmap_cvg     : 2.37%\nunique_crashes : 14\nunique_hangs   : 0\nlast_path      : 1500045788\nlast_crash     : 1500045194\nlast_hang      : 0\nexec_timeout   : 20\nafl_banner     : fuzzer-master\nafl_version    : 1.85b\ncommand_line   : /home/skaramcheti/.virtualenvs/afl/bin/afl-unix/afl-fuzz -i /dev/shm/work/CGC_Planet_Markup_Language_Parser/input -o /dev/shm/work/CGC_Planet_Markup_Language_Parser/sync -m 4G -Q -M fuzzer-master -x /dev/shm/work/CGC_Planet_Markup_Language_Parser/CGC_Planet_Markup_Language_Parser.dict -- data/linux/processed-challenges/CGC_Planet_Markup_Language_Parser/bin/CGC_Planet_Markup_Language_Parser\n'
p163
I5
tp164
a(I9840
S'start_time     : 1500036120\nlast_update    : 1500045916\nfuzzer_pid     : 24840\ncycles_done    : 0\nexecs_done     : 5681330\nexecs_per_sec  : 181.79\npaths_total    : 620\npaths_favored  : 174\npaths_found    : 619\npaths_imported : 0\nmax_depth      : 6\ncur_path       : 353\npending_favs   : 116\npending_total  : 524\nvariable_paths : 0\nbitmap_cvg     : 2.37%\nunique_crashes : 14\nunique_hangs   : 0\nlast_path      : 1500045788\nlast_crash     : 1500045194\nlast_hang      : 0\nexec_timeout   : 20\nafl_banner     : fuzzer-master\nafl_version    : 1.85b\ncommand_line   : /home/skaramcheti/.virtualenvs/afl/bin/afl-unix/afl-fuzz -i /dev/shm/work/CGC_Planet_Markup_Language_Parser/input -o /dev/shm/work/CGC_Planet_Markup_Language_Parser/sync -m 4G -Q -M fuzzer-master -x /dev/shm/work/CGC_Planet_Markup_Language_Parser/CGC_Planet_Markup_Language_Parser.dict -- data/linux/processed-challenges/CGC_Planet_Markup_Language_Parser/bin/CGC_Planet_Markup_Language_Parser\n'
p165
I8
tp166
a(I9960
S'start_time     : 1500036120\nlast_update    : 1500046036\nfuzzer_pid     : 24840\ncycles_done    : 0\nexecs_done     : 5725124\nexecs_per_sec  : 452.02\npaths_total    : 634\npaths_favored  : 174\npaths_found    : 633\npaths_imported : 0\nmax_depth      : 6\ncur_path       : 353\npending_favs   : 116\npending_total  : 538\nvariable_paths : 0\nbitmap_cvg     : 2.38%\nunique_crashes : 14\nunique_hangs   : 0\nlast_path      : 1500046034\nlast_crash     : 1500045194\nlast_hang      : 0\nexec_timeout   : 20\nafl_banner     : fuzzer-master\nafl_version    : 1.85b\ncommand_line   : /home/skaramcheti/.virtualenvs/afl/bin/afl-unix/afl-fuzz -i /dev/shm/work/CGC_Planet_Markup_Language_Parser/input -o /dev/shm/work/CGC_Planet_Markup_Language_Parser/sync -m 4G -Q -M fuzzer-master -x /dev/shm/work/CGC_Planet_Markup_Language_Parser/CGC_Planet_Markup_Language_Parser.dict -- data/linux/processed-challenges/CGC_Planet_Markup_Language_Parser/bin/CGC_Planet_Markup_Language_Parser\n'
p167
I9
tp168
a(I10080
S'start_time     : 1500036120\nlast_update    : 1500046157\nfuzzer_pid     : 24840\ncycles_done    : 0\nexecs_done     : 5780039\nexecs_per_sec  : 457.03\npaths_total    : 640\npaths_favored  : 174\npaths_found    : 639\npaths_imported : 0\nmax_depth      : 6\ncur_path       : 353\npending_favs   : 116\npending_total  : 544\nvariable_paths : 0\nbitmap_cvg     : 2.38%\nunique_crashes : 14\nunique_hangs   : 0\nlast_path      : 1500046144\nlast_crash     : 1500045194\nlast_hang      : 0\nexec_timeout   : 20\nafl_banner     : fuzzer-master\nafl_version    : 1.85b\ncommand_line   : /home/skaramcheti/.virtualenvs/afl/bin/afl-unix/afl-fuzz -i /dev/shm/work/CGC_Planet_Markup_Language_Parser/input -o /dev/shm/work/CGC_Planet_Markup_Language_Parser/sync -m 4G -Q -M fuzzer-master -x /dev/shm/work/CGC_Planet_Markup_Language_Parser/CGC_Planet_Markup_Language_Parser.dict -- data/linux/processed-challenges/CGC_Planet_Markup_Language_Parser/bin/CGC_Planet_Markup_Language_Parser\n'
p169
I4
tp170
a(I10200
S'start_time     : 1500036120\nlast_update    : 1500046277\nfuzzer_pid     : 24840\ncycles_done    : 0\nexecs_done     : 5834630\nexecs_per_sec  : 423.52\npaths_total    : 642\npaths_favored  : 180\npaths_found    : 641\npaths_imported : 0\nmax_depth      : 6\ncur_path       : 360\npending_favs   : 122\npending_total  : 545\nvariable_paths : 0\nbitmap_cvg     : 2.38%\nunique_crashes : 14\nunique_hangs   : 0\nlast_path      : 1500046222\nlast_crash     : 1500045194\nlast_hang      : 0\nexec_timeout   : 20\nafl_banner     : fuzzer-master\nafl_version    : 1.85b\ncommand_line   : /home/skaramcheti/.virtualenvs/afl/bin/afl-unix/afl-fuzz -i /dev/shm/work/CGC_Planet_Markup_Language_Parser/input -o /dev/shm/work/CGC_Planet_Markup_Language_Parser/sync -m 4G -Q -M fuzzer-master -x /dev/shm/work/CGC_Planet_Markup_Language_Parser/CGC_Planet_Markup_Language_Parser.dict -- data/linux/processed-challenges/CGC_Planet_Markup_Language_Parser/bin/CGC_Planet_Markup_Language_Parser\n'
p171
I1
tp172
a(I10320
S'start_time     : 1500036120\nlast_update    : 1500046397\nfuzzer_pid     : 24840\ncycles_done    : 0\nexecs_done     : 5893402\nexecs_per_sec  : 587.81\npaths_total    : 644\npaths_favored  : 180\npaths_found    : 643\npaths_imported : 0\nmax_depth      : 6\ncur_path       : 360\npending_favs   : 122\npending_total  : 547\nvariable_paths : 0\nbitmap_cvg     : 2.38%\nunique_crashes : 14\nunique_hangs   : 0\nlast_path      : 1500046380\nlast_crash     : 1500045194\nlast_hang      : 0\nexec_timeout   : 20\nafl_banner     : fuzzer-master\nafl_version    : 1.85b\ncommand_line   : /home/skaramcheti/.virtualenvs/afl/bin/afl-unix/afl-fuzz -i /dev/shm/work/CGC_Planet_Markup_Language_Parser/input -o /dev/shm/work/CGC_Planet_Markup_Language_Parser/sync -m 4G -Q -M fuzzer-master -x /dev/shm/work/CGC_Planet_Markup_Language_Parser/CGC_Planet_Markup_Language_Parser.dict -- data/linux/processed-challenges/CGC_Planet_Markup_Language_Parser/bin/CGC_Planet_Markup_Language_Parser\n'
p173
I3
tp174
a(I10440
S'start_time     : 1500036120\nlast_update    : 1500046517\nfuzzer_pid     : 24840\ncycles_done    : 0\nexecs_done     : 5934732\nexecs_per_sec  : 274.19\npaths_total    : 645\npaths_favored  : 182\npaths_found    : 644\npaths_imported : 0\nmax_depth      : 6\ncur_path       : 369\npending_favs   : 123\npending_total  : 547\nvariable_paths : 0\nbitmap_cvg     : 2.38%\nunique_crashes : 14\nunique_hangs   : 0\nlast_path      : 1500046416\nlast_crash     : 1500045194\nlast_hang      : 0\nexec_timeout   : 20\nafl_banner     : fuzzer-master\nafl_version    : 1.85b\ncommand_line   : /home/skaramcheti/.virtualenvs/afl/bin/afl-unix/afl-fuzz -i /dev/shm/work/CGC_Planet_Markup_Language_Parser/input -o /dev/shm/work/CGC_Planet_Markup_Language_Parser/sync -m 4G -Q -M fuzzer-master -x /dev/shm/work/CGC_Planet_Markup_Language_Parser/CGC_Planet_Markup_Language_Parser.dict -- data/linux/processed-challenges/CGC_Planet_Markup_Language_Parser/bin/CGC_Planet_Markup_Language_Parser\n'
p175
I0
tp176
a(I10560
S'start_time     : 1500036120\nlast_update    : 1500046637\nfuzzer_pid     : 24840\ncycles_done    : 0\nexecs_done     : 5965851\nexecs_per_sec  : 239.34\npaths_total    : 645\npaths_favored  : 182\npaths_found    : 644\npaths_imported : 0\nmax_depth      : 6\ncur_path       : 369\npending_favs   : 123\npending_total  : 547\nvariable_paths : 0\nbitmap_cvg     : 2.38%\nunique_crashes : 14\nunique_hangs   : 0\nlast_path      : 1500046416\nlast_crash     : 1500045194\nlast_hang      : 0\nexec_timeout   : 20\nafl_banner     : fuzzer-master\nafl_version    : 1.85b\ncommand_line   : /home/skaramcheti/.virtualenvs/afl/bin/afl-unix/afl-fuzz -i /dev/shm/work/CGC_Planet_Markup_Language_Parser/input -o /dev/shm/work/CGC_Planet_Markup_Language_Parser/sync -m 4G -Q -M fuzzer-master -x /dev/shm/work/CGC_Planet_Markup_Language_Parser/CGC_Planet_Markup_Language_Parser.dict -- data/linux/processed-challenges/CGC_Planet_Markup_Language_Parser/bin/CGC_Planet_Markup_Language_Parser\n'
p177
I1
tp178
a(I10680
S'start_time     : 1500036120\nlast_update    : 1500046757\nfuzzer_pid     : 24840\ncycles_done    : 0\nexecs_done     : 6019473\nexecs_per_sec  : 462.47\npaths_total    : 647\npaths_favored  : 183\npaths_found    : 646\npaths_imported : 0\nmax_depth      : 6\ncur_path       : 370\npending_favs   : 123\npending_total  : 548\nvariable_paths : 0\nbitmap_cvg     : 2.39%\nunique_crashes : 20\nunique_hangs   : 0\nlast_path      : 1500046710\nlast_crash     : 1500046710\nlast_hang      : 0\nexec_timeout   : 20\nafl_banner     : fuzzer-master\nafl_version    : 1.85b\ncommand_line   : /home/skaramcheti/.virtualenvs/afl/bin/afl-unix/afl-fuzz -i /dev/shm/work/CGC_Planet_Markup_Language_Parser/input -o /dev/shm/work/CGC_Planet_Markup_Language_Parser/sync -m 4G -Q -M fuzzer-master -x /dev/shm/work/CGC_Planet_Markup_Language_Parser/CGC_Planet_Markup_Language_Parser.dict -- data/linux/processed-challenges/CGC_Planet_Markup_Language_Parser/bin/CGC_Planet_Markup_Language_Parser\n'
p179
I2
tp180
a.