(lp0
(I0
S'start_time     : 1500133483\nlast_update    : 1500133483\nfuzzer_pid     : 9632\ncycles_done    : 0\nexecs_done     : 10\nexecs_per_sec  : 116.28\npaths_total    : 1\npaths_favored  : 1\npaths_found    : 0\npaths_imported : 0\nmax_depth      : 1\ncur_path       : 0\npending_favs   : 1\npending_total  : 1\nvariable_paths : 0\nbitmap_cvg     : 0.34%\nunique_crashes : 0\nunique_hangs   : 0\nlast_path      : 0\nlast_crash     : 0\nlast_hang      : 0\nexec_timeout   : 20\nafl_banner     : fuzzer-master\nafl_version    : 1.85b\ncommand_line   : /home/skaramcheti/.virtualenvs/afl/bin/afl-unix/afl-fuzz -i /dev/shm/work/CML/input -o /dev/shm/work/CML/sync -m 4G -Q -M fuzzer-master -x /dev/shm/work/CML/CML.dict -- data/linux/processed-challenges/CML/bin/CML\n'
p1
I22
tp2
a(I120
S'start_time     : 1500133483\nlast_update    : 1500133603\nfuzzer_pid     : 9632\ncycles_done    : 0\nexecs_done     : 51773\nexecs_per_sec  : 418.69\npaths_total    : 86\npaths_favored  : 1\npaths_found    : 85\npaths_imported : 0\nmax_depth      : 2\ncur_path       : 0\npending_favs   : 1\npending_total  : 86\nvariable_paths : 0\nbitmap_cvg     : 0.77%\nunique_crashes : 0\nunique_hangs   : 0\nlast_path      : 1500133585\nlast_crash     : 0\nlast_hang      : 0\nexec_timeout   : 20\nafl_banner     : fuzzer-master\nafl_version    : 1.85b\ncommand_line   : /home/skaramcheti/.virtualenvs/afl/bin/afl-unix/afl-fuzz -i /dev/shm/work/CML/input -o /dev/shm/work/CML/sync -m 4G -Q -M fuzzer-master -x /dev/shm/work/CML/CML.dict -- data/linux/processed-challenges/CML/bin/CML\n'
p3
I64
tp4
a(I240
S'start_time     : 1500133483\nlast_update    : 1500133724\nfuzzer_pid     : 9632\ncycles_done    : 0\nexecs_done     : 103497\nexecs_per_sec  : 458.50\npaths_total    : 97\npaths_favored  : 1\npaths_found    : 96\npaths_imported : 0\nmax_depth      : 2\ncur_path       : 0\npending_favs   : 1\npending_total  : 97\nvariable_paths : 0\nbitmap_cvg     : 0.78%\nunique_crashes : 0\nunique_hangs   : 0\nlast_path      : 1500133722\nlast_crash     : 0\nlast_hang      : 0\nexec_timeout   : 20\nafl_banner     : fuzzer-master\nafl_version    : 1.85b\ncommand_line   : /home/skaramcheti/.virtualenvs/afl/bin/afl-unix/afl-fuzz -i /dev/shm/work/CML/input -o /dev/shm/work/CML/sync -m 4G -Q -M fuzzer-master -x /dev/shm/work/CML/CML.dict -- data/linux/processed-challenges/CML/bin/CML\n'
p5
I11
tp6
a(I360
S'start_time     : 1500133483\nlast_update    : 1500133844\nfuzzer_pid     : 9632\ncycles_done    : 0\nexecs_done     : 154231\nexecs_per_sec  : 417.26\npaths_total    : 103\npaths_favored  : 1\npaths_found    : 102\npaths_imported : 0\nmax_depth      : 2\ncur_path       : 0\npending_favs   : 1\npending_total  : 103\nvariable_paths : 0\nbitmap_cvg     : 0.79%\nunique_crashes : 0\nunique_hangs   : 0\nlast_path      : 1500133830\nlast_crash     : 0\nlast_hang      : 0\nexec_timeout   : 20\nafl_banner     : fuzzer-master\nafl_version    : 1.85b\ncommand_line   : /home/skaramcheti/.virtualenvs/afl/bin/afl-unix/afl-fuzz -i /dev/shm/work/CML/input -o /dev/shm/work/CML/sync -m 4G -Q -M fuzzer-master -x /dev/shm/work/CML/CML.dict -- data/linux/processed-challenges/CML/bin/CML\n'
p7
I6
tp8
a(I480
S'start_time     : 1500133483\nlast_update    : 1500133964\nfuzzer_pid     : 9632\ncycles_done    : 0\nexecs_done     : 205053\nexecs_per_sec  : 423.68\npaths_total    : 107\npaths_favored  : 45\npaths_found    : 106\npaths_imported : 0\nmax_depth      : 3\ncur_path       : 2\npending_favs   : 45\npending_total  : 106\nvariable_paths : 0\nbitmap_cvg     : 0.79%\nunique_crashes : 0\nunique_hangs   : 0\nlast_path      : 1500133897\nlast_crash     : 0\nlast_hang      : 0\nexec_timeout   : 20\nafl_banner     : fuzzer-master\nafl_version    : 1.85b\ncommand_line   : /home/skaramcheti/.virtualenvs/afl/bin/afl-unix/afl-fuzz -i /dev/shm/work/CML/input -o /dev/shm/work/CML/sync -m 4G -Q -M fuzzer-master -x /dev/shm/work/CML/CML.dict -- data/linux/processed-challenges/CML/bin/CML\n'
p9
I4
tp10
a(I600
S'start_time     : 1500133483\nlast_update    : 1500134084\nfuzzer_pid     : 9632\ncycles_done    : 0\nexecs_done     : 255617\nexecs_per_sec  : 429.12\npaths_total    : 109\npaths_favored  : 45\npaths_found    : 108\npaths_imported : 0\nmax_depth      : 3\ncur_path       : 2\npending_favs   : 45\npending_total  : 108\nvariable_paths : 0\nbitmap_cvg     : 0.80%\nunique_crashes : 0\nunique_hangs   : 0\nlast_path      : 1500134081\nlast_crash     : 0\nlast_hang      : 0\nexec_timeout   : 20\nafl_banner     : fuzzer-master\nafl_version    : 1.85b\ncommand_line   : /home/skaramcheti/.virtualenvs/afl/bin/afl-unix/afl-fuzz -i /dev/shm/work/CML/input -o /dev/shm/work/CML/sync -m 4G -Q -M fuzzer-master -x /dev/shm/work/CML/CML.dict -- data/linux/processed-challenges/CML/bin/CML\n'
p11
I2
tp12
a(I720
S'start_time     : 1500133483\nlast_update    : 1500134204\nfuzzer_pid     : 9632\ncycles_done    : 0\nexecs_done     : 305981\nexecs_per_sec  : 423.35\npaths_total    : 111\npaths_favored  : 45\npaths_found    : 110\npaths_imported : 0\nmax_depth      : 3\ncur_path       : 2\npending_favs   : 45\npending_total  : 110\nvariable_paths : 0\nbitmap_cvg     : 0.80%\nunique_crashes : 0\nunique_hangs   : 0\nlast_path      : 1500134196\nlast_crash     : 0\nlast_hang      : 0\nexec_timeout   : 20\nafl_banner     : fuzzer-master\nafl_version    : 1.85b\ncommand_line   : /home/skaramcheti/.virtualenvs/afl/bin/afl-unix/afl-fuzz -i /dev/shm/work/CML/input -o /dev/shm/work/CML/sync -m 4G -Q -M fuzzer-master -x /dev/shm/work/CML/CML.dict -- data/linux/processed-challenges/CML/bin/CML\n'
p13
I2
tp14
a(I840
S'start_time     : 1500133483\nlast_update    : 1500134325\nfuzzer_pid     : 9632\ncycles_done    : 0\nexecs_done     : 357052\nexecs_per_sec  : 430.51\npaths_total    : 115\npaths_favored  : 46\npaths_found    : 114\npaths_imported : 0\nmax_depth      : 3\ncur_path       : 10\npending_favs   : 41\npending_total  : 109\nvariable_paths : 0\nbitmap_cvg     : 0.80%\nunique_crashes : 0\nunique_hangs   : 0\nlast_path      : 1500134303\nlast_crash     : 0\nlast_hang      : 0\nexec_timeout   : 20\nafl_banner     : fuzzer-master\nafl_version    : 1.85b\ncommand_line   : /home/skaramcheti/.virtualenvs/afl/bin/afl-unix/afl-fuzz -i /dev/shm/work/CML/input -o /dev/shm/work/CML/sync -m 4G -Q -M fuzzer-master -x /dev/shm/work/CML/CML.dict -- data/linux/processed-challenges/CML/bin/CML\n'
p15
I4
tp16
a(I960
S'start_time     : 1500133483\nlast_update    : 1500134445\nfuzzer_pid     : 9632\ncycles_done    : 0\nexecs_done     : 406751\nexecs_per_sec  : 407.10\npaths_total    : 127\npaths_favored  : 46\npaths_found    : 126\npaths_imported : 0\nmax_depth      : 3\ncur_path       : 23\npending_favs   : 38\npending_total  : 118\nvariable_paths : 0\nbitmap_cvg     : 0.81%\nunique_crashes : 0\nunique_hangs   : 0\nlast_path      : 1500134443\nlast_crash     : 0\nlast_hang      : 0\nexec_timeout   : 20\nafl_banner     : fuzzer-master\nafl_version    : 1.85b\ncommand_line   : /home/skaramcheti/.virtualenvs/afl/bin/afl-unix/afl-fuzz -i /dev/shm/work/CML/input -o /dev/shm/work/CML/sync -m 4G -Q -M fuzzer-master -x /dev/shm/work/CML/CML.dict -- data/linux/processed-challenges/CML/bin/CML\n'
p17
I12
tp18
a(I1080
S'start_time     : 1500133483\nlast_update    : 1500134565\nfuzzer_pid     : 9632\ncycles_done    : 0\nexecs_done     : 455847\nexecs_per_sec  : 404.79\npaths_total    : 135\npaths_favored  : 46\npaths_found    : 134\npaths_imported : 0\nmax_depth      : 3\ncur_path       : 23\npending_favs   : 38\npending_total  : 126\nvariable_paths : 0\nbitmap_cvg     : 0.81%\nunique_crashes : 0\nunique_hangs   : 0\nlast_path      : 1500134559\nlast_crash     : 0\nlast_hang      : 0\nexec_timeout   : 20\nafl_banner     : fuzzer-master\nafl_version    : 1.85b\ncommand_line   : /home/skaramcheti/.virtualenvs/afl/bin/afl-unix/afl-fuzz -i /dev/shm/work/CML/input -o /dev/shm/work/CML/sync -m 4G -Q -M fuzzer-master -x /dev/shm/work/CML/CML.dict -- data/linux/processed-challenges/CML/bin/CML\n'
p19
I8
tp20
a(I1200
S'start_time     : 1500133483\nlast_update    : 1500134685\nfuzzer_pid     : 9632\ncycles_done    : 0\nexecs_done     : 505039\nexecs_per_sec  : 405.15\npaths_total    : 139\npaths_favored  : 46\npaths_found    : 138\npaths_imported : 0\nmax_depth      : 3\ncur_path       : 23\npending_favs   : 38\npending_total  : 130\nvariable_paths : 0\nbitmap_cvg     : 0.83%\nunique_crashes : 0\nunique_hangs   : 0\nlast_path      : 1500134651\nlast_crash     : 0\nlast_hang      : 0\nexec_timeout   : 20\nafl_banner     : fuzzer-master\nafl_version    : 1.85b\ncommand_line   : /home/skaramcheti/.virtualenvs/afl/bin/afl-unix/afl-fuzz -i /dev/shm/work/CML/input -o /dev/shm/work/CML/sync -m 4G -Q -M fuzzer-master -x /dev/shm/work/CML/CML.dict -- data/linux/processed-challenges/CML/bin/CML\n'
p21
I4
tp22
a(I1320
S'start_time     : 1500133483\nlast_update    : 1500134805\nfuzzer_pid     : 9632\ncycles_done    : 0\nexecs_done     : 555659\nexecs_per_sec  : 418.84\npaths_total    : 141\npaths_favored  : 45\npaths_found    : 140\npaths_imported : 0\nmax_depth      : 3\ncur_path       : 32\npending_favs   : 34\npending_total  : 129\nvariable_paths : 0\nbitmap_cvg     : 0.83%\nunique_crashes : 0\nunique_hangs   : 0\nlast_path      : 1500134757\nlast_crash     : 0\nlast_hang      : 0\nexec_timeout   : 20\nafl_banner     : fuzzer-master\nafl_version    : 1.85b\ncommand_line   : /home/skaramcheti/.virtualenvs/afl/bin/afl-unix/afl-fuzz -i /dev/shm/work/CML/input -o /dev/shm/work/CML/sync -m 4G -Q -M fuzzer-master -x /dev/shm/work/CML/CML.dict -- data/linux/processed-challenges/CML/bin/CML\n'
p23
I2
tp24
a(I1440
S'start_time     : 1500133483\nlast_update    : 1500134926\nfuzzer_pid     : 9632\ncycles_done    : 0\nexecs_done     : 607213\nexecs_per_sec  : 424.87\npaths_total    : 141\npaths_favored  : 45\npaths_found    : 140\npaths_imported : 0\nmax_depth      : 3\ncur_path       : 52\npending_favs   : 28\npending_total  : 121\nvariable_paths : 0\nbitmap_cvg     : 0.83%\nunique_crashes : 0\nunique_hangs   : 0\nlast_path      : 1500134757\nlast_crash     : 0\nlast_hang      : 0\nexec_timeout   : 20\nafl_banner     : fuzzer-master\nafl_version    : 1.85b\ncommand_line   : /home/skaramcheti/.virtualenvs/afl/bin/afl-unix/afl-fuzz -i /dev/shm/work/CML/input -o /dev/shm/work/CML/sync -m 4G -Q -M fuzzer-master -x /dev/shm/work/CML/CML.dict -- data/linux/processed-challenges/CML/bin/CML\n'
p25
I0
tp26
a(I1560
S'start_time     : 1500133483\nlast_update    : 1500135046\nfuzzer_pid     : 9632\ncycles_done    : 0\nexecs_done     : 656143\nexecs_per_sec  : 426.53\npaths_total    : 141\npaths_favored  : 45\npaths_found    : 140\npaths_imported : 0\nmax_depth      : 3\ncur_path       : 61\npending_favs   : 23\npending_total  : 116\nvariable_paths : 0\nbitmap_cvg     : 0.83%\nunique_crashes : 0\nunique_hangs   : 0\nlast_path      : 1500134757\nlast_crash     : 0\nlast_hang      : 0\nexec_timeout   : 20\nafl_banner     : fuzzer-master\nafl_version    : 1.85b\ncommand_line   : /home/skaramcheti/.virtualenvs/afl/bin/afl-unix/afl-fuzz -i /dev/shm/work/CML/input -o /dev/shm/work/CML/sync -m 4G -Q -M fuzzer-master -x /dev/shm/work/CML/CML.dict -- data/linux/processed-challenges/CML/bin/CML\n'
p27
I0
tp28
a(I1680
S'start_time     : 1500133483\nlast_update    : 1500135166\nfuzzer_pid     : 9632\ncycles_done    : 0\nexecs_done     : 707092\nexecs_per_sec  : 424.64\npaths_total    : 146\npaths_favored  : 45\npaths_found    : 145\npaths_imported : 0\nmax_depth      : 3\ncur_path       : 69\npending_favs   : 21\npending_total  : 119\nvariable_paths : 0\nbitmap_cvg     : 0.84%\nunique_crashes : 0\nunique_hangs   : 0\nlast_path      : 1500135138\nlast_crash     : 0\nlast_hang      : 0\nexec_timeout   : 20\nafl_banner     : fuzzer-master\nafl_version    : 1.85b\ncommand_line   : /home/skaramcheti/.virtualenvs/afl/bin/afl-unix/afl-fuzz -i /dev/shm/work/CML/input -o /dev/shm/work/CML/sync -m 4G -Q -M fuzzer-master -x /dev/shm/work/CML/CML.dict -- data/linux/processed-challenges/CML/bin/CML\n'
p29
I5
tp30
a(I1800
S'start_time     : 1500133483\nlast_update    : 1500135226\nfuzzer_pid     : 9632\ncycles_done    : 0\nexecs_done     : 732428\nexecs_per_sec  : 422.74\npaths_total    : 146\npaths_favored  : 45\npaths_found    : 145\npaths_imported : 0\nmax_depth      : 3\ncur_path       : 69\npending_favs   : 21\npending_total  : 119\nvariable_paths : 0\nbitmap_cvg     : 0.84%\nunique_crashes : 0\nunique_hangs   : 0\nlast_path      : 1500135138\nlast_crash     : 0\nlast_hang      : 0\nexec_timeout   : 20\nafl_banner     : fuzzer-master\nafl_version    : 1.85b\ncommand_line   : /home/skaramcheti/.virtualenvs/afl/bin/afl-unix/afl-fuzz -i /dev/shm/work/CML/input -o /dev/shm/work/CML/sync -m 4G -Q -M fuzzer-master -x /dev/shm/work/CML/CML.dict -- data/linux/processed-challenges/CML/bin/CML\n'
p31
I0
tp32
a(I1920
S'start_time     : 1500133483\nlast_update    : 1500135347\nfuzzer_pid     : 9632\ncycles_done    : 0\nexecs_done     : 783024\nexecs_per_sec  : 426.82\npaths_total    : 147\npaths_favored  : 46\npaths_found    : 146\npaths_imported : 0\nmax_depth      : 3\ncur_path       : 75\npending_favs   : 16\npending_total  : 114\nvariable_paths : 0\nbitmap_cvg     : 0.84%\nunique_crashes : 0\nunique_hangs   : 0\nlast_path      : 1500135323\nlast_crash     : 0\nlast_hang      : 0\nexec_timeout   : 20\nafl_banner     : fuzzer-master\nafl_version    : 1.85b\ncommand_line   : /home/skaramcheti/.virtualenvs/afl/bin/afl-unix/afl-fuzz -i /dev/shm/work/CML/input -o /dev/shm/work/CML/sync -m 4G -Q -M fuzzer-master -x /dev/shm/work/CML/CML.dict -- data/linux/processed-challenges/CML/bin/CML\n'
p33
I2
tp34
a(I2040
S'start_time     : 1500133483\nlast_update    : 1500135467\nfuzzer_pid     : 9632\ncycles_done    : 0\nexecs_done     : 832363\nexecs_per_sec  : 410.04\npaths_total    : 149\npaths_favored  : 45\npaths_found    : 148\npaths_imported : 0\nmax_depth      : 3\ncur_path       : 92\npending_favs   : 12\npending_total  : 112\nvariable_paths : 0\nbitmap_cvg     : 0.84%\nunique_crashes : 0\nunique_hangs   : 0\nlast_path      : 1500135431\nlast_crash     : 0\nlast_hang      : 0\nexec_timeout   : 20\nafl_banner     : fuzzer-master\nafl_version    : 1.85b\ncommand_line   : /home/skaramcheti/.virtualenvs/afl/bin/afl-unix/afl-fuzz -i /dev/shm/work/CML/input -o /dev/shm/work/CML/sync -m 4G -Q -M fuzzer-master -x /dev/shm/work/CML/CML.dict -- data/linux/processed-challenges/CML/bin/CML\n'
p35
I1
tp36
a(I2160
S'start_time     : 1500133483\nlast_update    : 1500135587\nfuzzer_pid     : 9632\ncycles_done    : 0\nexecs_done     : 881972\nexecs_per_sec  : 408.05\npaths_total    : 157\npaths_favored  : 45\npaths_found    : 156\npaths_imported : 0\nmax_depth      : 3\ncur_path       : 92\npending_favs   : 12\npending_total  : 120\nvariable_paths : 0\nbitmap_cvg     : 0.85%\nunique_crashes : 0\nunique_hangs   : 0\nlast_path      : 1500135552\nlast_crash     : 0\nlast_hang      : 0\nexec_timeout   : 20\nafl_banner     : fuzzer-master\nafl_version    : 1.85b\ncommand_line   : /home/skaramcheti/.virtualenvs/afl/bin/afl-unix/afl-fuzz -i /dev/shm/work/CML/input -o /dev/shm/work/CML/sync -m 4G -Q -M fuzzer-master -x /dev/shm/work/CML/CML.dict -- data/linux/processed-challenges/CML/bin/CML\n'
p37
I9
tp38
a(I2280
S'start_time     : 1500133483\nlast_update    : 1500135707\nfuzzer_pid     : 9632\ncycles_done    : 0\nexecs_done     : 931772\nexecs_per_sec  : 404.04\npaths_total    : 161\npaths_favored  : 45\npaths_found    : 160\npaths_imported : 0\nmax_depth      : 3\ncur_path       : 92\npending_favs   : 12\npending_total  : 124\nvariable_paths : 0\nbitmap_cvg     : 0.85%\nunique_crashes : 0\nunique_hangs   : 0\nlast_path      : 1500135698\nlast_crash     : 0\nlast_hang      : 0\nexec_timeout   : 20\nafl_banner     : fuzzer-master\nafl_version    : 1.85b\ncommand_line   : /home/skaramcheti/.virtualenvs/afl/bin/afl-unix/afl-fuzz -i /dev/shm/work/CML/input -o /dev/shm/work/CML/sync -m 4G -Q -M fuzzer-master -x /dev/shm/work/CML/CML.dict -- data/linux/processed-challenges/CML/bin/CML\n'
p39
I5
tp40
a(I2400
S'start_time     : 1500133483\nlast_update    : 1500135827\nfuzzer_pid     : 9632\ncycles_done    : 0\nexecs_done     : 980884\nexecs_per_sec  : 424.62\npaths_total    : 165\npaths_favored  : 45\npaths_found    : 164\npaths_imported : 0\nmax_depth      : 3\ncur_path       : 92\npending_favs   : 12\npending_total  : 128\nvariable_paths : 0\nbitmap_cvg     : 0.85%\nunique_crashes : 0\nunique_hangs   : 0\nlast_path      : 1500135789\nlast_crash     : 0\nlast_hang      : 0\nexec_timeout   : 20\nafl_banner     : fuzzer-master\nafl_version    : 1.85b\ncommand_line   : /home/skaramcheti/.virtualenvs/afl/bin/afl-unix/afl-fuzz -i /dev/shm/work/CML/input -o /dev/shm/work/CML/sync -m 4G -Q -M fuzzer-master -x /dev/shm/work/CML/CML.dict -- data/linux/processed-challenges/CML/bin/CML\n'
p41
I2
tp42
a(I2520
S'start_time     : 1500133483\nlast_update    : 1500135947\nfuzzer_pid     : 9632\ncycles_done    : 0\nexecs_done     : 1030055\nexecs_per_sec  : 413.46\npaths_total    : 166\npaths_favored  : 47\npaths_found    : 165\npaths_imported : 0\nmax_depth      : 3\ncur_path       : 96\npending_favs   : 13\npending_total  : 128\nvariable_paths : 0\nbitmap_cvg     : 0.85%\nunique_crashes : 0\nunique_hangs   : 0\nlast_path      : 1500135935\nlast_crash     : 0\nlast_hang      : 0\nexec_timeout   : 20\nafl_banner     : fuzzer-master\nafl_version    : 1.85b\ncommand_line   : /home/skaramcheti/.virtualenvs/afl/bin/afl-unix/afl-fuzz -i /dev/shm/work/CML/input -o /dev/shm/work/CML/sync -m 4G -Q -M fuzzer-master -x /dev/shm/work/CML/CML.dict -- data/linux/processed-challenges/CML/bin/CML\n'
p43
I2
tp44
a(I2640
S'start_time     : 1500133483\nlast_update    : 1500136068\nfuzzer_pid     : 9632\ncycles_done    : 0\nexecs_done     : 1079112\nexecs_per_sec  : 411.58\npaths_total    : 167\npaths_favored  : 47\npaths_found    : 166\npaths_imported : 0\nmax_depth      : 3\ncur_path       : 107\npending_favs   : 9\npending_total  : 125\nvariable_paths : 0\nbitmap_cvg     : 0.85%\nunique_crashes : 0\nunique_hangs   : 0\nlast_path      : 1500135950\nlast_crash     : 0\nlast_hang      : 0\nexec_timeout   : 20\nafl_banner     : fuzzer-master\nafl_version    : 1.85b\ncommand_line   : /home/skaramcheti/.virtualenvs/afl/bin/afl-unix/afl-fuzz -i /dev/shm/work/CML/input -o /dev/shm/work/CML/sync -m 4G -Q -M fuzzer-master -x /dev/shm/work/CML/CML.dict -- data/linux/processed-challenges/CML/bin/CML\n'
p45
I11
tp46
a(I2760
S'start_time     : 1500133483\nlast_update    : 1500136188\nfuzzer_pid     : 9632\ncycles_done    : 0\nexecs_done     : 1127988\nexecs_per_sec  : 402.70\npaths_total    : 189\npaths_favored  : 47\npaths_found    : 188\npaths_imported : 0\nmax_depth      : 4\ncur_path       : 121\npending_favs   : 8\npending_total  : 146\nvariable_paths : 0\nbitmap_cvg     : 0.96%\nunique_crashes : 2\nunique_hangs   : 0\nlast_path      : 1500136186\nlast_crash     : 1500136188\nlast_hang      : 0\nexec_timeout   : 20\nafl_banner     : fuzzer-master\nafl_version    : 1.85b\ncommand_line   : /home/skaramcheti/.virtualenvs/afl/bin/afl-unix/afl-fuzz -i /dev/shm/work/CML/input -o /dev/shm/work/CML/sync -m 4G -Q -M fuzzer-master -x /dev/shm/work/CML/CML.dict -- data/linux/processed-challenges/CML/bin/CML\n'
p47
I20
tp48
a(I2880
S'start_time     : 1500133483\nlast_update    : 1500136308\nfuzzer_pid     : 9632\ncycles_done    : 0\nexecs_done     : 1176224\nexecs_per_sec  : 411.52\npaths_total    : 203\npaths_favored  : 47\npaths_found    : 202\npaths_imported : 0\nmax_depth      : 4\ncur_path       : 121\npending_favs   : 8\npending_total  : 160\nvariable_paths : 0\nbitmap_cvg     : 0.99%\nunique_crashes : 3\nunique_hangs   : 0\nlast_path      : 1500136305\nlast_crash     : 1500136254\nlast_hang      : 0\nexec_timeout   : 20\nafl_banner     : fuzzer-master\nafl_version    : 1.85b\ncommand_line   : /home/skaramcheti/.virtualenvs/afl/bin/afl-unix/afl-fuzz -i /dev/shm/work/CML/input -o /dev/shm/work/CML/sync -m 4G -Q -M fuzzer-master -x /dev/shm/work/CML/CML.dict -- data/linux/processed-challenges/CML/bin/CML\n'
p49
I9
tp50
a(I3000
S'start_time     : 1500133483\nlast_update    : 1500136428\nfuzzer_pid     : 9632\ncycles_done    : 0\nexecs_done     : 1224628\nexecs_per_sec  : 398.72\npaths_total    : 209\npaths_favored  : 47\npaths_found    : 208\npaths_imported : 0\nmax_depth      : 4\ncur_path       : 121\npending_favs   : 8\npending_total  : 166\nvariable_paths : 0\nbitmap_cvg     : 1.04%\nunique_crashes : 4\nunique_hangs   : 0\nlast_path      : 1500136427\nlast_crash     : 1500136359\nlast_hang      : 0\nexec_timeout   : 20\nafl_banner     : fuzzer-master\nafl_version    : 1.85b\ncommand_line   : /home/skaramcheti/.virtualenvs/afl/bin/afl-unix/afl-fuzz -i /dev/shm/work/CML/input -o /dev/shm/work/CML/sync -m 4G -Q -M fuzzer-master -x /dev/shm/work/CML/CML.dict -- data/linux/processed-challenges/CML/bin/CML\n'
p51
I3
tp52
a(I3120
S'start_time     : 1500133483\nlast_update    : 1500136549\nfuzzer_pid     : 9632\ncycles_done    : 0\nexecs_done     : 1272848\nexecs_per_sec  : 400.69\npaths_total    : 212\npaths_favored  : 63\npaths_found    : 211\npaths_imported : 0\nmax_depth      : 4\ncur_path       : 130\npending_favs   : 30\npending_total  : 168\nvariable_paths : 0\nbitmap_cvg     : 1.05%\nunique_crashes : 5\nunique_hangs   : 0\nlast_path      : 1500136534\nlast_crash     : 1500136531\nlast_hang      : 0\nexec_timeout   : 20\nafl_banner     : fuzzer-master\nafl_version    : 1.85b\ncommand_line   : /home/skaramcheti/.virtualenvs/afl/bin/afl-unix/afl-fuzz -i /dev/shm/work/CML/input -o /dev/shm/work/CML/sync -m 4G -Q -M fuzzer-master -x /dev/shm/work/CML/CML.dict -- data/linux/processed-challenges/CML/bin/CML\n'
p53
I3
tp54
a(I3240
S'start_time     : 1500133483\nlast_update    : 1500136669\nfuzzer_pid     : 9632\ncycles_done    : 0\nexecs_done     : 1322288\nexecs_per_sec  : 405.34\npaths_total    : 214\npaths_favored  : 65\npaths_found    : 213\npaths_imported : 0\nmax_depth      : 4\ncur_path       : 145\npending_favs   : 30\npending_total  : 168\nvariable_paths : 0\nbitmap_cvg     : 1.05%\nunique_crashes : 6\nunique_hangs   : 0\nlast_path      : 1500136662\nlast_crash     : 1500136648\nlast_hang      : 0\nexec_timeout   : 20\nafl_banner     : fuzzer-master\nafl_version    : 1.85b\ncommand_line   : /home/skaramcheti/.virtualenvs/afl/bin/afl-unix/afl-fuzz -i /dev/shm/work/CML/input -o /dev/shm/work/CML/sync -m 4G -Q -M fuzzer-master -x /dev/shm/work/CML/CML.dict -- data/linux/processed-challenges/CML/bin/CML\n'
p55
I1
tp56
a(I3360
S'start_time     : 1500133483\nlast_update    : 1500136789\nfuzzer_pid     : 9632\ncycles_done    : 0\nexecs_done     : 1367985\nexecs_per_sec  : 370.60\npaths_total    : 217\npaths_favored  : 65\npaths_found    : 216\npaths_imported : 0\nmax_depth      : 4\ncur_path       : 153\npending_favs   : 29\npending_total  : 170\nvariable_paths : 0\nbitmap_cvg     : 1.05%\nunique_crashes : 6\nunique_hangs   : 0\nlast_path      : 1500136782\nlast_crash     : 1500136648\nlast_hang      : 0\nexec_timeout   : 20\nafl_banner     : fuzzer-master\nafl_version    : 1.85b\ncommand_line   : /home/skaramcheti/.virtualenvs/afl/bin/afl-unix/afl-fuzz -i /dev/shm/work/CML/input -o /dev/shm/work/CML/sync -m 4G -Q -M fuzzer-master -x /dev/shm/work/CML/CML.dict -- data/linux/processed-challenges/CML/bin/CML\n'
p57
I5
tp58
a(I3480
S'start_time     : 1500133483\nlast_update    : 1500136909\nfuzzer_pid     : 9632\ncycles_done    : 0\nexecs_done     : 1414414\nexecs_per_sec  : 408.15\npaths_total    : 220\npaths_favored  : 65\npaths_found    : 219\npaths_imported : 0\nmax_depth      : 4\ncur_path       : 153\npending_favs   : 29\npending_total  : 173\nvariable_paths : 0\nbitmap_cvg     : 1.06%\nunique_crashes : 6\nunique_hangs   : 0\nlast_path      : 1500136853\nlast_crash     : 1500136648\nlast_hang      : 0\nexec_timeout   : 20\nafl_banner     : fuzzer-master\nafl_version    : 1.85b\ncommand_line   : /home/skaramcheti/.virtualenvs/afl/bin/afl-unix/afl-fuzz -i /dev/shm/work/CML/input -o /dev/shm/work/CML/sync -m 4G -Q -M fuzzer-master -x /dev/shm/work/CML/CML.dict -- data/linux/processed-challenges/CML/bin/CML\n'
p59
I3
tp60
a(I3600
S'start_time     : 1500133483\nlast_update    : 1500137030\nfuzzer_pid     : 9632\ncycles_done    : 0\nexecs_done     : 1461380\nexecs_per_sec  : 386.60\npaths_total    : 222\npaths_favored  : 65\npaths_found    : 221\npaths_imported : 0\nmax_depth      : 4\ncur_path       : 153\npending_favs   : 29\npending_total  : 175\nvariable_paths : 0\nbitmap_cvg     : 1.19%\nunique_crashes : 6\nunique_hangs   : 0\nlast_path      : 1500136919\nlast_crash     : 1500136648\nlast_hang      : 0\nexec_timeout   : 20\nafl_banner     : fuzzer-master\nafl_version    : 1.85b\ncommand_line   : /home/skaramcheti/.virtualenvs/afl/bin/afl-unix/afl-fuzz -i /dev/shm/work/CML/input -o /dev/shm/work/CML/sync -m 4G -Q -M fuzzer-master -x /dev/shm/work/CML/CML.dict -- data/linux/processed-challenges/CML/bin/CML\n'
p61
I0
tp62
a(I3720
S'start_time     : 1500133483\nlast_update    : 1500137150\nfuzzer_pid     : 9632\ncycles_done    : 0\nexecs_done     : 1508398\nexecs_per_sec  : 403.98\npaths_total    : 224\npaths_favored  : 65\npaths_found    : 223\npaths_imported : 0\nmax_depth      : 4\ncur_path       : 153\npending_favs   : 29\npending_total  : 177\nvariable_paths : 0\nbitmap_cvg     : 1.19%\nunique_crashes : 7\nunique_hangs   : 0\nlast_path      : 1500137115\nlast_crash     : 1500137057\nlast_hang      : 0\nexec_timeout   : 20\nafl_banner     : fuzzer-master\nafl_version    : 1.85b\ncommand_line   : /home/skaramcheti/.virtualenvs/afl/bin/afl-unix/afl-fuzz -i /dev/shm/work/CML/input -o /dev/shm/work/CML/sync -m 4G -Q -M fuzzer-master -x /dev/shm/work/CML/CML.dict -- data/linux/processed-challenges/CML/bin/CML\n'
p63
I3
tp64
a(I3840
S'start_time     : 1500133483\nlast_update    : 1500137270\nfuzzer_pid     : 9632\ncycles_done    : 0\nexecs_done     : 1556704\nexecs_per_sec  : 397.42\npaths_total    : 227\npaths_favored  : 73\npaths_found    : 226\npaths_imported : 0\nmax_depth      : 4\ncur_path       : 169\npending_favs   : 37\npending_total  : 178\nvariable_paths : 0\nbitmap_cvg     : 1.19%\nunique_crashes : 7\nunique_hangs   : 0\nlast_path      : 1500137226\nlast_crash     : 1500137057\nlast_hang      : 0\nexec_timeout   : 20\nafl_banner     : fuzzer-master\nafl_version    : 1.85b\ncommand_line   : /home/skaramcheti/.virtualenvs/afl/bin/afl-unix/afl-fuzz -i /dev/shm/work/CML/input -o /dev/shm/work/CML/sync -m 4G -Q -M fuzzer-master -x /dev/shm/work/CML/CML.dict -- data/linux/processed-challenges/CML/bin/CML\n'
p65
I3
tp66
a(I3960
S'start_time     : 1500133483\nlast_update    : 1500137390\nfuzzer_pid     : 9632\ncycles_done    : 0\nexecs_done     : 1604920\nexecs_per_sec  : 395.80\npaths_total    : 233\npaths_favored  : 73\npaths_found    : 232\npaths_imported : 0\nmax_depth      : 5\ncur_path       : 169\npending_favs   : 37\npending_total  : 184\nvariable_paths : 0\nbitmap_cvg     : 1.20%\nunique_crashes : 8\nunique_hangs   : 0\nlast_path      : 1500137379\nlast_crash     : 1500137323\nlast_hang      : 0\nexec_timeout   : 20\nafl_banner     : fuzzer-master\nafl_version    : 1.85b\ncommand_line   : /home/skaramcheti/.virtualenvs/afl/bin/afl-unix/afl-fuzz -i /dev/shm/work/CML/input -o /dev/shm/work/CML/sync -m 4G -Q -M fuzzer-master -x /dev/shm/work/CML/CML.dict -- data/linux/processed-challenges/CML/bin/CML\n'
p67
I6
tp68
a(I4080
S'start_time     : 1500133483\nlast_update    : 1500137510\nfuzzer_pid     : 9632\ncycles_done    : 0\nexecs_done     : 1653051\nexecs_per_sec  : 390.95\npaths_total    : 235\npaths_favored  : 73\npaths_found    : 234\npaths_imported : 0\nmax_depth      : 5\ncur_path       : 169\npending_favs   : 37\npending_total  : 186\nvariable_paths : 0\nbitmap_cvg     : 1.20%\nunique_crashes : 8\nunique_hangs   : 0\nlast_path      : 1500137485\nlast_crash     : 1500137323\nlast_hang      : 0\nexec_timeout   : 20\nafl_banner     : fuzzer-master\nafl_version    : 1.85b\ncommand_line   : /home/skaramcheti/.virtualenvs/afl/bin/afl-unix/afl-fuzz -i /dev/shm/work/CML/input -o /dev/shm/work/CML/sync -m 4G -Q -M fuzzer-master -x /dev/shm/work/CML/CML.dict -- data/linux/processed-challenges/CML/bin/CML\n'
p69
I1
tp70
a(I4200
S'start_time     : 1500133483\nlast_update    : 1500137631\nfuzzer_pid     : 9632\ncycles_done    : 0\nexecs_done     : 1701877\nexecs_per_sec  : 403.98\npaths_total    : 237\npaths_favored  : 73\npaths_found    : 236\npaths_imported : 0\nmax_depth      : 5\ncur_path       : 169\npending_favs   : 37\npending_total  : 188\nvariable_paths : 0\nbitmap_cvg     : 1.20%\nunique_crashes : 8\nunique_hangs   : 0\nlast_path      : 1500137610\nlast_crash     : 1500137323\nlast_hang      : 0\nexec_timeout   : 20\nafl_banner     : fuzzer-master\nafl_version    : 1.85b\ncommand_line   : /home/skaramcheti/.virtualenvs/afl/bin/afl-unix/afl-fuzz -i /dev/shm/work/CML/input -o /dev/shm/work/CML/sync -m 4G -Q -M fuzzer-master -x /dev/shm/work/CML/CML.dict -- data/linux/processed-challenges/CML/bin/CML\n'
p71
I3
tp72
a(I4320
S'start_time     : 1500133483\nlast_update    : 1500137751\nfuzzer_pid     : 9632\ncycles_done    : 0\nexecs_done     : 1750981\nexecs_per_sec  : 420.79\npaths_total    : 239\npaths_favored  : 78\npaths_found    : 238\npaths_imported : 0\nmax_depth      : 5\ncur_path       : 171\npending_favs   : 44\npending_total  : 189\nvariable_paths : 0\nbitmap_cvg     : 1.23%\nunique_crashes : 8\nunique_hangs   : 0\nlast_path      : 1500137750\nlast_crash     : 1500137323\nlast_hang      : 0\nexec_timeout   : 20\nafl_banner     : fuzzer-master\nafl_version    : 1.85b\ncommand_line   : /home/skaramcheti/.virtualenvs/afl/bin/afl-unix/afl-fuzz -i /dev/shm/work/CML/input -o /dev/shm/work/CML/sync -m 4G -Q -M fuzzer-master -x /dev/shm/work/CML/CML.dict -- data/linux/processed-challenges/CML/bin/CML\n'
p73
I3
tp74
a(I4440
S'start_time     : 1500133483\nlast_update    : 1500137871\nfuzzer_pid     : 9632\ncycles_done    : 0\nexecs_done     : 1800691\nexecs_per_sec  : 419.32\npaths_total    : 242\npaths_favored  : 78\npaths_found    : 241\npaths_imported : 0\nmax_depth      : 5\ncur_path       : 171\npending_favs   : 44\npending_total  : 192\nvariable_paths : 0\nbitmap_cvg     : 1.24%\nunique_crashes : 8\nunique_hangs   : 0\nlast_path      : 1500137822\nlast_crash     : 1500137323\nlast_hang      : 0\nexec_timeout   : 20\nafl_banner     : fuzzer-master\nafl_version    : 1.85b\ncommand_line   : /home/skaramcheti/.virtualenvs/afl/bin/afl-unix/afl-fuzz -i /dev/shm/work/CML/input -o /dev/shm/work/CML/sync -m 4G -Q -M fuzzer-master -x /dev/shm/work/CML/CML.dict -- data/linux/processed-challenges/CML/bin/CML\n'
p75
I3
tp76
a(I4560
S'start_time     : 1500133483\nlast_update    : 1500137991\nfuzzer_pid     : 9632\ncycles_done    : 0\nexecs_done     : 1850643\nexecs_per_sec  : 413.07\npaths_total    : 246\npaths_favored  : 78\npaths_found    : 245\npaths_imported : 0\nmax_depth      : 5\ncur_path       : 171\npending_favs   : 44\npending_total  : 196\nvariable_paths : 0\nbitmap_cvg     : 1.25%\nunique_crashes : 9\nunique_hangs   : 0\nlast_path      : 1500137971\nlast_crash     : 1500137881\nlast_hang      : 0\nexec_timeout   : 20\nafl_banner     : fuzzer-master\nafl_version    : 1.85b\ncommand_line   : /home/skaramcheti/.virtualenvs/afl/bin/afl-unix/afl-fuzz -i /dev/shm/work/CML/input -o /dev/shm/work/CML/sync -m 4G -Q -M fuzzer-master -x /dev/shm/work/CML/CML.dict -- data/linux/processed-challenges/CML/bin/CML\n'
p77
I2
tp78
a(I4680
S'start_time     : 1500133483\nlast_update    : 1500138112\nfuzzer_pid     : 9632\ncycles_done    : 0\nexecs_done     : 1900175\nexecs_per_sec  : 415.12\npaths_total    : 248\npaths_favored  : 78\npaths_found    : 247\npaths_imported : 0\nmax_depth      : 5\ncur_path       : 171\npending_favs   : 44\npending_total  : 198\nvariable_paths : 0\nbitmap_cvg     : 1.25%\nunique_crashes : 9\nunique_hangs   : 0\nlast_path      : 1500138089\nlast_crash     : 1500137881\nlast_hang      : 0\nexec_timeout   : 20\nafl_banner     : fuzzer-master\nafl_version    : 1.85b\ncommand_line   : /home/skaramcheti/.virtualenvs/afl/bin/afl-unix/afl-fuzz -i /dev/shm/work/CML/input -o /dev/shm/work/CML/sync -m 4G -Q -M fuzzer-master -x /dev/shm/work/CML/CML.dict -- data/linux/processed-challenges/CML/bin/CML\n'
p79
I2
tp80
a(I4800
S'start_time     : 1500133483\nlast_update    : 1500138232\nfuzzer_pid     : 9632\ncycles_done    : 0\nexecs_done     : 1948501\nexecs_per_sec  : 388.47\npaths_total    : 248\npaths_favored  : 83\npaths_found    : 247\npaths_imported : 0\nmax_depth      : 5\ncur_path       : 176\npending_favs   : 48\npending_total  : 196\nvariable_paths : 0\nbitmap_cvg     : 1.25%\nunique_crashes : 10\nunique_hangs   : 0\nlast_path      : 1500138089\nlast_crash     : 1500138185\nlast_hang      : 0\nexec_timeout   : 20\nafl_banner     : fuzzer-master\nafl_version    : 1.85b\ncommand_line   : /home/skaramcheti/.virtualenvs/afl/bin/afl-unix/afl-fuzz -i /dev/shm/work/CML/input -o /dev/shm/work/CML/sync -m 4G -Q -M fuzzer-master -x /dev/shm/work/CML/CML.dict -- data/linux/processed-challenges/CML/bin/CML\n'
p81
I2
tp82
a(I4920
S'start_time     : 1500133483\nlast_update    : 1500138352\nfuzzer_pid     : 9632\ncycles_done    : 0\nexecs_done     : 1994987\nexecs_per_sec  : 376.37\npaths_total    : 250\npaths_favored  : 85\npaths_found    : 249\npaths_imported : 0\nmax_depth      : 5\ncur_path       : 182\npending_favs   : 49\npending_total  : 197\nvariable_paths : 0\nbitmap_cvg     : 1.26%\nunique_crashes : 10\nunique_hangs   : 0\nlast_path      : 1500138261\nlast_crash     : 1500138185\nlast_hang      : 0\nexec_timeout   : 20\nafl_banner     : fuzzer-master\nafl_version    : 1.85b\ncommand_line   : /home/skaramcheti/.virtualenvs/afl/bin/afl-unix/afl-fuzz -i /dev/shm/work/CML/input -o /dev/shm/work/CML/sync -m 4G -Q -M fuzzer-master -x /dev/shm/work/CML/CML.dict -- data/linux/processed-challenges/CML/bin/CML\n'
p83
I2
tp84
a(I5040
S'start_time     : 1500133483\nlast_update    : 1500138472\nfuzzer_pid     : 9632\ncycles_done    : 0\nexecs_done     : 2039769\nexecs_per_sec  : 367.58\npaths_total    : 255\npaths_favored  : 85\npaths_found    : 254\npaths_imported : 0\nmax_depth      : 5\ncur_path       : 182\npending_favs   : 49\npending_total  : 202\nvariable_paths : 0\nbitmap_cvg     : 1.26%\nunique_crashes : 12\nunique_hangs   : 0\nlast_path      : 1500138462\nlast_crash     : 1500138444\nlast_hang      : 0\nexec_timeout   : 20\nafl_banner     : fuzzer-master\nafl_version    : 1.85b\ncommand_line   : /home/skaramcheti/.virtualenvs/afl/bin/afl-unix/afl-fuzz -i /dev/shm/work/CML/input -o /dev/shm/work/CML/sync -m 4G -Q -M fuzzer-master -x /dev/shm/work/CML/CML.dict -- data/linux/processed-challenges/CML/bin/CML\n'
p85
I4
tp86
a(I5160
S'start_time     : 1500133483\nlast_update    : 1500138592\nfuzzer_pid     : 9632\ncycles_done    : 0\nexecs_done     : 2084252\nexecs_per_sec  : 378.03\npaths_total    : 259\npaths_favored  : 85\npaths_found    : 258\npaths_imported : 0\nmax_depth      : 5\ncur_path       : 182\npending_favs   : 49\npending_total  : 206\nvariable_paths : 0\nbitmap_cvg     : 1.27%\nunique_crashes : 12\nunique_hangs   : 0\nlast_path      : 1500138564\nlast_crash     : 1500138444\nlast_hang      : 0\nexec_timeout   : 20\nafl_banner     : fuzzer-master\nafl_version    : 1.85b\ncommand_line   : /home/skaramcheti/.virtualenvs/afl/bin/afl-unix/afl-fuzz -i /dev/shm/work/CML/input -o /dev/shm/work/CML/sync -m 4G -Q -M fuzzer-master -x /dev/shm/work/CML/CML.dict -- data/linux/processed-challenges/CML/bin/CML\n'
p87
I3
tp88
a(I5280
S'start_time     : 1500133483\nlast_update    : 1500138713\nfuzzer_pid     : 9632\ncycles_done    : 0\nexecs_done     : 2132150\nexecs_per_sec  : 422.60\npaths_total    : 261\npaths_favored  : 85\npaths_found    : 260\npaths_imported : 0\nmax_depth      : 5\ncur_path       : 182\npending_favs   : 49\npending_total  : 208\nvariable_paths : 0\nbitmap_cvg     : 1.27%\nunique_crashes : 12\nunique_hangs   : 0\nlast_path      : 1500138701\nlast_crash     : 1500138444\nlast_hang      : 0\nexec_timeout   : 20\nafl_banner     : fuzzer-master\nafl_version    : 1.85b\ncommand_line   : /home/skaramcheti/.virtualenvs/afl/bin/afl-unix/afl-fuzz -i /dev/shm/work/CML/input -o /dev/shm/work/CML/sync -m 4G -Q -M fuzzer-master -x /dev/shm/work/CML/CML.dict -- data/linux/processed-challenges/CML/bin/CML\n'
p89
I3
tp90
a(I5400
S'start_time     : 1500133483\nlast_update    : 1500138833\nfuzzer_pid     : 9632\ncycles_done    : 0\nexecs_done     : 2182468\nexecs_per_sec  : 416.58\npaths_total    : 264\npaths_favored  : 85\npaths_found    : 263\npaths_imported : 0\nmax_depth      : 5\ncur_path       : 182\npending_favs   : 49\npending_total  : 211\nvariable_paths : 0\nbitmap_cvg     : 1.27%\nunique_crashes : 12\nunique_hangs   : 0\nlast_path      : 1500138828\nlast_crash     : 1500138444\nlast_hang      : 0\nexec_timeout   : 20\nafl_banner     : fuzzer-master\nafl_version    : 1.85b\ncommand_line   : /home/skaramcheti/.virtualenvs/afl/bin/afl-unix/afl-fuzz -i /dev/shm/work/CML/input -o /dev/shm/work/CML/sync -m 4G -Q -M fuzzer-master -x /dev/shm/work/CML/CML.dict -- data/linux/processed-challenges/CML/bin/CML\n'
p91
I2
tp92
a(I5520
S'start_time     : 1500133483\nlast_update    : 1500138953\nfuzzer_pid     : 9632\ncycles_done    : 0\nexecs_done     : 2231069\nexecs_per_sec  : 391.68\npaths_total    : 264\npaths_favored  : 90\npaths_found    : 263\npaths_imported : 0\nmax_depth      : 5\ncur_path       : 187\npending_favs   : 52\npending_total  : 209\nvariable_paths : 0\nbitmap_cvg     : 1.27%\nunique_crashes : 12\nunique_hangs   : 0\nlast_path      : 1500138828\nlast_crash     : 1500138444\nlast_hang      : 0\nexec_timeout   : 20\nafl_banner     : fuzzer-master\nafl_version    : 1.85b\ncommand_line   : /home/skaramcheti/.virtualenvs/afl/bin/afl-unix/afl-fuzz -i /dev/shm/work/CML/input -o /dev/shm/work/CML/sync -m 4G -Q -M fuzzer-master -x /dev/shm/work/CML/CML.dict -- data/linux/processed-challenges/CML/bin/CML\n'
p93
I0
tp94
a(I5640
S'start_time     : 1500133483\nlast_update    : 1500139073\nfuzzer_pid     : 9632\ncycles_done    : 0\nexecs_done     : 2279430\nexecs_per_sec  : 419.47\npaths_total    : 264\npaths_favored  : 90\npaths_found    : 263\npaths_imported : 0\nmax_depth      : 5\ncur_path       : 191\npending_favs   : 50\npending_total  : 207\nvariable_paths : 0\nbitmap_cvg     : 1.27%\nunique_crashes : 12\nunique_hangs   : 0\nlast_path      : 1500138828\nlast_crash     : 1500138444\nlast_hang      : 0\nexec_timeout   : 20\nafl_banner     : fuzzer-master\nafl_version    : 1.85b\ncommand_line   : /home/skaramcheti/.virtualenvs/afl/bin/afl-unix/afl-fuzz -i /dev/shm/work/CML/input -o /dev/shm/work/CML/sync -m 4G -Q -M fuzzer-master -x /dev/shm/work/CML/CML.dict -- data/linux/processed-challenges/CML/bin/CML\n'
p95
I4
tp96
a(I5760
S'start_time     : 1500133483\nlast_update    : 1500139193\nfuzzer_pid     : 9632\ncycles_done    : 0\nexecs_done     : 2330115\nexecs_per_sec  : 430.49\npaths_total    : 275\npaths_favored  : 90\npaths_found    : 274\npaths_imported : 0\nmax_depth      : 5\ncur_path       : 191\npending_favs   : 50\npending_total  : 218\nvariable_paths : 0\nbitmap_cvg     : 1.29%\nunique_crashes : 12\nunique_hangs   : 0\nlast_path      : 1500139177\nlast_crash     : 1500138444\nlast_hang      : 0\nexec_timeout   : 20\nafl_banner     : fuzzer-master\nafl_version    : 1.85b\ncommand_line   : /home/skaramcheti/.virtualenvs/afl/bin/afl-unix/afl-fuzz -i /dev/shm/work/CML/input -o /dev/shm/work/CML/sync -m 4G -Q -M fuzzer-master -x /dev/shm/work/CML/CML.dict -- data/linux/processed-challenges/CML/bin/CML\n'
p97
I9
tp98
a(I5880
S'start_time     : 1500133483\nlast_update    : 1500139313\nfuzzer_pid     : 9632\ncycles_done    : 0\nexecs_done     : 2381133\nexecs_per_sec  : 424.07\npaths_total    : 280\npaths_favored  : 90\npaths_found    : 279\npaths_imported : 0\nmax_depth      : 5\ncur_path       : 191\npending_favs   : 50\npending_total  : 223\nvariable_paths : 0\nbitmap_cvg     : 1.29%\nunique_crashes : 12\nunique_hangs   : 0\nlast_path      : 1500139313\nlast_crash     : 1500138444\nlast_hang      : 0\nexec_timeout   : 20\nafl_banner     : fuzzer-master\nafl_version    : 1.85b\ncommand_line   : /home/skaramcheti/.virtualenvs/afl/bin/afl-unix/afl-fuzz -i /dev/shm/work/CML/input -o /dev/shm/work/CML/sync -m 4G -Q -M fuzzer-master -x /dev/shm/work/CML/CML.dict -- data/linux/processed-challenges/CML/bin/CML\n'
p99
I3
tp100
a(I6000
S'start_time     : 1500133483\nlast_update    : 1500139434\nfuzzer_pid     : 9632\ncycles_done    : 0\nexecs_done     : 2432719\nexecs_per_sec  : 422.61\npaths_total    : 281\npaths_favored  : 90\npaths_found    : 280\npaths_imported : 0\nmax_depth      : 5\ncur_path       : 191\npending_favs   : 50\npending_total  : 224\nvariable_paths : 0\nbitmap_cvg     : 1.29%\nunique_crashes : 12\nunique_hangs   : 0\nlast_path      : 1500139431\nlast_crash     : 1500138444\nlast_hang      : 0\nexec_timeout   : 20\nafl_banner     : fuzzer-master\nafl_version    : 1.85b\ncommand_line   : /home/skaramcheti/.virtualenvs/afl/bin/afl-unix/afl-fuzz -i /dev/shm/work/CML/input -o /dev/shm/work/CML/sync -m 4G -Q -M fuzzer-master -x /dev/shm/work/CML/CML.dict -- data/linux/processed-challenges/CML/bin/CML\n'
p101
I2
tp102
a(I6120
S'start_time     : 1500133483\nlast_update    : 1500139554\nfuzzer_pid     : 9632\ncycles_done    : 0\nexecs_done     : 2482101\nexecs_per_sec  : 411.00\npaths_total    : 283\npaths_favored  : 95\npaths_found    : 282\npaths_imported : 0\nmax_depth      : 5\ncur_path       : 194\npending_favs   : 54\npending_total  : 225\nvariable_paths : 0\nbitmap_cvg     : 1.30%\nunique_crashes : 12\nunique_hangs   : 0\nlast_path      : 1500139536\nlast_crash     : 1500138444\nlast_hang      : 0\nexec_timeout   : 20\nafl_banner     : fuzzer-master\nafl_version    : 1.85b\ncommand_line   : /home/skaramcheti/.virtualenvs/afl/bin/afl-unix/afl-fuzz -i /dev/shm/work/CML/input -o /dev/shm/work/CML/sync -m 4G -Q -M fuzzer-master -x /dev/shm/work/CML/CML.dict -- data/linux/processed-challenges/CML/bin/CML\n'
p103
I1
tp104
a(I6240
S'start_time     : 1500133483\nlast_update    : 1500139674\nfuzzer_pid     : 9632\ncycles_done    : 0\nexecs_done     : 2532421\nexecs_per_sec  : 420.32\npaths_total    : 285\npaths_favored  : 95\npaths_found    : 284\npaths_imported : 0\nmax_depth      : 5\ncur_path       : 198\npending_favs   : 54\npending_total  : 226\nvariable_paths : 0\nbitmap_cvg     : 1.31%\nunique_crashes : 12\nunique_hangs   : 0\nlast_path      : 1500139655\nlast_crash     : 1500138444\nlast_hang      : 0\nexec_timeout   : 20\nafl_banner     : fuzzer-master\nafl_version    : 1.85b\ncommand_line   : /home/skaramcheti/.virtualenvs/afl/bin/afl-unix/afl-fuzz -i /dev/shm/work/CML/input -o /dev/shm/work/CML/sync -m 4G -Q -M fuzzer-master -x /dev/shm/work/CML/CML.dict -- data/linux/processed-challenges/CML/bin/CML\n'
p105
I2
tp106
a(I6360
S'start_time     : 1500133483\nlast_update    : 1500139794\nfuzzer_pid     : 9632\ncycles_done    : 0\nexecs_done     : 2581216\nexecs_per_sec  : 395.32\npaths_total    : 295\npaths_favored  : 97\npaths_found    : 294\npaths_imported : 0\nmax_depth      : 5\ncur_path       : 199\npending_favs   : 55\npending_total  : 235\nvariable_paths : 0\nbitmap_cvg     : 1.33%\nunique_crashes : 12\nunique_hangs   : 0\nlast_path      : 1500139793\nlast_crash     : 1500138444\nlast_hang      : 0\nexec_timeout   : 20\nafl_banner     : fuzzer-master\nafl_version    : 1.85b\ncommand_line   : /home/skaramcheti/.virtualenvs/afl/bin/afl-unix/afl-fuzz -i /dev/shm/work/CML/input -o /dev/shm/work/CML/sync -m 4G -Q -M fuzzer-master -x /dev/shm/work/CML/CML.dict -- data/linux/processed-challenges/CML/bin/CML\n'
p107
I15
tp108
a(I6480
S'start_time     : 1500133483\nlast_update    : 1500139915\nfuzzer_pid     : 9632\ncycles_done    : 0\nexecs_done     : 2629663\nexecs_per_sec  : 402.71\npaths_total    : 306\npaths_favored  : 97\npaths_found    : 305\npaths_imported : 0\nmax_depth      : 5\ncur_path       : 199\npending_favs   : 55\npending_total  : 246\nvariable_paths : 0\nbitmap_cvg     : 1.37%\nunique_crashes : 12\nunique_hangs   : 0\nlast_path      : 1500139906\nlast_crash     : 1500138444\nlast_hang      : 0\nexec_timeout   : 20\nafl_banner     : fuzzer-master\nafl_version    : 1.85b\ncommand_line   : /home/skaramcheti/.virtualenvs/afl/bin/afl-unix/afl-fuzz -i /dev/shm/work/CML/input -o /dev/shm/work/CML/sync -m 4G -Q -M fuzzer-master -x /dev/shm/work/CML/CML.dict -- data/linux/processed-challenges/CML/bin/CML\n'
p109
I8
tp110
a(I6600
S'start_time     : 1500133483\nlast_update    : 1500140035\nfuzzer_pid     : 9632\ncycles_done    : 0\nexecs_done     : 2678369\nexecs_per_sec  : 405.87\npaths_total    : 311\npaths_favored  : 97\npaths_found    : 310\npaths_imported : 0\nmax_depth      : 5\ncur_path       : 199\npending_favs   : 55\npending_total  : 251\nvariable_paths : 0\nbitmap_cvg     : 1.39%\nunique_crashes : 12\nunique_hangs   : 0\nlast_path      : 1500140021\nlast_crash     : 1500138444\nlast_hang      : 0\nexec_timeout   : 20\nafl_banner     : fuzzer-master\nafl_version    : 1.85b\ncommand_line   : /home/skaramcheti/.virtualenvs/afl/bin/afl-unix/afl-fuzz -i /dev/shm/work/CML/input -o /dev/shm/work/CML/sync -m 4G -Q -M fuzzer-master -x /dev/shm/work/CML/CML.dict -- data/linux/processed-challenges/CML/bin/CML\n'
p111
I3
tp112
a(I6720
S'start_time     : 1500133483\nlast_update    : 1500140155\nfuzzer_pid     : 9632\ncycles_done    : 0\nexecs_done     : 2726586\nexecs_per_sec  : 392.90\npaths_total    : 312\npaths_favored  : 97\npaths_found    : 311\npaths_imported : 0\nmax_depth      : 5\ncur_path       : 199\npending_favs   : 55\npending_total  : 252\nvariable_paths : 0\nbitmap_cvg     : 1.39%\nunique_crashes : 12\nunique_hangs   : 0\nlast_path      : 1500140140\nlast_crash     : 1500138444\nlast_hang      : 0\nexec_timeout   : 20\nafl_banner     : fuzzer-master\nafl_version    : 1.85b\ncommand_line   : /home/skaramcheti/.virtualenvs/afl/bin/afl-unix/afl-fuzz -i /dev/shm/work/CML/input -o /dev/shm/work/CML/sync -m 4G -Q -M fuzzer-master -x /dev/shm/work/CML/CML.dict -- data/linux/processed-challenges/CML/bin/CML\n'
p113
I2
tp114
a(I6840
S'start_time     : 1500133483\nlast_update    : 1500140275\nfuzzer_pid     : 9632\ncycles_done    : 0\nexecs_done     : 2776427\nexecs_per_sec  : 416.04\npaths_total    : 313\npaths_favored  : 99\npaths_found    : 312\npaths_imported : 0\nmax_depth      : 5\ncur_path       : 201\npending_favs   : 60\npending_total  : 251\nvariable_paths : 0\nbitmap_cvg     : 1.40%\nunique_crashes : 13\nunique_hangs   : 0\nlast_path      : 1500140194\nlast_crash     : 1500140176\nlast_hang      : 0\nexec_timeout   : 20\nafl_banner     : fuzzer-master\nafl_version    : 1.85b\ncommand_line   : /home/skaramcheti/.virtualenvs/afl/bin/afl-unix/afl-fuzz -i /dev/shm/work/CML/input -o /dev/shm/work/CML/sync -m 4G -Q -M fuzzer-master -x /dev/shm/work/CML/CML.dict -- data/linux/processed-challenges/CML/bin/CML\n'
p115
I1
tp116
a(I6960
S'start_time     : 1500133483\nlast_update    : 1500140395\nfuzzer_pid     : 9632\ncycles_done    : 0\nexecs_done     : 2825669\nexecs_per_sec  : 411.92\npaths_total    : 317\npaths_favored  : 99\npaths_found    : 316\npaths_imported : 0\nmax_depth      : 5\ncur_path       : 203\npending_favs   : 60\npending_total  : 254\nvariable_paths : 0\nbitmap_cvg     : 1.40%\nunique_crashes : 14\nunique_hangs   : 0\nlast_path      : 1500140387\nlast_crash     : 1500140383\nlast_hang      : 0\nexec_timeout   : 20\nafl_banner     : fuzzer-master\nafl_version    : 1.85b\ncommand_line   : /home/skaramcheti/.virtualenvs/afl/bin/afl-unix/afl-fuzz -i /dev/shm/work/CML/input -o /dev/shm/work/CML/sync -m 4G -Q -M fuzzer-master -x /dev/shm/work/CML/CML.dict -- data/linux/processed-challenges/CML/bin/CML\n'
p117
I3
tp118
a(I7080
S'start_time     : 1500133483\nlast_update    : 1500140515\nfuzzer_pid     : 9632\ncycles_done    : 0\nexecs_done     : 2873833\nexecs_per_sec  : 372.78\npaths_total    : 317\npaths_favored  : 99\npaths_found    : 316\npaths_imported : 0\nmax_depth      : 5\ncur_path       : 205\npending_favs   : 60\npending_total  : 253\nvariable_paths : 0\nbitmap_cvg     : 1.40%\nunique_crashes : 14\nunique_hangs   : 0\nlast_path      : 1500140387\nlast_crash     : 1500140383\nlast_hang      : 0\nexec_timeout   : 20\nafl_banner     : fuzzer-master\nafl_version    : 1.85b\ncommand_line   : /home/skaramcheti/.virtualenvs/afl/bin/afl-unix/afl-fuzz -i /dev/shm/work/CML/input -o /dev/shm/work/CML/sync -m 4G -Q -M fuzzer-master -x /dev/shm/work/CML/CML.dict -- data/linux/processed-challenges/CML/bin/CML\n'
p119
I2
tp120
a(I7200
S'start_time     : 1500133483\nlast_update    : 1500140636\nfuzzer_pid     : 9632\ncycles_done    : 0\nexecs_done     : 2922292\nexecs_per_sec  : 402.23\npaths_total    : 320\npaths_favored  : 99\npaths_found    : 319\npaths_imported : 0\nmax_depth      : 5\ncur_path       : 205\npending_favs   : 60\npending_total  : 256\nvariable_paths : 0\nbitmap_cvg     : 1.40%\nunique_crashes : 15\nunique_hangs   : 0\nlast_path      : 1500140602\nlast_crash     : 1500140570\nlast_hang      : 0\nexec_timeout   : 20\nafl_banner     : fuzzer-master\nafl_version    : 1.85b\ncommand_line   : /home/skaramcheti/.virtualenvs/afl/bin/afl-unix/afl-fuzz -i /dev/shm/work/CML/input -o /dev/shm/work/CML/sync -m 4G -Q -M fuzzer-master -x /dev/shm/work/CML/CML.dict -- data/linux/processed-challenges/CML/bin/CML\n'
p121
I1
tp122
a(I7320
S'start_time     : 1500133483\nlast_update    : 1500140756\nfuzzer_pid     : 9632\ncycles_done    : 0\nexecs_done     : 2970842\nexecs_per_sec  : 405.98\npaths_total    : 321\npaths_favored  : 99\npaths_found    : 320\npaths_imported : 0\nmax_depth      : 5\ncur_path       : 205\npending_favs   : 60\npending_total  : 257\nvariable_paths : 0\nbitmap_cvg     : 1.40%\nunique_crashes : 15\nunique_hangs   : 0\nlast_path      : 1500140711\nlast_crash     : 1500140570\nlast_hang      : 0\nexec_timeout   : 20\nafl_banner     : fuzzer-master\nafl_version    : 1.85b\ncommand_line   : /home/skaramcheti/.virtualenvs/afl/bin/afl-unix/afl-fuzz -i /dev/shm/work/CML/input -o /dev/shm/work/CML/sync -m 4G -Q -M fuzzer-master -x /dev/shm/work/CML/CML.dict -- data/linux/processed-challenges/CML/bin/CML\n'
p123
I1
tp124
a(I7440
S'start_time     : 1500133483\nlast_update    : 1500140876\nfuzzer_pid     : 9632\ncycles_done    : 0\nexecs_done     : 3020586\nexecs_per_sec  : 406.60\npaths_total    : 321\npaths_favored  : 99\npaths_found    : 320\npaths_imported : 0\nmax_depth      : 5\ncur_path       : 205\npending_favs   : 60\npending_total  : 257\nvariable_paths : 0\nbitmap_cvg     : 1.40%\nunique_crashes : 15\nunique_hangs   : 0\nlast_path      : 1500140711\nlast_crash     : 1500140570\nlast_hang      : 0\nexec_timeout   : 20\nafl_banner     : fuzzer-master\nafl_version    : 1.85b\ncommand_line   : /home/skaramcheti/.virtualenvs/afl/bin/afl-unix/afl-fuzz -i /dev/shm/work/CML/input -o /dev/shm/work/CML/sync -m 4G -Q -M fuzzer-master -x /dev/shm/work/CML/CML.dict -- data/linux/processed-challenges/CML/bin/CML\n'
p125
I0
tp126
a(I7560
S'start_time     : 1500133483\nlast_update    : 1500140996\nfuzzer_pid     : 9632\ncycles_done    : 0\nexecs_done     : 3070349\nexecs_per_sec  : 413.11\npaths_total    : 321\npaths_favored  : 100\npaths_found    : 320\npaths_imported : 0\nmax_depth      : 5\ncur_path       : 207\npending_favs   : 60\npending_total  : 256\nvariable_paths : 0\nbitmap_cvg     : 1.40%\nunique_crashes : 15\nunique_hangs   : 0\nlast_path      : 1500140711\nlast_crash     : 1500140570\nlast_hang      : 0\nexec_timeout   : 20\nafl_banner     : fuzzer-master\nafl_version    : 1.85b\ncommand_line   : /home/skaramcheti/.virtualenvs/afl/bin/afl-unix/afl-fuzz -i /dev/shm/work/CML/input -o /dev/shm/work/CML/sync -m 4G -Q -M fuzzer-master -x /dev/shm/work/CML/CML.dict -- data/linux/processed-challenges/CML/bin/CML\n'
p127
I0
tp128
a(I7680
S'start_time     : 1500133483\nlast_update    : 1500141116\nfuzzer_pid     : 9632\ncycles_done    : 0\nexecs_done     : 3119798\nexecs_per_sec  : 407.98\npaths_total    : 323\npaths_favored  : 101\npaths_found    : 322\npaths_imported : 0\nmax_depth      : 5\ncur_path       : 212\npending_favs   : 60\npending_total  : 256\nvariable_paths : 0\nbitmap_cvg     : 1.41%\nunique_crashes : 15\nunique_hangs   : 0\nlast_path      : 1500141056\nlast_crash     : 1500140570\nlast_hang      : 0\nexec_timeout   : 20\nafl_banner     : fuzzer-master\nafl_version    : 1.85b\ncommand_line   : /home/skaramcheti/.virtualenvs/afl/bin/afl-unix/afl-fuzz -i /dev/shm/work/CML/input -o /dev/shm/work/CML/sync -m 4G -Q -M fuzzer-master -x /dev/shm/work/CML/CML.dict -- data/linux/processed-challenges/CML/bin/CML\n'
p129
I3
tp130
a(I7800
S'start_time     : 1500133483\nlast_update    : 1500141237\nfuzzer_pid     : 9632\ncycles_done    : 0\nexecs_done     : 3169023\nexecs_per_sec  : 383.76\npaths_total    : 324\npaths_favored  : 101\npaths_found    : 323\npaths_imported : 0\nmax_depth      : 5\ncur_path       : 214\npending_favs   : 59\npending_total  : 256\nvariable_paths : 0\nbitmap_cvg     : 1.41%\nunique_crashes : 15\nunique_hangs   : 0\nlast_path      : 1500141124\nlast_crash     : 1500140570\nlast_hang      : 0\nexec_timeout   : 20\nafl_banner     : fuzzer-master\nafl_version    : 1.85b\ncommand_line   : /home/skaramcheti/.virtualenvs/afl/bin/afl-unix/afl-fuzz -i /dev/shm/work/CML/input -o /dev/shm/work/CML/sync -m 4G -Q -M fuzzer-master -x /dev/shm/work/CML/CML.dict -- data/linux/processed-challenges/CML/bin/CML\n'
p131
I0
tp132
a(I7920
S'start_time     : 1500133483\nlast_update    : 1500141357\nfuzzer_pid     : 9632\ncycles_done    : 0\nexecs_done     : 3216570\nexecs_per_sec  : 398.77\npaths_total    : 328\npaths_favored  : 101\npaths_found    : 327\npaths_imported : 0\nmax_depth      : 5\ncur_path       : 215\npending_favs   : 58\npending_total  : 259\nvariable_paths : 0\nbitmap_cvg     : 1.42%\nunique_crashes : 15\nunique_hangs   : 0\nlast_path      : 1500141335\nlast_crash     : 1500140570\nlast_hang      : 0\nexec_timeout   : 20\nafl_banner     : fuzzer-master\nafl_version    : 1.85b\ncommand_line   : /home/skaramcheti/.virtualenvs/afl/bin/afl-unix/afl-fuzz -i /dev/shm/work/CML/input -o /dev/shm/work/CML/sync -m 4G -Q -M fuzzer-master -x /dev/shm/work/CML/CML.dict -- data/linux/processed-challenges/CML/bin/CML\n'
p133
I6
tp134
a(I8040
S'start_time     : 1500133483\nlast_update    : 1500141477\nfuzzer_pid     : 9632\ncycles_done    : 0\nexecs_done     : 3265440\nexecs_per_sec  : 418.05\npaths_total    : 331\npaths_favored  : 101\npaths_found    : 330\npaths_imported : 0\nmax_depth      : 5\ncur_path       : 215\npending_favs   : 58\npending_total  : 262\nvariable_paths : 0\nbitmap_cvg     : 1.42%\nunique_crashes : 15\nunique_hangs   : 0\nlast_path      : 1500141413\nlast_crash     : 1500140570\nlast_hang      : 0\nexec_timeout   : 20\nafl_banner     : fuzzer-master\nafl_version    : 1.85b\ncommand_line   : /home/skaramcheti/.virtualenvs/afl/bin/afl-unix/afl-fuzz -i /dev/shm/work/CML/input -o /dev/shm/work/CML/sync -m 4G -Q -M fuzzer-master -x /dev/shm/work/CML/CML.dict -- data/linux/processed-challenges/CML/bin/CML\n'
p135
I1
tp136
a(I8160
S'start_time     : 1500133483\nlast_update    : 1500141597\nfuzzer_pid     : 9632\ncycles_done    : 0\nexecs_done     : 3313766\nexecs_per_sec  : 394.05\npaths_total    : 331\npaths_favored  : 103\npaths_found    : 330\npaths_imported : 0\nmax_depth      : 5\ncur_path       : 216\npending_favs   : 60\npending_total  : 261\nvariable_paths : 0\nbitmap_cvg     : 1.42%\nunique_crashes : 15\nunique_hangs   : 0\nlast_path      : 1500141413\nlast_crash     : 1500140570\nlast_hang      : 0\nexec_timeout   : 20\nafl_banner     : fuzzer-master\nafl_version    : 1.85b\ncommand_line   : /home/skaramcheti/.virtualenvs/afl/bin/afl-unix/afl-fuzz -i /dev/shm/work/CML/input -o /dev/shm/work/CML/sync -m 4G -Q -M fuzzer-master -x /dev/shm/work/CML/CML.dict -- data/linux/processed-challenges/CML/bin/CML\n'
p137
I0
tp138
a(I8280
S'start_time     : 1500133483\nlast_update    : 1500141717\nfuzzer_pid     : 9632\ncycles_done    : 0\nexecs_done     : 3361539\nexecs_per_sec  : 405.26\npaths_total    : 331\npaths_favored  : 103\npaths_found    : 330\npaths_imported : 0\nmax_depth      : 5\ncur_path       : 218\npending_favs   : 59\npending_total  : 260\nvariable_paths : 0\nbitmap_cvg     : 1.42%\nunique_crashes : 15\nunique_hangs   : 0\nlast_path      : 1500141413\nlast_crash     : 1500140570\nlast_hang      : 0\nexec_timeout   : 20\nafl_banner     : fuzzer-master\nafl_version    : 1.85b\ncommand_line   : /home/skaramcheti/.virtualenvs/afl/bin/afl-unix/afl-fuzz -i /dev/shm/work/CML/input -o /dev/shm/work/CML/sync -m 4G -Q -M fuzzer-master -x /dev/shm/work/CML/CML.dict -- data/linux/processed-challenges/CML/bin/CML\n'
p139
I0
tp140
a(I8400
S'start_time     : 1500133483\nlast_update    : 1500141838\nfuzzer_pid     : 9632\ncycles_done    : 0\nexecs_done     : 3407835\nexecs_per_sec  : 397.32\npaths_total    : 336\npaths_favored  : 103\npaths_found    : 335\npaths_imported : 0\nmax_depth      : 5\ncur_path       : 222\npending_favs   : 58\npending_total  : 264\nvariable_paths : 0\nbitmap_cvg     : 1.42%\nunique_crashes : 15\nunique_hangs   : 0\nlast_path      : 1500141828\nlast_crash     : 1500140570\nlast_hang      : 0\nexec_timeout   : 20\nafl_banner     : fuzzer-master\nafl_version    : 1.85b\ncommand_line   : /home/skaramcheti/.virtualenvs/afl/bin/afl-unix/afl-fuzz -i /dev/shm/work/CML/input -o /dev/shm/work/CML/sync -m 4G -Q -M fuzzer-master -x /dev/shm/work/CML/CML.dict -- data/linux/processed-challenges/CML/bin/CML\n'
p141
I6
tp142
a(I8520
S'start_time     : 1500133483\nlast_update    : 1500141958\nfuzzer_pid     : 9632\ncycles_done    : 0\nexecs_done     : 3456273\nexecs_per_sec  : 395.36\npaths_total    : 340\npaths_favored  : 103\npaths_found    : 339\npaths_imported : 0\nmax_depth      : 5\ncur_path       : 222\npending_favs   : 58\npending_total  : 268\nvariable_paths : 0\nbitmap_cvg     : 1.43%\nunique_crashes : 15\nunique_hangs   : 0\nlast_path      : 1500141939\nlast_crash     : 1500140570\nlast_hang      : 0\nexec_timeout   : 20\nafl_banner     : fuzzer-master\nafl_version    : 1.85b\ncommand_line   : /home/skaramcheti/.virtualenvs/afl/bin/afl-unix/afl-fuzz -i /dev/shm/work/CML/input -o /dev/shm/work/CML/sync -m 4G -Q -M fuzzer-master -x /dev/shm/work/CML/CML.dict -- data/linux/processed-challenges/CML/bin/CML\n'
p143
I6
tp144
a(I8640
S'start_time     : 1500133483\nlast_update    : 1500142078\nfuzzer_pid     : 9632\ncycles_done    : 0\nexecs_done     : 3503526\nexecs_per_sec  : 393.81\npaths_total    : 348\npaths_favored  : 103\npaths_found    : 347\npaths_imported : 0\nmax_depth      : 5\ncur_path       : 222\npending_favs   : 58\npending_total  : 276\nvariable_paths : 0\nbitmap_cvg     : 1.44%\nunique_crashes : 15\nunique_hangs   : 0\nlast_path      : 1500142063\nlast_crash     : 1500140570\nlast_hang      : 0\nexec_timeout   : 20\nafl_banner     : fuzzer-master\nafl_version    : 1.85b\ncommand_line   : /home/skaramcheti/.virtualenvs/afl/bin/afl-unix/afl-fuzz -i /dev/shm/work/CML/input -o /dev/shm/work/CML/sync -m 4G -Q -M fuzzer-master -x /dev/shm/work/CML/CML.dict -- data/linux/processed-challenges/CML/bin/CML\n'
p145
I5
tp146
a(I8760
S'start_time     : 1500133483\nlast_update    : 1500142198\nfuzzer_pid     : 9632\ncycles_done    : 0\nexecs_done     : 3550860\nexecs_per_sec  : 384.93\npaths_total    : 348\npaths_favored  : 103\npaths_found    : 347\npaths_imported : 0\nmax_depth      : 5\ncur_path       : 222\npending_favs   : 58\npending_total  : 276\nvariable_paths : 0\nbitmap_cvg     : 1.44%\nunique_crashes : 15\nunique_hangs   : 0\nlast_path      : 1500142063\nlast_crash     : 1500140570\nlast_hang      : 0\nexec_timeout   : 20\nafl_banner     : fuzzer-master\nafl_version    : 1.85b\ncommand_line   : /home/skaramcheti/.virtualenvs/afl/bin/afl-unix/afl-fuzz -i /dev/shm/work/CML/input -o /dev/shm/work/CML/sync -m 4G -Q -M fuzzer-master -x /dev/shm/work/CML/CML.dict -- data/linux/processed-challenges/CML/bin/CML\n'
p147
I0
tp148
a(I8880
S'start_time     : 1500133483\nlast_update    : 1500142318\nfuzzer_pid     : 9632\ncycles_done    : 0\nexecs_done     : 3599425\nexecs_per_sec  : 425.70\npaths_total    : 348\npaths_favored  : 110\npaths_found    : 347\npaths_imported : 0\nmax_depth      : 5\ncur_path       : 228\npending_favs   : 64\npending_total  : 274\nvariable_paths : 0\nbitmap_cvg     : 1.44%\nunique_crashes : 15\nunique_hangs   : 0\nlast_path      : 1500142063\nlast_crash     : 1500140570\nlast_hang      : 0\nexec_timeout   : 20\nafl_banner     : fuzzer-master\nafl_version    : 1.85b\ncommand_line   : /home/skaramcheti/.virtualenvs/afl/bin/afl-unix/afl-fuzz -i /dev/shm/work/CML/input -o /dev/shm/work/CML/sync -m 4G -Q -M fuzzer-master -x /dev/shm/work/CML/CML.dict -- data/linux/processed-challenges/CML/bin/CML\n'
p149
I0
tp150
a(I9000
S'start_time     : 1500133483\nlast_update    : 1500142439\nfuzzer_pid     : 9632\ncycles_done    : 0\nexecs_done     : 3647654\nexecs_per_sec  : 393.93\npaths_total    : 348\npaths_favored  : 110\npaths_found    : 347\npaths_imported : 0\nmax_depth      : 5\ncur_path       : 231\npending_favs   : 63\npending_total  : 273\nvariable_paths : 0\nbitmap_cvg     : 1.44%\nunique_crashes : 15\nunique_hangs   : 1\nlast_path      : 1500142063\nlast_crash     : 1500140570\nlast_hang      : 1500142377\nexec_timeout   : 20\nafl_banner     : fuzzer-master\nafl_version    : 1.85b\ncommand_line   : /home/skaramcheti/.virtualenvs/afl/bin/afl-unix/afl-fuzz -i /dev/shm/work/CML/input -o /dev/shm/work/CML/sync -m 4G -Q -M fuzzer-master -x /dev/shm/work/CML/CML.dict -- data/linux/processed-challenges/CML/bin/CML\n'
p151
I2
tp152
a(I9120
S'start_time     : 1500133483\nlast_update    : 1500142559\nfuzzer_pid     : 9632\ncycles_done    : 0\nexecs_done     : 3695642\nexecs_per_sec  : 394.68\npaths_total    : 354\npaths_favored  : 110\npaths_found    : 353\npaths_imported : 0\nmax_depth      : 6\ncur_path       : 231\npending_favs   : 63\npending_total  : 279\nvariable_paths : 0\nbitmap_cvg     : 1.44%\nunique_crashes : 18\nunique_hangs   : 1\nlast_path      : 1500142528\nlast_crash     : 1500142535\nlast_hang      : 1500142377\nexec_timeout   : 20\nafl_banner     : fuzzer-master\nafl_version    : 1.85b\ncommand_line   : /home/skaramcheti/.virtualenvs/afl/bin/afl-unix/afl-fuzz -i /dev/shm/work/CML/input -o /dev/shm/work/CML/sync -m 4G -Q -M fuzzer-master -x /dev/shm/work/CML/CML.dict -- data/linux/processed-challenges/CML/bin/CML\n'
p153
I6
tp154
a(I9240
S'start_time     : 1500133483\nlast_update    : 1500142679\nfuzzer_pid     : 9632\ncycles_done    : 0\nexecs_done     : 3744616\nexecs_per_sec  : 416.99\npaths_total    : 356\npaths_favored  : 110\npaths_found    : 355\npaths_imported : 0\nmax_depth      : 6\ncur_path       : 231\npending_favs   : 63\npending_total  : 281\nvariable_paths : 0\nbitmap_cvg     : 1.44%\nunique_crashes : 18\nunique_hangs   : 1\nlast_path      : 1500142609\nlast_crash     : 1500142535\nlast_hang      : 1500142377\nexec_timeout   : 20\nafl_banner     : fuzzer-master\nafl_version    : 1.85b\ncommand_line   : /home/skaramcheti/.virtualenvs/afl/bin/afl-unix/afl-fuzz -i /dev/shm/work/CML/input -o /dev/shm/work/CML/sync -m 4G -Q -M fuzzer-master -x /dev/shm/work/CML/CML.dict -- data/linux/processed-challenges/CML/bin/CML\n'
p155
I0
tp156
a(I9360
S'start_time     : 1500133483\nlast_update    : 1500142800\nfuzzer_pid     : 9632\ncycles_done    : 0\nexecs_done     : 3793794\nexecs_per_sec  : 421.61\npaths_total    : 357\npaths_favored  : 110\npaths_found    : 356\npaths_imported : 0\nmax_depth      : 6\ncur_path       : 231\npending_favs   : 63\npending_total  : 282\nvariable_paths : 0\nbitmap_cvg     : 1.44%\nunique_crashes : 20\nunique_hangs   : 2\nlast_path      : 1500142762\nlast_crash     : 1500142727\nlast_hang      : 1500142733\nexec_timeout   : 20\nafl_banner     : fuzzer-master\nafl_version    : 1.85b\ncommand_line   : /home/skaramcheti/.virtualenvs/afl/bin/afl-unix/afl-fuzz -i /dev/shm/work/CML/input -o /dev/shm/work/CML/sync -m 4G -Q -M fuzzer-master -x /dev/shm/work/CML/CML.dict -- data/linux/processed-challenges/CML/bin/CML\n'
p157
I3
tp158
a(I9480
S'start_time     : 1500133483\nlast_update    : 1500142920\nfuzzer_pid     : 9632\ncycles_done    : 0\nexecs_done     : 3842098\nexecs_per_sec  : 392.44\npaths_total    : 359\npaths_favored  : 111\npaths_found    : 358\npaths_imported : 0\nmax_depth      : 6\ncur_path       : 232\npending_favs   : 63\npending_total  : 283\nvariable_paths : 0\nbitmap_cvg     : 1.44%\nunique_crashes : 20\nunique_hangs   : 2\nlast_path      : 1500142820\nlast_crash     : 1500142727\nlast_hang      : 1500142733\nexec_timeout   : 20\nafl_banner     : fuzzer-master\nafl_version    : 1.85b\ncommand_line   : /home/skaramcheti/.virtualenvs/afl/bin/afl-unix/afl-fuzz -i /dev/shm/work/CML/input -o /dev/shm/work/CML/sync -m 4G -Q -M fuzzer-master -x /dev/shm/work/CML/CML.dict -- data/linux/processed-challenges/CML/bin/CML\n'
p159
I1
tp160
a(I9600
S'start_time     : 1500133483\nlast_update    : 1500143040\nfuzzer_pid     : 9632\ncycles_done    : 0\nexecs_done     : 3890717\nexecs_per_sec  : 396.57\npaths_total    : 360\npaths_favored  : 109\npaths_found    : 359\npaths_imported : 0\nmax_depth      : 6\ncur_path       : 235\npending_favs   : 62\npending_total  : 282\nvariable_paths : 0\nbitmap_cvg     : 1.44%\nunique_crashes : 20\nunique_hangs   : 2\nlast_path      : 1500142937\nlast_crash     : 1500142727\nlast_hang      : 1500142733\nexec_timeout   : 20\nafl_banner     : fuzzer-master\nafl_version    : 1.85b\ncommand_line   : /home/skaramcheti/.virtualenvs/afl/bin/afl-unix/afl-fuzz -i /dev/shm/work/CML/input -o /dev/shm/work/CML/sync -m 4G -Q -M fuzzer-master -x /dev/shm/work/CML/CML.dict -- data/linux/processed-challenges/CML/bin/CML\n'
p161
I0
tp162
a(I9720
S'start_time     : 1500133483\nlast_update    : 1500143160\nfuzzer_pid     : 9632\ncycles_done    : 0\nexecs_done     : 3938598\nexecs_per_sec  : 386.12\npaths_total    : 360\npaths_favored  : 109\npaths_found    : 359\npaths_imported : 0\nmax_depth      : 6\ncur_path       : 236\npending_favs   : 61\npending_total  : 281\nvariable_paths : 0\nbitmap_cvg     : 1.44%\nunique_crashes : 20\nunique_hangs   : 2\nlast_path      : 1500142937\nlast_crash     : 1500142727\nlast_hang      : 1500142733\nexec_timeout   : 20\nafl_banner     : fuzzer-master\nafl_version    : 1.85b\ncommand_line   : /home/skaramcheti/.virtualenvs/afl/bin/afl-unix/afl-fuzz -i /dev/shm/work/CML/input -o /dev/shm/work/CML/sync -m 4G -Q -M fuzzer-master -x /dev/shm/work/CML/CML.dict -- data/linux/processed-challenges/CML/bin/CML\n'
p163
I0
tp164
a(I9840
S'start_time     : 1500133483\nlast_update    : 1500143281\nfuzzer_pid     : 9632\ncycles_done    : 0\nexecs_done     : 3987051\nexecs_per_sec  : 389.01\npaths_total    : 361\npaths_favored  : 109\npaths_found    : 360\npaths_imported : 0\nmax_depth      : 6\ncur_path       : 238\npending_favs   : 59\npending_total  : 280\nvariable_paths : 0\nbitmap_cvg     : 1.44%\nunique_crashes : 20\nunique_hangs   : 2\nlast_path      : 1500143264\nlast_crash     : 1500142727\nlast_hang      : 1500142733\nexec_timeout   : 20\nafl_banner     : fuzzer-master\nafl_version    : 1.85b\ncommand_line   : /home/skaramcheti/.virtualenvs/afl/bin/afl-unix/afl-fuzz -i /dev/shm/work/CML/input -o /dev/shm/work/CML/sync -m 4G -Q -M fuzzer-master -x /dev/shm/work/CML/CML.dict -- data/linux/processed-challenges/CML/bin/CML\n'
p165
I2
tp166
a(I9960
S'start_time     : 1500133483\nlast_update    : 1500143401\nfuzzer_pid     : 9632\ncycles_done    : 0\nexecs_done     : 4034858\nexecs_per_sec  : 382.27\npaths_total    : 362\npaths_favored  : 109\npaths_found    : 361\npaths_imported : 0\nmax_depth      : 6\ncur_path       : 240\npending_favs   : 58\npending_total  : 280\nvariable_paths : 0\nbitmap_cvg     : 1.44%\nunique_crashes : 20\nunique_hangs   : 2\nlast_path      : 1500143326\nlast_crash     : 1500142727\nlast_hang      : 1500142733\nexec_timeout   : 20\nafl_banner     : fuzzer-master\nafl_version    : 1.85b\ncommand_line   : /home/skaramcheti/.virtualenvs/afl/bin/afl-unix/afl-fuzz -i /dev/shm/work/CML/input -o /dev/shm/work/CML/sync -m 4G -Q -M fuzzer-master -x /dev/shm/work/CML/CML.dict -- data/linux/processed-challenges/CML/bin/CML\n'
p167
I1
tp168
a(I10080
S'start_time     : 1500133483\nlast_update    : 1500143521\nfuzzer_pid     : 9632\ncycles_done    : 0\nexecs_done     : 4082674\nexecs_per_sec  : 409.29\npaths_total    : 363\npaths_favored  : 110\npaths_found    : 362\npaths_imported : 0\nmax_depth      : 6\ncur_path       : 242\npending_favs   : 58\npending_total  : 280\nvariable_paths : 0\nbitmap_cvg     : 1.44%\nunique_crashes : 20\nunique_hangs   : 3\nlast_path      : 1500143443\nlast_crash     : 1500142727\nlast_hang      : 1500143451\nexec_timeout   : 20\nafl_banner     : fuzzer-master\nafl_version    : 1.85b\ncommand_line   : /home/skaramcheti/.virtualenvs/afl/bin/afl-unix/afl-fuzz -i /dev/shm/work/CML/input -o /dev/shm/work/CML/sync -m 4G -Q -M fuzzer-master -x /dev/shm/work/CML/CML.dict -- data/linux/processed-challenges/CML/bin/CML\n'
p169
I0
tp170
a(I10200
S'start_time     : 1500133483\nlast_update    : 1500143641\nfuzzer_pid     : 9632\ncycles_done    : 0\nexecs_done     : 4131988\nexecs_per_sec  : 413.06\npaths_total    : 365\npaths_favored  : 109\npaths_found    : 364\npaths_imported : 0\nmax_depth      : 6\ncur_path       : 245\npending_favs   : 57\npending_total  : 280\nvariable_paths : 0\nbitmap_cvg     : 1.45%\nunique_crashes : 21\nunique_hangs   : 3\nlast_path      : 1500143631\nlast_crash     : 1500143622\nlast_hang      : 1500143451\nexec_timeout   : 20\nafl_banner     : fuzzer-master\nafl_version    : 1.85b\ncommand_line   : /home/skaramcheti/.virtualenvs/afl/bin/afl-unix/afl-fuzz -i /dev/shm/work/CML/input -o /dev/shm/work/CML/sync -m 4G -Q -M fuzzer-master -x /dev/shm/work/CML/CML.dict -- data/linux/processed-challenges/CML/bin/CML\n'
p171
I2
tp172
a(I10320
S'start_time     : 1500133483\nlast_update    : 1500143762\nfuzzer_pid     : 9632\ncycles_done    : 0\nexecs_done     : 4181439\nexecs_per_sec  : 411.69\npaths_total    : 368\npaths_favored  : 110\npaths_found    : 367\npaths_imported : 0\nmax_depth      : 6\ncur_path       : 247\npending_favs   : 57\npending_total  : 282\nvariable_paths : 0\nbitmap_cvg     : 1.45%\nunique_crashes : 21\nunique_hangs   : 3\nlast_path      : 1500143754\nlast_crash     : 1500143622\nlast_hang      : 1500143451\nexec_timeout   : 20\nafl_banner     : fuzzer-master\nafl_version    : 1.85b\ncommand_line   : /home/skaramcheti/.virtualenvs/afl/bin/afl-unix/afl-fuzz -i /dev/shm/work/CML/input -o /dev/shm/work/CML/sync -m 4G -Q -M fuzzer-master -x /dev/shm/work/CML/CML.dict -- data/linux/processed-challenges/CML/bin/CML\n'
p173
I4
tp174
a(I10440
S'start_time     : 1500133483\nlast_update    : 1500143882\nfuzzer_pid     : 9632\ncycles_done    : 0\nexecs_done     : 4231561\nexecs_per_sec  : 411.20\npaths_total    : 369\npaths_favored  : 110\npaths_found    : 368\npaths_imported : 0\nmax_depth      : 6\ncur_path       : 247\npending_favs   : 57\npending_total  : 283\nvariable_paths : 0\nbitmap_cvg     : 1.45%\nunique_crashes : 21\nunique_hangs   : 3\nlast_path      : 1500143768\nlast_crash     : 1500143622\nlast_hang      : 1500143451\nexec_timeout   : 20\nafl_banner     : fuzzer-master\nafl_version    : 1.85b\ncommand_line   : /home/skaramcheti/.virtualenvs/afl/bin/afl-unix/afl-fuzz -i /dev/shm/work/CML/input -o /dev/shm/work/CML/sync -m 4G -Q -M fuzzer-master -x /dev/shm/work/CML/CML.dict -- data/linux/processed-challenges/CML/bin/CML\n'
p175
I1
tp176
a(I10560
S'start_time     : 1500133483\nlast_update    : 1500144002\nfuzzer_pid     : 9632\ncycles_done    : 0\nexecs_done     : 4282325\nexecs_per_sec  : 408.11\npaths_total    : 371\npaths_favored  : 110\npaths_found    : 370\npaths_imported : 0\nmax_depth      : 6\ncur_path       : 247\npending_favs   : 57\npending_total  : 285\nvariable_paths : 0\nbitmap_cvg     : 1.45%\nunique_crashes : 21\nunique_hangs   : 3\nlast_path      : 1500143998\nlast_crash     : 1500143622\nlast_hang      : 1500143451\nexec_timeout   : 20\nafl_banner     : fuzzer-master\nafl_version    : 1.85b\ncommand_line   : /home/skaramcheti/.virtualenvs/afl/bin/afl-unix/afl-fuzz -i /dev/shm/work/CML/input -o /dev/shm/work/CML/sync -m 4G -Q -M fuzzer-master -x /dev/shm/work/CML/CML.dict -- data/linux/processed-challenges/CML/bin/CML\n'
p177
I1
tp178
a(I10680
S'start_time     : 1500133483\nlast_update    : 1500144122\nfuzzer_pid     : 9632\ncycles_done    : 0\nexecs_done     : 4333049\nexecs_per_sec  : 420.98\npaths_total    : 373\npaths_favored  : 110\npaths_found    : 372\npaths_imported : 0\nmax_depth      : 6\ncur_path       : 247\npending_favs   : 57\npending_total  : 287\nvariable_paths : 0\nbitmap_cvg     : 1.45%\nunique_crashes : 21\nunique_hangs   : 3\nlast_path      : 1500144101\nlast_crash     : 1500143622\nlast_hang      : 1500143451\nexec_timeout   : 20\nafl_banner     : fuzzer-master\nafl_version    : 1.85b\ncommand_line   : /home/skaramcheti/.virtualenvs/afl/bin/afl-unix/afl-fuzz -i /dev/shm/work/CML/input -o /dev/shm/work/CML/sync -m 4G -Q -M fuzzer-master -x /dev/shm/work/CML/CML.dict -- data/linux/processed-challenges/CML/bin/CML\n'
p179
I2
tp180
a.