(lp0
(I0
S'start_time     : 1499808951\nlast_update    : 1499808951\nfuzzer_pid     : 14107\ncycles_done    : 0\nexecs_done     : 10\nexecs_per_sec  : 192.31\npaths_total    : 1\npaths_favored  : 1\npaths_found    : 0\npaths_imported : 0\nmax_depth      : 1\ncur_path       : 0\npending_favs   : 1\npending_total  : 1\nvariable_paths : 0\nbitmap_cvg     : 0.39%\nunique_crashes : 0\nunique_hangs   : 0\nlast_path      : 0\nlast_crash     : 0\nlast_hang      : 0\nexec_timeout   : 20\nafl_banner     : fuzzer-master\nafl_version    : 1.85b\ncommand_line   : /home/skaramcheti/.virtualenvs/afl/bin/afl-unix/afl-fuzz -i /dev/shm/work/Movie_Rental_Service_Redux/input -o /dev/shm/work/Movie_Rental_Service_Redux/sync -m 4G -Q -M fuzzer-master -x /dev/shm/work/Movie_Rental_Service_Redux/Movie_Rental_Service_Redux.dict -- data/linux/processed-challenges/Movie_Rental_Service_Redux/bin/Movie_Rental_Service_Redux\n'
p1
I43
tp2
a(I120
S'start_time     : 1499808951\nlast_update    : 1499809071\nfuzzer_pid     : 14107\ncycles_done    : 0\nexecs_done     : 105938\nexecs_per_sec  : 872.95\npaths_total    : 54\npaths_favored  : 1\npaths_found    : 53\npaths_imported : 0\nmax_depth      : 2\ncur_path       : 0\npending_favs   : 1\npending_total  : 54\nvariable_paths : 0\nbitmap_cvg     : 0.77%\nunique_crashes : 0\nunique_hangs   : 0\nlast_path      : 1499809050\nlast_crash     : 0\nlast_hang      : 0\nexec_timeout   : 20\nafl_banner     : fuzzer-master\nafl_version    : 1.85b\ncommand_line   : /home/skaramcheti/.virtualenvs/afl/bin/afl-unix/afl-fuzz -i /dev/shm/work/Movie_Rental_Service_Redux/input -o /dev/shm/work/Movie_Rental_Service_Redux/sync -m 4G -Q -M fuzzer-master -x /dev/shm/work/Movie_Rental_Service_Redux/Movie_Rental_Service_Redux.dict -- data/linux/processed-challenges/Movie_Rental_Service_Redux/bin/Movie_Rental_Service_Redux\n'
p3
I12
tp4
a(I240
S'start_time     : 1499808951\nlast_update    : 1499809191\nfuzzer_pid     : 14107\ncycles_done    : 0\nexecs_done     : 212223\nexecs_per_sec  : 876.10\npaths_total    : 68\npaths_favored  : 31\npaths_found    : 67\npaths_imported : 0\nmax_depth      : 3\ncur_path       : 12\npending_favs   : 30\npending_total  : 65\nvariable_paths : 0\nbitmap_cvg     : 0.79%\nunique_crashes : 0\nunique_hangs   : 0\nlast_path      : 1499809183\nlast_crash     : 0\nlast_hang      : 0\nexec_timeout   : 20\nafl_banner     : fuzzer-master\nafl_version    : 1.85b\ncommand_line   : /home/skaramcheti/.virtualenvs/afl/bin/afl-unix/afl-fuzz -i /dev/shm/work/Movie_Rental_Service_Redux/input -o /dev/shm/work/Movie_Rental_Service_Redux/sync -m 4G -Q -M fuzzer-master -x /dev/shm/work/Movie_Rental_Service_Redux/Movie_Rental_Service_Redux.dict -- data/linux/processed-challenges/Movie_Rental_Service_Redux/bin/Movie_Rental_Service_Redux\n'
p5
I14
tp6
a(I360
S'start_time     : 1499808951\nlast_update    : 1499809311\nfuzzer_pid     : 14107\ncycles_done    : 0\nexecs_done     : 318978\nexecs_per_sec  : 879.34\npaths_total    : 76\npaths_favored  : 31\npaths_found    : 75\npaths_imported : 0\nmax_depth      : 3\ncur_path       : 12\npending_favs   : 30\npending_total  : 73\nvariable_paths : 0\nbitmap_cvg     : 0.80%\nunique_crashes : 0\nunique_hangs   : 0\nlast_path      : 1499809262\nlast_crash     : 0\nlast_hang      : 0\nexec_timeout   : 20\nafl_banner     : fuzzer-master\nafl_version    : 1.85b\ncommand_line   : /home/skaramcheti/.virtualenvs/afl/bin/afl-unix/afl-fuzz -i /dev/shm/work/Movie_Rental_Service_Redux/input -o /dev/shm/work/Movie_Rental_Service_Redux/sync -m 4G -Q -M fuzzer-master -x /dev/shm/work/Movie_Rental_Service_Redux/Movie_Rental_Service_Redux.dict -- data/linux/processed-challenges/Movie_Rental_Service_Redux/bin/Movie_Rental_Service_Redux\n'
p7
I7
tp8
a(I480
S'start_time     : 1499808951\nlast_update    : 1499809431\nfuzzer_pid     : 14107\ncycles_done    : 0\nexecs_done     : 422561\nexecs_per_sec  : 860.92\npaths_total    : 95\npaths_favored  : 38\npaths_found    : 94\npaths_imported : 0\nmax_depth      : 3\ncur_path       : 16\npending_favs   : 36\npending_total  : 91\nvariable_paths : 0\nbitmap_cvg     : 0.85%\nunique_crashes : 0\nunique_hangs   : 0\nlast_path      : 1499809429\nlast_crash     : 0\nlast_hang      : 0\nexec_timeout   : 20\nafl_banner     : fuzzer-master\nafl_version    : 1.85b\ncommand_line   : /home/skaramcheti/.virtualenvs/afl/bin/afl-unix/afl-fuzz -i /dev/shm/work/Movie_Rental_Service_Redux/input -o /dev/shm/work/Movie_Rental_Service_Redux/sync -m 4G -Q -M fuzzer-master -x /dev/shm/work/Movie_Rental_Service_Redux/Movie_Rental_Service_Redux.dict -- data/linux/processed-challenges/Movie_Rental_Service_Redux/bin/Movie_Rental_Service_Redux\n'
p9
I20
tp10
a(I600
S'start_time     : 1499808951\nlast_update    : 1499809551\nfuzzer_pid     : 14107\ncycles_done    : 0\nexecs_done     : 525231\nexecs_per_sec  : 868.95\npaths_total    : 109\npaths_favored  : 56\npaths_found    : 108\npaths_imported : 0\nmax_depth      : 3\ncur_path       : 21\npending_favs   : 53\npending_total  : 104\nvariable_paths : 0\nbitmap_cvg     : 0.88%\nunique_crashes : 0\nunique_hangs   : 0\nlast_path      : 1499809549\nlast_crash     : 0\nlast_hang      : 0\nexec_timeout   : 20\nafl_banner     : fuzzer-master\nafl_version    : 1.85b\ncommand_line   : /home/skaramcheti/.virtualenvs/afl/bin/afl-unix/afl-fuzz -i /dev/shm/work/Movie_Rental_Service_Redux/input -o /dev/shm/work/Movie_Rental_Service_Redux/sync -m 4G -Q -M fuzzer-master -x /dev/shm/work/Movie_Rental_Service_Redux/Movie_Rental_Service_Redux.dict -- data/linux/processed-challenges/Movie_Rental_Service_Redux/bin/Movie_Rental_Service_Redux\n'
p11
I14
tp12
a(I720
S'start_time     : 1499808951\nlast_update    : 1499809671\nfuzzer_pid     : 14107\ncycles_done    : 0\nexecs_done     : 629805\nexecs_per_sec  : 866.60\npaths_total    : 125\npaths_favored  : 56\npaths_found    : 124\npaths_imported : 0\nmax_depth      : 3\ncur_path       : 21\npending_favs   : 53\npending_total  : 120\nvariable_paths : 0\nbitmap_cvg     : 0.89%\nunique_crashes : 0\nunique_hangs   : 0\nlast_path      : 1499809666\nlast_crash     : 0\nlast_hang      : 0\nexec_timeout   : 20\nafl_banner     : fuzzer-master\nafl_version    : 1.85b\ncommand_line   : /home/skaramcheti/.virtualenvs/afl/bin/afl-unix/afl-fuzz -i /dev/shm/work/Movie_Rental_Service_Redux/input -o /dev/shm/work/Movie_Rental_Service_Redux/sync -m 4G -Q -M fuzzer-master -x /dev/shm/work/Movie_Rental_Service_Redux/Movie_Rental_Service_Redux.dict -- data/linux/processed-challenges/Movie_Rental_Service_Redux/bin/Movie_Rental_Service_Redux\n'
p13
I16
tp14
a(I840
S'start_time     : 1499808951\nlast_update    : 1499809791\nfuzzer_pid     : 14107\ncycles_done    : 0\nexecs_done     : 731851\nexecs_per_sec  : 858.99\npaths_total    : 136\npaths_favored  : 65\npaths_found    : 135\npaths_imported : 0\nmax_depth      : 3\ncur_path       : 32\npending_favs   : 63\npending_total  : 129\nvariable_paths : 0\nbitmap_cvg     : 0.91%\nunique_crashes : 0\nunique_hangs   : 0\nlast_path      : 1499809771\nlast_crash     : 0\nlast_hang      : 0\nexec_timeout   : 20\nafl_banner     : fuzzer-master\nafl_version    : 1.85b\ncommand_line   : /home/skaramcheti/.virtualenvs/afl/bin/afl-unix/afl-fuzz -i /dev/shm/work/Movie_Rental_Service_Redux/input -o /dev/shm/work/Movie_Rental_Service_Redux/sync -m 4G -Q -M fuzzer-master -x /dev/shm/work/Movie_Rental_Service_Redux/Movie_Rental_Service_Redux.dict -- data/linux/processed-challenges/Movie_Rental_Service_Redux/bin/Movie_Rental_Service_Redux\n'
p15
I10
tp16
a(I960
S'start_time     : 1499808951\nlast_update    : 1499809911\nfuzzer_pid     : 14107\ncycles_done    : 0\nexecs_done     : 833977\nexecs_per_sec  : 821.64\npaths_total    : 142\npaths_favored  : 65\npaths_found    : 141\npaths_imported : 0\nmax_depth      : 3\ncur_path       : 32\npending_favs   : 63\npending_total  : 135\nvariable_paths : 0\nbitmap_cvg     : 0.92%\nunique_crashes : 0\nunique_hangs   : 0\nlast_path      : 1499809885\nlast_crash     : 0\nlast_hang      : 0\nexec_timeout   : 20\nafl_banner     : fuzzer-master\nafl_version    : 1.85b\ncommand_line   : /home/skaramcheti/.virtualenvs/afl/bin/afl-unix/afl-fuzz -i /dev/shm/work/Movie_Rental_Service_Redux/input -o /dev/shm/work/Movie_Rental_Service_Redux/sync -m 4G -Q -M fuzzer-master -x /dev/shm/work/Movie_Rental_Service_Redux/Movie_Rental_Service_Redux.dict -- data/linux/processed-challenges/Movie_Rental_Service_Redux/bin/Movie_Rental_Service_Redux\n'
p17
I7
tp18
a(I1080
S'start_time     : 1499808951\nlast_update    : 1499810031\nfuzzer_pid     : 14107\ncycles_done    : 0\nexecs_done     : 918267\nexecs_per_sec  : 565.21\npaths_total    : 152\npaths_favored  : 73\npaths_found    : 151\npaths_imported : 0\nmax_depth      : 3\ncur_path       : 44\npending_favs   : 65\npending_total  : 139\nvariable_paths : 0\nbitmap_cvg     : 0.92%\nunique_crashes : 0\nunique_hangs   : 0\nlast_path      : 1499810031\nlast_crash     : 0\nlast_hang      : 0\nexec_timeout   : 20\nafl_banner     : fuzzer-master\nafl_version    : 1.85b\ncommand_line   : /home/skaramcheti/.virtualenvs/afl/bin/afl-unix/afl-fuzz -i /dev/shm/work/Movie_Rental_Service_Redux/input -o /dev/shm/work/Movie_Rental_Service_Redux/sync -m 4G -Q -M fuzzer-master -x /dev/shm/work/Movie_Rental_Service_Redux/Movie_Rental_Service_Redux.dict -- data/linux/processed-challenges/Movie_Rental_Service_Redux/bin/Movie_Rental_Service_Redux\n'
p19
I9
tp20
a(I1200
S'start_time     : 1499808951\nlast_update    : 1499810152\nfuzzer_pid     : 14107\ncycles_done    : 0\nexecs_done     : 995144\nexecs_per_sec  : 628.61\npaths_total    : 166\npaths_favored  : 73\npaths_found    : 165\npaths_imported : 0\nmax_depth      : 3\ncur_path       : 44\npending_favs   : 65\npending_total  : 153\nvariable_paths : 0\nbitmap_cvg     : 0.94%\nunique_crashes : 0\nunique_hangs   : 0\nlast_path      : 1499810131\nlast_crash     : 0\nlast_hang      : 0\nexec_timeout   : 20\nafl_banner     : fuzzer-master\nafl_version    : 1.85b\ncommand_line   : /home/skaramcheti/.virtualenvs/afl/bin/afl-unix/afl-fuzz -i /dev/shm/work/Movie_Rental_Service_Redux/input -o /dev/shm/work/Movie_Rental_Service_Redux/sync -m 4G -Q -M fuzzer-master -x /dev/shm/work/Movie_Rental_Service_Redux/Movie_Rental_Service_Redux.dict -- data/linux/processed-challenges/Movie_Rental_Service_Redux/bin/Movie_Rental_Service_Redux\n'
p21
I15
tp22
a(I1320
S'start_time     : 1499808951\nlast_update    : 1499810272\nfuzzer_pid     : 14107\ncycles_done    : 0\nexecs_done     : 1071578\nexecs_per_sec  : 651.31\npaths_total    : 172\npaths_favored  : 73\npaths_found    : 171\npaths_imported : 0\nmax_depth      : 3\ncur_path       : 44\npending_favs   : 65\npending_total  : 159\nvariable_paths : 0\nbitmap_cvg     : 0.94%\nunique_crashes : 0\nunique_hangs   : 0\nlast_path      : 1499810231\nlast_crash     : 0\nlast_hang      : 0\nexec_timeout   : 20\nafl_banner     : fuzzer-master\nafl_version    : 1.85b\ncommand_line   : /home/skaramcheti/.virtualenvs/afl/bin/afl-unix/afl-fuzz -i /dev/shm/work/Movie_Rental_Service_Redux/input -o /dev/shm/work/Movie_Rental_Service_Redux/sync -m 4G -Q -M fuzzer-master -x /dev/shm/work/Movie_Rental_Service_Redux/Movie_Rental_Service_Redux.dict -- data/linux/processed-challenges/Movie_Rental_Service_Redux/bin/Movie_Rental_Service_Redux\n'
p23
I5
tp24
a(I1440
S'start_time     : 1499808951\nlast_update    : 1499810392\nfuzzer_pid     : 14107\ncycles_done    : 0\nexecs_done     : 1156279\nexecs_per_sec  : 825.32\npaths_total    : 177\npaths_favored  : 84\npaths_found    : 176\npaths_imported : 0\nmax_depth      : 4\ncur_path       : 63\npending_favs   : 70\npending_total  : 155\nvariable_paths : 0\nbitmap_cvg     : 0.94%\nunique_crashes : 0\nunique_hangs   : 0\nlast_path      : 1499810385\nlast_crash     : 0\nlast_hang      : 0\nexec_timeout   : 20\nafl_banner     : fuzzer-master\nafl_version    : 1.85b\ncommand_line   : /home/skaramcheti/.virtualenvs/afl/bin/afl-unix/afl-fuzz -i /dev/shm/work/Movie_Rental_Service_Redux/input -o /dev/shm/work/Movie_Rental_Service_Redux/sync -m 4G -Q -M fuzzer-master -x /dev/shm/work/Movie_Rental_Service_Redux/Movie_Rental_Service_Redux.dict -- data/linux/processed-challenges/Movie_Rental_Service_Redux/bin/Movie_Rental_Service_Redux\n'
p25
I5
tp26
a(I1560
S'start_time     : 1499808951\nlast_update    : 1499810512\nfuzzer_pid     : 14107\ncycles_done    : 0\nexecs_done     : 1253640\nexecs_per_sec  : 852.54\npaths_total    : 180\npaths_favored  : 87\npaths_found    : 179\npaths_imported : 0\nmax_depth      : 4\ncur_path       : 71\npending_favs   : 69\npending_total  : 153\nvariable_paths : 0\nbitmap_cvg     : 0.95%\nunique_crashes : 0\nunique_hangs   : 0\nlast_path      : 1499810441\nlast_crash     : 0\nlast_hang      : 0\nexec_timeout   : 20\nafl_banner     : fuzzer-master\nafl_version    : 1.85b\ncommand_line   : /home/skaramcheti/.virtualenvs/afl/bin/afl-unix/afl-fuzz -i /dev/shm/work/Movie_Rental_Service_Redux/input -o /dev/shm/work/Movie_Rental_Service_Redux/sync -m 4G -Q -M fuzzer-master -x /dev/shm/work/Movie_Rental_Service_Redux/Movie_Rental_Service_Redux.dict -- data/linux/processed-challenges/Movie_Rental_Service_Redux/bin/Movie_Rental_Service_Redux\n'
p27
I4
tp28
a(I1680
S'start_time     : 1499808951\nlast_update    : 1499810632\nfuzzer_pid     : 14107\ncycles_done    : 0\nexecs_done     : 1335370\nexecs_per_sec  : 648.99\npaths_total    : 185\npaths_favored  : 91\npaths_found    : 184\npaths_imported : 0\nmax_depth      : 4\ncur_path       : 82\npending_favs   : 68\npending_total  : 152\nvariable_paths : 0\nbitmap_cvg     : 0.96%\nunique_crashes : 0\nunique_hangs   : 0\nlast_path      : 1499810556\nlast_crash     : 0\nlast_hang      : 0\nexec_timeout   : 20\nafl_banner     : fuzzer-master\nafl_version    : 1.85b\ncommand_line   : /home/skaramcheti/.virtualenvs/afl/bin/afl-unix/afl-fuzz -i /dev/shm/work/Movie_Rental_Service_Redux/input -o /dev/shm/work/Movie_Rental_Service_Redux/sync -m 4G -Q -M fuzzer-master -x /dev/shm/work/Movie_Rental_Service_Redux/Movie_Rental_Service_Redux.dict -- data/linux/processed-challenges/Movie_Rental_Service_Redux/bin/Movie_Rental_Service_Redux\n'
p29
I4
tp30
a(I1800
S'start_time     : 1499808951\nlast_update    : 1499810753\nfuzzer_pid     : 14107\ncycles_done    : 0\nexecs_done     : 1388397\nexecs_per_sec  : 253.78\npaths_total    : 186\npaths_favored  : 91\npaths_found    : 185\npaths_imported : 0\nmax_depth      : 4\ncur_path       : 86\npending_favs   : 65\npending_total  : 150\nvariable_paths : 0\nbitmap_cvg     : 0.96%\nunique_crashes : 0\nunique_hangs   : 0\nlast_path      : 1499810646\nlast_crash     : 0\nlast_hang      : 0\nexec_timeout   : 20\nafl_banner     : fuzzer-master\nafl_version    : 1.85b\ncommand_line   : /home/skaramcheti/.virtualenvs/afl/bin/afl-unix/afl-fuzz -i /dev/shm/work/Movie_Rental_Service_Redux/input -o /dev/shm/work/Movie_Rental_Service_Redux/sync -m 4G -Q -M fuzzer-master -x /dev/shm/work/Movie_Rental_Service_Redux/Movie_Rental_Service_Redux.dict -- data/linux/processed-challenges/Movie_Rental_Service_Redux/bin/Movie_Rental_Service_Redux\n'
p31
I1
tp32
a(I1920
S'start_time     : 1499808951\nlast_update    : 1499810873\nfuzzer_pid     : 14107\ncycles_done    : 0\nexecs_done     : 1436290\nexecs_per_sec  : 445.11\npaths_total    : 196\npaths_favored  : 91\npaths_found    : 195\npaths_imported : 0\nmax_depth      : 4\ncur_path       : 86\npending_favs   : 65\npending_total  : 160\nvariable_paths : 0\nbitmap_cvg     : 1.03%\nunique_crashes : 0\nunique_hangs   : 0\nlast_path      : 1499810858\nlast_crash     : 0\nlast_hang      : 0\nexec_timeout   : 20\nafl_banner     : fuzzer-master\nafl_version    : 1.85b\ncommand_line   : /home/skaramcheti/.virtualenvs/afl/bin/afl-unix/afl-fuzz -i /dev/shm/work/Movie_Rental_Service_Redux/input -o /dev/shm/work/Movie_Rental_Service_Redux/sync -m 4G -Q -M fuzzer-master -x /dev/shm/work/Movie_Rental_Service_Redux/Movie_Rental_Service_Redux.dict -- data/linux/processed-challenges/Movie_Rental_Service_Redux/bin/Movie_Rental_Service_Redux\n'
p33
I10
tp34
a(I2040
S'start_time     : 1499808951\nlast_update    : 1499810993\nfuzzer_pid     : 14107\ncycles_done    : 0\nexecs_done     : 1489818\nexecs_per_sec  : 442.81\npaths_total    : 200\npaths_favored  : 91\npaths_found    : 199\npaths_imported : 0\nmax_depth      : 4\ncur_path       : 86\npending_favs   : 65\npending_total  : 164\nvariable_paths : 0\nbitmap_cvg     : 1.04%\nunique_crashes : 0\nunique_hangs   : 1\nlast_path      : 1499810954\nlast_crash     : 0\nlast_hang      : 1499810903\nexec_timeout   : 20\nafl_banner     : fuzzer-master\nafl_version    : 1.85b\ncommand_line   : /home/skaramcheti/.virtualenvs/afl/bin/afl-unix/afl-fuzz -i /dev/shm/work/Movie_Rental_Service_Redux/input -o /dev/shm/work/Movie_Rental_Service_Redux/sync -m 4G -Q -M fuzzer-master -x /dev/shm/work/Movie_Rental_Service_Redux/Movie_Rental_Service_Redux.dict -- data/linux/processed-challenges/Movie_Rental_Service_Redux/bin/Movie_Rental_Service_Redux\n'
p35
I4
tp36
a(I2160
S'start_time     : 1499808951\nlast_update    : 1499811113\nfuzzer_pid     : 14107\ncycles_done    : 0\nexecs_done     : 1567561\nexecs_per_sec  : 803.37\npaths_total    : 203\npaths_favored  : 98\npaths_found    : 202\npaths_imported : 0\nmax_depth      : 4\ncur_path       : 89\npending_favs   : 69\npending_total  : 164\nvariable_paths : 0\nbitmap_cvg     : 1.05%\nunique_crashes : 0\nunique_hangs   : 1\nlast_path      : 1499811041\nlast_crash     : 0\nlast_hang      : 1499810903\nexec_timeout   : 20\nafl_banner     : fuzzer-master\nafl_version    : 1.85b\ncommand_line   : /home/skaramcheti/.virtualenvs/afl/bin/afl-unix/afl-fuzz -i /dev/shm/work/Movie_Rental_Service_Redux/input -o /dev/shm/work/Movie_Rental_Service_Redux/sync -m 4G -Q -M fuzzer-master -x /dev/shm/work/Movie_Rental_Service_Redux/Movie_Rental_Service_Redux.dict -- data/linux/processed-challenges/Movie_Rental_Service_Redux/bin/Movie_Rental_Service_Redux\n'
p37
I3
tp38
a(I2280
S'start_time     : 1499808951\nlast_update    : 1499811234\nfuzzer_pid     : 14107\ncycles_done    : 0\nexecs_done     : 1661645\nexecs_per_sec  : 715.55\npaths_total    : 203\npaths_favored  : 98\npaths_found    : 202\npaths_imported : 0\nmax_depth      : 4\ncur_path       : 97\npending_favs   : 64\npending_total  : 159\nvariable_paths : 0\nbitmap_cvg     : 1.05%\nunique_crashes : 0\nunique_hangs   : 1\nlast_path      : 1499811041\nlast_crash     : 0\nlast_hang      : 1499810903\nexec_timeout   : 20\nafl_banner     : fuzzer-master\nafl_version    : 1.85b\ncommand_line   : /home/skaramcheti/.virtualenvs/afl/bin/afl-unix/afl-fuzz -i /dev/shm/work/Movie_Rental_Service_Redux/input -o /dev/shm/work/Movie_Rental_Service_Redux/sync -m 4G -Q -M fuzzer-master -x /dev/shm/work/Movie_Rental_Service_Redux/Movie_Rental_Service_Redux.dict -- data/linux/processed-challenges/Movie_Rental_Service_Redux/bin/Movie_Rental_Service_Redux\n'
p39
I0
tp40
a(I2400
S'start_time     : 1499808951\nlast_update    : 1499811354\nfuzzer_pid     : 14107\ncycles_done    : 0\nexecs_done     : 1755817\nexecs_per_sec  : 776.41\npaths_total    : 203\npaths_favored  : 98\npaths_found    : 202\npaths_imported : 0\nmax_depth      : 4\ncur_path       : 102\npending_favs   : 60\npending_total  : 155\nvariable_paths : 0\nbitmap_cvg     : 1.05%\nunique_crashes : 0\nunique_hangs   : 1\nlast_path      : 1499811041\nlast_crash     : 0\nlast_hang      : 1499810903\nexec_timeout   : 20\nafl_banner     : fuzzer-master\nafl_version    : 1.85b\ncommand_line   : /home/skaramcheti/.virtualenvs/afl/bin/afl-unix/afl-fuzz -i /dev/shm/work/Movie_Rental_Service_Redux/input -o /dev/shm/work/Movie_Rental_Service_Redux/sync -m 4G -Q -M fuzzer-master -x /dev/shm/work/Movie_Rental_Service_Redux/Movie_Rental_Service_Redux.dict -- data/linux/processed-challenges/Movie_Rental_Service_Redux/bin/Movie_Rental_Service_Redux\n'
p41
I0
tp42
a(I2520
S'start_time     : 1499808951\nlast_update    : 1499811474\nfuzzer_pid     : 14107\ncycles_done    : 0\nexecs_done     : 1851212\nexecs_per_sec  : 817.17\npaths_total    : 211\npaths_favored  : 99\npaths_found    : 210\npaths_imported : 0\nmax_depth      : 4\ncur_path       : 108\npending_favs   : 56\npending_total  : 158\nvariable_paths : 0\nbitmap_cvg     : 1.05%\nunique_crashes : 0\nunique_hangs   : 1\nlast_path      : 1499811470\nlast_crash     : 0\nlast_hang      : 1499810903\nexec_timeout   : 20\nafl_banner     : fuzzer-master\nafl_version    : 1.85b\ncommand_line   : /home/skaramcheti/.virtualenvs/afl/bin/afl-unix/afl-fuzz -i /dev/shm/work/Movie_Rental_Service_Redux/input -o /dev/shm/work/Movie_Rental_Service_Redux/sync -m 4G -Q -M fuzzer-master -x /dev/shm/work/Movie_Rental_Service_Redux/Movie_Rental_Service_Redux.dict -- data/linux/processed-challenges/Movie_Rental_Service_Redux/bin/Movie_Rental_Service_Redux\n'
p43
I8
tp44
a(I2640
S'start_time     : 1499808951\nlast_update    : 1499811594\nfuzzer_pid     : 14107\ncycles_done    : 0\nexecs_done     : 1948842\nexecs_per_sec  : 814.45\npaths_total    : 214\npaths_favored  : 99\npaths_found    : 213\npaths_imported : 0\nmax_depth      : 4\ncur_path       : 108\npending_favs   : 56\npending_total  : 161\nvariable_paths : 0\nbitmap_cvg     : 1.05%\nunique_crashes : 0\nunique_hangs   : 1\nlast_path      : 1499811576\nlast_crash     : 0\nlast_hang      : 1499810903\nexec_timeout   : 20\nafl_banner     : fuzzer-master\nafl_version    : 1.85b\ncommand_line   : /home/skaramcheti/.virtualenvs/afl/bin/afl-unix/afl-fuzz -i /dev/shm/work/Movie_Rental_Service_Redux/input -o /dev/shm/work/Movie_Rental_Service_Redux/sync -m 4G -Q -M fuzzer-master -x /dev/shm/work/Movie_Rental_Service_Redux/Movie_Rental_Service_Redux.dict -- data/linux/processed-challenges/Movie_Rental_Service_Redux/bin/Movie_Rental_Service_Redux\n'
p45
I3
tp46
a(I2760
S'start_time     : 1499808951\nlast_update    : 1499811715\nfuzzer_pid     : 14107\ncycles_done    : 0\nexecs_done     : 2024455\nexecs_per_sec  : 262.86\npaths_total    : 214\npaths_favored  : 98\npaths_found    : 213\npaths_imported : 0\nmax_depth      : 4\ncur_path       : 115\npending_favs   : 54\npending_total  : 159\nvariable_paths : 0\nbitmap_cvg     : 1.05%\nunique_crashes : 0\nunique_hangs   : 1\nlast_path      : 1499811576\nlast_crash     : 0\nlast_hang      : 1499810903\nexec_timeout   : 20\nafl_banner     : fuzzer-master\nafl_version    : 1.85b\ncommand_line   : /home/skaramcheti/.virtualenvs/afl/bin/afl-unix/afl-fuzz -i /dev/shm/work/Movie_Rental_Service_Redux/input -o /dev/shm/work/Movie_Rental_Service_Redux/sync -m 4G -Q -M fuzzer-master -x /dev/shm/work/Movie_Rental_Service_Redux/Movie_Rental_Service_Redux.dict -- data/linux/processed-challenges/Movie_Rental_Service_Redux/bin/Movie_Rental_Service_Redux\n'
p47
I0
tp48
a(I2880
S'start_time     : 1499808951\nlast_update    : 1499811835\nfuzzer_pid     : 14107\ncycles_done    : 0\nexecs_done     : 2085997\nexecs_per_sec  : 398.32\npaths_total    : 214\npaths_favored  : 98\npaths_found    : 213\npaths_imported : 0\nmax_depth      : 4\ncur_path       : 124\npending_favs   : 50\npending_total  : 155\nvariable_paths : 0\nbitmap_cvg     : 1.05%\nunique_crashes : 0\nunique_hangs   : 1\nlast_path      : 1499811576\nlast_crash     : 0\nlast_hang      : 1499810903\nexec_timeout   : 20\nafl_banner     : fuzzer-master\nafl_version    : 1.85b\ncommand_line   : /home/skaramcheti/.virtualenvs/afl/bin/afl-unix/afl-fuzz -i /dev/shm/work/Movie_Rental_Service_Redux/input -o /dev/shm/work/Movie_Rental_Service_Redux/sync -m 4G -Q -M fuzzer-master -x /dev/shm/work/Movie_Rental_Service_Redux/Movie_Rental_Service_Redux.dict -- data/linux/processed-challenges/Movie_Rental_Service_Redux/bin/Movie_Rental_Service_Redux\n'
p49
I0
tp50
a(I3000
S'start_time     : 1499808951\nlast_update    : 1499811955\nfuzzer_pid     : 14107\ncycles_done    : 0\nexecs_done     : 2180582\nexecs_per_sec  : 804.41\npaths_total    : 214\npaths_favored  : 98\npaths_found    : 213\npaths_imported : 0\nmax_depth      : 4\ncur_path       : 129\npending_favs   : 46\npending_total  : 151\nvariable_paths : 0\nbitmap_cvg     : 1.05%\nunique_crashes : 0\nunique_hangs   : 1\nlast_path      : 1499811576\nlast_crash     : 0\nlast_hang      : 1499810903\nexec_timeout   : 20\nafl_banner     : fuzzer-master\nafl_version    : 1.85b\ncommand_line   : /home/skaramcheti/.virtualenvs/afl/bin/afl-unix/afl-fuzz -i /dev/shm/work/Movie_Rental_Service_Redux/input -o /dev/shm/work/Movie_Rental_Service_Redux/sync -m 4G -Q -M fuzzer-master -x /dev/shm/work/Movie_Rental_Service_Redux/Movie_Rental_Service_Redux.dict -- data/linux/processed-challenges/Movie_Rental_Service_Redux/bin/Movie_Rental_Service_Redux\n'
p51
I0
tp52
a(I3120
S'start_time     : 1499808951\nlast_update    : 1499812075\nfuzzer_pid     : 14107\ncycles_done    : 0\nexecs_done     : 2280132\nexecs_per_sec  : 822.82\npaths_total    : 214\npaths_favored  : 98\npaths_found    : 213\npaths_imported : 0\nmax_depth      : 4\ncur_path       : 134\npending_favs   : 42\npending_total  : 147\nvariable_paths : 0\nbitmap_cvg     : 1.05%\nunique_crashes : 0\nunique_hangs   : 1\nlast_path      : 1499811576\nlast_crash     : 0\nlast_hang      : 1499810903\nexec_timeout   : 20\nafl_banner     : fuzzer-master\nafl_version    : 1.85b\ncommand_line   : /home/skaramcheti/.virtualenvs/afl/bin/afl-unix/afl-fuzz -i /dev/shm/work/Movie_Rental_Service_Redux/input -o /dev/shm/work/Movie_Rental_Service_Redux/sync -m 4G -Q -M fuzzer-master -x /dev/shm/work/Movie_Rental_Service_Redux/Movie_Rental_Service_Redux.dict -- data/linux/processed-challenges/Movie_Rental_Service_Redux/bin/Movie_Rental_Service_Redux\n'
p53
I0
tp54
a(I3240
S'start_time     : 1499808951\nlast_update    : 1499812196\nfuzzer_pid     : 14107\ncycles_done    : 0\nexecs_done     : 2360007\nexecs_per_sec  : 391.21\npaths_total    : 215\npaths_favored  : 98\npaths_found    : 214\npaths_imported : 0\nmax_depth      : 4\ncur_path       : 138\npending_favs   : 39\npending_total  : 144\nvariable_paths : 0\nbitmap_cvg     : 1.05%\nunique_crashes : 0\nunique_hangs   : 1\nlast_path      : 1499812134\nlast_crash     : 0\nlast_hang      : 1499810903\nexec_timeout   : 20\nafl_banner     : fuzzer-master\nafl_version    : 1.85b\ncommand_line   : /home/skaramcheti/.virtualenvs/afl/bin/afl-unix/afl-fuzz -i /dev/shm/work/Movie_Rental_Service_Redux/input -o /dev/shm/work/Movie_Rental_Service_Redux/sync -m 4G -Q -M fuzzer-master -x /dev/shm/work/Movie_Rental_Service_Redux/Movie_Rental_Service_Redux.dict -- data/linux/processed-challenges/Movie_Rental_Service_Redux/bin/Movie_Rental_Service_Redux\n'
p55
I1
tp56
a(I3360
S'start_time     : 1499808951\nlast_update    : 1499812316\nfuzzer_pid     : 14107\ncycles_done    : 0\nexecs_done     : 2407925\nexecs_per_sec  : 862.84\npaths_total    : 215\npaths_favored  : 98\npaths_found    : 214\npaths_imported : 0\nmax_depth      : 4\ncur_path       : 140\npending_favs   : 38\npending_total  : 142\nvariable_paths : 0\nbitmap_cvg     : 1.05%\nunique_crashes : 0\nunique_hangs   : 1\nlast_path      : 1499812134\nlast_crash     : 0\nlast_hang      : 1499810903\nexec_timeout   : 20\nafl_banner     : fuzzer-master\nafl_version    : 1.85b\ncommand_line   : /home/skaramcheti/.virtualenvs/afl/bin/afl-unix/afl-fuzz -i /dev/shm/work/Movie_Rental_Service_Redux/input -o /dev/shm/work/Movie_Rental_Service_Redux/sync -m 4G -Q -M fuzzer-master -x /dev/shm/work/Movie_Rental_Service_Redux/Movie_Rental_Service_Redux.dict -- data/linux/processed-challenges/Movie_Rental_Service_Redux/bin/Movie_Rental_Service_Redux\n'
p57
I0
tp58
a(I3480
S'start_time     : 1499808951\nlast_update    : 1499812436\nfuzzer_pid     : 14107\ncycles_done    : 0\nexecs_done     : 2486630\nexecs_per_sec  : 504.33\npaths_total    : 217\npaths_favored  : 98\npaths_found    : 216\npaths_imported : 0\nmax_depth      : 4\ncur_path       : 145\npending_favs   : 35\npending_total  : 141\nvariable_paths : 0\nbitmap_cvg     : 1.05%\nunique_crashes : 0\nunique_hangs   : 1\nlast_path      : 1499812432\nlast_crash     : 0\nlast_hang      : 1499810903\nexec_timeout   : 20\nafl_banner     : fuzzer-master\nafl_version    : 1.85b\ncommand_line   : /home/skaramcheti/.virtualenvs/afl/bin/afl-unix/afl-fuzz -i /dev/shm/work/Movie_Rental_Service_Redux/input -o /dev/shm/work/Movie_Rental_Service_Redux/sync -m 4G -Q -M fuzzer-master -x /dev/shm/work/Movie_Rental_Service_Redux/Movie_Rental_Service_Redux.dict -- data/linux/processed-challenges/Movie_Rental_Service_Redux/bin/Movie_Rental_Service_Redux\n'
p59
I2
tp60
a(I3600
S'start_time     : 1499808951\nlast_update    : 1499812556\nfuzzer_pid     : 14107\ncycles_done    : 0\nexecs_done     : 2563971\nexecs_per_sec  : 780.95\npaths_total    : 218\npaths_favored  : 98\npaths_found    : 217\npaths_imported : 0\nmax_depth      : 4\ncur_path       : 151\npending_favs   : 34\npending_total  : 140\nvariable_paths : 0\nbitmap_cvg     : 1.05%\nunique_crashes : 0\nunique_hangs   : 3\nlast_path      : 1499812465\nlast_crash     : 0\nlast_hang      : 1499812477\nexec_timeout   : 20\nafl_banner     : fuzzer-master\nafl_version    : 1.85b\ncommand_line   : /home/skaramcheti/.virtualenvs/afl/bin/afl-unix/afl-fuzz -i /dev/shm/work/Movie_Rental_Service_Redux/input -o /dev/shm/work/Movie_Rental_Service_Redux/sync -m 4G -Q -M fuzzer-master -x /dev/shm/work/Movie_Rental_Service_Redux/Movie_Rental_Service_Redux.dict -- data/linux/processed-challenges/Movie_Rental_Service_Redux/bin/Movie_Rental_Service_Redux\n'
p61
I1
tp62
a(I3720
S'start_time     : 1499808951\nlast_update    : 1499812676\nfuzzer_pid     : 14107\ncycles_done    : 0\nexecs_done     : 2599373\nexecs_per_sec  : 283.91\npaths_total    : 218\npaths_favored  : 98\npaths_found    : 217\npaths_imported : 0\nmax_depth      : 4\ncur_path       : 152\npending_favs   : 33\npending_total  : 139\nvariable_paths : 0\nbitmap_cvg     : 1.05%\nunique_crashes : 0\nunique_hangs   : 3\nlast_path      : 1499812465\nlast_crash     : 0\nlast_hang      : 1499812477\nexec_timeout   : 20\nafl_banner     : fuzzer-master\nafl_version    : 1.85b\ncommand_line   : /home/skaramcheti/.virtualenvs/afl/bin/afl-unix/afl-fuzz -i /dev/shm/work/Movie_Rental_Service_Redux/input -o /dev/shm/work/Movie_Rental_Service_Redux/sync -m 4G -Q -M fuzzer-master -x /dev/shm/work/Movie_Rental_Service_Redux/Movie_Rental_Service_Redux.dict -- data/linux/processed-challenges/Movie_Rental_Service_Redux/bin/Movie_Rental_Service_Redux\n'
p63
I0
tp64
a(I3840
S'start_time     : 1499808951\nlast_update    : 1499812797\nfuzzer_pid     : 14107\ncycles_done    : 0\nexecs_done     : 2644868\nexecs_per_sec  : 446.06\npaths_total    : 222\npaths_favored  : 98\npaths_found    : 221\npaths_imported : 0\nmax_depth      : 4\ncur_path       : 152\npending_favs   : 33\npending_total  : 143\nvariable_paths : 0\nbitmap_cvg     : 1.05%\nunique_crashes : 0\nunique_hangs   : 3\nlast_path      : 1499812778\nlast_crash     : 0\nlast_hang      : 1499812477\nexec_timeout   : 20\nafl_banner     : fuzzer-master\nafl_version    : 1.85b\ncommand_line   : /home/skaramcheti/.virtualenvs/afl/bin/afl-unix/afl-fuzz -i /dev/shm/work/Movie_Rental_Service_Redux/input -o /dev/shm/work/Movie_Rental_Service_Redux/sync -m 4G -Q -M fuzzer-master -x /dev/shm/work/Movie_Rental_Service_Redux/Movie_Rental_Service_Redux.dict -- data/linux/processed-challenges/Movie_Rental_Service_Redux/bin/Movie_Rental_Service_Redux\n'
p65
I4
tp66
a(I3960
S'start_time     : 1499808951\nlast_update    : 1499812917\nfuzzer_pid     : 14107\ncycles_done    : 0\nexecs_done     : 2697816\nexecs_per_sec  : 445.33\npaths_total    : 224\npaths_favored  : 98\npaths_found    : 223\npaths_imported : 0\nmax_depth      : 4\ncur_path       : 152\npending_favs   : 33\npending_total  : 145\nvariable_paths : 0\nbitmap_cvg     : 1.05%\nunique_crashes : 0\nunique_hangs   : 3\nlast_path      : 1499812865\nlast_crash     : 0\nlast_hang      : 1499812477\nexec_timeout   : 20\nafl_banner     : fuzzer-master\nafl_version    : 1.85b\ncommand_line   : /home/skaramcheti/.virtualenvs/afl/bin/afl-unix/afl-fuzz -i /dev/shm/work/Movie_Rental_Service_Redux/input -o /dev/shm/work/Movie_Rental_Service_Redux/sync -m 4G -Q -M fuzzer-master -x /dev/shm/work/Movie_Rental_Service_Redux/Movie_Rental_Service_Redux.dict -- data/linux/processed-challenges/Movie_Rental_Service_Redux/bin/Movie_Rental_Service_Redux\n'
p67
I2
tp68
a(I4080
S'start_time     : 1499808951\nlast_update    : 1499813037\nfuzzer_pid     : 14107\ncycles_done    : 0\nexecs_done     : 2751880\nexecs_per_sec  : 446.41\npaths_total    : 224\npaths_favored  : 98\npaths_found    : 223\npaths_imported : 0\nmax_depth      : 4\ncur_path       : 152\npending_favs   : 33\npending_total  : 145\nvariable_paths : 0\nbitmap_cvg     : 1.05%\nunique_crashes : 0\nunique_hangs   : 3\nlast_path      : 1499812865\nlast_crash     : 0\nlast_hang      : 1499812477\nexec_timeout   : 20\nafl_banner     : fuzzer-master\nafl_version    : 1.85b\ncommand_line   : /home/skaramcheti/.virtualenvs/afl/bin/afl-unix/afl-fuzz -i /dev/shm/work/Movie_Rental_Service_Redux/input -o /dev/shm/work/Movie_Rental_Service_Redux/sync -m 4G -Q -M fuzzer-master -x /dev/shm/work/Movie_Rental_Service_Redux/Movie_Rental_Service_Redux.dict -- data/linux/processed-challenges/Movie_Rental_Service_Redux/bin/Movie_Rental_Service_Redux\n'
p69
I0
tp70
a(I4200
S'start_time     : 1499808951\nlast_update    : 1499813157\nfuzzer_pid     : 14107\ncycles_done    : 0\nexecs_done     : 2809978\nexecs_per_sec  : 119.44\npaths_total    : 224\npaths_favored  : 97\npaths_found    : 223\npaths_imported : 0\nmax_depth      : 4\ncur_path       : 156\npending_favs   : 32\npending_total  : 143\nvariable_paths : 0\nbitmap_cvg     : 1.05%\nunique_crashes : 0\nunique_hangs   : 3\nlast_path      : 1499812865\nlast_crash     : 0\nlast_hang      : 1499812477\nexec_timeout   : 20\nafl_banner     : fuzzer-master\nafl_version    : 1.85b\ncommand_line   : /home/skaramcheti/.virtualenvs/afl/bin/afl-unix/afl-fuzz -i /dev/shm/work/Movie_Rental_Service_Redux/input -o /dev/shm/work/Movie_Rental_Service_Redux/sync -m 4G -Q -M fuzzer-master -x /dev/shm/work/Movie_Rental_Service_Redux/Movie_Rental_Service_Redux.dict -- data/linux/processed-challenges/Movie_Rental_Service_Redux/bin/Movie_Rental_Service_Redux\n'
p71
I0
tp72
a(I4320
S'start_time     : 1499808951\nlast_update    : 1499813277\nfuzzer_pid     : 14107\ncycles_done    : 0\nexecs_done     : 2825291\nexecs_per_sec  : 118.49\npaths_total    : 224\npaths_favored  : 97\npaths_found    : 223\npaths_imported : 0\nmax_depth      : 4\ncur_path       : 156\npending_favs   : 32\npending_total  : 143\nvariable_paths : 0\nbitmap_cvg     : 1.05%\nunique_crashes : 0\nunique_hangs   : 3\nlast_path      : 1499812865\nlast_crash     : 0\nlast_hang      : 1499812477\nexec_timeout   : 20\nafl_banner     : fuzzer-master\nafl_version    : 1.85b\ncommand_line   : /home/skaramcheti/.virtualenvs/afl/bin/afl-unix/afl-fuzz -i /dev/shm/work/Movie_Rental_Service_Redux/input -o /dev/shm/work/Movie_Rental_Service_Redux/sync -m 4G -Q -M fuzzer-master -x /dev/shm/work/Movie_Rental_Service_Redux/Movie_Rental_Service_Redux.dict -- data/linux/processed-challenges/Movie_Rental_Service_Redux/bin/Movie_Rental_Service_Redux\n'
p73
I0
tp74
a(I4440
S'start_time     : 1499808951\nlast_update    : 1499813398\nfuzzer_pid     : 14107\ncycles_done    : 0\nexecs_done     : 2839271\nexecs_per_sec  : 116.07\npaths_total    : 224\npaths_favored  : 97\npaths_found    : 223\npaths_imported : 0\nmax_depth      : 4\ncur_path       : 156\npending_favs   : 32\npending_total  : 143\nvariable_paths : 0\nbitmap_cvg     : 1.05%\nunique_crashes : 0\nunique_hangs   : 3\nlast_path      : 1499812865\nlast_crash     : 0\nlast_hang      : 1499812477\nexec_timeout   : 20\nafl_banner     : fuzzer-master\nafl_version    : 1.85b\ncommand_line   : /home/skaramcheti/.virtualenvs/afl/bin/afl-unix/afl-fuzz -i /dev/shm/work/Movie_Rental_Service_Redux/input -o /dev/shm/work/Movie_Rental_Service_Redux/sync -m 4G -Q -M fuzzer-master -x /dev/shm/work/Movie_Rental_Service_Redux/Movie_Rental_Service_Redux.dict -- data/linux/processed-challenges/Movie_Rental_Service_Redux/bin/Movie_Rental_Service_Redux\n'
p75
I0
tp76
a(I4560
S'start_time     : 1499808951\nlast_update    : 1499813518\nfuzzer_pid     : 14107\ncycles_done    : 0\nexecs_done     : 2868223\nexecs_per_sec  : 259.45\npaths_total    : 224\npaths_favored  : 97\npaths_found    : 223\npaths_imported : 0\nmax_depth      : 4\ncur_path       : 157\npending_favs   : 32\npending_total  : 142\nvariable_paths : 0\nbitmap_cvg     : 1.05%\nunique_crashes : 0\nunique_hangs   : 4\nlast_path      : 1499812865\nlast_crash     : 0\nlast_hang      : 1499813422\nexec_timeout   : 20\nafl_banner     : fuzzer-master\nafl_version    : 1.85b\ncommand_line   : /home/skaramcheti/.virtualenvs/afl/bin/afl-unix/afl-fuzz -i /dev/shm/work/Movie_Rental_Service_Redux/input -o /dev/shm/work/Movie_Rental_Service_Redux/sync -m 4G -Q -M fuzzer-master -x /dev/shm/work/Movie_Rental_Service_Redux/Movie_Rental_Service_Redux.dict -- data/linux/processed-challenges/Movie_Rental_Service_Redux/bin/Movie_Rental_Service_Redux\n'
p77
I0
tp78
a(I4680
S'start_time     : 1499808951\nlast_update    : 1499813638\nfuzzer_pid     : 14107\ncycles_done    : 0\nexecs_done     : 2930483\nexecs_per_sec  : 647.80\npaths_total    : 233\npaths_favored  : 95\npaths_found    : 232\npaths_imported : 0\nmax_depth      : 4\ncur_path       : 161\npending_favs   : 30\npending_total  : 150\nvariable_paths : 0\nbitmap_cvg     : 1.06%\nunique_crashes : 0\nunique_hangs   : 4\nlast_path      : 1499813631\nlast_crash     : 0\nlast_hang      : 1499813422\nexec_timeout   : 20\nafl_banner     : fuzzer-master\nafl_version    : 1.85b\ncommand_line   : /home/skaramcheti/.virtualenvs/afl/bin/afl-unix/afl-fuzz -i /dev/shm/work/Movie_Rental_Service_Redux/input -o /dev/shm/work/Movie_Rental_Service_Redux/sync -m 4G -Q -M fuzzer-master -x /dev/shm/work/Movie_Rental_Service_Redux/Movie_Rental_Service_Redux.dict -- data/linux/processed-challenges/Movie_Rental_Service_Redux/bin/Movie_Rental_Service_Redux\n'
p79
I9
tp80
a(I4800
S'start_time     : 1499808951\nlast_update    : 1499813758\nfuzzer_pid     : 14107\ncycles_done    : 0\nexecs_done     : 3009435\nexecs_per_sec  : 662.53\npaths_total    : 235\npaths_favored  : 95\npaths_found    : 234\npaths_imported : 0\nmax_depth      : 4\ncur_path       : 161\npending_favs   : 30\npending_total  : 152\nvariable_paths : 0\nbitmap_cvg     : 1.07%\nunique_crashes : 0\nunique_hangs   : 4\nlast_path      : 1499813750\nlast_crash     : 0\nlast_hang      : 1499813422\nexec_timeout   : 20\nafl_banner     : fuzzer-master\nafl_version    : 1.85b\ncommand_line   : /home/skaramcheti/.virtualenvs/afl/bin/afl-unix/afl-fuzz -i /dev/shm/work/Movie_Rental_Service_Redux/input -o /dev/shm/work/Movie_Rental_Service_Redux/sync -m 4G -Q -M fuzzer-master -x /dev/shm/work/Movie_Rental_Service_Redux/Movie_Rental_Service_Redux.dict -- data/linux/processed-challenges/Movie_Rental_Service_Redux/bin/Movie_Rental_Service_Redux\n'
p81
I2
tp82
a(I4920
S'start_time     : 1499808951\nlast_update    : 1499813878\nfuzzer_pid     : 14107\ncycles_done    : 0\nexecs_done     : 3075682\nexecs_per_sec  : 481.93\npaths_total    : 235\npaths_favored  : 102\npaths_found    : 234\npaths_imported : 0\nmax_depth      : 4\ncur_path       : 166\npending_favs   : 37\npending_total  : 150\nvariable_paths : 0\nbitmap_cvg     : 1.07%\nunique_crashes : 0\nunique_hangs   : 4\nlast_path      : 1499813750\nlast_crash     : 0\nlast_hang      : 1499813422\nexec_timeout   : 20\nafl_banner     : fuzzer-master\nafl_version    : 1.85b\ncommand_line   : /home/skaramcheti/.virtualenvs/afl/bin/afl-unix/afl-fuzz -i /dev/shm/work/Movie_Rental_Service_Redux/input -o /dev/shm/work/Movie_Rental_Service_Redux/sync -m 4G -Q -M fuzzer-master -x /dev/shm/work/Movie_Rental_Service_Redux/Movie_Rental_Service_Redux.dict -- data/linux/processed-challenges/Movie_Rental_Service_Redux/bin/Movie_Rental_Service_Redux\n'
p83
I0
tp84
a(I5040
S'start_time     : 1499808951\nlast_update    : 1499813999\nfuzzer_pid     : 14107\ncycles_done    : 0\nexecs_done     : 3152687\nexecs_per_sec  : 832.08\npaths_total    : 235\npaths_favored  : 102\npaths_found    : 234\npaths_imported : 0\nmax_depth      : 4\ncur_path       : 175\npending_favs   : 33\npending_total  : 146\nvariable_paths : 0\nbitmap_cvg     : 1.07%\nunique_crashes : 0\nunique_hangs   : 4\nlast_path      : 1499813750\nlast_crash     : 0\nlast_hang      : 1499813422\nexec_timeout   : 20\nafl_banner     : fuzzer-master\nafl_version    : 1.85b\ncommand_line   : /home/skaramcheti/.virtualenvs/afl/bin/afl-unix/afl-fuzz -i /dev/shm/work/Movie_Rental_Service_Redux/input -o /dev/shm/work/Movie_Rental_Service_Redux/sync -m 4G -Q -M fuzzer-master -x /dev/shm/work/Movie_Rental_Service_Redux/Movie_Rental_Service_Redux.dict -- data/linux/processed-challenges/Movie_Rental_Service_Redux/bin/Movie_Rental_Service_Redux\n'
p85
I0
tp86
a(I5160
S'start_time     : 1499808951\nlast_update    : 1499814119\nfuzzer_pid     : 14107\ncycles_done    : 0\nexecs_done     : 3252101\nexecs_per_sec  : 846.81\npaths_total    : 235\npaths_favored  : 102\npaths_found    : 234\npaths_imported : 0\nmax_depth      : 4\ncur_path       : 177\npending_favs   : 31\npending_total  : 144\nvariable_paths : 0\nbitmap_cvg     : 1.07%\nunique_crashes : 0\nunique_hangs   : 4\nlast_path      : 1499813750\nlast_crash     : 0\nlast_hang      : 1499813422\nexec_timeout   : 20\nafl_banner     : fuzzer-master\nafl_version    : 1.85b\ncommand_line   : /home/skaramcheti/.virtualenvs/afl/bin/afl-unix/afl-fuzz -i /dev/shm/work/Movie_Rental_Service_Redux/input -o /dev/shm/work/Movie_Rental_Service_Redux/sync -m 4G -Q -M fuzzer-master -x /dev/shm/work/Movie_Rental_Service_Redux/Movie_Rental_Service_Redux.dict -- data/linux/processed-challenges/Movie_Rental_Service_Redux/bin/Movie_Rental_Service_Redux\n'
p87
I0
tp88
a(I5280
S'start_time     : 1499808951\nlast_update    : 1499814239\nfuzzer_pid     : 14107\ncycles_done    : 0\nexecs_done     : 3356768\nexecs_per_sec  : 898.64\npaths_total    : 236\npaths_favored  : 102\npaths_found    : 235\npaths_imported : 0\nmax_depth      : 5\ncur_path       : 181\npending_favs   : 28\npending_total  : 141\nvariable_paths : 0\nbitmap_cvg     : 1.07%\nunique_crashes : 0\nunique_hangs   : 4\nlast_path      : 1499814212\nlast_crash     : 0\nlast_hang      : 1499813422\nexec_timeout   : 20\nafl_banner     : fuzzer-master\nafl_version    : 1.85b\ncommand_line   : /home/skaramcheti/.virtualenvs/afl/bin/afl-unix/afl-fuzz -i /dev/shm/work/Movie_Rental_Service_Redux/input -o /dev/shm/work/Movie_Rental_Service_Redux/sync -m 4G -Q -M fuzzer-master -x /dev/shm/work/Movie_Rental_Service_Redux/Movie_Rental_Service_Redux.dict -- data/linux/processed-challenges/Movie_Rental_Service_Redux/bin/Movie_Rental_Service_Redux\n'
p89
I1
tp90
a(I5400
S'start_time     : 1499808951\nlast_update    : 1499814360\nfuzzer_pid     : 14107\ncycles_done    : 0\nexecs_done     : 3427099\nexecs_per_sec  : 463.41\npaths_total    : 236\npaths_favored  : 102\npaths_found    : 235\npaths_imported : 0\nmax_depth      : 5\ncur_path       : 184\npending_favs   : 25\npending_total  : 138\nvariable_paths : 0\nbitmap_cvg     : 1.07%\nunique_crashes : 0\nunique_hangs   : 4\nlast_path      : 1499814212\nlast_crash     : 0\nlast_hang      : 1499813422\nexec_timeout   : 20\nafl_banner     : fuzzer-master\nafl_version    : 1.85b\ncommand_line   : /home/skaramcheti/.virtualenvs/afl/bin/afl-unix/afl-fuzz -i /dev/shm/work/Movie_Rental_Service_Redux/input -o /dev/shm/work/Movie_Rental_Service_Redux/sync -m 4G -Q -M fuzzer-master -x /dev/shm/work/Movie_Rental_Service_Redux/Movie_Rental_Service_Redux.dict -- data/linux/processed-challenges/Movie_Rental_Service_Redux/bin/Movie_Rental_Service_Redux\n'
p91
I0
tp92
a(I5520
S'start_time     : 1499808951\nlast_update    : 1499814480\nfuzzer_pid     : 14107\ncycles_done    : 0\nexecs_done     : 3456609\nexecs_per_sec  : 153.61\npaths_total    : 237\npaths_favored  : 102\npaths_found    : 236\npaths_imported : 0\nmax_depth      : 5\ncur_path       : 186\npending_favs   : 24\npending_total  : 138\nvariable_paths : 0\nbitmap_cvg     : 1.07%\nunique_crashes : 0\nunique_hangs   : 4\nlast_path      : 1499814419\nlast_crash     : 0\nlast_hang      : 1499813422\nexec_timeout   : 20\nafl_banner     : fuzzer-master\nafl_version    : 1.85b\ncommand_line   : /home/skaramcheti/.virtualenvs/afl/bin/afl-unix/afl-fuzz -i /dev/shm/work/Movie_Rental_Service_Redux/input -o /dev/shm/work/Movie_Rental_Service_Redux/sync -m 4G -Q -M fuzzer-master -x /dev/shm/work/Movie_Rental_Service_Redux/Movie_Rental_Service_Redux.dict -- data/linux/processed-challenges/Movie_Rental_Service_Redux/bin/Movie_Rental_Service_Redux\n'
p93
I1
tp94
a(I5640
S'start_time     : 1499808951\nlast_update    : 1499814600\nfuzzer_pid     : 14107\ncycles_done    : 0\nexecs_done     : 3474705\nexecs_per_sec  : 149.75\npaths_total    : 237\npaths_favored  : 102\npaths_found    : 236\npaths_imported : 0\nmax_depth      : 5\ncur_path       : 186\npending_favs   : 24\npending_total  : 138\nvariable_paths : 0\nbitmap_cvg     : 1.07%\nunique_crashes : 0\nunique_hangs   : 4\nlast_path      : 1499814419\nlast_crash     : 0\nlast_hang      : 1499813422\nexec_timeout   : 20\nafl_banner     : fuzzer-master\nafl_version    : 1.85b\ncommand_line   : /home/skaramcheti/.virtualenvs/afl/bin/afl-unix/afl-fuzz -i /dev/shm/work/Movie_Rental_Service_Redux/input -o /dev/shm/work/Movie_Rental_Service_Redux/sync -m 4G -Q -M fuzzer-master -x /dev/shm/work/Movie_Rental_Service_Redux/Movie_Rental_Service_Redux.dict -- data/linux/processed-challenges/Movie_Rental_Service_Redux/bin/Movie_Rental_Service_Redux\n'
p95
I0
tp96
a(I5760
S'start_time     : 1499808951\nlast_update    : 1499814720\nfuzzer_pid     : 14107\ncycles_done    : 0\nexecs_done     : 3509399\nexecs_per_sec  : 312.91\npaths_total    : 247\npaths_favored  : 102\npaths_found    : 246\npaths_imported : 0\nmax_depth      : 5\ncur_path       : 186\npending_favs   : 24\npending_total  : 148\nvariable_paths : 0\nbitmap_cvg     : 1.11%\nunique_crashes : 0\nunique_hangs   : 7\nlast_path      : 1499814716\nlast_crash     : 0\nlast_hang      : 1499814694\nexec_timeout   : 20\nafl_banner     : fuzzer-master\nafl_version    : 1.85b\ncommand_line   : /home/skaramcheti/.virtualenvs/afl/bin/afl-unix/afl-fuzz -i /dev/shm/work/Movie_Rental_Service_Redux/input -o /dev/shm/work/Movie_Rental_Service_Redux/sync -m 4G -Q -M fuzzer-master -x /dev/shm/work/Movie_Rental_Service_Redux/Movie_Rental_Service_Redux.dict -- data/linux/processed-challenges/Movie_Rental_Service_Redux/bin/Movie_Rental_Service_Redux\n'
p97
I10
tp98
a(I5880
S'start_time     : 1499808951\nlast_update    : 1499814780\nfuzzer_pid     : 14107\ncycles_done    : 0\nexecs_done     : 3528175\nexecs_per_sec  : 316.65\npaths_total    : 249\npaths_favored  : 102\npaths_found    : 248\npaths_imported : 0\nmax_depth      : 5\ncur_path       : 186\npending_favs   : 24\npending_total  : 150\nvariable_paths : 0\nbitmap_cvg     : 1.11%\nunique_crashes : 0\nunique_hangs   : 8\nlast_path      : 1499814774\nlast_crash     : 0\nlast_hang      : 1499814764\nexec_timeout   : 20\nafl_banner     : fuzzer-master\nafl_version    : 1.85b\ncommand_line   : /home/skaramcheti/.virtualenvs/afl/bin/afl-unix/afl-fuzz -i /dev/shm/work/Movie_Rental_Service_Redux/input -o /dev/shm/work/Movie_Rental_Service_Redux/sync -m 4G -Q -M fuzzer-master -x /dev/shm/work/Movie_Rental_Service_Redux/Movie_Rental_Service_Redux.dict -- data/linux/processed-challenges/Movie_Rental_Service_Redux/bin/Movie_Rental_Service_Redux\n'
p99
I5
tp100
a(I6000
S'start_time     : 1499808951\nlast_update    : 1499814901\nfuzzer_pid     : 14107\ncycles_done    : 0\nexecs_done     : 3565239\nexecs_per_sec  : 319.84\npaths_total    : 254\npaths_favored  : 102\npaths_found    : 253\npaths_imported : 0\nmax_depth      : 5\ncur_path       : 186\npending_favs   : 24\npending_total  : 155\nvariable_paths : 0\nbitmap_cvg     : 1.12%\nunique_crashes : 0\nunique_hangs   : 10\nlast_path      : 1499814893\nlast_crash     : 0\nlast_hang      : 1499814849\nexec_timeout   : 20\nafl_banner     : fuzzer-master\nafl_version    : 1.85b\ncommand_line   : /home/skaramcheti/.virtualenvs/afl/bin/afl-unix/afl-fuzz -i /dev/shm/work/Movie_Rental_Service_Redux/input -o /dev/shm/work/Movie_Rental_Service_Redux/sync -m 4G -Q -M fuzzer-master -x /dev/shm/work/Movie_Rental_Service_Redux/Movie_Rental_Service_Redux.dict -- data/linux/processed-challenges/Movie_Rental_Service_Redux/bin/Movie_Rental_Service_Redux\n'
p101
I3
tp102
a(I6120
S'start_time     : 1499808951\nlast_update    : 1499815021\nfuzzer_pid     : 14107\ncycles_done    : 0\nexecs_done     : 3601446\nexecs_per_sec  : 254.65\npaths_total    : 256\npaths_favored  : 110\npaths_found    : 255\npaths_imported : 0\nmax_depth      : 5\ncur_path       : 190\npending_favs   : 31\npending_total  : 156\nvariable_paths : 0\nbitmap_cvg     : 1.12%\nunique_crashes : 0\nunique_hangs   : 10\nlast_path      : 1499814977\nlast_crash     : 0\nlast_hang      : 1499814849\nexec_timeout   : 20\nafl_banner     : fuzzer-master\nafl_version    : 1.85b\ncommand_line   : /home/skaramcheti/.virtualenvs/afl/bin/afl-unix/afl-fuzz -i /dev/shm/work/Movie_Rental_Service_Redux/input -o /dev/shm/work/Movie_Rental_Service_Redux/sync -m 4G -Q -M fuzzer-master -x /dev/shm/work/Movie_Rental_Service_Redux/Movie_Rental_Service_Redux.dict -- data/linux/processed-challenges/Movie_Rental_Service_Redux/bin/Movie_Rental_Service_Redux\n'
p103
I1
tp104
a(I6240
S'start_time     : 1499808951\nlast_update    : 1499815141\nfuzzer_pid     : 14107\ncycles_done    : 0\nexecs_done     : 3635323\nexecs_per_sec  : 425.72\npaths_total    : 256\npaths_favored  : 110\npaths_found    : 255\npaths_imported : 0\nmax_depth      : 5\ncur_path       : 190\npending_favs   : 31\npending_total  : 156\nvariable_paths : 0\nbitmap_cvg     : 1.12%\nunique_crashes : 0\nunique_hangs   : 10\nlast_path      : 1499814977\nlast_crash     : 0\nlast_hang      : 1499814849\nexec_timeout   : 20\nafl_banner     : fuzzer-master\nafl_version    : 1.85b\ncommand_line   : /home/skaramcheti/.virtualenvs/afl/bin/afl-unix/afl-fuzz -i /dev/shm/work/Movie_Rental_Service_Redux/input -o /dev/shm/work/Movie_Rental_Service_Redux/sync -m 4G -Q -M fuzzer-master -x /dev/shm/work/Movie_Rental_Service_Redux/Movie_Rental_Service_Redux.dict -- data/linux/processed-challenges/Movie_Rental_Service_Redux/bin/Movie_Rental_Service_Redux\n'
p105
I0
tp106
a(I6360
S'start_time     : 1499808951\nlast_update    : 1499815262\nfuzzer_pid     : 14107\ncycles_done    : 0\nexecs_done     : 3644542\nexecs_per_sec  : 76.83\npaths_total    : 256\npaths_favored  : 110\npaths_found    : 255\npaths_imported : 0\nmax_depth      : 5\ncur_path       : 197\npending_favs   : 30\npending_total  : 155\nvariable_paths : 0\nbitmap_cvg     : 1.12%\nunique_crashes : 0\nunique_hangs   : 14\nlast_path      : 1499814977\nlast_crash     : 0\nlast_hang      : 1499815252\nexec_timeout   : 20\nafl_banner     : fuzzer-master\nafl_version    : 1.85b\ncommand_line   : /home/skaramcheti/.virtualenvs/afl/bin/afl-unix/afl-fuzz -i /dev/shm/work/Movie_Rental_Service_Redux/input -o /dev/shm/work/Movie_Rental_Service_Redux/sync -m 4G -Q -M fuzzer-master -x /dev/shm/work/Movie_Rental_Service_Redux/Movie_Rental_Service_Redux.dict -- data/linux/processed-challenges/Movie_Rental_Service_Redux/bin/Movie_Rental_Service_Redux\n'
p107
I0
tp108
a(I6480
S'start_time     : 1499808951\nlast_update    : 1499815382\nfuzzer_pid     : 14107\ncycles_done    : 0\nexecs_done     : 3654386\nexecs_per_sec  : 67.99\npaths_total    : 256\npaths_favored  : 110\npaths_found    : 255\npaths_imported : 0\nmax_depth      : 5\ncur_path       : 197\npending_favs   : 30\npending_total  : 155\nvariable_paths : 0\nbitmap_cvg     : 1.12%\nunique_crashes : 0\nunique_hangs   : 16\nlast_path      : 1499814977\nlast_crash     : 0\nlast_hang      : 1499815327\nexec_timeout   : 20\nafl_banner     : fuzzer-master\nafl_version    : 1.85b\ncommand_line   : /home/skaramcheti/.virtualenvs/afl/bin/afl-unix/afl-fuzz -i /dev/shm/work/Movie_Rental_Service_Redux/input -o /dev/shm/work/Movie_Rental_Service_Redux/sync -m 4G -Q -M fuzzer-master -x /dev/shm/work/Movie_Rental_Service_Redux/Movie_Rental_Service_Redux.dict -- data/linux/processed-challenges/Movie_Rental_Service_Redux/bin/Movie_Rental_Service_Redux\n'
p109
I0
tp110
a(I6600
S'start_time     : 1499808951\nlast_update    : 1499815502\nfuzzer_pid     : 14107\ncycles_done    : 0\nexecs_done     : 3662888\nexecs_per_sec  : 77.88\npaths_total    : 256\npaths_favored  : 110\npaths_found    : 255\npaths_imported : 0\nmax_depth      : 5\ncur_path       : 197\npending_favs   : 30\npending_total  : 155\nvariable_paths : 0\nbitmap_cvg     : 1.12%\nunique_crashes : 0\nunique_hangs   : 18\nlast_path      : 1499814977\nlast_crash     : 0\nlast_hang      : 1499815489\nexec_timeout   : 20\nafl_banner     : fuzzer-master\nafl_version    : 1.85b\ncommand_line   : /home/skaramcheti/.virtualenvs/afl/bin/afl-unix/afl-fuzz -i /dev/shm/work/Movie_Rental_Service_Redux/input -o /dev/shm/work/Movie_Rental_Service_Redux/sync -m 4G -Q -M fuzzer-master -x /dev/shm/work/Movie_Rental_Service_Redux/Movie_Rental_Service_Redux.dict -- data/linux/processed-challenges/Movie_Rental_Service_Redux/bin/Movie_Rental_Service_Redux\n'
p111
I0
tp112
a(I6720
S'start_time     : 1499808951\nlast_update    : 1499815622\nfuzzer_pid     : 14107\ncycles_done    : 0\nexecs_done     : 3671350\nexecs_per_sec  : 69.72\npaths_total    : 256\npaths_favored  : 110\npaths_found    : 255\npaths_imported : 0\nmax_depth      : 5\ncur_path       : 197\npending_favs   : 30\npending_total  : 155\nvariable_paths : 0\nbitmap_cvg     : 1.12%\nunique_crashes : 0\nunique_hangs   : 20\nlast_path      : 1499814977\nlast_crash     : 0\nlast_hang      : 1499815586\nexec_timeout   : 20\nafl_banner     : fuzzer-master\nafl_version    : 1.85b\ncommand_line   : /home/skaramcheti/.virtualenvs/afl/bin/afl-unix/afl-fuzz -i /dev/shm/work/Movie_Rental_Service_Redux/input -o /dev/shm/work/Movie_Rental_Service_Redux/sync -m 4G -Q -M fuzzer-master -x /dev/shm/work/Movie_Rental_Service_Redux/Movie_Rental_Service_Redux.dict -- data/linux/processed-challenges/Movie_Rental_Service_Redux/bin/Movie_Rental_Service_Redux\n'
p113
I1
tp114
a(I6840
S'start_time     : 1499808951\nlast_update    : 1499815742\nfuzzer_pid     : 14107\ncycles_done    : 0\nexecs_done     : 3686442\nexecs_per_sec  : 148.53\npaths_total    : 257\npaths_favored  : 110\npaths_found    : 256\npaths_imported : 0\nmax_depth      : 5\ncur_path       : 201\npending_favs   : 29\npending_total  : 155\nvariable_paths : 0\nbitmap_cvg     : 1.12%\nunique_crashes : 0\nunique_hangs   : 23\nlast_path      : 1499815679\nlast_crash     : 0\nlast_hang      : 1499815688\nexec_timeout   : 20\nafl_banner     : fuzzer-master\nafl_version    : 1.85b\ncommand_line   : /home/skaramcheti/.virtualenvs/afl/bin/afl-unix/afl-fuzz -i /dev/shm/work/Movie_Rental_Service_Redux/input -o /dev/shm/work/Movie_Rental_Service_Redux/sync -m 4G -Q -M fuzzer-master -x /dev/shm/work/Movie_Rental_Service_Redux/Movie_Rental_Service_Redux.dict -- data/linux/processed-challenges/Movie_Rental_Service_Redux/bin/Movie_Rental_Service_Redux\n'
p115
I0
tp116
a(I6960
S'start_time     : 1499808951\nlast_update    : 1499815863\nfuzzer_pid     : 14107\ncycles_done    : 0\nexecs_done     : 3705670\nexecs_per_sec  : 149.85\npaths_total    : 257\npaths_favored  : 110\npaths_found    : 256\npaths_imported : 0\nmax_depth      : 5\ncur_path       : 201\npending_favs   : 29\npending_total  : 155\nvariable_paths : 0\nbitmap_cvg     : 1.12%\nunique_crashes : 0\nunique_hangs   : 24\nlast_path      : 1499815679\nlast_crash     : 0\nlast_hang      : 1499815801\nexec_timeout   : 20\nafl_banner     : fuzzer-master\nafl_version    : 1.85b\ncommand_line   : /home/skaramcheti/.virtualenvs/afl/bin/afl-unix/afl-fuzz -i /dev/shm/work/Movie_Rental_Service_Redux/input -o /dev/shm/work/Movie_Rental_Service_Redux/sync -m 4G -Q -M fuzzer-master -x /dev/shm/work/Movie_Rental_Service_Redux/Movie_Rental_Service_Redux.dict -- data/linux/processed-challenges/Movie_Rental_Service_Redux/bin/Movie_Rental_Service_Redux\n'
p117
I0
tp118
a(I7080
S'start_time     : 1499808951\nlast_update    : 1499815983\nfuzzer_pid     : 14107\ncycles_done    : 0\nexecs_done     : 3723827\nexecs_per_sec  : 177.39\npaths_total    : 257\npaths_favored  : 110\npaths_found    : 256\npaths_imported : 0\nmax_depth      : 5\ncur_path       : 201\npending_favs   : 29\npending_total  : 155\nvariable_paths : 0\nbitmap_cvg     : 1.12%\nunique_crashes : 0\nunique_hangs   : 24\nlast_path      : 1499815679\nlast_crash     : 0\nlast_hang      : 1499815801\nexec_timeout   : 20\nafl_banner     : fuzzer-master\nafl_version    : 1.85b\ncommand_line   : /home/skaramcheti/.virtualenvs/afl/bin/afl-unix/afl-fuzz -i /dev/shm/work/Movie_Rental_Service_Redux/input -o /dev/shm/work/Movie_Rental_Service_Redux/sync -m 4G -Q -M fuzzer-master -x /dev/shm/work/Movie_Rental_Service_Redux/Movie_Rental_Service_Redux.dict -- data/linux/processed-challenges/Movie_Rental_Service_Redux/bin/Movie_Rental_Service_Redux\n'
p119
I0
tp120
a(I7200
S'start_time     : 1499808951\nlast_update    : 1499816103\nfuzzer_pid     : 14107\ncycles_done    : 0\nexecs_done     : 3741383\nexecs_per_sec  : 146.89\npaths_total    : 257\npaths_favored  : 110\npaths_found    : 256\npaths_imported : 0\nmax_depth      : 5\ncur_path       : 201\npending_favs   : 29\npending_total  : 155\nvariable_paths : 0\nbitmap_cvg     : 1.12%\nunique_crashes : 0\nunique_hangs   : 24\nlast_path      : 1499815679\nlast_crash     : 0\nlast_hang      : 1499815801\nexec_timeout   : 20\nafl_banner     : fuzzer-master\nafl_version    : 1.85b\ncommand_line   : /home/skaramcheti/.virtualenvs/afl/bin/afl-unix/afl-fuzz -i /dev/shm/work/Movie_Rental_Service_Redux/input -o /dev/shm/work/Movie_Rental_Service_Redux/sync -m 4G -Q -M fuzzer-master -x /dev/shm/work/Movie_Rental_Service_Redux/Movie_Rental_Service_Redux.dict -- data/linux/processed-challenges/Movie_Rental_Service_Redux/bin/Movie_Rental_Service_Redux\n'
p121
I0
tp122
a(I7320
S'start_time     : 1499808951\nlast_update    : 1499816223\nfuzzer_pid     : 14107\ncycles_done    : 0\nexecs_done     : 3759121\nexecs_per_sec  : 146.99\npaths_total    : 257\npaths_favored  : 110\npaths_found    : 256\npaths_imported : 0\nmax_depth      : 5\ncur_path       : 201\npending_favs   : 29\npending_total  : 155\nvariable_paths : 0\nbitmap_cvg     : 1.12%\nunique_crashes : 0\nunique_hangs   : 24\nlast_path      : 1499815679\nlast_crash     : 0\nlast_hang      : 1499815801\nexec_timeout   : 20\nafl_banner     : fuzzer-master\nafl_version    : 1.85b\ncommand_line   : /home/skaramcheti/.virtualenvs/afl/bin/afl-unix/afl-fuzz -i /dev/shm/work/Movie_Rental_Service_Redux/input -o /dev/shm/work/Movie_Rental_Service_Redux/sync -m 4G -Q -M fuzzer-master -x /dev/shm/work/Movie_Rental_Service_Redux/Movie_Rental_Service_Redux.dict -- data/linux/processed-challenges/Movie_Rental_Service_Redux/bin/Movie_Rental_Service_Redux\n'
p123
I0
tp124
a(I7440
S'start_time     : 1499808951\nlast_update    : 1499816343\nfuzzer_pid     : 14107\ncycles_done    : 0\nexecs_done     : 3783190\nexecs_per_sec  : 238.37\npaths_total    : 258\npaths_favored  : 110\npaths_found    : 257\npaths_imported : 0\nmax_depth      : 5\ncur_path       : 202\npending_favs   : 28\npending_total  : 155\nvariable_paths : 0\nbitmap_cvg     : 1.12%\nunique_crashes : 0\nunique_hangs   : 24\nlast_path      : 1499816292\nlast_crash     : 0\nlast_hang      : 1499815801\nexec_timeout   : 20\nafl_banner     : fuzzer-master\nafl_version    : 1.85b\ncommand_line   : /home/skaramcheti/.virtualenvs/afl/bin/afl-unix/afl-fuzz -i /dev/shm/work/Movie_Rental_Service_Redux/input -o /dev/shm/work/Movie_Rental_Service_Redux/sync -m 4G -Q -M fuzzer-master -x /dev/shm/work/Movie_Rental_Service_Redux/Movie_Rental_Service_Redux.dict -- data/linux/processed-challenges/Movie_Rental_Service_Redux/bin/Movie_Rental_Service_Redux\n'
p125
I2
tp126
a(I7560
S'start_time     : 1499808951\nlast_update    : 1499816464\nfuzzer_pid     : 14107\ncycles_done    : 0\nexecs_done     : 3808732\nexecs_per_sec  : 226.82\npaths_total    : 259\npaths_favored  : 110\npaths_found    : 258\npaths_imported : 0\nmax_depth      : 5\ncur_path       : 202\npending_favs   : 28\npending_total  : 156\nvariable_paths : 0\nbitmap_cvg     : 1.12%\nunique_crashes : 0\nunique_hangs   : 24\nlast_path      : 1499816357\nlast_crash     : 0\nlast_hang      : 1499815801\nexec_timeout   : 20\nafl_banner     : fuzzer-master\nafl_version    : 1.85b\ncommand_line   : /home/skaramcheti/.virtualenvs/afl/bin/afl-unix/afl-fuzz -i /dev/shm/work/Movie_Rental_Service_Redux/input -o /dev/shm/work/Movie_Rental_Service_Redux/sync -m 4G -Q -M fuzzer-master -x /dev/shm/work/Movie_Rental_Service_Redux/Movie_Rental_Service_Redux.dict -- data/linux/processed-challenges/Movie_Rental_Service_Redux/bin/Movie_Rental_Service_Redux\n'
p127
I4
tp128
a(I7680
S'start_time     : 1499808951\nlast_update    : 1499816584\nfuzzer_pid     : 14107\ncycles_done    : 0\nexecs_done     : 3852290\nexecs_per_sec  : 380.06\npaths_total    : 264\npaths_favored  : 110\npaths_found    : 263\npaths_imported : 0\nmax_depth      : 5\ncur_path       : 202\npending_favs   : 28\npending_total  : 161\nvariable_paths : 0\nbitmap_cvg     : 1.12%\nunique_crashes : 0\nunique_hangs   : 24\nlast_path      : 1499816534\nlast_crash     : 0\nlast_hang      : 1499815801\nexec_timeout   : 20\nafl_banner     : fuzzer-master\nafl_version    : 1.85b\ncommand_line   : /home/skaramcheti/.virtualenvs/afl/bin/afl-unix/afl-fuzz -i /dev/shm/work/Movie_Rental_Service_Redux/input -o /dev/shm/work/Movie_Rental_Service_Redux/sync -m 4G -Q -M fuzzer-master -x /dev/shm/work/Movie_Rental_Service_Redux/Movie_Rental_Service_Redux.dict -- data/linux/processed-challenges/Movie_Rental_Service_Redux/bin/Movie_Rental_Service_Redux\n'
p129
I2
tp130
a(I7800
S'start_time     : 1499808951\nlast_update    : 1499816704\nfuzzer_pid     : 14107\ncycles_done    : 0\nexecs_done     : 3898041\nexecs_per_sec  : 378.10\npaths_total    : 266\npaths_favored  : 110\npaths_found    : 265\npaths_imported : 0\nmax_depth      : 5\ncur_path       : 202\npending_favs   : 28\npending_total  : 163\nvariable_paths : 0\nbitmap_cvg     : 1.12%\nunique_crashes : 0\nunique_hangs   : 24\nlast_path      : 1499816643\nlast_crash     : 0\nlast_hang      : 1499815801\nexec_timeout   : 20\nafl_banner     : fuzzer-master\nafl_version    : 1.85b\ncommand_line   : /home/skaramcheti/.virtualenvs/afl/bin/afl-unix/afl-fuzz -i /dev/shm/work/Movie_Rental_Service_Redux/input -o /dev/shm/work/Movie_Rental_Service_Redux/sync -m 4G -Q -M fuzzer-master -x /dev/shm/work/Movie_Rental_Service_Redux/Movie_Rental_Service_Redux.dict -- data/linux/processed-challenges/Movie_Rental_Service_Redux/bin/Movie_Rental_Service_Redux\n'
p131
I4
tp132
a(I7920
S'start_time     : 1499808951\nlast_update    : 1499816824\nfuzzer_pid     : 14107\ncycles_done    : 0\nexecs_done     : 3992724\nexecs_per_sec  : 844.50\npaths_total    : 270\npaths_favored  : 113\npaths_found    : 269\npaths_imported : 0\nmax_depth      : 5\ncur_path       : 205\npending_favs   : 31\npending_total  : 166\nvariable_paths : 0\nbitmap_cvg     : 1.12%\nunique_crashes : 0\nunique_hangs   : 24\nlast_path      : 1499816779\nlast_crash     : 0\nlast_hang      : 1499815801\nexec_timeout   : 20\nafl_banner     : fuzzer-master\nafl_version    : 1.85b\ncommand_line   : /home/skaramcheti/.virtualenvs/afl/bin/afl-unix/afl-fuzz -i /dev/shm/work/Movie_Rental_Service_Redux/input -o /dev/shm/work/Movie_Rental_Service_Redux/sync -m 4G -Q -M fuzzer-master -x /dev/shm/work/Movie_Rental_Service_Redux/Movie_Rental_Service_Redux.dict -- data/linux/processed-challenges/Movie_Rental_Service_Redux/bin/Movie_Rental_Service_Redux\n'
p133
I1
tp134
a(I8040
S'start_time     : 1499808951\nlast_update    : 1499816945\nfuzzer_pid     : 14107\ncycles_done    : 0\nexecs_done     : 4058549\nexecs_per_sec  : 493.62\npaths_total    : 270\npaths_favored  : 113\npaths_found    : 269\npaths_imported : 0\nmax_depth      : 5\ncur_path       : 209\npending_favs   : 30\npending_total  : 165\nvariable_paths : 0\nbitmap_cvg     : 1.12%\nunique_crashes : 0\nunique_hangs   : 24\nlast_path      : 1499816779\nlast_crash     : 0\nlast_hang      : 1499815801\nexec_timeout   : 20\nafl_banner     : fuzzer-master\nafl_version    : 1.85b\ncommand_line   : /home/skaramcheti/.virtualenvs/afl/bin/afl-unix/afl-fuzz -i /dev/shm/work/Movie_Rental_Service_Redux/input -o /dev/shm/work/Movie_Rental_Service_Redux/sync -m 4G -Q -M fuzzer-master -x /dev/shm/work/Movie_Rental_Service_Redux/Movie_Rental_Service_Redux.dict -- data/linux/processed-challenges/Movie_Rental_Service_Redux/bin/Movie_Rental_Service_Redux\n'
p135
I2
tp136
a(I8160
S'start_time     : 1499808951\nlast_update    : 1499817065\nfuzzer_pid     : 14107\ncycles_done    : 0\nexecs_done     : 4127658\nexecs_per_sec  : 902.60\npaths_total    : 272\npaths_favored  : 113\npaths_found    : 271\npaths_imported : 0\nmax_depth      : 5\ncur_path       : 214\npending_favs   : 29\npending_total  : 166\nvariable_paths : 0\nbitmap_cvg     : 1.12%\nunique_crashes : 0\nunique_hangs   : 24\nlast_path      : 1499816950\nlast_crash     : 0\nlast_hang      : 1499815801\nexec_timeout   : 20\nafl_banner     : fuzzer-master\nafl_version    : 1.85b\ncommand_line   : /home/skaramcheti/.virtualenvs/afl/bin/afl-unix/afl-fuzz -i /dev/shm/work/Movie_Rental_Service_Redux/input -o /dev/shm/work/Movie_Rental_Service_Redux/sync -m 4G -Q -M fuzzer-master -x /dev/shm/work/Movie_Rental_Service_Redux/Movie_Rental_Service_Redux.dict -- data/linux/processed-challenges/Movie_Rental_Service_Redux/bin/Movie_Rental_Service_Redux\n'
p137
I0
tp138
a(I8280
S'start_time     : 1499808951\nlast_update    : 1499817185\nfuzzer_pid     : 14107\ncycles_done    : 0\nexecs_done     : 4177882\nexecs_per_sec  : 245.22\npaths_total    : 272\npaths_favored  : 113\npaths_found    : 271\npaths_imported : 0\nmax_depth      : 5\ncur_path       : 216\npending_favs   : 27\npending_total  : 164\nvariable_paths : 0\nbitmap_cvg     : 1.12%\nunique_crashes : 0\nunique_hangs   : 24\nlast_path      : 1499816950\nlast_crash     : 0\nlast_hang      : 1499815801\nexec_timeout   : 20\nafl_banner     : fuzzer-master\nafl_version    : 1.85b\ncommand_line   : /home/skaramcheti/.virtualenvs/afl/bin/afl-unix/afl-fuzz -i /dev/shm/work/Movie_Rental_Service_Redux/input -o /dev/shm/work/Movie_Rental_Service_Redux/sync -m 4G -Q -M fuzzer-master -x /dev/shm/work/Movie_Rental_Service_Redux/Movie_Rental_Service_Redux.dict -- data/linux/processed-challenges/Movie_Rental_Service_Redux/bin/Movie_Rental_Service_Redux\n'
p139
I0
tp140
a(I8400
S'start_time     : 1499808951\nlast_update    : 1499817305\nfuzzer_pid     : 14107\ncycles_done    : 0\nexecs_done     : 4219629\nexecs_per_sec  : 331.74\npaths_total    : 272\npaths_favored  : 113\npaths_found    : 271\npaths_imported : 0\nmax_depth      : 5\ncur_path       : 218\npending_favs   : 26\npending_total  : 163\nvariable_paths : 0\nbitmap_cvg     : 1.12%\nunique_crashes : 0\nunique_hangs   : 24\nlast_path      : 1499816950\nlast_crash     : 0\nlast_hang      : 1499815801\nexec_timeout   : 20\nafl_banner     : fuzzer-master\nafl_version    : 1.85b\ncommand_line   : /home/skaramcheti/.virtualenvs/afl/bin/afl-unix/afl-fuzz -i /dev/shm/work/Movie_Rental_Service_Redux/input -o /dev/shm/work/Movie_Rental_Service_Redux/sync -m 4G -Q -M fuzzer-master -x /dev/shm/work/Movie_Rental_Service_Redux/Movie_Rental_Service_Redux.dict -- data/linux/processed-challenges/Movie_Rental_Service_Redux/bin/Movie_Rental_Service_Redux\n'
p141
I0
tp142
a(I8520
S'start_time     : 1499808951\nlast_update    : 1499817426\nfuzzer_pid     : 14107\ncycles_done    : 0\nexecs_done     : 4270380\nexecs_per_sec  : 481.18\npaths_total    : 272\npaths_favored  : 113\npaths_found    : 271\npaths_imported : 0\nmax_depth      : 5\ncur_path       : 224\npending_favs   : 25\npending_total  : 162\nvariable_paths : 0\nbitmap_cvg     : 1.12%\nunique_crashes : 0\nunique_hangs   : 24\nlast_path      : 1499816950\nlast_crash     : 0\nlast_hang      : 1499815801\nexec_timeout   : 20\nafl_banner     : fuzzer-master\nafl_version    : 1.85b\ncommand_line   : /home/skaramcheti/.virtualenvs/afl/bin/afl-unix/afl-fuzz -i /dev/shm/work/Movie_Rental_Service_Redux/input -o /dev/shm/work/Movie_Rental_Service_Redux/sync -m 4G -Q -M fuzzer-master -x /dev/shm/work/Movie_Rental_Service_Redux/Movie_Rental_Service_Redux.dict -- data/linux/processed-challenges/Movie_Rental_Service_Redux/bin/Movie_Rental_Service_Redux\n'
p143
I0
tp144
a(I8640
S'start_time     : 1499808951\nlast_update    : 1499817546\nfuzzer_pid     : 14107\ncycles_done    : 0\nexecs_done     : 4336175\nexecs_per_sec  : 485.70\npaths_total    : 272\npaths_favored  : 113\npaths_found    : 271\npaths_imported : 0\nmax_depth      : 5\ncur_path       : 226\npending_favs   : 23\npending_total  : 160\nvariable_paths : 0\nbitmap_cvg     : 1.12%\nunique_crashes : 0\nunique_hangs   : 24\nlast_path      : 1499816950\nlast_crash     : 0\nlast_hang      : 1499815801\nexec_timeout   : 20\nafl_banner     : fuzzer-master\nafl_version    : 1.85b\ncommand_line   : /home/skaramcheti/.virtualenvs/afl/bin/afl-unix/afl-fuzz -i /dev/shm/work/Movie_Rental_Service_Redux/input -o /dev/shm/work/Movie_Rental_Service_Redux/sync -m 4G -Q -M fuzzer-master -x /dev/shm/work/Movie_Rental_Service_Redux/Movie_Rental_Service_Redux.dict -- data/linux/processed-challenges/Movie_Rental_Service_Redux/bin/Movie_Rental_Service_Redux\n'
p145
I0
tp146
a(I8760
S'start_time     : 1499808951\nlast_update    : 1499817666\nfuzzer_pid     : 14107\ncycles_done    : 0\nexecs_done     : 4390934\nexecs_per_sec  : 545.74\npaths_total    : 272\npaths_favored  : 113\npaths_found    : 271\npaths_imported : 0\nmax_depth      : 5\ncur_path       : 228\npending_favs   : 22\npending_total  : 159\nvariable_paths : 0\nbitmap_cvg     : 1.12%\nunique_crashes : 0\nunique_hangs   : 24\nlast_path      : 1499816950\nlast_crash     : 0\nlast_hang      : 1499815801\nexec_timeout   : 20\nafl_banner     : fuzzer-master\nafl_version    : 1.85b\ncommand_line   : /home/skaramcheti/.virtualenvs/afl/bin/afl-unix/afl-fuzz -i /dev/shm/work/Movie_Rental_Service_Redux/input -o /dev/shm/work/Movie_Rental_Service_Redux/sync -m 4G -Q -M fuzzer-master -x /dev/shm/work/Movie_Rental_Service_Redux/Movie_Rental_Service_Redux.dict -- data/linux/processed-challenges/Movie_Rental_Service_Redux/bin/Movie_Rental_Service_Redux\n'
p147
I0
tp148
a(I8880
S'start_time     : 1499808951\nlast_update    : 1499817786\nfuzzer_pid     : 14107\ncycles_done    : 0\nexecs_done     : 4431505\nexecs_per_sec  : 537.38\npaths_total    : 272\npaths_favored  : 113\npaths_found    : 271\npaths_imported : 0\nmax_depth      : 5\ncur_path       : 229\npending_favs   : 21\npending_total  : 158\nvariable_paths : 0\nbitmap_cvg     : 1.12%\nunique_crashes : 0\nunique_hangs   : 24\nlast_path      : 1499816950\nlast_crash     : 0\nlast_hang      : 1499815801\nexec_timeout   : 20\nafl_banner     : fuzzer-master\nafl_version    : 1.85b\ncommand_line   : /home/skaramcheti/.virtualenvs/afl/bin/afl-unix/afl-fuzz -i /dev/shm/work/Movie_Rental_Service_Redux/input -o /dev/shm/work/Movie_Rental_Service_Redux/sync -m 4G -Q -M fuzzer-master -x /dev/shm/work/Movie_Rental_Service_Redux/Movie_Rental_Service_Redux.dict -- data/linux/processed-challenges/Movie_Rental_Service_Redux/bin/Movie_Rental_Service_Redux\n'
p149
I0
tp150
a(I9000
S'start_time     : 1499808951\nlast_update    : 1499817907\nfuzzer_pid     : 14107\ncycles_done    : 0\nexecs_done     : 4460645\nexecs_per_sec  : 226.24\npaths_total    : 272\npaths_favored  : 113\npaths_found    : 271\npaths_imported : 0\nmax_depth      : 5\ncur_path       : 230\npending_favs   : 20\npending_total  : 157\nvariable_paths : 0\nbitmap_cvg     : 1.12%\nunique_crashes : 0\nunique_hangs   : 24\nlast_path      : 1499816950\nlast_crash     : 0\nlast_hang      : 1499815801\nexec_timeout   : 20\nafl_banner     : fuzzer-master\nafl_version    : 1.85b\ncommand_line   : /home/skaramcheti/.virtualenvs/afl/bin/afl-unix/afl-fuzz -i /dev/shm/work/Movie_Rental_Service_Redux/input -o /dev/shm/work/Movie_Rental_Service_Redux/sync -m 4G -Q -M fuzzer-master -x /dev/shm/work/Movie_Rental_Service_Redux/Movie_Rental_Service_Redux.dict -- data/linux/processed-challenges/Movie_Rental_Service_Redux/bin/Movie_Rental_Service_Redux\n'
p151
I0
tp152
a(I9120
S'start_time     : 1499808951\nlast_update    : 1499818027\nfuzzer_pid     : 14107\ncycles_done    : 0\nexecs_done     : 4499193\nexecs_per_sec  : 345.09\npaths_total    : 273\npaths_favored  : 113\npaths_found    : 272\npaths_imported : 0\nmax_depth      : 5\ncur_path       : 231\npending_favs   : 19\npending_total  : 157\nvariable_paths : 0\nbitmap_cvg     : 1.12%\nunique_crashes : 0\nunique_hangs   : 24\nlast_path      : 1499818014\nlast_crash     : 0\nlast_hang      : 1499815801\nexec_timeout   : 20\nafl_banner     : fuzzer-master\nafl_version    : 1.85b\ncommand_line   : /home/skaramcheti/.virtualenvs/afl/bin/afl-unix/afl-fuzz -i /dev/shm/work/Movie_Rental_Service_Redux/input -o /dev/shm/work/Movie_Rental_Service_Redux/sync -m 4G -Q -M fuzzer-master -x /dev/shm/work/Movie_Rental_Service_Redux/Movie_Rental_Service_Redux.dict -- data/linux/processed-challenges/Movie_Rental_Service_Redux/bin/Movie_Rental_Service_Redux\n'
p153
I1
tp154
a(I9240
S'start_time     : 1499808951\nlast_update    : 1499818147\nfuzzer_pid     : 14107\ncycles_done    : 0\nexecs_done     : 4542674\nexecs_per_sec  : 557.98\npaths_total    : 273\npaths_favored  : 113\npaths_found    : 272\npaths_imported : 0\nmax_depth      : 5\ncur_path       : 232\npending_favs   : 19\npending_total  : 156\nvariable_paths : 0\nbitmap_cvg     : 1.12%\nunique_crashes : 0\nunique_hangs   : 24\nlast_path      : 1499818014\nlast_crash     : 0\nlast_hang      : 1499815801\nexec_timeout   : 20\nafl_banner     : fuzzer-master\nafl_version    : 1.85b\ncommand_line   : /home/skaramcheti/.virtualenvs/afl/bin/afl-unix/afl-fuzz -i /dev/shm/work/Movie_Rental_Service_Redux/input -o /dev/shm/work/Movie_Rental_Service_Redux/sync -m 4G -Q -M fuzzer-master -x /dev/shm/work/Movie_Rental_Service_Redux/Movie_Rental_Service_Redux.dict -- data/linux/processed-challenges/Movie_Rental_Service_Redux/bin/Movie_Rental_Service_Redux\n'
p155
I0
tp156
a(I9360
S'start_time     : 1499808951\nlast_update    : 1499818267\nfuzzer_pid     : 14107\ncycles_done    : 0\nexecs_done     : 4611149\nexecs_per_sec  : 507.16\npaths_total    : 273\npaths_favored  : 113\npaths_found    : 272\npaths_imported : 0\nmax_depth      : 5\ncur_path       : 233\npending_favs   : 18\npending_total  : 155\nvariable_paths : 0\nbitmap_cvg     : 1.12%\nunique_crashes : 0\nunique_hangs   : 24\nlast_path      : 1499818014\nlast_crash     : 0\nlast_hang      : 1499815801\nexec_timeout   : 20\nafl_banner     : fuzzer-master\nafl_version    : 1.85b\ncommand_line   : /home/skaramcheti/.virtualenvs/afl/bin/afl-unix/afl-fuzz -i /dev/shm/work/Movie_Rental_Service_Redux/input -o /dev/shm/work/Movie_Rental_Service_Redux/sync -m 4G -Q -M fuzzer-master -x /dev/shm/work/Movie_Rental_Service_Redux/Movie_Rental_Service_Redux.dict -- data/linux/processed-challenges/Movie_Rental_Service_Redux/bin/Movie_Rental_Service_Redux\n'
p157
I0
tp158
a(I9480
S'start_time     : 1499808951\nlast_update    : 1499818387\nfuzzer_pid     : 14107\ncycles_done    : 0\nexecs_done     : 4669368\nexecs_per_sec  : 166.02\npaths_total    : 274\npaths_favored  : 113\npaths_found    : 273\npaths_imported : 0\nmax_depth      : 6\ncur_path       : 239\npending_favs   : 17\npending_total  : 155\nvariable_paths : 0\nbitmap_cvg     : 1.12%\nunique_crashes : 0\nunique_hangs   : 24\nlast_path      : 1499818377\nlast_crash     : 0\nlast_hang      : 1499815801\nexec_timeout   : 20\nafl_banner     : fuzzer-master\nafl_version    : 1.85b\ncommand_line   : /home/skaramcheti/.virtualenvs/afl/bin/afl-unix/afl-fuzz -i /dev/shm/work/Movie_Rental_Service_Redux/input -o /dev/shm/work/Movie_Rental_Service_Redux/sync -m 4G -Q -M fuzzer-master -x /dev/shm/work/Movie_Rental_Service_Redux/Movie_Rental_Service_Redux.dict -- data/linux/processed-challenges/Movie_Rental_Service_Redux/bin/Movie_Rental_Service_Redux\n'
p159
I1
tp160
a(I9600
S'start_time     : 1499808951\nlast_update    : 1499818507\nfuzzer_pid     : 14107\ncycles_done    : 0\nexecs_done     : 4685202\nexecs_per_sec  : 130.23\npaths_total    : 274\npaths_favored  : 113\npaths_found    : 273\npaths_imported : 0\nmax_depth      : 6\ncur_path       : 239\npending_favs   : 17\npending_total  : 155\nvariable_paths : 0\nbitmap_cvg     : 1.12%\nunique_crashes : 0\nunique_hangs   : 24\nlast_path      : 1499818377\nlast_crash     : 0\nlast_hang      : 1499815801\nexec_timeout   : 20\nafl_banner     : fuzzer-master\nafl_version    : 1.85b\ncommand_line   : /home/skaramcheti/.virtualenvs/afl/bin/afl-unix/afl-fuzz -i /dev/shm/work/Movie_Rental_Service_Redux/input -o /dev/shm/work/Movie_Rental_Service_Redux/sync -m 4G -Q -M fuzzer-master -x /dev/shm/work/Movie_Rental_Service_Redux/Movie_Rental_Service_Redux.dict -- data/linux/processed-challenges/Movie_Rental_Service_Redux/bin/Movie_Rental_Service_Redux\n'
p161
I0
tp162
a(I9720
S'start_time     : 1499808951\nlast_update    : 1499818627\nfuzzer_pid     : 14107\ncycles_done    : 0\nexecs_done     : 4704729\nexecs_per_sec  : 260.81\npaths_total    : 276\npaths_favored  : 113\npaths_found    : 275\npaths_imported : 0\nmax_depth      : 6\ncur_path       : 239\npending_favs   : 17\npending_total  : 157\nvariable_paths : 0\nbitmap_cvg     : 1.13%\nunique_crashes : 0\nunique_hangs   : 24\nlast_path      : 1499818626\nlast_crash     : 0\nlast_hang      : 1499815801\nexec_timeout   : 20\nafl_banner     : fuzzer-master\nafl_version    : 1.85b\ncommand_line   : /home/skaramcheti/.virtualenvs/afl/bin/afl-unix/afl-fuzz -i /dev/shm/work/Movie_Rental_Service_Redux/input -o /dev/shm/work/Movie_Rental_Service_Redux/sync -m 4G -Q -M fuzzer-master -x /dev/shm/work/Movie_Rental_Service_Redux/Movie_Rental_Service_Redux.dict -- data/linux/processed-challenges/Movie_Rental_Service_Redux/bin/Movie_Rental_Service_Redux\n'
p163
I5
tp164
a(I9840
S'start_time     : 1499808951\nlast_update    : 1499818748\nfuzzer_pid     : 14107\ncycles_done    : 0\nexecs_done     : 4737934\nexecs_per_sec  : 279.32\npaths_total    : 281\npaths_favored  : 113\npaths_found    : 280\npaths_imported : 0\nmax_depth      : 6\ncur_path       : 239\npending_favs   : 17\npending_total  : 162\nvariable_paths : 0\nbitmap_cvg     : 1.13%\nunique_crashes : 0\nunique_hangs   : 26\nlast_path      : 1499818712\nlast_crash     : 0\nlast_hang      : 1499818707\nexec_timeout   : 20\nafl_banner     : fuzzer-master\nafl_version    : 1.85b\ncommand_line   : /home/skaramcheti/.virtualenvs/afl/bin/afl-unix/afl-fuzz -i /dev/shm/work/Movie_Rental_Service_Redux/input -o /dev/shm/work/Movie_Rental_Service_Redux/sync -m 4G -Q -M fuzzer-master -x /dev/shm/work/Movie_Rental_Service_Redux/Movie_Rental_Service_Redux.dict -- data/linux/processed-challenges/Movie_Rental_Service_Redux/bin/Movie_Rental_Service_Redux\n'
p165
I2
tp166
a(I9960
S'start_time     : 1499808951\nlast_update    : 1499818868\nfuzzer_pid     : 14107\ncycles_done    : 0\nexecs_done     : 4771654\nexecs_per_sec  : 280.24\npaths_total    : 284\npaths_favored  : 113\npaths_found    : 283\npaths_imported : 0\nmax_depth      : 6\ncur_path       : 239\npending_favs   : 17\npending_total  : 165\nvariable_paths : 0\nbitmap_cvg     : 1.13%\nunique_crashes : 0\nunique_hangs   : 26\nlast_path      : 1499818846\nlast_crash     : 0\nlast_hang      : 1499818707\nexec_timeout   : 20\nafl_banner     : fuzzer-master\nafl_version    : 1.85b\ncommand_line   : /home/skaramcheti/.virtualenvs/afl/bin/afl-unix/afl-fuzz -i /dev/shm/work/Movie_Rental_Service_Redux/input -o /dev/shm/work/Movie_Rental_Service_Redux/sync -m 4G -Q -M fuzzer-master -x /dev/shm/work/Movie_Rental_Service_Redux/Movie_Rental_Service_Redux.dict -- data/linux/processed-challenges/Movie_Rental_Service_Redux/bin/Movie_Rental_Service_Redux\n'
p167
I4
tp168
a(I10080
S'start_time     : 1499808951\nlast_update    : 1499818988\nfuzzer_pid     : 14107\ncycles_done    : 0\nexecs_done     : 4805334\nexecs_per_sec  : 268.24\npaths_total    : 287\npaths_favored  : 113\npaths_found    : 286\npaths_imported : 0\nmax_depth      : 6\ncur_path       : 239\npending_favs   : 17\npending_total  : 168\nvariable_paths : 0\nbitmap_cvg     : 1.13%\nunique_crashes : 0\nunique_hangs   : 27\nlast_path      : 1499818983\nlast_crash     : 0\nlast_hang      : 1499818874\nexec_timeout   : 20\nafl_banner     : fuzzer-master\nafl_version    : 1.85b\ncommand_line   : /home/skaramcheti/.virtualenvs/afl/bin/afl-unix/afl-fuzz -i /dev/shm/work/Movie_Rental_Service_Redux/input -o /dev/shm/work/Movie_Rental_Service_Redux/sync -m 4G -Q -M fuzzer-master -x /dev/shm/work/Movie_Rental_Service_Redux/Movie_Rental_Service_Redux.dict -- data/linux/processed-challenges/Movie_Rental_Service_Redux/bin/Movie_Rental_Service_Redux\n'
p169
I2
tp170
a(I10200
S'start_time     : 1499808951\nlast_update    : 1499819108\nfuzzer_pid     : 14107\ncycles_done    : 0\nexecs_done     : 4825503\nexecs_per_sec  : 115.88\npaths_total    : 288\npaths_favored  : 115\npaths_found    : 287\npaths_imported : 0\nmax_depth      : 6\ncur_path       : 241\npending_favs   : 18\npending_total  : 168\nvariable_paths : 0\nbitmap_cvg     : 1.13%\nunique_crashes : 0\nunique_hangs   : 29\nlast_path      : 1499819046\nlast_crash     : 0\nlast_hang      : 1499819088\nexec_timeout   : 20\nafl_banner     : fuzzer-master\nafl_version    : 1.85b\ncommand_line   : /home/skaramcheti/.virtualenvs/afl/bin/afl-unix/afl-fuzz -i /dev/shm/work/Movie_Rental_Service_Redux/input -o /dev/shm/work/Movie_Rental_Service_Redux/sync -m 4G -Q -M fuzzer-master -x /dev/shm/work/Movie_Rental_Service_Redux/Movie_Rental_Service_Redux.dict -- data/linux/processed-challenges/Movie_Rental_Service_Redux/bin/Movie_Rental_Service_Redux\n'
p171
I1
tp172
a(I10320
S'start_time     : 1499808951\nlast_update    : 1499819229\nfuzzer_pid     : 14107\ncycles_done    : 0\nexecs_done     : 4837483\nexecs_per_sec  : 103.18\npaths_total    : 288\npaths_favored  : 115\npaths_found    : 287\npaths_imported : 0\nmax_depth      : 6\ncur_path       : 241\npending_favs   : 18\npending_total  : 168\nvariable_paths : 0\nbitmap_cvg     : 1.13%\nunique_crashes : 0\nunique_hangs   : 30\nlast_path      : 1499819046\nlast_crash     : 0\nlast_hang      : 1499819132\nexec_timeout   : 20\nafl_banner     : fuzzer-master\nafl_version    : 1.85b\ncommand_line   : /home/skaramcheti/.virtualenvs/afl/bin/afl-unix/afl-fuzz -i /dev/shm/work/Movie_Rental_Service_Redux/input -o /dev/shm/work/Movie_Rental_Service_Redux/sync -m 4G -Q -M fuzzer-master -x /dev/shm/work/Movie_Rental_Service_Redux/Movie_Rental_Service_Redux.dict -- data/linux/processed-challenges/Movie_Rental_Service_Redux/bin/Movie_Rental_Service_Redux\n'
p173
I0
tp174
a(I10440
S'start_time     : 1499808951\nlast_update    : 1499819349\nfuzzer_pid     : 14107\ncycles_done    : 0\nexecs_done     : 4847889\nexecs_per_sec  : 106.78\npaths_total    : 288\npaths_favored  : 115\npaths_found    : 287\npaths_imported : 0\nmax_depth      : 6\ncur_path       : 241\npending_favs   : 18\npending_total  : 168\nvariable_paths : 0\nbitmap_cvg     : 1.13%\nunique_crashes : 0\nunique_hangs   : 30\nlast_path      : 1499819046\nlast_crash     : 0\nlast_hang      : 1499819132\nexec_timeout   : 20\nafl_banner     : fuzzer-master\nafl_version    : 1.85b\ncommand_line   : /home/skaramcheti/.virtualenvs/afl/bin/afl-unix/afl-fuzz -i /dev/shm/work/Movie_Rental_Service_Redux/input -o /dev/shm/work/Movie_Rental_Service_Redux/sync -m 4G -Q -M fuzzer-master -x /dev/shm/work/Movie_Rental_Service_Redux/Movie_Rental_Service_Redux.dict -- data/linux/processed-challenges/Movie_Rental_Service_Redux/bin/Movie_Rental_Service_Redux\n'
p175
I0
tp176
a(I10560
S'start_time     : 1499808951\nlast_update    : 1499819469\nfuzzer_pid     : 14107\ncycles_done    : 0\nexecs_done     : 4861394\nexecs_per_sec  : 100.91\npaths_total    : 288\npaths_favored  : 115\npaths_found    : 287\npaths_imported : 0\nmax_depth      : 6\ncur_path       : 241\npending_favs   : 18\npending_total  : 168\nvariable_paths : 0\nbitmap_cvg     : 1.13%\nunique_crashes : 0\nunique_hangs   : 30\nlast_path      : 1499819046\nlast_crash     : 0\nlast_hang      : 1499819132\nexec_timeout   : 20\nafl_banner     : fuzzer-master\nafl_version    : 1.85b\ncommand_line   : /home/skaramcheti/.virtualenvs/afl/bin/afl-unix/afl-fuzz -i /dev/shm/work/Movie_Rental_Service_Redux/input -o /dev/shm/work/Movie_Rental_Service_Redux/sync -m 4G -Q -M fuzzer-master -x /dev/shm/work/Movie_Rental_Service_Redux/Movie_Rental_Service_Redux.dict -- data/linux/processed-challenges/Movie_Rental_Service_Redux/bin/Movie_Rental_Service_Redux\n'
p177
I0
tp178
a(I10680
S'start_time     : 1499808951\nlast_update    : 1499819589\nfuzzer_pid     : 14107\ncycles_done    : 0\nexecs_done     : 4873263\nexecs_per_sec  : 98.88\npaths_total    : 288\npaths_favored  : 115\npaths_found    : 287\npaths_imported : 0\nmax_depth      : 6\ncur_path       : 241\npending_favs   : 18\npending_total  : 168\nvariable_paths : 0\nbitmap_cvg     : 1.13%\nunique_crashes : 0\nunique_hangs   : 30\nlast_path      : 1499819046\nlast_crash     : 0\nlast_hang      : 1499819132\nexec_timeout   : 20\nafl_banner     : fuzzer-master\nafl_version    : 1.85b\ncommand_line   : /home/skaramcheti/.virtualenvs/afl/bin/afl-unix/afl-fuzz -i /dev/shm/work/Movie_Rental_Service_Redux/input -o /dev/shm/work/Movie_Rental_Service_Redux/sync -m 4G -Q -M fuzzer-master -x /dev/shm/work/Movie_Rental_Service_Redux/Movie_Rental_Service_Redux.dict -- data/linux/processed-challenges/Movie_Rental_Service_Redux/bin/Movie_Rental_Service_Redux\n'
p179
I0
tp180
a.