(lp0
(I0
S'start_time     : 1499992834\nlast_update    : 1499992834\nfuzzer_pid     : 14492\ncycles_done    : 0\nexecs_done     : 10\nexecs_per_sec  : 161.29\npaths_total    : 1\npaths_favored  : 1\npaths_found    : 0\npaths_imported : 0\nmax_depth      : 1\ncur_path       : 0\npending_favs   : 1\npending_total  : 1\nvariable_paths : 0\nbitmap_cvg     : 0.24%\nunique_crashes : 0\nunique_hangs   : 0\nlast_path      : 0\nlast_crash     : 0\nlast_hang      : 0\nexec_timeout   : 20\nafl_banner     : fuzzer-master\nafl_version    : 1.85b\ncommand_line   : /home/skaramcheti/.virtualenvs/afl/bin/afl-unix/afl-fuzz -i /dev/shm/work/GPS_Tracker/input -o /dev/shm/work/GPS_Tracker/sync -m 4G -Q -M fuzzer-master -x /dev/shm/work/GPS_Tracker/GPS_Tracker.dict -- data/linux/processed-challenges/GPS_Tracker/bin/GPS_Tracker\n'
p1
I9
tp2
a(I120
S'start_time     : 1499992834\nlast_update    : 1499992954\nfuzzer_pid     : 14492\ncycles_done    : 0\nexecs_done     : 81150\nexecs_per_sec  : 655.63\npaths_total    : 23\npaths_favored  : 1\npaths_found    : 22\npaths_imported : 0\nmax_depth      : 2\ncur_path       : 0\npending_favs   : 1\npending_total  : 23\nvariable_paths : 0\nbitmap_cvg     : 0.44%\nunique_crashes : 0\nunique_hangs   : 0\nlast_path      : 1499992948\nlast_crash     : 0\nlast_hang      : 0\nexec_timeout   : 20\nafl_banner     : fuzzer-master\nafl_version    : 1.85b\ncommand_line   : /home/skaramcheti/.virtualenvs/afl/bin/afl-unix/afl-fuzz -i /dev/shm/work/GPS_Tracker/input -o /dev/shm/work/GPS_Tracker/sync -m 4G -Q -M fuzzer-master -x /dev/shm/work/GPS_Tracker/GPS_Tracker.dict -- data/linux/processed-challenges/GPS_Tracker/bin/GPS_Tracker\n'
p3
I14
tp4
a(I240
S'start_time     : 1499992834\nlast_update    : 1499993074\nfuzzer_pid     : 14492\ncycles_done    : 0\nexecs_done     : 160914\nexecs_per_sec  : 669.32\npaths_total    : 26\npaths_favored  : 14\npaths_found    : 25\npaths_imported : 0\nmax_depth      : 2\ncur_path       : 3\npending_favs   : 14\npending_total  : 25\nvariable_paths : 0\nbitmap_cvg     : 0.46%\nunique_crashes : 0\nunique_hangs   : 0\nlast_path      : 1499993053\nlast_crash     : 0\nlast_hang      : 0\nexec_timeout   : 20\nafl_banner     : fuzzer-master\nafl_version    : 1.85b\ncommand_line   : /home/skaramcheti/.virtualenvs/afl/bin/afl-unix/afl-fuzz -i /dev/shm/work/GPS_Tracker/input -o /dev/shm/work/GPS_Tracker/sync -m 4G -Q -M fuzzer-master -x /dev/shm/work/GPS_Tracker/GPS_Tracker.dict -- data/linux/processed-challenges/GPS_Tracker/bin/GPS_Tracker\n'
p5
I3
tp6
a(I360
S'start_time     : 1499992834\nlast_update    : 1499993194\nfuzzer_pid     : 14492\ncycles_done    : 0\nexecs_done     : 238199\nexecs_per_sec  : 637.07\npaths_total    : 32\npaths_favored  : 14\npaths_found    : 31\npaths_imported : 0\nmax_depth      : 3\ncur_path       : 3\npending_favs   : 14\npending_total  : 31\nvariable_paths : 0\nbitmap_cvg     : 0.52%\nunique_crashes : 0\nunique_hangs   : 0\nlast_path      : 1499993165\nlast_crash     : 0\nlast_hang      : 0\nexec_timeout   : 20\nafl_banner     : fuzzer-master\nafl_version    : 1.85b\ncommand_line   : /home/skaramcheti/.virtualenvs/afl/bin/afl-unix/afl-fuzz -i /dev/shm/work/GPS_Tracker/input -o /dev/shm/work/GPS_Tracker/sync -m 4G -Q -M fuzzer-master -x /dev/shm/work/GPS_Tracker/GPS_Tracker.dict -- data/linux/processed-challenges/GPS_Tracker/bin/GPS_Tracker\n'
p7
I6
tp8
a(I480
S'start_time     : 1499992834\nlast_update    : 1499993314\nfuzzer_pid     : 14492\ncycles_done    : 0\nexecs_done     : 314791\nexecs_per_sec  : 635.69\npaths_total    : 34\npaths_favored  : 14\npaths_found    : 33\npaths_imported : 0\nmax_depth      : 3\ncur_path       : 3\npending_favs   : 14\npending_total  : 33\nvariable_paths : 0\nbitmap_cvg     : 0.52%\nunique_crashes : 0\nunique_hangs   : 0\nlast_path      : 1499993302\nlast_crash     : 0\nlast_hang      : 0\nexec_timeout   : 20\nafl_banner     : fuzzer-master\nafl_version    : 1.85b\ncommand_line   : /home/skaramcheti/.virtualenvs/afl/bin/afl-unix/afl-fuzz -i /dev/shm/work/GPS_Tracker/input -o /dev/shm/work/GPS_Tracker/sync -m 4G -Q -M fuzzer-master -x /dev/shm/work/GPS_Tracker/GPS_Tracker.dict -- data/linux/processed-challenges/GPS_Tracker/bin/GPS_Tracker\n'
p9
I2
tp10
a(I600
S'start_time     : 1499992834\nlast_update    : 1499993435\nfuzzer_pid     : 14492\ncycles_done    : 0\nexecs_done     : 392010\nexecs_per_sec  : 649.71\npaths_total    : 40\npaths_favored  : 20\npaths_found    : 39\npaths_imported : 0\nmax_depth      : 3\ncur_path       : 10\npending_favs   : 18\npending_total  : 36\nvariable_paths : 0\nbitmap_cvg     : 0.52%\nunique_crashes : 0\nunique_hangs   : 0\nlast_path      : 1499993416\nlast_crash     : 0\nlast_hang      : 0\nexec_timeout   : 20\nafl_banner     : fuzzer-master\nafl_version    : 1.85b\ncommand_line   : /home/skaramcheti/.virtualenvs/afl/bin/afl-unix/afl-fuzz -i /dev/shm/work/GPS_Tracker/input -o /dev/shm/work/GPS_Tracker/sync -m 4G -Q -M fuzzer-master -x /dev/shm/work/GPS_Tracker/GPS_Tracker.dict -- data/linux/processed-challenges/GPS_Tracker/bin/GPS_Tracker\n'
p11
I6
tp12
a(I720
S'start_time     : 1499992834\nlast_update    : 1499993555\nfuzzer_pid     : 14492\ncycles_done    : 0\nexecs_done     : 469277\nexecs_per_sec  : 652.75\npaths_total    : 41\npaths_favored  : 20\npaths_found    : 40\npaths_imported : 0\nmax_depth      : 3\ncur_path       : 10\npending_favs   : 18\npending_total  : 37\nvariable_paths : 0\nbitmap_cvg     : 0.55%\nunique_crashes : 0\nunique_hangs   : 0\nlast_path      : 1499993549\nlast_crash     : 0\nlast_hang      : 0\nexec_timeout   : 20\nafl_banner     : fuzzer-master\nafl_version    : 1.85b\ncommand_line   : /home/skaramcheti/.virtualenvs/afl/bin/afl-unix/afl-fuzz -i /dev/shm/work/GPS_Tracker/input -o /dev/shm/work/GPS_Tracker/sync -m 4G -Q -M fuzzer-master -x /dev/shm/work/GPS_Tracker/GPS_Tracker.dict -- data/linux/processed-challenges/GPS_Tracker/bin/GPS_Tracker\n'
p13
I1
tp14
a(I840
S'start_time     : 1499992834\nlast_update    : 1499993675\nfuzzer_pid     : 14492\ncycles_done    : 0\nexecs_done     : 546261\nexecs_per_sec  : 619.09\npaths_total    : 45\npaths_favored  : 22\npaths_found    : 44\npaths_imported : 0\nmax_depth      : 3\ncur_path       : 20\npending_favs   : 15\npending_total  : 36\nvariable_paths : 0\nbitmap_cvg     : 0.55%\nunique_crashes : 0\nunique_hangs   : 0\nlast_path      : 1499993673\nlast_crash     : 0\nlast_hang      : 0\nexec_timeout   : 20\nafl_banner     : fuzzer-master\nafl_version    : 1.85b\ncommand_line   : /home/skaramcheti/.virtualenvs/afl/bin/afl-unix/afl-fuzz -i /dev/shm/work/GPS_Tracker/input -o /dev/shm/work/GPS_Tracker/sync -m 4G -Q -M fuzzer-master -x /dev/shm/work/GPS_Tracker/GPS_Tracker.dict -- data/linux/processed-challenges/GPS_Tracker/bin/GPS_Tracker\n'
p15
I4
tp16
a(I960
S'start_time     : 1499992834\nlast_update    : 1499993795\nfuzzer_pid     : 14492\ncycles_done    : 0\nexecs_done     : 622632\nexecs_per_sec  : 640.32\npaths_total    : 50\npaths_favored  : 22\npaths_found    : 49\npaths_imported : 0\nmax_depth      : 3\ncur_path       : 24\npending_favs   : 12\npending_total  : 38\nvariable_paths : 0\nbitmap_cvg     : 0.57%\nunique_crashes : 0\nunique_hangs   : 0\nlast_path      : 1499993782\nlast_crash     : 0\nlast_hang      : 0\nexec_timeout   : 20\nafl_banner     : fuzzer-master\nafl_version    : 1.85b\ncommand_line   : /home/skaramcheti/.virtualenvs/afl/bin/afl-unix/afl-fuzz -i /dev/shm/work/GPS_Tracker/input -o /dev/shm/work/GPS_Tracker/sync -m 4G -Q -M fuzzer-master -x /dev/shm/work/GPS_Tracker/GPS_Tracker.dict -- data/linux/processed-challenges/GPS_Tracker/bin/GPS_Tracker\n'
p17
I5
tp18
a(I1080
S'start_time     : 1499992834\nlast_update    : 1499993915\nfuzzer_pid     : 14492\ncycles_done    : 0\nexecs_done     : 700205\nexecs_per_sec  : 651.71\npaths_total    : 50\npaths_favored  : 22\npaths_found    : 49\npaths_imported : 0\nmax_depth      : 3\ncur_path       : 24\npending_favs   : 12\npending_total  : 38\nvariable_paths : 0\nbitmap_cvg     : 0.57%\nunique_crashes : 0\nunique_hangs   : 0\nlast_path      : 1499993782\nlast_crash     : 0\nlast_hang      : 0\nexec_timeout   : 20\nafl_banner     : fuzzer-master\nafl_version    : 1.85b\ncommand_line   : /home/skaramcheti/.virtualenvs/afl/bin/afl-unix/afl-fuzz -i /dev/shm/work/GPS_Tracker/input -o /dev/shm/work/GPS_Tracker/sync -m 4G -Q -M fuzzer-master -x /dev/shm/work/GPS_Tracker/GPS_Tracker.dict -- data/linux/processed-challenges/GPS_Tracker/bin/GPS_Tracker\n'
p19
I0
tp20
a(I1200
S'start_time     : 1499992834\nlast_update    : 1499994036\nfuzzer_pid     : 14492\ncycles_done    : 0\nexecs_done     : 777801\nexecs_per_sec  : 648.65\npaths_total    : 53\npaths_favored  : 27\npaths_found    : 52\npaths_imported : 0\nmax_depth      : 4\ncur_path       : 32\npending_favs   : 11\npending_total  : 35\nvariable_paths : 0\nbitmap_cvg     : 0.58%\nunique_crashes : 0\nunique_hangs   : 0\nlast_path      : 1499994034\nlast_crash     : 0\nlast_hang      : 0\nexec_timeout   : 20\nafl_banner     : fuzzer-master\nafl_version    : 1.85b\ncommand_line   : /home/skaramcheti/.virtualenvs/afl/bin/afl-unix/afl-fuzz -i /dev/shm/work/GPS_Tracker/input -o /dev/shm/work/GPS_Tracker/sync -m 4G -Q -M fuzzer-master -x /dev/shm/work/GPS_Tracker/GPS_Tracker.dict -- data/linux/processed-challenges/GPS_Tracker/bin/GPS_Tracker\n'
p21
I3
tp22
a(I1320
S'start_time     : 1499992834\nlast_update    : 1499994156\nfuzzer_pid     : 14492\ncycles_done    : 0\nexecs_done     : 853705\nexecs_per_sec  : 643.64\npaths_total    : 59\npaths_favored  : 28\npaths_found    : 58\npaths_imported : 0\nmax_depth      : 4\ncur_path       : 40\npending_favs   : 9\npending_total  : 38\nvariable_paths : 0\nbitmap_cvg     : 0.61%\nunique_crashes : 0\nunique_hangs   : 0\nlast_path      : 1499994113\nlast_crash     : 0\nlast_hang      : 0\nexec_timeout   : 20\nafl_banner     : fuzzer-master\nafl_version    : 1.85b\ncommand_line   : /home/skaramcheti/.virtualenvs/afl/bin/afl-unix/afl-fuzz -i /dev/shm/work/GPS_Tracker/input -o /dev/shm/work/GPS_Tracker/sync -m 4G -Q -M fuzzer-master -x /dev/shm/work/GPS_Tracker/GPS_Tracker.dict -- data/linux/processed-challenges/GPS_Tracker/bin/GPS_Tracker\n'
p23
I6
tp24
a(I1440
S'start_time     : 1499992834\nlast_update    : 1499994276\nfuzzer_pid     : 14492\ncycles_done    : 0\nexecs_done     : 929961\nexecs_per_sec  : 639.55\npaths_total    : 61\npaths_favored  : 28\npaths_found    : 60\npaths_imported : 0\nmax_depth      : 4\ncur_path       : 40\npending_favs   : 9\npending_total  : 40\nvariable_paths : 0\nbitmap_cvg     : 0.62%\nunique_crashes : 0\nunique_hangs   : 0\nlast_path      : 1499994204\nlast_crash     : 0\nlast_hang      : 0\nexec_timeout   : 20\nafl_banner     : fuzzer-master\nafl_version    : 1.85b\ncommand_line   : /home/skaramcheti/.virtualenvs/afl/bin/afl-unix/afl-fuzz -i /dev/shm/work/GPS_Tracker/input -o /dev/shm/work/GPS_Tracker/sync -m 4G -Q -M fuzzer-master -x /dev/shm/work/GPS_Tracker/GPS_Tracker.dict -- data/linux/processed-challenges/GPS_Tracker/bin/GPS_Tracker\n'
p25
I2
tp26
a(I1560
S'start_time     : 1499992834\nlast_update    : 1499994396\nfuzzer_pid     : 14492\ncycles_done    : 0\nexecs_done     : 1005991\nexecs_per_sec  : 613.04\npaths_total    : 64\npaths_favored  : 33\npaths_found    : 63\npaths_imported : 0\nmax_depth      : 4\ncur_path       : 47\npending_favs   : 12\npending_total  : 39\nvariable_paths : 0\nbitmap_cvg     : 0.62%\nunique_crashes : 0\nunique_hangs   : 0\nlast_path      : 1499994371\nlast_crash     : 0\nlast_hang      : 0\nexec_timeout   : 20\nafl_banner     : fuzzer-master\nafl_version    : 1.85b\ncommand_line   : /home/skaramcheti/.virtualenvs/afl/bin/afl-unix/afl-fuzz -i /dev/shm/work/GPS_Tracker/input -o /dev/shm/work/GPS_Tracker/sync -m 4G -Q -M fuzzer-master -x /dev/shm/work/GPS_Tracker/GPS_Tracker.dict -- data/linux/processed-challenges/GPS_Tracker/bin/GPS_Tracker\n'
p27
I3
tp28
a(I1680
S'start_time     : 1499992834\nlast_update    : 1499994517\nfuzzer_pid     : 14492\ncycles_done    : 0\nexecs_done     : 1081352\nexecs_per_sec  : 647.72\npaths_total    : 71\npaths_favored  : 34\npaths_found    : 70\npaths_imported : 0\nmax_depth      : 5\ncur_path       : 52\npending_favs   : 10\npending_total  : 42\nvariable_paths : 0\nbitmap_cvg     : 0.62%\nunique_crashes : 0\nunique_hangs   : 0\nlast_path      : 1499994511\nlast_crash     : 0\nlast_hang      : 0\nexec_timeout   : 20\nafl_banner     : fuzzer-master\nafl_version    : 1.85b\ncommand_line   : /home/skaramcheti/.virtualenvs/afl/bin/afl-unix/afl-fuzz -i /dev/shm/work/GPS_Tracker/input -o /dev/shm/work/GPS_Tracker/sync -m 4G -Q -M fuzzer-master -x /dev/shm/work/GPS_Tracker/GPS_Tracker.dict -- data/linux/processed-challenges/GPS_Tracker/bin/GPS_Tracker\n'
p29
I7
tp30
a(I1800
S'start_time     : 1499992834\nlast_update    : 1499994637\nfuzzer_pid     : 14492\ncycles_done    : 0\nexecs_done     : 1157617\nexecs_per_sec  : 649.12\npaths_total    : 71\npaths_favored  : 34\npaths_found    : 70\npaths_imported : 0\nmax_depth      : 5\ncur_path       : 53\npending_favs   : 9\npending_total  : 41\nvariable_paths : 0\nbitmap_cvg     : 0.62%\nunique_crashes : 0\nunique_hangs   : 0\nlast_path      : 1499994511\nlast_crash     : 0\nlast_hang      : 0\nexec_timeout   : 20\nafl_banner     : fuzzer-master\nafl_version    : 1.85b\ncommand_line   : /home/skaramcheti/.virtualenvs/afl/bin/afl-unix/afl-fuzz -i /dev/shm/work/GPS_Tracker/input -o /dev/shm/work/GPS_Tracker/sync -m 4G -Q -M fuzzer-master -x /dev/shm/work/GPS_Tracker/GPS_Tracker.dict -- data/linux/processed-challenges/GPS_Tracker/bin/GPS_Tracker\n'
p31
I0
tp32
a(I1920
S'start_time     : 1499992834\nlast_update    : 1499994757\nfuzzer_pid     : 14492\ncycles_done    : 0\nexecs_done     : 1234989\nexecs_per_sec  : 652.04\npaths_total    : 78\npaths_favored  : 37\npaths_found    : 77\npaths_imported : 0\nmax_depth      : 5\ncur_path       : 58\npending_favs   : 8\npending_total  : 43\nvariable_paths : 0\nbitmap_cvg     : 0.63%\nunique_crashes : 0\nunique_hangs   : 0\nlast_path      : 1499994726\nlast_crash     : 0\nlast_hang      : 0\nexec_timeout   : 20\nafl_banner     : fuzzer-master\nafl_version    : 1.85b\ncommand_line   : /home/skaramcheti/.virtualenvs/afl/bin/afl-unix/afl-fuzz -i /dev/shm/work/GPS_Tracker/input -o /dev/shm/work/GPS_Tracker/sync -m 4G -Q -M fuzzer-master -x /dev/shm/work/GPS_Tracker/GPS_Tracker.dict -- data/linux/processed-challenges/GPS_Tracker/bin/GPS_Tracker\n'
p33
I7
tp34
a(I2040
S'start_time     : 1499992834\nlast_update    : 1499994877\nfuzzer_pid     : 14492\ncycles_done    : 0\nexecs_done     : 1312360\nexecs_per_sec  : 663.52\npaths_total    : 81\npaths_favored  : 37\npaths_found    : 80\npaths_imported : 0\nmax_depth      : 6\ncur_path       : 66\npending_favs   : 7\npending_total  : 43\nvariable_paths : 0\nbitmap_cvg     : 0.64%\nunique_crashes : 0\nunique_hangs   : 0\nlast_path      : 1499994861\nlast_crash     : 0\nlast_hang      : 0\nexec_timeout   : 20\nafl_banner     : fuzzer-master\nafl_version    : 1.85b\ncommand_line   : /home/skaramcheti/.virtualenvs/afl/bin/afl-unix/afl-fuzz -i /dev/shm/work/GPS_Tracker/input -o /dev/shm/work/GPS_Tracker/sync -m 4G -Q -M fuzzer-master -x /dev/shm/work/GPS_Tracker/GPS_Tracker.dict -- data/linux/processed-challenges/GPS_Tracker/bin/GPS_Tracker\n'
p35
I3
tp36
a(I2160
S'start_time     : 1499992834\nlast_update    : 1499994997\nfuzzer_pid     : 14492\ncycles_done    : 0\nexecs_done     : 1389717\nexecs_per_sec  : 663.76\npaths_total    : 85\npaths_favored  : 37\npaths_found    : 84\npaths_imported : 0\nmax_depth      : 6\ncur_path       : 76\npending_favs   : 5\npending_total  : 44\nvariable_paths : 0\nbitmap_cvg     : 0.65%\nunique_crashes : 0\nunique_hangs   : 0\nlast_path      : 1499994948\nlast_crash     : 0\nlast_hang      : 0\nexec_timeout   : 20\nafl_banner     : fuzzer-master\nafl_version    : 1.85b\ncommand_line   : /home/skaramcheti/.virtualenvs/afl/bin/afl-unix/afl-fuzz -i /dev/shm/work/GPS_Tracker/input -o /dev/shm/work/GPS_Tracker/sync -m 4G -Q -M fuzzer-master -x /dev/shm/work/GPS_Tracker/GPS_Tracker.dict -- data/linux/processed-challenges/GPS_Tracker/bin/GPS_Tracker\n'
p37
I4
tp38
a(I2280
S'start_time     : 1499992834\nlast_update    : 1499995117\nfuzzer_pid     : 14492\ncycles_done    : 0\nexecs_done     : 1467012\nexecs_per_sec  : 637.60\npaths_total    : 93\npaths_favored  : 38\npaths_found    : 92\npaths_imported : 0\nmax_depth      : 6\ncur_path       : 78\npending_favs   : 5\npending_total  : 50\nvariable_paths : 0\nbitmap_cvg     : 0.65%\nunique_crashes : 0\nunique_hangs   : 0\nlast_path      : 1499995108\nlast_crash     : 0\nlast_hang      : 0\nexec_timeout   : 20\nafl_banner     : fuzzer-master\nafl_version    : 1.85b\ncommand_line   : /home/skaramcheti/.virtualenvs/afl/bin/afl-unix/afl-fuzz -i /dev/shm/work/GPS_Tracker/input -o /dev/shm/work/GPS_Tracker/sync -m 4G -Q -M fuzzer-master -x /dev/shm/work/GPS_Tracker/GPS_Tracker.dict -- data/linux/processed-challenges/GPS_Tracker/bin/GPS_Tracker\n'
p39
I8
tp40
a(I2400
S'start_time     : 1499992834\nlast_update    : 1499995238\nfuzzer_pid     : 14492\ncycles_done    : 0\nexecs_done     : 1543032\nexecs_per_sec  : 642.61\npaths_total    : 93\npaths_favored  : 38\npaths_found    : 92\npaths_imported : 0\nmax_depth      : 6\ncur_path       : 78\npending_favs   : 5\npending_total  : 50\nvariable_paths : 0\nbitmap_cvg     : 0.65%\nunique_crashes : 0\nunique_hangs   : 0\nlast_path      : 1499995108\nlast_crash     : 0\nlast_hang      : 0\nexec_timeout   : 20\nafl_banner     : fuzzer-master\nafl_version    : 1.85b\ncommand_line   : /home/skaramcheti/.virtualenvs/afl/bin/afl-unix/afl-fuzz -i /dev/shm/work/GPS_Tracker/input -o /dev/shm/work/GPS_Tracker/sync -m 4G -Q -M fuzzer-master -x /dev/shm/work/GPS_Tracker/GPS_Tracker.dict -- data/linux/processed-challenges/GPS_Tracker/bin/GPS_Tracker\n'
p41
I0
tp42
a(I2520
S'start_time     : 1499992834\nlast_update    : 1499995358\nfuzzer_pid     : 14492\ncycles_done    : 0\nexecs_done     : 1619862\nexecs_per_sec  : 650.62\npaths_total    : 94\npaths_favored  : 38\npaths_found    : 93\npaths_imported : 0\nmax_depth      : 7\ncur_path       : 83\npending_favs   : 5\npending_total  : 48\nvariable_paths : 0\nbitmap_cvg     : 0.66%\nunique_crashes : 0\nunique_hangs   : 0\nlast_path      : 1499995338\nlast_crash     : 0\nlast_hang      : 0\nexec_timeout   : 20\nafl_banner     : fuzzer-master\nafl_version    : 1.85b\ncommand_line   : /home/skaramcheti/.virtualenvs/afl/bin/afl-unix/afl-fuzz -i /dev/shm/work/GPS_Tracker/input -o /dev/shm/work/GPS_Tracker/sync -m 4G -Q -M fuzzer-master -x /dev/shm/work/GPS_Tracker/GPS_Tracker.dict -- data/linux/processed-challenges/GPS_Tracker/bin/GPS_Tracker\n'
p43
I1
tp44
a(I2640
S'start_time     : 1499992834\nlast_update    : 1499995478\nfuzzer_pid     : 14492\ncycles_done    : 0\nexecs_done     : 1695220\nexecs_per_sec  : 614.49\npaths_total    : 101\npaths_favored  : 40\npaths_found    : 100\npaths_imported : 0\nmax_depth      : 7\ncur_path       : 85\npending_favs   : 5\npending_total  : 53\nvariable_paths : 0\nbitmap_cvg     : 0.66%\nunique_crashes : 0\nunique_hangs   : 0\nlast_path      : 1499995458\nlast_crash     : 0\nlast_hang      : 0\nexec_timeout   : 20\nafl_banner     : fuzzer-master\nafl_version    : 1.85b\ncommand_line   : /home/skaramcheti/.virtualenvs/afl/bin/afl-unix/afl-fuzz -i /dev/shm/work/GPS_Tracker/input -o /dev/shm/work/GPS_Tracker/sync -m 4G -Q -M fuzzer-master -x /dev/shm/work/GPS_Tracker/GPS_Tracker.dict -- data/linux/processed-challenges/GPS_Tracker/bin/GPS_Tracker\n'
p45
I7
tp46
a(I2760
S'start_time     : 1499992834\nlast_update    : 1499995598\nfuzzer_pid     : 14492\ncycles_done    : 0\nexecs_done     : 1770502\nexecs_per_sec  : 626.77\npaths_total    : 105\npaths_favored  : 43\npaths_found    : 104\npaths_imported : 0\nmax_depth      : 7\ncur_path       : 91\npending_favs   : 6\npending_total  : 55\nvariable_paths : 0\nbitmap_cvg     : 0.66%\nunique_crashes : 0\nunique_hangs   : 0\nlast_path      : 1499995554\nlast_crash     : 0\nlast_hang      : 0\nexec_timeout   : 20\nafl_banner     : fuzzer-master\nafl_version    : 1.85b\ncommand_line   : /home/skaramcheti/.virtualenvs/afl/bin/afl-unix/afl-fuzz -i /dev/shm/work/GPS_Tracker/input -o /dev/shm/work/GPS_Tracker/sync -m 4G -Q -M fuzzer-master -x /dev/shm/work/GPS_Tracker/GPS_Tracker.dict -- data/linux/processed-challenges/GPS_Tracker/bin/GPS_Tracker\n'
p47
I4
tp48
a(I2880
S'start_time     : 1499992834\nlast_update    : 1499995719\nfuzzer_pid     : 14492\ncycles_done    : 0\nexecs_done     : 1845214\nexecs_per_sec  : 610.72\npaths_total    : 105\npaths_favored  : 43\npaths_found    : 104\npaths_imported : 0\nmax_depth      : 7\ncur_path       : 91\npending_favs   : 6\npending_total  : 55\nvariable_paths : 0\nbitmap_cvg     : 0.66%\nunique_crashes : 0\nunique_hangs   : 0\nlast_path      : 1499995554\nlast_crash     : 0\nlast_hang      : 0\nexec_timeout   : 20\nafl_banner     : fuzzer-master\nafl_version    : 1.85b\ncommand_line   : /home/skaramcheti/.virtualenvs/afl/bin/afl-unix/afl-fuzz -i /dev/shm/work/GPS_Tracker/input -o /dev/shm/work/GPS_Tracker/sync -m 4G -Q -M fuzzer-master -x /dev/shm/work/GPS_Tracker/GPS_Tracker.dict -- data/linux/processed-challenges/GPS_Tracker/bin/GPS_Tracker\n'
p49
I0
tp50
a(I3000
S'start_time     : 1499992834\nlast_update    : 1499995839\nfuzzer_pid     : 14492\ncycles_done    : 0\nexecs_done     : 1920176\nexecs_per_sec  : 619.72\npaths_total    : 107\npaths_favored  : 45\npaths_found    : 106\npaths_imported : 0\nmax_depth      : 8\ncur_path       : 97\npending_favs   : 5\npending_total  : 54\nvariable_paths : 0\nbitmap_cvg     : 0.67%\nunique_crashes : 0\nunique_hangs   : 0\nlast_path      : 1499995812\nlast_crash     : 0\nlast_hang      : 0\nexec_timeout   : 20\nafl_banner     : fuzzer-master\nafl_version    : 1.85b\ncommand_line   : /home/skaramcheti/.virtualenvs/afl/bin/afl-unix/afl-fuzz -i /dev/shm/work/GPS_Tracker/input -o /dev/shm/work/GPS_Tracker/sync -m 4G -Q -M fuzzer-master -x /dev/shm/work/GPS_Tracker/GPS_Tracker.dict -- data/linux/processed-challenges/GPS_Tracker/bin/GPS_Tracker\n'
p51
I2
tp52
a(I3120
S'start_time     : 1499992834\nlast_update    : 1499995959\nfuzzer_pid     : 14492\ncycles_done    : 0\nexecs_done     : 1994500\nexecs_per_sec  : 616.06\npaths_total    : 109\npaths_favored  : 45\npaths_found    : 108\npaths_imported : 0\nmax_depth      : 9\ncur_path       : 105\npending_favs   : 2\npending_total  : 53\nvariable_paths : 0\nbitmap_cvg     : 0.67%\nunique_crashes : 0\nunique_hangs   : 0\nlast_path      : 1499995946\nlast_crash     : 0\nlast_hang      : 0\nexec_timeout   : 20\nafl_banner     : fuzzer-master\nafl_version    : 1.85b\ncommand_line   : /home/skaramcheti/.virtualenvs/afl/bin/afl-unix/afl-fuzz -i /dev/shm/work/GPS_Tracker/input -o /dev/shm/work/GPS_Tracker/sync -m 4G -Q -M fuzzer-master -x /dev/shm/work/GPS_Tracker/GPS_Tracker.dict -- data/linux/processed-challenges/GPS_Tracker/bin/GPS_Tracker\n'
p53
I2
tp54
a(I3240
S'start_time     : 1499992834\nlast_update    : 1499996079\nfuzzer_pid     : 14492\ncycles_done    : 1\nexecs_done     : 2069413\nexecs_per_sec  : 637.42\npaths_total    : 109\npaths_favored  : 45\npaths_found    : 108\npaths_imported : 0\nmax_depth      : 9\ncur_path       : 8\npending_favs   : 0\npending_total  : 50\nvariable_paths : 0\nbitmap_cvg     : 0.67%\nunique_crashes : 0\nunique_hangs   : 0\nlast_path      : 1499995946\nlast_crash     : 0\nlast_hang      : 0\nexec_timeout   : 20\nafl_banner     : fuzzer-master\nafl_version    : 1.85b\ncommand_line   : /home/skaramcheti/.virtualenvs/afl/bin/afl-unix/afl-fuzz -i /dev/shm/work/GPS_Tracker/input -o /dev/shm/work/GPS_Tracker/sync -m 4G -Q -M fuzzer-master -x /dev/shm/work/GPS_Tracker/GPS_Tracker.dict -- data/linux/processed-challenges/GPS_Tracker/bin/GPS_Tracker\n'
p55
I0
tp56
a(I3360
S'start_time     : 1499992834\nlast_update    : 1499996200\nfuzzer_pid     : 14492\ncycles_done    : 1\nexecs_done     : 2147293\nexecs_per_sec  : 660.02\npaths_total    : 110\npaths_favored  : 45\npaths_found    : 109\npaths_imported : 0\nmax_depth      : 9\ncur_path       : 31\npending_favs   : 0\npending_total  : 48\nvariable_paths : 0\nbitmap_cvg     : 0.67%\nunique_crashes : 0\nunique_hangs   : 0\nlast_path      : 1499996182\nlast_crash     : 0\nlast_hang      : 0\nexec_timeout   : 20\nafl_banner     : fuzzer-master\nafl_version    : 1.85b\ncommand_line   : /home/skaramcheti/.virtualenvs/afl/bin/afl-unix/afl-fuzz -i /dev/shm/work/GPS_Tracker/input -o /dev/shm/work/GPS_Tracker/sync -m 4G -Q -M fuzzer-master -x /dev/shm/work/GPS_Tracker/GPS_Tracker.dict -- data/linux/processed-challenges/GPS_Tracker/bin/GPS_Tracker\n'
p57
I1
tp58
a(I3480
S'start_time     : 1499992834\nlast_update    : 1499996260\nfuzzer_pid     : 14492\ncycles_done    : 1\nexecs_done     : 2185797\nexecs_per_sec  : 650.93\npaths_total    : 110\npaths_favored  : 45\npaths_found    : 109\npaths_imported : 0\nmax_depth      : 9\ncur_path       : 46\npending_favs   : 0\npending_total  : 47\nvariable_paths : 0\nbitmap_cvg     : 0.67%\nunique_crashes : 0\nunique_hangs   : 0\nlast_path      : 1499996182\nlast_crash     : 0\nlast_hang      : 0\nexec_timeout   : 20\nafl_banner     : fuzzer-master\nafl_version    : 1.85b\ncommand_line   : /home/skaramcheti/.virtualenvs/afl/bin/afl-unix/afl-fuzz -i /dev/shm/work/GPS_Tracker/input -o /dev/shm/work/GPS_Tracker/sync -m 4G -Q -M fuzzer-master -x /dev/shm/work/GPS_Tracker/GPS_Tracker.dict -- data/linux/processed-challenges/GPS_Tracker/bin/GPS_Tracker\n'
p59
I2
tp60
a(I3600
S'start_time     : 1499992834\nlast_update    : 1499996380\nfuzzer_pid     : 14492\ncycles_done    : 1\nexecs_done     : 2263229\nexecs_per_sec  : 635.98\npaths_total    : 112\npaths_favored  : 45\npaths_found    : 111\npaths_imported : 0\nmax_depth      : 9\ncur_path       : 54\npending_favs   : 0\npending_total  : 48\nvariable_paths : 0\nbitmap_cvg     : 0.67%\nunique_crashes : 0\nunique_hangs   : 0\nlast_path      : 1499996305\nlast_crash     : 0\nlast_hang      : 0\nexec_timeout   : 20\nafl_banner     : fuzzer-master\nafl_version    : 1.85b\ncommand_line   : /home/skaramcheti/.virtualenvs/afl/bin/afl-unix/afl-fuzz -i /dev/shm/work/GPS_Tracker/input -o /dev/shm/work/GPS_Tracker/sync -m 4G -Q -M fuzzer-master -x /dev/shm/work/GPS_Tracker/GPS_Tracker.dict -- data/linux/processed-challenges/GPS_Tracker/bin/GPS_Tracker\n'
p61
I1
tp62
a(I3720
S'start_time     : 1499992834\nlast_update    : 1499996500\nfuzzer_pid     : 14492\ncycles_done    : 1\nexecs_done     : 2339393\nexecs_per_sec  : 618.29\npaths_total    : 114\npaths_favored  : 45\npaths_found    : 113\npaths_imported : 0\nmax_depth      : 9\ncur_path       : 60\npending_favs   : 0\npending_total  : 50\nvariable_paths : 0\nbitmap_cvg     : 0.67%\nunique_crashes : 0\nunique_hangs   : 0\nlast_path      : 1499996485\nlast_crash     : 0\nlast_hang      : 0\nexec_timeout   : 20\nafl_banner     : fuzzer-master\nafl_version    : 1.85b\ncommand_line   : /home/skaramcheti/.virtualenvs/afl/bin/afl-unix/afl-fuzz -i /dev/shm/work/GPS_Tracker/input -o /dev/shm/work/GPS_Tracker/sync -m 4G -Q -M fuzzer-master -x /dev/shm/work/GPS_Tracker/GPS_Tracker.dict -- data/linux/processed-challenges/GPS_Tracker/bin/GPS_Tracker\n'
p63
I4
tp64
a(I3840
S'start_time     : 1499992834\nlast_update    : 1499996620\nfuzzer_pid     : 14492\ncycles_done    : 1\nexecs_done     : 2415885\nexecs_per_sec  : 641.68\npaths_total    : 117\npaths_favored  : 45\npaths_found    : 116\npaths_imported : 0\nmax_depth      : 9\ncur_path       : 74\npending_favs   : 0\npending_total  : 51\nvariable_paths : 0\nbitmap_cvg     : 0.67%\nunique_crashes : 0\nunique_hangs   : 0\nlast_path      : 1499996516\nlast_crash     : 0\nlast_hang      : 0\nexec_timeout   : 20\nafl_banner     : fuzzer-master\nafl_version    : 1.85b\ncommand_line   : /home/skaramcheti/.virtualenvs/afl/bin/afl-unix/afl-fuzz -i /dev/shm/work/GPS_Tracker/input -o /dev/shm/work/GPS_Tracker/sync -m 4G -Q -M fuzzer-master -x /dev/shm/work/GPS_Tracker/GPS_Tracker.dict -- data/linux/processed-challenges/GPS_Tracker/bin/GPS_Tracker\n'
p65
I0
tp66
a(I3960
S'start_time     : 1499992834\nlast_update    : 1499996740\nfuzzer_pid     : 14492\ncycles_done    : 1\nexecs_done     : 2492339\nexecs_per_sec  : 624.91\npaths_total    : 120\npaths_favored  : 45\npaths_found    : 119\npaths_imported : 0\nmax_depth      : 9\ncur_path       : 82\npending_favs   : 0\npending_total  : 54\nvariable_paths : 0\nbitmap_cvg     : 0.67%\nunique_crashes : 0\nunique_hangs   : 0\nlast_path      : 1499996706\nlast_crash     : 0\nlast_hang      : 0\nexec_timeout   : 20\nafl_banner     : fuzzer-master\nafl_version    : 1.85b\ncommand_line   : /home/skaramcheti/.virtualenvs/afl/bin/afl-unix/afl-fuzz -i /dev/shm/work/GPS_Tracker/input -o /dev/shm/work/GPS_Tracker/sync -m 4G -Q -M fuzzer-master -x /dev/shm/work/GPS_Tracker/GPS_Tracker.dict -- data/linux/processed-challenges/GPS_Tracker/bin/GPS_Tracker\n'
p67
I4
tp68
a(I4080
S'start_time     : 1499992834\nlast_update    : 1499996861\nfuzzer_pid     : 14492\ncycles_done    : 1\nexecs_done     : 2569390\nexecs_per_sec  : 653.10\npaths_total    : 121\npaths_favored  : 45\npaths_found    : 120\npaths_imported : 0\nmax_depth      : 9\ncur_path       : 82\npending_favs   : 0\npending_total  : 55\nvariable_paths : 0\nbitmap_cvg     : 0.67%\nunique_crashes : 0\nunique_hangs   : 0\nlast_path      : 1499996786\nlast_crash     : 0\nlast_hang      : 0\nexec_timeout   : 20\nafl_banner     : fuzzer-master\nafl_version    : 1.85b\ncommand_line   : /home/skaramcheti/.virtualenvs/afl/bin/afl-unix/afl-fuzz -i /dev/shm/work/GPS_Tracker/input -o /dev/shm/work/GPS_Tracker/sync -m 4G -Q -M fuzzer-master -x /dev/shm/work/GPS_Tracker/GPS_Tracker.dict -- data/linux/processed-challenges/GPS_Tracker/bin/GPS_Tracker\n'
p69
I1
tp70
a(I4200
S'start_time     : 1499992834\nlast_update    : 1499996981\nfuzzer_pid     : 14492\ncycles_done    : 1\nexecs_done     : 2646527\nexecs_per_sec  : 651.27\npaths_total    : 122\npaths_favored  : 45\npaths_found    : 121\npaths_imported : 0\nmax_depth      : 9\ncur_path       : 86\npending_favs   : 0\npending_total  : 55\nvariable_paths : 0\nbitmap_cvg     : 0.67%\nunique_crashes : 0\nunique_hangs   : 0\nlast_path      : 1499996917\nlast_crash     : 0\nlast_hang      : 0\nexec_timeout   : 20\nafl_banner     : fuzzer-master\nafl_version    : 1.85b\ncommand_line   : /home/skaramcheti/.virtualenvs/afl/bin/afl-unix/afl-fuzz -i /dev/shm/work/GPS_Tracker/input -o /dev/shm/work/GPS_Tracker/sync -m 4G -Q -M fuzzer-master -x /dev/shm/work/GPS_Tracker/GPS_Tracker.dict -- data/linux/processed-challenges/GPS_Tracker/bin/GPS_Tracker\n'
p71
I0
tp72
a(I4320
S'start_time     : 1499992834\nlast_update    : 1499997101\nfuzzer_pid     : 14492\ncycles_done    : 1\nexecs_done     : 2722646\nexecs_per_sec  : 637.62\npaths_total    : 122\npaths_favored  : 45\npaths_found    : 121\npaths_imported : 0\nmax_depth      : 9\ncur_path       : 94\npending_favs   : 0\npending_total  : 53\nvariable_paths : 0\nbitmap_cvg     : 0.67%\nunique_crashes : 0\nunique_hangs   : 0\nlast_path      : 1499996917\nlast_crash     : 0\nlast_hang      : 0\nexec_timeout   : 20\nafl_banner     : fuzzer-master\nafl_version    : 1.85b\ncommand_line   : /home/skaramcheti/.virtualenvs/afl/bin/afl-unix/afl-fuzz -i /dev/shm/work/GPS_Tracker/input -o /dev/shm/work/GPS_Tracker/sync -m 4G -Q -M fuzzer-master -x /dev/shm/work/GPS_Tracker/GPS_Tracker.dict -- data/linux/processed-challenges/GPS_Tracker/bin/GPS_Tracker\n'
p73
I0
tp74
a(I4440
S'start_time     : 1499992834\nlast_update    : 1499997222\nfuzzer_pid     : 14492\ncycles_done    : 1\nexecs_done     : 2799150\nexecs_per_sec  : 610.68\npaths_total    : 124\npaths_favored  : 45\npaths_found    : 123\npaths_imported : 0\nmax_depth      : 9\ncur_path       : 100\npending_favs   : 0\npending_total  : 54\nvariable_paths : 0\nbitmap_cvg     : 0.67%\nunique_crashes : 0\nunique_hangs   : 0\nlast_path      : 1499997207\nlast_crash     : 0\nlast_hang      : 0\nexec_timeout   : 20\nafl_banner     : fuzzer-master\nafl_version    : 1.85b\ncommand_line   : /home/skaramcheti/.virtualenvs/afl/bin/afl-unix/afl-fuzz -i /dev/shm/work/GPS_Tracker/input -o /dev/shm/work/GPS_Tracker/sync -m 4G -Q -M fuzzer-master -x /dev/shm/work/GPS_Tracker/GPS_Tracker.dict -- data/linux/processed-challenges/GPS_Tracker/bin/GPS_Tracker\n'
p75
I3
tp76
a(I4560
S'start_time     : 1499992834\nlast_update    : 1499997342\nfuzzer_pid     : 14492\ncycles_done    : 1\nexecs_done     : 2875246\nexecs_per_sec  : 635.06\npaths_total    : 129\npaths_favored  : 45\npaths_found    : 128\npaths_imported : 0\nmax_depth      : 9\ncur_path       : 103\npending_favs   : 0\npending_total  : 58\nvariable_paths : 0\nbitmap_cvg     : 0.67%\nunique_crashes : 0\nunique_hangs   : 0\nlast_path      : 1499997326\nlast_crash     : 0\nlast_hang      : 0\nexec_timeout   : 20\nafl_banner     : fuzzer-master\nafl_version    : 1.85b\ncommand_line   : /home/skaramcheti/.virtualenvs/afl/bin/afl-unix/afl-fuzz -i /dev/shm/work/GPS_Tracker/input -o /dev/shm/work/GPS_Tracker/sync -m 4G -Q -M fuzzer-master -x /dev/shm/work/GPS_Tracker/GPS_Tracker.dict -- data/linux/processed-challenges/GPS_Tracker/bin/GPS_Tracker\n'
p77
I4
tp78
a(I4680
S'start_time     : 1499992834\nlast_update    : 1499997462\nfuzzer_pid     : 14492\ncycles_done    : 1\nexecs_done     : 2950738\nexecs_per_sec  : 624.77\npaths_total    : 129\npaths_favored  : 45\npaths_found    : 128\npaths_imported : 0\nmax_depth      : 9\ncur_path       : 103\npending_favs   : 0\npending_total  : 58\nvariable_paths : 0\nbitmap_cvg     : 0.67%\nunique_crashes : 0\nunique_hangs   : 0\nlast_path      : 1499997326\nlast_crash     : 0\nlast_hang      : 0\nexec_timeout   : 20\nafl_banner     : fuzzer-master\nafl_version    : 1.85b\ncommand_line   : /home/skaramcheti/.virtualenvs/afl/bin/afl-unix/afl-fuzz -i /dev/shm/work/GPS_Tracker/input -o /dev/shm/work/GPS_Tracker/sync -m 4G -Q -M fuzzer-master -x /dev/shm/work/GPS_Tracker/GPS_Tracker.dict -- data/linux/processed-challenges/GPS_Tracker/bin/GPS_Tracker\n'
p79
I1
tp80
a(I4800
S'start_time     : 1499992834\nlast_update    : 1499997582\nfuzzer_pid     : 14492\ncycles_done    : 1\nexecs_done     : 3027367\nexecs_per_sec  : 638.95\npaths_total    : 131\npaths_favored  : 45\npaths_found    : 130\npaths_imported : 0\nmax_depth      : 9\ncur_path       : 129\npending_favs   : 1\npending_total  : 59\nvariable_paths : 0\nbitmap_cvg     : 0.70%\nunique_crashes : 0\nunique_hangs   : 0\nlast_path      : 1499997552\nlast_crash     : 0\nlast_hang      : 0\nexec_timeout   : 20\nafl_banner     : fuzzer-master\nafl_version    : 1.85b\ncommand_line   : /home/skaramcheti/.virtualenvs/afl/bin/afl-unix/afl-fuzz -i /dev/shm/work/GPS_Tracker/input -o /dev/shm/work/GPS_Tracker/sync -m 4G -Q -M fuzzer-master -x /dev/shm/work/GPS_Tracker/GPS_Tracker.dict -- data/linux/processed-challenges/GPS_Tracker/bin/GPS_Tracker\n'
p81
I2
tp82
a(I4920
S'start_time     : 1499992834\nlast_update    : 1499997702\nfuzzer_pid     : 14492\ncycles_done    : 1\nexecs_done     : 3103650\nexecs_per_sec  : 644.94\npaths_total    : 132\npaths_favored  : 46\npaths_found    : 131\npaths_imported : 0\nmax_depth      : 9\ncur_path       : 130\npending_favs   : 2\npending_total  : 59\nvariable_paths : 0\nbitmap_cvg     : 0.72%\nunique_crashes : 0\nunique_hangs   : 0\nlast_path      : 1499997609\nlast_crash     : 0\nlast_hang      : 0\nexec_timeout   : 20\nafl_banner     : fuzzer-master\nafl_version    : 1.85b\ncommand_line   : /home/skaramcheti/.virtualenvs/afl/bin/afl-unix/afl-fuzz -i /dev/shm/work/GPS_Tracker/input -o /dev/shm/work/GPS_Tracker/sync -m 4G -Q -M fuzzer-master -x /dev/shm/work/GPS_Tracker/GPS_Tracker.dict -- data/linux/processed-challenges/GPS_Tracker/bin/GPS_Tracker\n'
p83
I2
tp84
a(I5040
S'start_time     : 1499992834\nlast_update    : 1499997823\nfuzzer_pid     : 14492\ncycles_done    : 1\nexecs_done     : 3179714\nexecs_per_sec  : 629.06\npaths_total    : 134\npaths_favored  : 46\npaths_found    : 133\npaths_imported : 0\nmax_depth      : 10\ncur_path       : 130\npending_favs   : 2\npending_total  : 61\nvariable_paths : 0\nbitmap_cvg     : 0.74%\nunique_crashes : 0\nunique_hangs   : 0\nlast_path      : 1499997745\nlast_crash     : 0\nlast_hang      : 0\nexec_timeout   : 20\nafl_banner     : fuzzer-master\nafl_version    : 1.85b\ncommand_line   : /home/skaramcheti/.virtualenvs/afl/bin/afl-unix/afl-fuzz -i /dev/shm/work/GPS_Tracker/input -o /dev/shm/work/GPS_Tracker/sync -m 4G -Q -M fuzzer-master -x /dev/shm/work/GPS_Tracker/GPS_Tracker.dict -- data/linux/processed-challenges/GPS_Tracker/bin/GPS_Tracker\n'
p85
I0
tp86
a(I5160
S'start_time     : 1499992834\nlast_update    : 1499997943\nfuzzer_pid     : 14492\ncycles_done    : 1\nexecs_done     : 3255108\nexecs_per_sec  : 637.36\npaths_total    : 135\npaths_favored  : 46\npaths_found    : 134\npaths_imported : 0\nmax_depth      : 10\ncur_path       : 130\npending_favs   : 2\npending_total  : 62\nvariable_paths : 0\nbitmap_cvg     : 0.74%\nunique_crashes : 0\nunique_hangs   : 0\nlast_path      : 1499997905\nlast_crash     : 0\nlast_hang      : 0\nexec_timeout   : 20\nafl_banner     : fuzzer-master\nafl_version    : 1.85b\ncommand_line   : /home/skaramcheti/.virtualenvs/afl/bin/afl-unix/afl-fuzz -i /dev/shm/work/GPS_Tracker/input -o /dev/shm/work/GPS_Tracker/sync -m 4G -Q -M fuzzer-master -x /dev/shm/work/GPS_Tracker/GPS_Tracker.dict -- data/linux/processed-challenges/GPS_Tracker/bin/GPS_Tracker\n'
p87
I1
tp88
a(I5280
S'start_time     : 1499992834\nlast_update    : 1499998063\nfuzzer_pid     : 14492\ncycles_done    : 1\nexecs_done     : 3331444\nexecs_per_sec  : 634.06\npaths_total    : 138\npaths_favored  : 48\npaths_found    : 137\npaths_imported : 0\nmax_depth      : 11\ncur_path       : 132\npending_favs   : 3\npending_total  : 63\nvariable_paths : 0\nbitmap_cvg     : 0.76%\nunique_crashes : 0\nunique_hangs   : 0\nlast_path      : 1499998040\nlast_crash     : 0\nlast_hang      : 0\nexec_timeout   : 20\nafl_banner     : fuzzer-master\nafl_version    : 1.85b\ncommand_line   : /home/skaramcheti/.virtualenvs/afl/bin/afl-unix/afl-fuzz -i /dev/shm/work/GPS_Tracker/input -o /dev/shm/work/GPS_Tracker/sync -m 4G -Q -M fuzzer-master -x /dev/shm/work/GPS_Tracker/GPS_Tracker.dict -- data/linux/processed-challenges/GPS_Tracker/bin/GPS_Tracker\n'
p89
I3
tp90
a(I5400
S'start_time     : 1499992834\nlast_update    : 1499998183\nfuzzer_pid     : 14492\ncycles_done    : 1\nexecs_done     : 3408337\nexecs_per_sec  : 661.42\npaths_total    : 138\npaths_favored  : 48\npaths_found    : 137\npaths_imported : 0\nmax_depth      : 11\ncur_path       : 132\npending_favs   : 3\npending_total  : 63\nvariable_paths : 0\nbitmap_cvg     : 0.76%\nunique_crashes : 0\nunique_hangs   : 0\nlast_path      : 1499998040\nlast_crash     : 0\nlast_hang      : 0\nexec_timeout   : 20\nafl_banner     : fuzzer-master\nafl_version    : 1.85b\ncommand_line   : /home/skaramcheti/.virtualenvs/afl/bin/afl-unix/afl-fuzz -i /dev/shm/work/GPS_Tracker/input -o /dev/shm/work/GPS_Tracker/sync -m 4G -Q -M fuzzer-master -x /dev/shm/work/GPS_Tracker/GPS_Tracker.dict -- data/linux/processed-challenges/GPS_Tracker/bin/GPS_Tracker\n'
p91
I1
tp92
a(I5520
S'start_time     : 1499992834\nlast_update    : 1499998303\nfuzzer_pid     : 14492\ncycles_done    : 1\nexecs_done     : 3484787\nexecs_per_sec  : 652.92\npaths_total    : 141\npaths_favored  : 50\npaths_found    : 140\npaths_imported : 0\nmax_depth      : 11\ncur_path       : 133\npending_favs   : 5\npending_total  : 65\nvariable_paths : 0\nbitmap_cvg     : 0.76%\nunique_crashes : 0\nunique_hangs   : 0\nlast_path      : 1499998299\nlast_crash     : 0\nlast_hang      : 0\nexec_timeout   : 20\nafl_banner     : fuzzer-master\nafl_version    : 1.85b\ncommand_line   : /home/skaramcheti/.virtualenvs/afl/bin/afl-unix/afl-fuzz -i /dev/shm/work/GPS_Tracker/input -o /dev/shm/work/GPS_Tracker/sync -m 4G -Q -M fuzzer-master -x /dev/shm/work/GPS_Tracker/GPS_Tracker.dict -- data/linux/processed-challenges/GPS_Tracker/bin/GPS_Tracker\n'
p93
I2
tp94
a(I5640
S'start_time     : 1499992834\nlast_update    : 1499998423\nfuzzer_pid     : 14492\ncycles_done    : 1\nexecs_done     : 3560687\nexecs_per_sec  : 632.69\npaths_total    : 141\npaths_favored  : 50\npaths_found    : 140\npaths_imported : 0\nmax_depth      : 11\ncur_path       : 133\npending_favs   : 5\npending_total  : 65\nvariable_paths : 0\nbitmap_cvg     : 0.76%\nunique_crashes : 0\nunique_hangs   : 0\nlast_path      : 1499998299\nlast_crash     : 0\nlast_hang      : 0\nexec_timeout   : 20\nafl_banner     : fuzzer-master\nafl_version    : 1.85b\ncommand_line   : /home/skaramcheti/.virtualenvs/afl/bin/afl-unix/afl-fuzz -i /dev/shm/work/GPS_Tracker/input -o /dev/shm/work/GPS_Tracker/sync -m 4G -Q -M fuzzer-master -x /dev/shm/work/GPS_Tracker/GPS_Tracker.dict -- data/linux/processed-challenges/GPS_Tracker/bin/GPS_Tracker\n'
p95
I0
tp96
a(I5760
S'start_time     : 1499992834\nlast_update    : 1499998544\nfuzzer_pid     : 14492\ncycles_done    : 1\nexecs_done     : 3637548\nexecs_per_sec  : 634.72\npaths_total    : 142\npaths_favored  : 49\npaths_found    : 141\npaths_imported : 0\nmax_depth      : 11\ncur_path       : 134\npending_favs   : 5\npending_total  : 65\nvariable_paths : 0\nbitmap_cvg     : 0.76%\nunique_crashes : 0\nunique_hangs   : 0\nlast_path      : 1499998510\nlast_crash     : 0\nlast_hang      : 0\nexec_timeout   : 20\nafl_banner     : fuzzer-master\nafl_version    : 1.85b\ncommand_line   : /home/skaramcheti/.virtualenvs/afl/bin/afl-unix/afl-fuzz -i /dev/shm/work/GPS_Tracker/input -o /dev/shm/work/GPS_Tracker/sync -m 4G -Q -M fuzzer-master -x /dev/shm/work/GPS_Tracker/GPS_Tracker.dict -- data/linux/processed-challenges/GPS_Tracker/bin/GPS_Tracker\n'
p97
I1
tp98
a(I5880
S'start_time     : 1499992834\nlast_update    : 1499998664\nfuzzer_pid     : 14492\ncycles_done    : 1\nexecs_done     : 3714150\nexecs_per_sec  : 637.13\npaths_total    : 143\npaths_favored  : 52\npaths_found    : 142\npaths_imported : 0\nmax_depth      : 12\ncur_path       : 135\npending_favs   : 4\npending_total  : 65\nvariable_paths : 0\nbitmap_cvg     : 0.76%\nunique_crashes : 0\nunique_hangs   : 0\nlast_path      : 1499998642\nlast_crash     : 0\nlast_hang      : 0\nexec_timeout   : 20\nafl_banner     : fuzzer-master\nafl_version    : 1.85b\ncommand_line   : /home/skaramcheti/.virtualenvs/afl/bin/afl-unix/afl-fuzz -i /dev/shm/work/GPS_Tracker/input -o /dev/shm/work/GPS_Tracker/sync -m 4G -Q -M fuzzer-master -x /dev/shm/work/GPS_Tracker/GPS_Tracker.dict -- data/linux/processed-challenges/GPS_Tracker/bin/GPS_Tracker\n'
p99
I2
tp100
a(I6000
S'start_time     : 1499992834\nlast_update    : 1499998784\nfuzzer_pid     : 14492\ncycles_done    : 1\nexecs_done     : 3792152\nexecs_per_sec  : 663.93\npaths_total    : 144\npaths_favored  : 52\npaths_found    : 143\npaths_imported : 0\nmax_depth      : 12\ncur_path       : 135\npending_favs   : 4\npending_total  : 66\nvariable_paths : 0\nbitmap_cvg     : 0.77%\nunique_crashes : 0\nunique_hangs   : 0\nlast_path      : 1499998690\nlast_crash     : 0\nlast_hang      : 0\nexec_timeout   : 20\nafl_banner     : fuzzer-master\nafl_version    : 1.85b\ncommand_line   : /home/skaramcheti/.virtualenvs/afl/bin/afl-unix/afl-fuzz -i /dev/shm/work/GPS_Tracker/input -o /dev/shm/work/GPS_Tracker/sync -m 4G -Q -M fuzzer-master -x /dev/shm/work/GPS_Tracker/GPS_Tracker.dict -- data/linux/processed-challenges/GPS_Tracker/bin/GPS_Tracker\n'
p101
I0
tp102
a(I6120
S'start_time     : 1499992834\nlast_update    : 1499998904\nfuzzer_pid     : 14492\ncycles_done    : 1\nexecs_done     : 3868243\nexecs_per_sec  : 623.26\npaths_total    : 144\npaths_favored  : 53\npaths_found    : 143\npaths_imported : 0\nmax_depth      : 12\ncur_path       : 136\npending_favs   : 5\npending_total  : 65\nvariable_paths : 0\nbitmap_cvg     : 0.77%\nunique_crashes : 0\nunique_hangs   : 0\nlast_path      : 1499998690\nlast_crash     : 0\nlast_hang      : 0\nexec_timeout   : 20\nafl_banner     : fuzzer-master\nafl_version    : 1.85b\ncommand_line   : /home/skaramcheti/.virtualenvs/afl/bin/afl-unix/afl-fuzz -i /dev/shm/work/GPS_Tracker/input -o /dev/shm/work/GPS_Tracker/sync -m 4G -Q -M fuzzer-master -x /dev/shm/work/GPS_Tracker/GPS_Tracker.dict -- data/linux/processed-challenges/GPS_Tracker/bin/GPS_Tracker\n'
p103
I1
tp104
a(I6240
S'start_time     : 1499992834\nlast_update    : 1499999025\nfuzzer_pid     : 14492\ncycles_done    : 1\nexecs_done     : 3944917\nexecs_per_sec  : 642.96\npaths_total    : 145\npaths_favored  : 54\npaths_found    : 144\npaths_imported : 0\nmax_depth      : 12\ncur_path       : 137\npending_favs   : 5\npending_total  : 65\nvariable_paths : 0\nbitmap_cvg     : 0.77%\nunique_crashes : 0\nunique_hangs   : 0\nlast_path      : 1499998951\nlast_crash     : 0\nlast_hang      : 0\nexec_timeout   : 20\nafl_banner     : fuzzer-master\nafl_version    : 1.85b\ncommand_line   : /home/skaramcheti/.virtualenvs/afl/bin/afl-unix/afl-fuzz -i /dev/shm/work/GPS_Tracker/input -o /dev/shm/work/GPS_Tracker/sync -m 4G -Q -M fuzzer-master -x /dev/shm/work/GPS_Tracker/GPS_Tracker.dict -- data/linux/processed-challenges/GPS_Tracker/bin/GPS_Tracker\n'
p105
I1
tp106
a(I6360
S'start_time     : 1499992834\nlast_update    : 1499999145\nfuzzer_pid     : 14492\ncycles_done    : 1\nexecs_done     : 4020721\nexecs_per_sec  : 628.09\npaths_total    : 146\npaths_favored  : 54\npaths_found    : 145\npaths_imported : 0\nmax_depth      : 12\ncur_path       : 137\npending_favs   : 5\npending_total  : 66\nvariable_paths : 0\nbitmap_cvg     : 0.77%\nunique_crashes : 0\nunique_hangs   : 0\nlast_path      : 1499999057\nlast_crash     : 0\nlast_hang      : 0\nexec_timeout   : 20\nafl_banner     : fuzzer-master\nafl_version    : 1.85b\ncommand_line   : /home/skaramcheti/.virtualenvs/afl/bin/afl-unix/afl-fuzz -i /dev/shm/work/GPS_Tracker/input -o /dev/shm/work/GPS_Tracker/sync -m 4G -Q -M fuzzer-master -x /dev/shm/work/GPS_Tracker/GPS_Tracker.dict -- data/linux/processed-challenges/GPS_Tracker/bin/GPS_Tracker\n'
p107
I3
tp108
a(I6480
S'start_time     : 1499992834\nlast_update    : 1499999265\nfuzzer_pid     : 14492\ncycles_done    : 1\nexecs_done     : 4097034\nexecs_per_sec  : 640.39\npaths_total    : 151\npaths_favored  : 54\npaths_found    : 150\npaths_imported : 0\nmax_depth      : 12\ncur_path       : 141\npending_favs   : 4\npending_total  : 70\nvariable_paths : 0\nbitmap_cvg     : 0.77%\nunique_crashes : 0\nunique_hangs   : 0\nlast_path      : 1499999256\nlast_crash     : 0\nlast_hang      : 0\nexec_timeout   : 20\nafl_banner     : fuzzer-master\nafl_version    : 1.85b\ncommand_line   : /home/skaramcheti/.virtualenvs/afl/bin/afl-unix/afl-fuzz -i /dev/shm/work/GPS_Tracker/input -o /dev/shm/work/GPS_Tracker/sync -m 4G -Q -M fuzzer-master -x /dev/shm/work/GPS_Tracker/GPS_Tracker.dict -- data/linux/processed-challenges/GPS_Tracker/bin/GPS_Tracker\n'
p109
I2
tp110
a(I6600
S'start_time     : 1499992834\nlast_update    : 1499999385\nfuzzer_pid     : 14492\ncycles_done    : 1\nexecs_done     : 4175286\nexecs_per_sec  : 648.55\npaths_total    : 151\npaths_favored  : 54\npaths_found    : 150\npaths_imported : 0\nmax_depth      : 12\ncur_path       : 141\npending_favs   : 4\npending_total  : 70\nvariable_paths : 0\nbitmap_cvg     : 0.77%\nunique_crashes : 0\nunique_hangs   : 0\nlast_path      : 1499999256\nlast_crash     : 0\nlast_hang      : 0\nexec_timeout   : 20\nafl_banner     : fuzzer-master\nafl_version    : 1.85b\ncommand_line   : /home/skaramcheti/.virtualenvs/afl/bin/afl-unix/afl-fuzz -i /dev/shm/work/GPS_Tracker/input -o /dev/shm/work/GPS_Tracker/sync -m 4G -Q -M fuzzer-master -x /dev/shm/work/GPS_Tracker/GPS_Tracker.dict -- data/linux/processed-challenges/GPS_Tracker/bin/GPS_Tracker\n'
p111
I0
tp112
a(I6720
S'start_time     : 1499992834\nlast_update    : 1499999505\nfuzzer_pid     : 14492\ncycles_done    : 1\nexecs_done     : 4252125\nexecs_per_sec  : 639.91\npaths_total    : 152\npaths_favored  : 57\npaths_found    : 151\npaths_imported : 0\nmax_depth      : 13\ncur_path       : 142\npending_favs   : 6\npending_total  : 70\nvariable_paths : 0\nbitmap_cvg     : 0.77%\nunique_crashes : 0\nunique_hangs   : 0\nlast_path      : 1499999469\nlast_crash     : 0\nlast_hang      : 0\nexec_timeout   : 20\nafl_banner     : fuzzer-master\nafl_version    : 1.85b\ncommand_line   : /home/skaramcheti/.virtualenvs/afl/bin/afl-unix/afl-fuzz -i /dev/shm/work/GPS_Tracker/input -o /dev/shm/work/GPS_Tracker/sync -m 4G -Q -M fuzzer-master -x /dev/shm/work/GPS_Tracker/GPS_Tracker.dict -- data/linux/processed-challenges/GPS_Tracker/bin/GPS_Tracker\n'
p113
I1
tp114
a(I6840
S'start_time     : 1499992834\nlast_update    : 1499999626\nfuzzer_pid     : 14492\ncycles_done    : 1\nexecs_done     : 4329582\nexecs_per_sec  : 660.57\npaths_total    : 152\npaths_favored  : 57\npaths_found    : 151\npaths_imported : 0\nmax_depth      : 13\ncur_path       : 143\npending_favs   : 5\npending_total  : 69\nvariable_paths : 0\nbitmap_cvg     : 0.77%\nunique_crashes : 0\nunique_hangs   : 0\nlast_path      : 1499999469\nlast_crash     : 0\nlast_hang      : 0\nexec_timeout   : 20\nafl_banner     : fuzzer-master\nafl_version    : 1.85b\ncommand_line   : /home/skaramcheti/.virtualenvs/afl/bin/afl-unix/afl-fuzz -i /dev/shm/work/GPS_Tracker/input -o /dev/shm/work/GPS_Tracker/sync -m 4G -Q -M fuzzer-master -x /dev/shm/work/GPS_Tracker/GPS_Tracker.dict -- data/linux/processed-challenges/GPS_Tracker/bin/GPS_Tracker\n'
p115
I0
tp116
a(I6960
S'start_time     : 1499992834\nlast_update    : 1499999746\nfuzzer_pid     : 14492\ncycles_done    : 1\nexecs_done     : 4404769\nexecs_per_sec  : 619.83\npaths_total    : 152\npaths_favored  : 56\npaths_found    : 151\npaths_imported : 0\nmax_depth      : 13\ncur_path       : 146\npending_favs   : 3\npending_total  : 67\nvariable_paths : 0\nbitmap_cvg     : 0.77%\nunique_crashes : 0\nunique_hangs   : 0\nlast_path      : 1499999469\nlast_crash     : 0\nlast_hang      : 0\nexec_timeout   : 20\nafl_banner     : fuzzer-master\nafl_version    : 1.85b\ncommand_line   : /home/skaramcheti/.virtualenvs/afl/bin/afl-unix/afl-fuzz -i /dev/shm/work/GPS_Tracker/input -o /dev/shm/work/GPS_Tracker/sync -m 4G -Q -M fuzzer-master -x /dev/shm/work/GPS_Tracker/GPS_Tracker.dict -- data/linux/processed-challenges/GPS_Tracker/bin/GPS_Tracker\n'
p117
I0
tp118
a(I7080
S'start_time     : 1499992834\nlast_update    : 1499999866\nfuzzer_pid     : 14492\ncycles_done    : 1\nexecs_done     : 4480612\nexecs_per_sec  : 649.71\npaths_total    : 152\npaths_favored  : 56\npaths_found    : 151\npaths_imported : 0\nmax_depth      : 13\ncur_path       : 147\npending_favs   : 2\npending_total  : 66\nvariable_paths : 0\nbitmap_cvg     : 0.77%\nunique_crashes : 0\nunique_hangs   : 0\nlast_path      : 1499999469\nlast_crash     : 0\nlast_hang      : 0\nexec_timeout   : 20\nafl_banner     : fuzzer-master\nafl_version    : 1.85b\ncommand_line   : /home/skaramcheti/.virtualenvs/afl/bin/afl-unix/afl-fuzz -i /dev/shm/work/GPS_Tracker/input -o /dev/shm/work/GPS_Tracker/sync -m 4G -Q -M fuzzer-master -x /dev/shm/work/GPS_Tracker/GPS_Tracker.dict -- data/linux/processed-challenges/GPS_Tracker/bin/GPS_Tracker\n'
p119
I0
tp120
a(I7200
S'start_time     : 1499992834\nlast_update    : 1499999986\nfuzzer_pid     : 14492\ncycles_done    : 1\nexecs_done     : 4556211\nexecs_per_sec  : 608.77\npaths_total    : 152\npaths_favored  : 56\npaths_found    : 151\npaths_imported : 0\nmax_depth      : 13\ncur_path       : 148\npending_favs   : 1\npending_total  : 65\nvariable_paths : 0\nbitmap_cvg     : 0.77%\nunique_crashes : 0\nunique_hangs   : 0\nlast_path      : 1499999469\nlast_crash     : 0\nlast_hang      : 0\nexec_timeout   : 20\nafl_banner     : fuzzer-master\nafl_version    : 1.85b\ncommand_line   : /home/skaramcheti/.virtualenvs/afl/bin/afl-unix/afl-fuzz -i /dev/shm/work/GPS_Tracker/input -o /dev/shm/work/GPS_Tracker/sync -m 4G -Q -M fuzzer-master -x /dev/shm/work/GPS_Tracker/GPS_Tracker.dict -- data/linux/processed-challenges/GPS_Tracker/bin/GPS_Tracker\n'
p121
I1
tp122
a(I7320
S'start_time     : 1499992834\nlast_update    : 1500000107\nfuzzer_pid     : 14492\ncycles_done    : 1\nexecs_done     : 4632085\nexecs_per_sec  : 613.76\npaths_total    : 153\npaths_favored  : 56\npaths_found    : 152\npaths_imported : 0\nmax_depth      : 13\ncur_path       : 148\npending_favs   : 1\npending_total  : 66\nvariable_paths : 0\nbitmap_cvg     : 0.78%\nunique_crashes : 0\nunique_hangs   : 0\nlast_path      : 1500000004\nlast_crash     : 0\nlast_hang      : 0\nexec_timeout   : 20\nafl_banner     : fuzzer-master\nafl_version    : 1.85b\ncommand_line   : /home/skaramcheti/.virtualenvs/afl/bin/afl-unix/afl-fuzz -i /dev/shm/work/GPS_Tracker/input -o /dev/shm/work/GPS_Tracker/sync -m 4G -Q -M fuzzer-master -x /dev/shm/work/GPS_Tracker/GPS_Tracker.dict -- data/linux/processed-challenges/GPS_Tracker/bin/GPS_Tracker\n'
p123
I0
tp124
a(I7440
S'start_time     : 1499992834\nlast_update    : 1500000227\nfuzzer_pid     : 14492\ncycles_done    : 1\nexecs_done     : 4707449\nexecs_per_sec  : 626.86\npaths_total    : 153\npaths_favored  : 57\npaths_found    : 152\npaths_imported : 0\nmax_depth      : 13\ncur_path       : 152\npending_favs   : 1\npending_total  : 65\nvariable_paths : 0\nbitmap_cvg     : 0.78%\nunique_crashes : 0\nunique_hangs   : 0\nlast_path      : 1500000004\nlast_crash     : 0\nlast_hang      : 0\nexec_timeout   : 20\nafl_banner     : fuzzer-master\nafl_version    : 1.85b\ncommand_line   : /home/skaramcheti/.virtualenvs/afl/bin/afl-unix/afl-fuzz -i /dev/shm/work/GPS_Tracker/input -o /dev/shm/work/GPS_Tracker/sync -m 4G -Q -M fuzzer-master -x /dev/shm/work/GPS_Tracker/GPS_Tracker.dict -- data/linux/processed-challenges/GPS_Tracker/bin/GPS_Tracker\n'
p125
I0
tp126
a(I7560
S'start_time     : 1499992834\nlast_update    : 1500000347\nfuzzer_pid     : 14492\ncycles_done    : 2\nexecs_done     : 4785296\nexecs_per_sec  : 649.57\npaths_total    : 153\npaths_favored  : 57\npaths_found    : 152\npaths_imported : 0\nmax_depth      : 13\ncur_path       : 30\npending_favs   : 0\npending_total  : 61\nvariable_paths : 0\nbitmap_cvg     : 0.78%\nunique_crashes : 0\nunique_hangs   : 0\nlast_path      : 1500000004\nlast_crash     : 0\nlast_hang      : 0\nexec_timeout   : 20\nafl_banner     : fuzzer-master\nafl_version    : 1.85b\ncommand_line   : /home/skaramcheti/.virtualenvs/afl/bin/afl-unix/afl-fuzz -i /dev/shm/work/GPS_Tracker/input -o /dev/shm/work/GPS_Tracker/sync -m 4G -Q -M fuzzer-master -x /dev/shm/work/GPS_Tracker/GPS_Tracker.dict -- data/linux/processed-challenges/GPS_Tracker/bin/GPS_Tracker\n'
p127
I0
tp128
a(I7680
S'start_time     : 1499992834\nlast_update    : 1500000467\nfuzzer_pid     : 14492\ncycles_done    : 2\nexecs_done     : 4863275\nexecs_per_sec  : 637.01\npaths_total    : 153\npaths_favored  : 57\npaths_found    : 152\npaths_imported : 0\nmax_depth      : 13\ncur_path       : 52\npending_favs   : 0\npending_total  : 60\nvariable_paths : 0\nbitmap_cvg     : 0.78%\nunique_crashes : 0\nunique_hangs   : 0\nlast_path      : 1500000004\nlast_crash     : 0\nlast_hang      : 0\nexec_timeout   : 20\nafl_banner     : fuzzer-master\nafl_version    : 1.85b\ncommand_line   : /home/skaramcheti/.virtualenvs/afl/bin/afl-unix/afl-fuzz -i /dev/shm/work/GPS_Tracker/input -o /dev/shm/work/GPS_Tracker/sync -m 4G -Q -M fuzzer-master -x /dev/shm/work/GPS_Tracker/GPS_Tracker.dict -- data/linux/processed-challenges/GPS_Tracker/bin/GPS_Tracker\n'
p129
I0
tp130
a(I7800
S'start_time     : 1499992834\nlast_update    : 1500000587\nfuzzer_pid     : 14492\ncycles_done    : 2\nexecs_done     : 4941446\nexecs_per_sec  : 641.03\npaths_total    : 156\npaths_favored  : 57\npaths_found    : 155\npaths_imported : 0\nmax_depth      : 13\ncur_path       : 61\npending_favs   : 0\npending_total  : 63\nvariable_paths : 0\nbitmap_cvg     : 0.78%\nunique_crashes : 0\nunique_hangs   : 0\nlast_path      : 1500000542\nlast_crash     : 0\nlast_hang      : 0\nexec_timeout   : 20\nafl_banner     : fuzzer-master\nafl_version    : 1.85b\ncommand_line   : /home/skaramcheti/.virtualenvs/afl/bin/afl-unix/afl-fuzz -i /dev/shm/work/GPS_Tracker/input -o /dev/shm/work/GPS_Tracker/sync -m 4G -Q -M fuzzer-master -x /dev/shm/work/GPS_Tracker/GPS_Tracker.dict -- data/linux/processed-challenges/GPS_Tracker/bin/GPS_Tracker\n'
p131
I3
tp132
a(I7920
S'start_time     : 1499992834\nlast_update    : 1500000708\nfuzzer_pid     : 14492\ncycles_done    : 2\nexecs_done     : 5018807\nexecs_per_sec  : 638.72\npaths_total    : 157\npaths_favored  : 57\npaths_found    : 156\npaths_imported : 0\nmax_depth      : 13\ncur_path       : 67\npending_favs   : 0\npending_total  : 63\nvariable_paths : 0\nbitmap_cvg     : 0.78%\nunique_crashes : 0\nunique_hangs   : 0\nlast_path      : 1500000669\nlast_crash     : 0\nlast_hang      : 0\nexec_timeout   : 20\nafl_banner     : fuzzer-master\nafl_version    : 1.85b\ncommand_line   : /home/skaramcheti/.virtualenvs/afl/bin/afl-unix/afl-fuzz -i /dev/shm/work/GPS_Tracker/input -o /dev/shm/work/GPS_Tracker/sync -m 4G -Q -M fuzzer-master -x /dev/shm/work/GPS_Tracker/GPS_Tracker.dict -- data/linux/processed-challenges/GPS_Tracker/bin/GPS_Tracker\n'
p133
I3
tp134
a(I8040
S'start_time     : 1499992834\nlast_update    : 1500000828\nfuzzer_pid     : 14492\ncycles_done    : 2\nexecs_done     : 5097337\nexecs_per_sec  : 651.49\npaths_total    : 159\npaths_favored  : 57\npaths_found    : 158\npaths_imported : 0\nmax_depth      : 13\ncur_path       : 79\npending_favs   : 0\npending_total  : 63\nvariable_paths : 0\nbitmap_cvg     : 0.78%\nunique_crashes : 0\nunique_hangs   : 0\nlast_path      : 1500000738\nlast_crash     : 0\nlast_hang      : 0\nexec_timeout   : 20\nafl_banner     : fuzzer-master\nafl_version    : 1.85b\ncommand_line   : /home/skaramcheti/.virtualenvs/afl/bin/afl-unix/afl-fuzz -i /dev/shm/work/GPS_Tracker/input -o /dev/shm/work/GPS_Tracker/sync -m 4G -Q -M fuzzer-master -x /dev/shm/work/GPS_Tracker/GPS_Tracker.dict -- data/linux/processed-challenges/GPS_Tracker/bin/GPS_Tracker\n'
p135
I0
tp136
a(I8160
S'start_time     : 1499992834\nlast_update    : 1500000948\nfuzzer_pid     : 14492\ncycles_done    : 2\nexecs_done     : 5173941\nexecs_per_sec  : 645.81\npaths_total    : 159\npaths_favored  : 57\npaths_found    : 158\npaths_imported : 0\nmax_depth      : 13\ncur_path       : 93\npending_favs   : 0\npending_total  : 63\nvariable_paths : 0\nbitmap_cvg     : 0.78%\nunique_crashes : 0\nunique_hangs   : 0\nlast_path      : 1500000738\nlast_crash     : 0\nlast_hang      : 0\nexec_timeout   : 20\nafl_banner     : fuzzer-master\nafl_version    : 1.85b\ncommand_line   : /home/skaramcheti/.virtualenvs/afl/bin/afl-unix/afl-fuzz -i /dev/shm/work/GPS_Tracker/input -o /dev/shm/work/GPS_Tracker/sync -m 4G -Q -M fuzzer-master -x /dev/shm/work/GPS_Tracker/GPS_Tracker.dict -- data/linux/processed-challenges/GPS_Tracker/bin/GPS_Tracker\n'
p137
I0
tp138
a(I8280
S'start_time     : 1499992834\nlast_update    : 1500001068\nfuzzer_pid     : 14492\ncycles_done    : 2\nexecs_done     : 5251482\nexecs_per_sec  : 665.80\npaths_total    : 160\npaths_favored  : 57\npaths_found    : 159\npaths_imported : 0\nmax_depth      : 13\ncur_path       : 105\npending_favs   : 0\npending_total  : 64\nvariable_paths : 0\nbitmap_cvg     : 0.78%\nunique_crashes : 0\nunique_hangs   : 0\nlast_path      : 1500001046\nlast_crash     : 0\nlast_hang      : 0\nexec_timeout   : 20\nafl_banner     : fuzzer-master\nafl_version    : 1.85b\ncommand_line   : /home/skaramcheti/.virtualenvs/afl/bin/afl-unix/afl-fuzz -i /dev/shm/work/GPS_Tracker/input -o /dev/shm/work/GPS_Tracker/sync -m 4G -Q -M fuzzer-master -x /dev/shm/work/GPS_Tracker/GPS_Tracker.dict -- data/linux/processed-challenges/GPS_Tracker/bin/GPS_Tracker\n'
p139
I1
tp140
a(I8400
S'start_time     : 1499992834\nlast_update    : 1500001189\nfuzzer_pid     : 14492\ncycles_done    : 2\nexecs_done     : 5326913\nexecs_per_sec  : 598.26\npaths_total    : 160\npaths_favored  : 57\npaths_found    : 159\npaths_imported : 0\nmax_depth      : 13\ncur_path       : 126\npending_favs   : 0\npending_total  : 63\nvariable_paths : 0\nbitmap_cvg     : 0.78%\nunique_crashes : 0\nunique_hangs   : 0\nlast_path      : 1500001046\nlast_crash     : 0\nlast_hang      : 0\nexec_timeout   : 20\nafl_banner     : fuzzer-master\nafl_version    : 1.85b\ncommand_line   : /home/skaramcheti/.virtualenvs/afl/bin/afl-unix/afl-fuzz -i /dev/shm/work/GPS_Tracker/input -o /dev/shm/work/GPS_Tracker/sync -m 4G -Q -M fuzzer-master -x /dev/shm/work/GPS_Tracker/GPS_Tracker.dict -- data/linux/processed-challenges/GPS_Tracker/bin/GPS_Tracker\n'
p141
I4
tp142
a(I8520
S'start_time     : 1499992834\nlast_update    : 1500001309\nfuzzer_pid     : 14492\ncycles_done    : 2\nexecs_done     : 5403432\nexecs_per_sec  : 647.86\npaths_total    : 165\npaths_favored  : 57\npaths_found    : 164\npaths_imported : 0\nmax_depth      : 13\ncur_path       : 126\npending_favs   : 0\npending_total  : 68\nvariable_paths : 0\nbitmap_cvg     : 0.78%\nunique_crashes : 0\nunique_hangs   : 0\nlast_path      : 1500001293\nlast_crash     : 0\nlast_hang      : 0\nexec_timeout   : 20\nafl_banner     : fuzzer-master\nafl_version    : 1.85b\ncommand_line   : /home/skaramcheti/.virtualenvs/afl/bin/afl-unix/afl-fuzz -i /dev/shm/work/GPS_Tracker/input -o /dev/shm/work/GPS_Tracker/sync -m 4G -Q -M fuzzer-master -x /dev/shm/work/GPS_Tracker/GPS_Tracker.dict -- data/linux/processed-challenges/GPS_Tracker/bin/GPS_Tracker\n'
p143
I2
tp144
a(I8640
S'start_time     : 1499992834\nlast_update    : 1500001429\nfuzzer_pid     : 14492\ncycles_done    : 2\nexecs_done     : 5479882\nexecs_per_sec  : 637.72\npaths_total    : 166\npaths_favored  : 57\npaths_found    : 165\npaths_imported : 0\nmax_depth      : 13\ncur_path       : 126\npending_favs   : 0\npending_total  : 69\nvariable_paths : 0\nbitmap_cvg     : 0.78%\nunique_crashes : 0\nunique_hangs   : 0\nlast_path      : 1500001356\nlast_crash     : 0\nlast_hang      : 0\nexec_timeout   : 20\nafl_banner     : fuzzer-master\nafl_version    : 1.85b\ncommand_line   : /home/skaramcheti/.virtualenvs/afl/bin/afl-unix/afl-fuzz -i /dev/shm/work/GPS_Tracker/input -o /dev/shm/work/GPS_Tracker/sync -m 4G -Q -M fuzzer-master -x /dev/shm/work/GPS_Tracker/GPS_Tracker.dict -- data/linux/processed-challenges/GPS_Tracker/bin/GPS_Tracker\n'
p145
I0
tp146
a(I8760
S'start_time     : 1499992834\nlast_update    : 1500001549\nfuzzer_pid     : 14492\ncycles_done    : 2\nexecs_done     : 5557394\nexecs_per_sec  : 636.00\npaths_total    : 166\npaths_favored  : 57\npaths_found    : 165\npaths_imported : 0\nmax_depth      : 13\ncur_path       : 132\npending_favs   : 0\npending_total  : 68\nvariable_paths : 0\nbitmap_cvg     : 0.78%\nunique_crashes : 0\nunique_hangs   : 0\nlast_path      : 1500001356\nlast_crash     : 0\nlast_hang      : 0\nexec_timeout   : 20\nafl_banner     : fuzzer-master\nafl_version    : 1.85b\ncommand_line   : /home/skaramcheti/.virtualenvs/afl/bin/afl-unix/afl-fuzz -i /dev/shm/work/GPS_Tracker/input -o /dev/shm/work/GPS_Tracker/sync -m 4G -Q -M fuzzer-master -x /dev/shm/work/GPS_Tracker/GPS_Tracker.dict -- data/linux/processed-challenges/GPS_Tracker/bin/GPS_Tracker\n'
p147
I0
tp148
a(I8880
S'start_time     : 1499992834\nlast_update    : 1500001670\nfuzzer_pid     : 14492\ncycles_done    : 2\nexecs_done     : 5635850\nexecs_per_sec  : 633.63\npaths_total    : 166\npaths_favored  : 57\npaths_found    : 165\npaths_imported : 0\nmax_depth      : 13\ncur_path       : 137\npending_favs   : 0\npending_total  : 68\nvariable_paths : 0\nbitmap_cvg     : 0.78%\nunique_crashes : 0\nunique_hangs   : 0\nlast_path      : 1500001356\nlast_crash     : 0\nlast_hang      : 0\nexec_timeout   : 20\nafl_banner     : fuzzer-master\nafl_version    : 1.85b\ncommand_line   : /home/skaramcheti/.virtualenvs/afl/bin/afl-unix/afl-fuzz -i /dev/shm/work/GPS_Tracker/input -o /dev/shm/work/GPS_Tracker/sync -m 4G -Q -M fuzzer-master -x /dev/shm/work/GPS_Tracker/GPS_Tracker.dict -- data/linux/processed-challenges/GPS_Tracker/bin/GPS_Tracker\n'
p149
I0
tp150
a(I9000
S'start_time     : 1499992834\nlast_update    : 1500001790\nfuzzer_pid     : 14492\ncycles_done    : 2\nexecs_done     : 5712850\nexecs_per_sec  : 644.78\npaths_total    : 166\npaths_favored  : 57\npaths_found    : 165\npaths_imported : 0\nmax_depth      : 13\ncur_path       : 140\npending_favs   : 0\npending_total  : 67\nvariable_paths : 0\nbitmap_cvg     : 0.78%\nunique_crashes : 0\nunique_hangs   : 0\nlast_path      : 1500001356\nlast_crash     : 0\nlast_hang      : 0\nexec_timeout   : 20\nafl_banner     : fuzzer-master\nafl_version    : 1.85b\ncommand_line   : /home/skaramcheti/.virtualenvs/afl/bin/afl-unix/afl-fuzz -i /dev/shm/work/GPS_Tracker/input -o /dev/shm/work/GPS_Tracker/sync -m 4G -Q -M fuzzer-master -x /dev/shm/work/GPS_Tracker/GPS_Tracker.dict -- data/linux/processed-challenges/GPS_Tracker/bin/GPS_Tracker\n'
p151
I2
tp152
a(I9120
S'start_time     : 1499992834\nlast_update    : 1500001910\nfuzzer_pid     : 14492\ncycles_done    : 2\nexecs_done     : 5789396\nexecs_per_sec  : 638.73\npaths_total    : 169\npaths_favored  : 57\npaths_found    : 168\npaths_imported : 0\nmax_depth      : 13\ncur_path       : 140\npending_favs   : 0\npending_total  : 70\nvariable_paths : 0\nbitmap_cvg     : 0.78%\nunique_crashes : 0\nunique_hangs   : 0\nlast_path      : 1500001869\nlast_crash     : 0\nlast_hang      : 0\nexec_timeout   : 20\nafl_banner     : fuzzer-master\nafl_version    : 1.85b\ncommand_line   : /home/skaramcheti/.virtualenvs/afl/bin/afl-unix/afl-fuzz -i /dev/shm/work/GPS_Tracker/input -o /dev/shm/work/GPS_Tracker/sync -m 4G -Q -M fuzzer-master -x /dev/shm/work/GPS_Tracker/GPS_Tracker.dict -- data/linux/processed-challenges/GPS_Tracker/bin/GPS_Tracker\n'
p153
I1
tp154
a(I9240
S'start_time     : 1499992834\nlast_update    : 1500002030\nfuzzer_pid     : 14492\ncycles_done    : 2\nexecs_done     : 5867637\nexecs_per_sec  : 658.06\npaths_total    : 169\npaths_favored  : 57\npaths_found    : 168\npaths_imported : 0\nmax_depth      : 13\ncur_path       : 140\npending_favs   : 0\npending_total  : 70\nvariable_paths : 0\nbitmap_cvg     : 0.78%\nunique_crashes : 0\nunique_hangs   : 0\nlast_path      : 1500001869\nlast_crash     : 0\nlast_hang      : 0\nexec_timeout   : 20\nafl_banner     : fuzzer-master\nafl_version    : 1.85b\ncommand_line   : /home/skaramcheti/.virtualenvs/afl/bin/afl-unix/afl-fuzz -i /dev/shm/work/GPS_Tracker/input -o /dev/shm/work/GPS_Tracker/sync -m 4G -Q -M fuzzer-master -x /dev/shm/work/GPS_Tracker/GPS_Tracker.dict -- data/linux/processed-challenges/GPS_Tracker/bin/GPS_Tracker\n'
p155
I0
tp156
a(I9360
S'start_time     : 1499992834\nlast_update    : 1500002150\nfuzzer_pid     : 14492\ncycles_done    : 2\nexecs_done     : 5943097\nexecs_per_sec  : 642.47\npaths_total    : 169\npaths_favored  : 58\npaths_found    : 168\npaths_imported : 0\nmax_depth      : 13\ncur_path       : 167\npending_favs   : 1\npending_total  : 69\nvariable_paths : 0\nbitmap_cvg     : 0.78%\nunique_crashes : 0\nunique_hangs   : 0\nlast_path      : 1500001869\nlast_crash     : 0\nlast_hang      : 0\nexec_timeout   : 20\nafl_banner     : fuzzer-master\nafl_version    : 1.85b\ncommand_line   : /home/skaramcheti/.virtualenvs/afl/bin/afl-unix/afl-fuzz -i /dev/shm/work/GPS_Tracker/input -o /dev/shm/work/GPS_Tracker/sync -m 4G -Q -M fuzzer-master -x /dev/shm/work/GPS_Tracker/GPS_Tracker.dict -- data/linux/processed-challenges/GPS_Tracker/bin/GPS_Tracker\n'
p157
I0
tp158
a(I9480
S'start_time     : 1499992834\nlast_update    : 1500002271\nfuzzer_pid     : 14492\ncycles_done    : 3\nexecs_done     : 6020345\nexecs_per_sec  : 656.92\npaths_total    : 169\npaths_favored  : 58\npaths_found    : 168\npaths_imported : 0\nmax_depth      : 13\ncur_path       : 29\npending_favs   : 0\npending_total  : 66\nvariable_paths : 0\nbitmap_cvg     : 0.78%\nunique_crashes : 0\nunique_hangs   : 0\nlast_path      : 1500001869\nlast_crash     : 0\nlast_hang      : 0\nexec_timeout   : 20\nafl_banner     : fuzzer-master\nafl_version    : 1.85b\ncommand_line   : /home/skaramcheti/.virtualenvs/afl/bin/afl-unix/afl-fuzz -i /dev/shm/work/GPS_Tracker/input -o /dev/shm/work/GPS_Tracker/sync -m 4G -Q -M fuzzer-master -x /dev/shm/work/GPS_Tracker/GPS_Tracker.dict -- data/linux/processed-challenges/GPS_Tracker/bin/GPS_Tracker\n'
p159
I0
tp160
a(I9600
S'start_time     : 1499992834\nlast_update    : 1500002391\nfuzzer_pid     : 14492\ncycles_done    : 3\nexecs_done     : 6096408\nexecs_per_sec  : 628.55\npaths_total    : 169\npaths_favored  : 58\npaths_found    : 168\npaths_imported : 0\nmax_depth      : 13\ncur_path       : 50\npending_favs   : 0\npending_total  : 63\nvariable_paths : 0\nbitmap_cvg     : 0.78%\nunique_crashes : 0\nunique_hangs   : 0\nlast_path      : 1500001869\nlast_crash     : 0\nlast_hang      : 0\nexec_timeout   : 20\nafl_banner     : fuzzer-master\nafl_version    : 1.85b\ncommand_line   : /home/skaramcheti/.virtualenvs/afl/bin/afl-unix/afl-fuzz -i /dev/shm/work/GPS_Tracker/input -o /dev/shm/work/GPS_Tracker/sync -m 4G -Q -M fuzzer-master -x /dev/shm/work/GPS_Tracker/GPS_Tracker.dict -- data/linux/processed-challenges/GPS_Tracker/bin/GPS_Tracker\n'
p161
I0
tp162
a(I9720
S'start_time     : 1499992834\nlast_update    : 1500002511\nfuzzer_pid     : 14492\ncycles_done    : 3\nexecs_done     : 6172825\nexecs_per_sec  : 651.19\npaths_total    : 170\npaths_favored  : 58\npaths_found    : 169\npaths_imported : 0\nmax_depth      : 13\ncur_path       : 65\npending_favs   : 0\npending_total  : 64\nvariable_paths : 0\nbitmap_cvg     : 0.78%\nunique_crashes : 0\nunique_hangs   : 0\nlast_path      : 1500002502\nlast_crash     : 0\nlast_hang      : 0\nexec_timeout   : 20\nafl_banner     : fuzzer-master\nafl_version    : 1.85b\ncommand_line   : /home/skaramcheti/.virtualenvs/afl/bin/afl-unix/afl-fuzz -i /dev/shm/work/GPS_Tracker/input -o /dev/shm/work/GPS_Tracker/sync -m 4G -Q -M fuzzer-master -x /dev/shm/work/GPS_Tracker/GPS_Tracker.dict -- data/linux/processed-challenges/GPS_Tracker/bin/GPS_Tracker\n'
p163
I1
tp164
a(I9840
S'start_time     : 1499992834\nlast_update    : 1500002631\nfuzzer_pid     : 14492\ncycles_done    : 3\nexecs_done     : 6249164\nexecs_per_sec  : 639.80\npaths_total    : 170\npaths_favored  : 58\npaths_found    : 169\npaths_imported : 0\nmax_depth      : 13\ncur_path       : 74\npending_favs   : 0\npending_total  : 61\nvariable_paths : 0\nbitmap_cvg     : 0.78%\nunique_crashes : 0\nunique_hangs   : 0\nlast_path      : 1500002502\nlast_crash     : 0\nlast_hang      : 0\nexec_timeout   : 20\nafl_banner     : fuzzer-master\nafl_version    : 1.85b\ncommand_line   : /home/skaramcheti/.virtualenvs/afl/bin/afl-unix/afl-fuzz -i /dev/shm/work/GPS_Tracker/input -o /dev/shm/work/GPS_Tracker/sync -m 4G -Q -M fuzzer-master -x /dev/shm/work/GPS_Tracker/GPS_Tracker.dict -- data/linux/processed-challenges/GPS_Tracker/bin/GPS_Tracker\n'
p165
I2
tp166
a(I9960
S'start_time     : 1499992834\nlast_update    : 1500002751\nfuzzer_pid     : 14492\ncycles_done    : 3\nexecs_done     : 6326423\nexecs_per_sec  : 634.33\npaths_total    : 172\npaths_favored  : 58\npaths_found    : 171\npaths_imported : 0\nmax_depth      : 13\ncur_path       : 84\npending_favs   : 0\npending_total  : 62\nvariable_paths : 0\nbitmap_cvg     : 0.78%\nunique_crashes : 0\nunique_hangs   : 0\nlast_path      : 1500002676\nlast_crash     : 0\nlast_hang      : 0\nexec_timeout   : 20\nafl_banner     : fuzzer-master\nafl_version    : 1.85b\ncommand_line   : /home/skaramcheti/.virtualenvs/afl/bin/afl-unix/afl-fuzz -i /dev/shm/work/GPS_Tracker/input -o /dev/shm/work/GPS_Tracker/sync -m 4G -Q -M fuzzer-master -x /dev/shm/work/GPS_Tracker/GPS_Tracker.dict -- data/linux/processed-challenges/GPS_Tracker/bin/GPS_Tracker\n'
p167
I0
tp168
a(I10080
S'start_time     : 1499992834\nlast_update    : 1500002872\nfuzzer_pid     : 14492\ncycles_done    : 3\nexecs_done     : 6403839\nexecs_per_sec  : 651.31\npaths_total    : 172\npaths_favored  : 58\npaths_found    : 171\npaths_imported : 0\nmax_depth      : 13\ncur_path       : 95\npending_favs   : 0\npending_total  : 61\nvariable_paths : 0\nbitmap_cvg     : 0.78%\nunique_crashes : 0\nunique_hangs   : 0\nlast_path      : 1500002676\nlast_crash     : 0\nlast_hang      : 0\nexec_timeout   : 20\nafl_banner     : fuzzer-master\nafl_version    : 1.85b\ncommand_line   : /home/skaramcheti/.virtualenvs/afl/bin/afl-unix/afl-fuzz -i /dev/shm/work/GPS_Tracker/input -o /dev/shm/work/GPS_Tracker/sync -m 4G -Q -M fuzzer-master -x /dev/shm/work/GPS_Tracker/GPS_Tracker.dict -- data/linux/processed-challenges/GPS_Tracker/bin/GPS_Tracker\n'
p169
I0
tp170
a(I10200
S'start_time     : 1499992834\nlast_update    : 1500002992\nfuzzer_pid     : 14492\ncycles_done    : 3\nexecs_done     : 6480545\nexecs_per_sec  : 656.21\npaths_total    : 172\npaths_favored  : 58\npaths_found    : 171\npaths_imported : 0\nmax_depth      : 13\ncur_path       : 105\npending_favs   : 0\npending_total  : 60\nvariable_paths : 0\nbitmap_cvg     : 0.78%\nunique_crashes : 0\nunique_hangs   : 0\nlast_path      : 1500002676\nlast_crash     : 0\nlast_hang      : 0\nexec_timeout   : 20\nafl_banner     : fuzzer-master\nafl_version    : 1.85b\ncommand_line   : /home/skaramcheti/.virtualenvs/afl/bin/afl-unix/afl-fuzz -i /dev/shm/work/GPS_Tracker/input -o /dev/shm/work/GPS_Tracker/sync -m 4G -Q -M fuzzer-master -x /dev/shm/work/GPS_Tracker/GPS_Tracker.dict -- data/linux/processed-challenges/GPS_Tracker/bin/GPS_Tracker\n'
p171
I0
tp172
a(I10320
S'start_time     : 1499992834\nlast_update    : 1500003112\nfuzzer_pid     : 14492\ncycles_done    : 3\nexecs_done     : 6557695\nexecs_per_sec  : 631.70\npaths_total    : 172\npaths_favored  : 58\npaths_found    : 171\npaths_imported : 0\nmax_depth      : 13\ncur_path       : 118\npending_favs   : 0\npending_total  : 58\nvariable_paths : 0\nbitmap_cvg     : 0.78%\nunique_crashes : 0\nunique_hangs   : 0\nlast_path      : 1500002676\nlast_crash     : 0\nlast_hang      : 0\nexec_timeout   : 20\nafl_banner     : fuzzer-master\nafl_version    : 1.85b\ncommand_line   : /home/skaramcheti/.virtualenvs/afl/bin/afl-unix/afl-fuzz -i /dev/shm/work/GPS_Tracker/input -o /dev/shm/work/GPS_Tracker/sync -m 4G -Q -M fuzzer-master -x /dev/shm/work/GPS_Tracker/GPS_Tracker.dict -- data/linux/processed-challenges/GPS_Tracker/bin/GPS_Tracker\n'
p173
I0
tp174
a(I10440
S'start_time     : 1499992834\nlast_update    : 1500003232\nfuzzer_pid     : 14492\ncycles_done    : 3\nexecs_done     : 6630571\nexecs_per_sec  : 602.08\npaths_total    : 172\npaths_favored  : 58\npaths_found    : 171\npaths_imported : 0\nmax_depth      : 13\ncur_path       : 127\npending_favs   : 0\npending_total  : 57\nvariable_paths : 0\nbitmap_cvg     : 0.78%\nunique_crashes : 0\nunique_hangs   : 0\nlast_path      : 1500002676\nlast_crash     : 0\nlast_hang      : 0\nexec_timeout   : 20\nafl_banner     : fuzzer-master\nafl_version    : 1.85b\ncommand_line   : /home/skaramcheti/.virtualenvs/afl/bin/afl-unix/afl-fuzz -i /dev/shm/work/GPS_Tracker/input -o /dev/shm/work/GPS_Tracker/sync -m 4G -Q -M fuzzer-master -x /dev/shm/work/GPS_Tracker/GPS_Tracker.dict -- data/linux/processed-challenges/GPS_Tracker/bin/GPS_Tracker\n'
p175
I2
tp176
a(I10560
S'start_time     : 1499992834\nlast_update    : 1500003353\nfuzzer_pid     : 14492\ncycles_done    : 3\nexecs_done     : 6705835\nexecs_per_sec  : 649.86\npaths_total    : 175\npaths_favored  : 58\npaths_found    : 174\npaths_imported : 0\nmax_depth      : 13\ncur_path       : 127\npending_favs   : 0\npending_total  : 60\nvariable_paths : 0\nbitmap_cvg     : 0.78%\nunique_crashes : 0\nunique_hangs   : 0\nlast_path      : 1500003307\nlast_crash     : 0\nlast_hang      : 0\nexec_timeout   : 20\nafl_banner     : fuzzer-master\nafl_version    : 1.85b\ncommand_line   : /home/skaramcheti/.virtualenvs/afl/bin/afl-unix/afl-fuzz -i /dev/shm/work/GPS_Tracker/input -o /dev/shm/work/GPS_Tracker/sync -m 4G -Q -M fuzzer-master -x /dev/shm/work/GPS_Tracker/GPS_Tracker.dict -- data/linux/processed-challenges/GPS_Tracker/bin/GPS_Tracker\n'
p177
I1
tp178
a(I10680
S'start_time     : 1499992834\nlast_update    : 1500003473\nfuzzer_pid     : 14492\ncycles_done    : 3\nexecs_done     : 6781627\nexecs_per_sec  : 646.21\npaths_total    : 175\npaths_favored  : 58\npaths_found    : 174\npaths_imported : 0\nmax_depth      : 13\ncur_path       : 127\npending_favs   : 0\npending_total  : 60\nvariable_paths : 0\nbitmap_cvg     : 0.78%\nunique_crashes : 0\nunique_hangs   : 0\nlast_path      : 1500003307\nlast_crash     : 0\nlast_hang      : 0\nexec_timeout   : 20\nafl_banner     : fuzzer-master\nafl_version    : 1.85b\ncommand_line   : /home/skaramcheti/.virtualenvs/afl/bin/afl-unix/afl-fuzz -i /dev/shm/work/GPS_Tracker/input -o /dev/shm/work/GPS_Tracker/sync -m 4G -Q -M fuzzer-master -x /dev/shm/work/GPS_Tracker/GPS_Tracker.dict -- data/linux/processed-challenges/GPS_Tracker/bin/GPS_Tracker\n'
p179
I0
tp180
a.