(lp0
(I0
S'start_time     : 1500187851\nlast_update    : 1500187851\nfuzzer_pid     : 22016\ncycles_done    : 0\nexecs_done     : 10\nexecs_per_sec  : 175.44\npaths_total    : 1\npaths_favored  : 1\npaths_found    : 0\npaths_imported : 0\nmax_depth      : 1\ncur_path       : 0\npending_favs   : 1\npending_total  : 1\nvariable_paths : 0\nbitmap_cvg     : 0.07%\nunique_crashes : 0\nunique_hangs   : 0\nlast_path      : 0\nlast_crash     : 0\nlast_hang      : 0\nexec_timeout   : 20\nafl_banner     : fuzzer-master\nafl_version    : 1.85b\ncommand_line   : /home/skaramcheti/.virtualenvs/afl/bin/afl-unix/afl-fuzz -i /dev/shm/work/TFTTP/input -o /dev/shm/work/TFTTP/sync -m 4G -Q -M fuzzer-master -x /dev/shm/work/TFTTP/TFTTP.dict -- data/linux/processed-challenges/TFTTP/bin/TFTTP\n'
p1
I8
tp2
a(I120
S'start_time     : 1500187851\nlast_update    : 1500187971\nfuzzer_pid     : 22016\ncycles_done    : 0\nexecs_done     : 74135\nexecs_per_sec  : 609.99\npaths_total    : 11\npaths_favored  : 1\npaths_found    : 10\npaths_imported : 0\nmax_depth      : 2\ncur_path       : 0\npending_favs   : 1\npending_total  : 11\nvariable_paths : 0\nbitmap_cvg     : 0.20%\nunique_crashes : 0\nunique_hangs   : 0\nlast_path      : 1500187936\nlast_crash     : 0\nlast_hang      : 0\nexec_timeout   : 20\nafl_banner     : fuzzer-master\nafl_version    : 1.85b\ncommand_line   : /home/skaramcheti/.virtualenvs/afl/bin/afl-unix/afl-fuzz -i /dev/shm/work/TFTTP/input -o /dev/shm/work/TFTTP/sync -m 4G -Q -M fuzzer-master -x /dev/shm/work/TFTTP/TFTTP.dict -- data/linux/processed-challenges/TFTTP/bin/TFTTP\n'
p3
I3
tp4
a(I240
S'start_time     : 1500187851\nlast_update    : 1500188091\nfuzzer_pid     : 22016\ncycles_done    : 0\nexecs_done     : 148005\nexecs_per_sec  : 609.89\npaths_total    : 12\npaths_favored  : 1\npaths_found    : 11\npaths_imported : 0\nmax_depth      : 2\ncur_path       : 0\npending_favs   : 1\npending_total  : 12\nvariable_paths : 0\nbitmap_cvg     : 0.25%\nunique_crashes : 0\nunique_hangs   : 0\nlast_path      : 1500187989\nlast_crash     : 0\nlast_hang      : 0\nexec_timeout   : 20\nafl_banner     : fuzzer-master\nafl_version    : 1.85b\ncommand_line   : /home/skaramcheti/.virtualenvs/afl/bin/afl-unix/afl-fuzz -i /dev/shm/work/TFTTP/input -o /dev/shm/work/TFTTP/sync -m 4G -Q -M fuzzer-master -x /dev/shm/work/TFTTP/TFTTP.dict -- data/linux/processed-challenges/TFTTP/bin/TFTTP\n'
p5
I1
tp6
a(I360
S'start_time     : 1500187851\nlast_update    : 1500188211\nfuzzer_pid     : 22016\ncycles_done    : 0\nexecs_done     : 212340\nexecs_per_sec  : 463.28\npaths_total    : 18\npaths_favored  : 9\npaths_found    : 17\npaths_imported : 0\nmax_depth      : 3\ncur_path       : 12\npending_favs   : 6\npending_total  : 13\nvariable_paths : 0\nbitmap_cvg     : 0.30%\nunique_crashes : 0\nunique_hangs   : 0\nlast_path      : 1500188178\nlast_crash     : 0\nlast_hang      : 0\nexec_timeout   : 20\nafl_banner     : fuzzer-master\nafl_version    : 1.85b\ncommand_line   : /home/skaramcheti/.virtualenvs/afl/bin/afl-unix/afl-fuzz -i /dev/shm/work/TFTTP/input -o /dev/shm/work/TFTTP/sync -m 4G -Q -M fuzzer-master -x /dev/shm/work/TFTTP/TFTTP.dict -- data/linux/processed-challenges/TFTTP/bin/TFTTP\n'
p7
I7
tp8
a(I480
S'start_time     : 1500187851\nlast_update    : 1500188331\nfuzzer_pid     : 22016\ncycles_done    : 0\nexecs_done     : 272054\nexecs_per_sec  : 489.08\npaths_total    : 27\npaths_favored  : 13\npaths_found    : 26\npaths_imported : 0\nmax_depth      : 4\ncur_path       : 14\npending_favs   : 8\npending_total  : 20\nvariable_paths : 0\nbitmap_cvg     : 0.34%\nunique_crashes : 0\nunique_hangs   : 0\nlast_path      : 1500188327\nlast_crash     : 0\nlast_hang      : 0\nexec_timeout   : 20\nafl_banner     : fuzzer-master\nafl_version    : 1.85b\ncommand_line   : /home/skaramcheti/.virtualenvs/afl/bin/afl-unix/afl-fuzz -i /dev/shm/work/TFTTP/input -o /dev/shm/work/TFTTP/sync -m 4G -Q -M fuzzer-master -x /dev/shm/work/TFTTP/TFTTP.dict -- data/linux/processed-challenges/TFTTP/bin/TFTTP\n'
p9
I10
tp10
a(I600
S'start_time     : 1500187851\nlast_update    : 1500188452\nfuzzer_pid     : 22016\ncycles_done    : 0\nexecs_done     : 330471\nexecs_per_sec  : 486.24\npaths_total    : 34\npaths_favored  : 13\npaths_found    : 33\npaths_imported : 0\nmax_depth      : 4\ncur_path       : 14\npending_favs   : 8\npending_total  : 27\nvariable_paths : 0\nbitmap_cvg     : 0.37%\nunique_crashes : 0\nunique_hangs   : 0\nlast_path      : 1500188429\nlast_crash     : 0\nlast_hang      : 0\nexec_timeout   : 20\nafl_banner     : fuzzer-master\nafl_version    : 1.85b\ncommand_line   : /home/skaramcheti/.virtualenvs/afl/bin/afl-unix/afl-fuzz -i /dev/shm/work/TFTTP/input -o /dev/shm/work/TFTTP/sync -m 4G -Q -M fuzzer-master -x /dev/shm/work/TFTTP/TFTTP.dict -- data/linux/processed-challenges/TFTTP/bin/TFTTP\n'
p11
I5
tp12
a(I720
S'start_time     : 1500187851\nlast_update    : 1500188572\nfuzzer_pid     : 22016\ncycles_done    : 0\nexecs_done     : 386635\nexecs_per_sec  : 479.89\npaths_total    : 35\npaths_favored  : 15\npaths_found    : 34\npaths_imported : 0\nmax_depth      : 4\ncur_path       : 19\npending_favs   : 9\npending_total  : 25\nvariable_paths : 0\nbitmap_cvg     : 0.38%\nunique_crashes : 0\nunique_hangs   : 0\nlast_path      : 1500188475\nlast_crash     : 0\nlast_hang      : 0\nexec_timeout   : 20\nafl_banner     : fuzzer-master\nafl_version    : 1.85b\ncommand_line   : /home/skaramcheti/.virtualenvs/afl/bin/afl-unix/afl-fuzz -i /dev/shm/work/TFTTP/input -o /dev/shm/work/TFTTP/sync -m 4G -Q -M fuzzer-master -x /dev/shm/work/TFTTP/TFTTP.dict -- data/linux/processed-challenges/TFTTP/bin/TFTTP\n'
p13
I1
tp14
a(I840
S'start_time     : 1500187851\nlast_update    : 1500188692\nfuzzer_pid     : 22016\ncycles_done    : 0\nexecs_done     : 439470\nexecs_per_sec  : 441.61\npaths_total    : 38\npaths_favored  : 16\npaths_found    : 37\npaths_imported : 0\nmax_depth      : 5\ncur_path       : 24\npending_favs   : 9\npending_total  : 26\nvariable_paths : 0\nbitmap_cvg     : 0.40%\nunique_crashes : 0\nunique_hangs   : 0\nlast_path      : 1500188607\nlast_crash     : 0\nlast_hang      : 0\nexec_timeout   : 20\nafl_banner     : fuzzer-master\nafl_version    : 1.85b\ncommand_line   : /home/skaramcheti/.virtualenvs/afl/bin/afl-unix/afl-fuzz -i /dev/shm/work/TFTTP/input -o /dev/shm/work/TFTTP/sync -m 4G -Q -M fuzzer-master -x /dev/shm/work/TFTTP/TFTTP.dict -- data/linux/processed-challenges/TFTTP/bin/TFTTP\n'
p15
I3
tp16
a(I960
S'start_time     : 1500187851\nlast_update    : 1500188813\nfuzzer_pid     : 22016\ncycles_done    : 0\nexecs_done     : 494142\nexecs_per_sec  : 459.65\npaths_total    : 43\npaths_favored  : 18\npaths_found    : 42\npaths_imported : 0\nmax_depth      : 5\ncur_path       : 26\npending_favs   : 10\npending_total  : 30\nvariable_paths : 0\nbitmap_cvg     : 0.42%\nunique_crashes : 0\nunique_hangs   : 0\nlast_path      : 1500188810\nlast_crash     : 0\nlast_hang      : 0\nexec_timeout   : 20\nafl_banner     : fuzzer-master\nafl_version    : 1.85b\ncommand_line   : /home/skaramcheti/.virtualenvs/afl/bin/afl-unix/afl-fuzz -i /dev/shm/work/TFTTP/input -o /dev/shm/work/TFTTP/sync -m 4G -Q -M fuzzer-master -x /dev/shm/work/TFTTP/TFTTP.dict -- data/linux/processed-challenges/TFTTP/bin/TFTTP\n'
p17
I5
tp18
a(I1080
S'start_time     : 1500187851\nlast_update    : 1500188933\nfuzzer_pid     : 22016\ncycles_done    : 0\nexecs_done     : 550343\nexecs_per_sec  : 463.89\npaths_total    : 48\npaths_favored  : 18\npaths_found    : 47\npaths_imported : 0\nmax_depth      : 5\ncur_path       : 26\npending_favs   : 10\npending_total  : 35\nvariable_paths : 0\nbitmap_cvg     : 0.42%\nunique_crashes : 0\nunique_hangs   : 0\nlast_path      : 1500188930\nlast_crash     : 0\nlast_hang      : 0\nexec_timeout   : 20\nafl_banner     : fuzzer-master\nafl_version    : 1.85b\ncommand_line   : /home/skaramcheti/.virtualenvs/afl/bin/afl-unix/afl-fuzz -i /dev/shm/work/TFTTP/input -o /dev/shm/work/TFTTP/sync -m 4G -Q -M fuzzer-master -x /dev/shm/work/TFTTP/TFTTP.dict -- data/linux/processed-challenges/TFTTP/bin/TFTTP\n'
p19
I5
tp20
a(I1200
S'start_time     : 1500187851\nlast_update    : 1500189053\nfuzzer_pid     : 22016\ncycles_done    : 0\nexecs_done     : 607070\nexecs_per_sec  : 467.00\npaths_total    : 48\npaths_favored  : 18\npaths_found    : 47\npaths_imported : 0\nmax_depth      : 5\ncur_path       : 26\npending_favs   : 10\npending_total  : 35\nvariable_paths : 0\nbitmap_cvg     : 0.42%\nunique_crashes : 0\nunique_hangs   : 0\nlast_path      : 1500188930\nlast_crash     : 0\nlast_hang      : 0\nexec_timeout   : 20\nafl_banner     : fuzzer-master\nafl_version    : 1.85b\ncommand_line   : /home/skaramcheti/.virtualenvs/afl/bin/afl-unix/afl-fuzz -i /dev/shm/work/TFTTP/input -o /dev/shm/work/TFTTP/sync -m 4G -Q -M fuzzer-master -x /dev/shm/work/TFTTP/TFTTP.dict -- data/linux/processed-challenges/TFTTP/bin/TFTTP\n'
p21
I0
tp22
a(I1320
S'start_time     : 1500187851\nlast_update    : 1500189173\nfuzzer_pid     : 22016\ncycles_done    : 0\nexecs_done     : 651981\nexecs_per_sec  : 164.25\npaths_total    : 52\npaths_favored  : 20\npaths_found    : 51\npaths_imported : 0\nmax_depth      : 5\ncur_path       : 28\npending_favs   : 12\npending_total  : 38\nvariable_paths : 0\nbitmap_cvg     : 0.43%\nunique_crashes : 0\nunique_hangs   : 0\nlast_path      : 1500189133\nlast_crash     : 0\nlast_hang      : 0\nexec_timeout   : 20\nafl_banner     : fuzzer-master\nafl_version    : 1.85b\ncommand_line   : /home/skaramcheti/.virtualenvs/afl/bin/afl-unix/afl-fuzz -i /dev/shm/work/TFTTP/input -o /dev/shm/work/TFTTP/sync -m 4G -Q -M fuzzer-master -x /dev/shm/work/TFTTP/TFTTP.dict -- data/linux/processed-challenges/TFTTP/bin/TFTTP\n'
p23
I4
tp24
a(I1440
S'start_time     : 1500187851\nlast_update    : 1500189294\nfuzzer_pid     : 22016\ncycles_done    : 0\nexecs_done     : 693173\nexecs_per_sec  : 381.09\npaths_total    : 60\npaths_favored  : 20\npaths_found    : 59\npaths_imported : 0\nmax_depth      : 5\ncur_path       : 28\npending_favs   : 12\npending_total  : 46\nvariable_paths : 0\nbitmap_cvg     : 0.43%\nunique_crashes : 0\nunique_hangs   : 0\nlast_path      : 1500189283\nlast_crash     : 0\nlast_hang      : 0\nexec_timeout   : 20\nafl_banner     : fuzzer-master\nafl_version    : 1.85b\ncommand_line   : /home/skaramcheti/.virtualenvs/afl/bin/afl-unix/afl-fuzz -i /dev/shm/work/TFTTP/input -o /dev/shm/work/TFTTP/sync -m 4G -Q -M fuzzer-master -x /dev/shm/work/TFTTP/TFTTP.dict -- data/linux/processed-challenges/TFTTP/bin/TFTTP\n'
p25
I8
tp26
a(I1560
S'start_time     : 1500187851\nlast_update    : 1500189414\nfuzzer_pid     : 22016\ncycles_done    : 0\nexecs_done     : 739522\nexecs_per_sec  : 380.80\npaths_total    : 63\npaths_favored  : 20\npaths_found    : 62\npaths_imported : 0\nmax_depth      : 5\ncur_path       : 28\npending_favs   : 12\npending_total  : 49\nvariable_paths : 0\nbitmap_cvg     : 0.46%\nunique_crashes : 0\nunique_hangs   : 0\nlast_path      : 1500189404\nlast_crash     : 0\nlast_hang      : 0\nexec_timeout   : 20\nafl_banner     : fuzzer-master\nafl_version    : 1.85b\ncommand_line   : /home/skaramcheti/.virtualenvs/afl/bin/afl-unix/afl-fuzz -i /dev/shm/work/TFTTP/input -o /dev/shm/work/TFTTP/sync -m 4G -Q -M fuzzer-master -x /dev/shm/work/TFTTP/TFTTP.dict -- data/linux/processed-challenges/TFTTP/bin/TFTTP\n'
p27
I3
tp28
a(I1680
S'start_time     : 1500187851\nlast_update    : 1500189534\nfuzzer_pid     : 22016\ncycles_done    : 0\nexecs_done     : 784336\nexecs_per_sec  : 316.57\npaths_total    : 64\npaths_favored  : 22\npaths_found    : 63\npaths_imported : 0\nmax_depth      : 5\ncur_path       : 35\npending_favs   : 15\npending_total  : 47\nvariable_paths : 0\nbitmap_cvg     : 0.47%\nunique_crashes : 0\nunique_hangs   : 0\nlast_path      : 1500189430\nlast_crash     : 0\nlast_hang      : 0\nexec_timeout   : 20\nafl_banner     : fuzzer-master\nafl_version    : 1.85b\ncommand_line   : /home/skaramcheti/.virtualenvs/afl/bin/afl-unix/afl-fuzz -i /dev/shm/work/TFTTP/input -o /dev/shm/work/TFTTP/sync -m 4G -Q -M fuzzer-master -x /dev/shm/work/TFTTP/TFTTP.dict -- data/linux/processed-challenges/TFTTP/bin/TFTTP\n'
p29
I1
tp30
a(I1800
S'start_time     : 1500187851\nlast_update    : 1500189654\nfuzzer_pid     : 22016\ncycles_done    : 0\nexecs_done     : 834573\nexecs_per_sec  : 458.43\npaths_total    : 66\npaths_favored  : 22\npaths_found    : 65\npaths_imported : 0\nmax_depth      : 6\ncur_path       : 37\npending_favs   : 14\npending_total  : 48\nvariable_paths : 0\nbitmap_cvg     : 0.47%\nunique_crashes : 0\nunique_hangs   : 0\nlast_path      : 1500189621\nlast_crash     : 0\nlast_hang      : 0\nexec_timeout   : 20\nafl_banner     : fuzzer-master\nafl_version    : 1.85b\ncommand_line   : /home/skaramcheti/.virtualenvs/afl/bin/afl-unix/afl-fuzz -i /dev/shm/work/TFTTP/input -o /dev/shm/work/TFTTP/sync -m 4G -Q -M fuzzer-master -x /dev/shm/work/TFTTP/TFTTP.dict -- data/linux/processed-challenges/TFTTP/bin/TFTTP\n'
p31
I2
tp32
a(I1920
S'start_time     : 1500187851\nlast_update    : 1500189775\nfuzzer_pid     : 22016\ncycles_done    : 0\nexecs_done     : 878441\nexecs_per_sec  : 304.05\npaths_total    : 67\npaths_favored  : 25\npaths_found    : 66\npaths_imported : 0\nmax_depth      : 6\ncur_path       : 40\npending_favs   : 14\npending_total  : 46\nvariable_paths : 0\nbitmap_cvg     : 0.48%\nunique_crashes : 0\nunique_hangs   : 0\nlast_path      : 1500189669\nlast_crash     : 0\nlast_hang      : 0\nexec_timeout   : 20\nafl_banner     : fuzzer-master\nafl_version    : 1.85b\ncommand_line   : /home/skaramcheti/.virtualenvs/afl/bin/afl-unix/afl-fuzz -i /dev/shm/work/TFTTP/input -o /dev/shm/work/TFTTP/sync -m 4G -Q -M fuzzer-master -x /dev/shm/work/TFTTP/TFTTP.dict -- data/linux/processed-challenges/TFTTP/bin/TFTTP\n'
p33
I1
tp34
a(I2040
S'start_time     : 1500187851\nlast_update    : 1500189895\nfuzzer_pid     : 22016\ncycles_done    : 0\nexecs_done     : 921509\nexecs_per_sec  : 433.84\npaths_total    : 71\npaths_favored  : 25\npaths_found    : 70\npaths_imported : 0\nmax_depth      : 6\ncur_path       : 44\npending_favs   : 13\npending_total  : 49\nvariable_paths : 0\nbitmap_cvg     : 0.48%\nunique_crashes : 0\nunique_hangs   : 0\nlast_path      : 1500189884\nlast_crash     : 0\nlast_hang      : 0\nexec_timeout   : 20\nafl_banner     : fuzzer-master\nafl_version    : 1.85b\ncommand_line   : /home/skaramcheti/.virtualenvs/afl/bin/afl-unix/afl-fuzz -i /dev/shm/work/TFTTP/input -o /dev/shm/work/TFTTP/sync -m 4G -Q -M fuzzer-master -x /dev/shm/work/TFTTP/TFTTP.dict -- data/linux/processed-challenges/TFTTP/bin/TFTTP\n'
p35
I4
tp36
a(I2160
S'start_time     : 1500187851\nlast_update    : 1500190015\nfuzzer_pid     : 22016\ncycles_done    : 0\nexecs_done     : 973007\nexecs_per_sec  : 426.04\npaths_total    : 72\npaths_favored  : 25\npaths_found    : 71\npaths_imported : 0\nmax_depth      : 6\ncur_path       : 44\npending_favs   : 13\npending_total  : 50\nvariable_paths : 0\nbitmap_cvg     : 0.48%\nunique_crashes : 0\nunique_hangs   : 0\nlast_path      : 1500190006\nlast_crash     : 0\nlast_hang      : 0\nexec_timeout   : 20\nafl_banner     : fuzzer-master\nafl_version    : 1.85b\ncommand_line   : /home/skaramcheti/.virtualenvs/afl/bin/afl-unix/afl-fuzz -i /dev/shm/work/TFTTP/input -o /dev/shm/work/TFTTP/sync -m 4G -Q -M fuzzer-master -x /dev/shm/work/TFTTP/TFTTP.dict -- data/linux/processed-challenges/TFTTP/bin/TFTTP\n'
p37
I1
tp38
a(I2280
S'start_time     : 1500187851\nlast_update    : 1500190135\nfuzzer_pid     : 22016\ncycles_done    : 0\nexecs_done     : 1024871\nexecs_per_sec  : 430.23\npaths_total    : 72\npaths_favored  : 25\npaths_found    : 71\npaths_imported : 0\nmax_depth      : 6\ncur_path       : 44\npending_favs   : 13\npending_total  : 50\nvariable_paths : 0\nbitmap_cvg     : 0.48%\nunique_crashes : 0\nunique_hangs   : 0\nlast_path      : 1500190006\nlast_crash     : 0\nlast_hang      : 0\nexec_timeout   : 20\nafl_banner     : fuzzer-master\nafl_version    : 1.85b\ncommand_line   : /home/skaramcheti/.virtualenvs/afl/bin/afl-unix/afl-fuzz -i /dev/shm/work/TFTTP/input -o /dev/shm/work/TFTTP/sync -m 4G -Q -M fuzzer-master -x /dev/shm/work/TFTTP/TFTTP.dict -- data/linux/processed-challenges/TFTTP/bin/TFTTP\n'
p39
I0
tp40
a(I2400
S'start_time     : 1500187851\nlast_update    : 1500190255\nfuzzer_pid     : 22016\ncycles_done    : 0\nexecs_done     : 1070082\nexecs_per_sec  : 241.98\npaths_total    : 72\npaths_favored  : 27\npaths_found    : 71\npaths_imported : 0\nmax_depth      : 6\ncur_path       : 45\npending_favs   : 14\npending_total  : 49\nvariable_paths : 0\nbitmap_cvg     : 0.48%\nunique_crashes : 0\nunique_hangs   : 0\nlast_path      : 1500190006\nlast_crash     : 0\nlast_hang      : 0\nexec_timeout   : 20\nafl_banner     : fuzzer-master\nafl_version    : 1.85b\ncommand_line   : /home/skaramcheti/.virtualenvs/afl/bin/afl-unix/afl-fuzz -i /dev/shm/work/TFTTP/input -o /dev/shm/work/TFTTP/sync -m 4G -Q -M fuzzer-master -x /dev/shm/work/TFTTP/TFTTP.dict -- data/linux/processed-challenges/TFTTP/bin/TFTTP\n'
p41
I0
tp42
a(I2520
S'start_time     : 1500187851\nlast_update    : 1500190376\nfuzzer_pid     : 22016\ncycles_done    : 0\nexecs_done     : 1102644\nexecs_per_sec  : 179.29\npaths_total    : 72\npaths_favored  : 27\npaths_found    : 71\npaths_imported : 0\nmax_depth      : 6\ncur_path       : 49\npending_favs   : 12\npending_total  : 47\nvariable_paths : 0\nbitmap_cvg     : 0.48%\nunique_crashes : 0\nunique_hangs   : 0\nlast_path      : 1500190006\nlast_crash     : 0\nlast_hang      : 0\nexec_timeout   : 20\nafl_banner     : fuzzer-master\nafl_version    : 1.85b\ncommand_line   : /home/skaramcheti/.virtualenvs/afl/bin/afl-unix/afl-fuzz -i /dev/shm/work/TFTTP/input -o /dev/shm/work/TFTTP/sync -m 4G -Q -M fuzzer-master -x /dev/shm/work/TFTTP/TFTTP.dict -- data/linux/processed-challenges/TFTTP/bin/TFTTP\n'
p43
I0
tp44
a(I2640
S'start_time     : 1500187851\nlast_update    : 1500190496\nfuzzer_pid     : 22016\ncycles_done    : 0\nexecs_done     : 1143387\nexecs_per_sec  : 419.54\npaths_total    : 75\npaths_favored  : 27\npaths_found    : 74\npaths_imported : 0\nmax_depth      : 6\ncur_path       : 49\npending_favs   : 12\npending_total  : 50\nvariable_paths : 0\nbitmap_cvg     : 0.48%\nunique_crashes : 0\nunique_hangs   : 0\nlast_path      : 1500190446\nlast_crash     : 0\nlast_hang      : 0\nexec_timeout   : 20\nafl_banner     : fuzzer-master\nafl_version    : 1.85b\ncommand_line   : /home/skaramcheti/.virtualenvs/afl/bin/afl-unix/afl-fuzz -i /dev/shm/work/TFTTP/input -o /dev/shm/work/TFTTP/sync -m 4G -Q -M fuzzer-master -x /dev/shm/work/TFTTP/TFTTP.dict -- data/linux/processed-challenges/TFTTP/bin/TFTTP\n'
p45
I3
tp46
a(I2760
S'start_time     : 1500187851\nlast_update    : 1500190616\nfuzzer_pid     : 22016\ncycles_done    : 0\nexecs_done     : 1191607\nexecs_per_sec  : 405.52\npaths_total    : 77\npaths_favored  : 27\npaths_found    : 76\npaths_imported : 0\nmax_depth      : 6\ncur_path       : 49\npending_favs   : 12\npending_total  : 52\nvariable_paths : 0\nbitmap_cvg     : 0.49%\nunique_crashes : 0\nunique_hangs   : 0\nlast_path      : 1500190530\nlast_crash     : 0\nlast_hang      : 0\nexec_timeout   : 20\nafl_banner     : fuzzer-master\nafl_version    : 1.85b\ncommand_line   : /home/skaramcheti/.virtualenvs/afl/bin/afl-unix/afl-fuzz -i /dev/shm/work/TFTTP/input -o /dev/shm/work/TFTTP/sync -m 4G -Q -M fuzzer-master -x /dev/shm/work/TFTTP/TFTTP.dict -- data/linux/processed-challenges/TFTTP/bin/TFTTP\n'
p47
I2
tp48
a(I2880
S'start_time     : 1500187851\nlast_update    : 1500190736\nfuzzer_pid     : 22016\ncycles_done    : 0\nexecs_done     : 1240505\nexecs_per_sec  : 408.20\npaths_total    : 78\npaths_favored  : 27\npaths_found    : 77\npaths_imported : 0\nmax_depth      : 6\ncur_path       : 49\npending_favs   : 12\npending_total  : 53\nvariable_paths : 0\nbitmap_cvg     : 0.49%\nunique_crashes : 0\nunique_hangs   : 0\nlast_path      : 1500190649\nlast_crash     : 0\nlast_hang      : 0\nexec_timeout   : 20\nafl_banner     : fuzzer-master\nafl_version    : 1.85b\ncommand_line   : /home/skaramcheti/.virtualenvs/afl/bin/afl-unix/afl-fuzz -i /dev/shm/work/TFTTP/input -o /dev/shm/work/TFTTP/sync -m 4G -Q -M fuzzer-master -x /dev/shm/work/TFTTP/TFTTP.dict -- data/linux/processed-challenges/TFTTP/bin/TFTTP\n'
p49
I1
tp50
a(I3000
S'start_time     : 1500187851\nlast_update    : 1500190857\nfuzzer_pid     : 22016\ncycles_done    : 0\nexecs_done     : 1280528\nexecs_per_sec  : 223.18\npaths_total    : 79\npaths_favored  : 27\npaths_found    : 78\npaths_imported : 0\nmax_depth      : 6\ncur_path       : 62\npending_favs   : 12\npending_total  : 53\nvariable_paths : 0\nbitmap_cvg     : 0.49%\nunique_crashes : 0\nunique_hangs   : 0\nlast_path      : 1500190856\nlast_crash     : 0\nlast_hang      : 0\nexec_timeout   : 20\nafl_banner     : fuzzer-master\nafl_version    : 1.85b\ncommand_line   : /home/skaramcheti/.virtualenvs/afl/bin/afl-unix/afl-fuzz -i /dev/shm/work/TFTTP/input -o /dev/shm/work/TFTTP/sync -m 4G -Q -M fuzzer-master -x /dev/shm/work/TFTTP/TFTTP.dict -- data/linux/processed-challenges/TFTTP/bin/TFTTP\n'
p51
I1
tp52
a(I3120
S'start_time     : 1500187851\nlast_update    : 1500190977\nfuzzer_pid     : 22016\ncycles_done    : 0\nexecs_done     : 1325843\nexecs_per_sec  : 407.27\npaths_total    : 83\npaths_favored  : 27\npaths_found    : 82\npaths_imported : 0\nmax_depth      : 6\ncur_path       : 62\npending_favs   : 12\npending_total  : 57\nvariable_paths : 0\nbitmap_cvg     : 0.49%\nunique_crashes : 0\nunique_hangs   : 0\nlast_path      : 1500190932\nlast_crash     : 0\nlast_hang      : 0\nexec_timeout   : 20\nafl_banner     : fuzzer-master\nafl_version    : 1.85b\ncommand_line   : /home/skaramcheti/.virtualenvs/afl/bin/afl-unix/afl-fuzz -i /dev/shm/work/TFTTP/input -o /dev/shm/work/TFTTP/sync -m 4G -Q -M fuzzer-master -x /dev/shm/work/TFTTP/TFTTP.dict -- data/linux/processed-challenges/TFTTP/bin/TFTTP\n'
p53
I4
tp54
a(I3240
S'start_time     : 1500187851\nlast_update    : 1500191097\nfuzzer_pid     : 22016\ncycles_done    : 0\nexecs_done     : 1373571\nexecs_per_sec  : 395.88\npaths_total    : 85\npaths_favored  : 27\npaths_found    : 84\npaths_imported : 0\nmax_depth      : 6\ncur_path       : 62\npending_favs   : 12\npending_total  : 59\nvariable_paths : 0\nbitmap_cvg     : 0.49%\nunique_crashes : 0\nunique_hangs   : 0\nlast_path      : 1500191022\nlast_crash     : 0\nlast_hang      : 0\nexec_timeout   : 20\nafl_banner     : fuzzer-master\nafl_version    : 1.85b\ncommand_line   : /home/skaramcheti/.virtualenvs/afl/bin/afl-unix/afl-fuzz -i /dev/shm/work/TFTTP/input -o /dev/shm/work/TFTTP/sync -m 4G -Q -M fuzzer-master -x /dev/shm/work/TFTTP/TFTTP.dict -- data/linux/processed-challenges/TFTTP/bin/TFTTP\n'
p55
I2
tp56
a(I3360
S'start_time     : 1500187851\nlast_update    : 1500191217\nfuzzer_pid     : 22016\ncycles_done    : 0\nexecs_done     : 1421247\nexecs_per_sec  : 401.27\npaths_total    : 85\npaths_favored  : 27\npaths_found    : 84\npaths_imported : 0\nmax_depth      : 6\ncur_path       : 62\npending_favs   : 12\npending_total  : 59\nvariable_paths : 0\nbitmap_cvg     : 0.49%\nunique_crashes : 0\nunique_hangs   : 0\nlast_path      : 1500191022\nlast_crash     : 0\nlast_hang      : 0\nexec_timeout   : 20\nafl_banner     : fuzzer-master\nafl_version    : 1.85b\ncommand_line   : /home/skaramcheti/.virtualenvs/afl/bin/afl-unix/afl-fuzz -i /dev/shm/work/TFTTP/input -o /dev/shm/work/TFTTP/sync -m 4G -Q -M fuzzer-master -x /dev/shm/work/TFTTP/TFTTP.dict -- data/linux/processed-challenges/TFTTP/bin/TFTTP\n'
p57
I0
tp58
a(I3480
S'start_time     : 1500187851\nlast_update    : 1500191338\nfuzzer_pid     : 22016\ncycles_done    : 0\nexecs_done     : 1454841\nexecs_per_sec  : 184.68\npaths_total    : 85\npaths_favored  : 30\npaths_found    : 84\npaths_imported : 0\nmax_depth      : 6\ncur_path       : 63\npending_favs   : 14\npending_total  : 58\nvariable_paths : 0\nbitmap_cvg     : 0.49%\nunique_crashes : 0\nunique_hangs   : 0\nlast_path      : 1500191022\nlast_crash     : 0\nlast_hang      : 0\nexec_timeout   : 20\nafl_banner     : fuzzer-master\nafl_version    : 1.85b\ncommand_line   : /home/skaramcheti/.virtualenvs/afl/bin/afl-unix/afl-fuzz -i /dev/shm/work/TFTTP/input -o /dev/shm/work/TFTTP/sync -m 4G -Q -M fuzzer-master -x /dev/shm/work/TFTTP/TFTTP.dict -- data/linux/processed-challenges/TFTTP/bin/TFTTP\n'
p59
I0
tp60
a(I3600
S'start_time     : 1500187851\nlast_update    : 1500191458\nfuzzer_pid     : 22016\ncycles_done    : 0\nexecs_done     : 1484665\nexecs_per_sec  : 223.88\npaths_total    : 88\npaths_favored  : 30\npaths_found    : 87\npaths_imported : 0\nmax_depth      : 7\ncur_path       : 64\npending_favs   : 14\npending_total  : 60\nvariable_paths : 0\nbitmap_cvg     : 0.50%\nunique_crashes : 0\nunique_hangs   : 0\nlast_path      : 1500191415\nlast_crash     : 0\nlast_hang      : 0\nexec_timeout   : 20\nafl_banner     : fuzzer-master\nafl_version    : 1.85b\ncommand_line   : /home/skaramcheti/.virtualenvs/afl/bin/afl-unix/afl-fuzz -i /dev/shm/work/TFTTP/input -o /dev/shm/work/TFTTP/sync -m 4G -Q -M fuzzer-master -x /dev/shm/work/TFTTP/TFTTP.dict -- data/linux/processed-challenges/TFTTP/bin/TFTTP\n'
p61
I3
tp62
a(I3720
S'start_time     : 1500187851\nlast_update    : 1500191578\nfuzzer_pid     : 22016\ncycles_done    : 0\nexecs_done     : 1520511\nexecs_per_sec  : 301.86\npaths_total    : 88\npaths_favored  : 32\npaths_found    : 87\npaths_imported : 0\nmax_depth      : 7\ncur_path       : 66\npending_favs   : 14\npending_total  : 58\nvariable_paths : 0\nbitmap_cvg     : 0.50%\nunique_crashes : 0\nunique_hangs   : 0\nlast_path      : 1500191415\nlast_crash     : 0\nlast_hang      : 0\nexec_timeout   : 20\nafl_banner     : fuzzer-master\nafl_version    : 1.85b\ncommand_line   : /home/skaramcheti/.virtualenvs/afl/bin/afl-unix/afl-fuzz -i /dev/shm/work/TFTTP/input -o /dev/shm/work/TFTTP/sync -m 4G -Q -M fuzzer-master -x /dev/shm/work/TFTTP/TFTTP.dict -- data/linux/processed-challenges/TFTTP/bin/TFTTP\n'
p63
I0
tp64
a(I3840
S'start_time     : 1500187851\nlast_update    : 1500191698\nfuzzer_pid     : 22016\ncycles_done    : 0\nexecs_done     : 1557400\nexecs_per_sec  : 147.74\npaths_total    : 88\npaths_favored  : 32\npaths_found    : 87\npaths_imported : 0\nmax_depth      : 7\ncur_path       : 68\npending_favs   : 12\npending_total  : 56\nvariable_paths : 0\nbitmap_cvg     : 0.50%\nunique_crashes : 0\nunique_hangs   : 0\nlast_path      : 1500191415\nlast_crash     : 0\nlast_hang      : 0\nexec_timeout   : 20\nafl_banner     : fuzzer-master\nafl_version    : 1.85b\ncommand_line   : /home/skaramcheti/.virtualenvs/afl/bin/afl-unix/afl-fuzz -i /dev/shm/work/TFTTP/input -o /dev/shm/work/TFTTP/sync -m 4G -Q -M fuzzer-master -x /dev/shm/work/TFTTP/TFTTP.dict -- data/linux/processed-challenges/TFTTP/bin/TFTTP\n'
p65
I0
tp66
a(I3960
S'start_time     : 1500187851\nlast_update    : 1500191818\nfuzzer_pid     : 22016\ncycles_done    : 0\nexecs_done     : 1581351\nexecs_per_sec  : 151.78\npaths_total    : 89\npaths_favored  : 32\npaths_found    : 88\npaths_imported : 0\nmax_depth      : 7\ncur_path       : 69\npending_favs   : 11\npending_total  : 56\nvariable_paths : 0\nbitmap_cvg     : 0.50%\nunique_crashes : 0\nunique_hangs   : 2\nlast_path      : 1500191797\nlast_crash     : 0\nlast_hang      : 1500191806\nexec_timeout   : 20\nafl_banner     : fuzzer-master\nafl_version    : 1.85b\ncommand_line   : /home/skaramcheti/.virtualenvs/afl/bin/afl-unix/afl-fuzz -i /dev/shm/work/TFTTP/input -o /dev/shm/work/TFTTP/sync -m 4G -Q -M fuzzer-master -x /dev/shm/work/TFTTP/TFTTP.dict -- data/linux/processed-challenges/TFTTP/bin/TFTTP\n'
p67
I1
tp68
a(I4080
S'start_time     : 1500187851\nlast_update    : 1500191939\nfuzzer_pid     : 22016\ncycles_done    : 0\nexecs_done     : 1603934\nexecs_per_sec  : 314.72\npaths_total    : 89\npaths_favored  : 32\npaths_found    : 88\npaths_imported : 0\nmax_depth      : 7\ncur_path       : 70\npending_favs   : 10\npending_total  : 55\nvariable_paths : 0\nbitmap_cvg     : 0.50%\nunique_crashes : 0\nunique_hangs   : 2\nlast_path      : 1500191797\nlast_crash     : 0\nlast_hang      : 1500191806\nexec_timeout   : 20\nafl_banner     : fuzzer-master\nafl_version    : 1.85b\ncommand_line   : /home/skaramcheti/.virtualenvs/afl/bin/afl-unix/afl-fuzz -i /dev/shm/work/TFTTP/input -o /dev/shm/work/TFTTP/sync -m 4G -Q -M fuzzer-master -x /dev/shm/work/TFTTP/TFTTP.dict -- data/linux/processed-challenges/TFTTP/bin/TFTTP\n'
p69
I0
tp70
a(I4200
S'start_time     : 1500187851\nlast_update    : 1500192059\nfuzzer_pid     : 22016\ncycles_done    : 0\nexecs_done     : 1635000\nexecs_per_sec  : 184.41\npaths_total    : 91\npaths_favored  : 32\npaths_found    : 90\npaths_imported : 0\nmax_depth      : 7\ncur_path       : 73\npending_favs   : 9\npending_total  : 56\nvariable_paths : 0\nbitmap_cvg     : 0.50%\nunique_crashes : 0\nunique_hangs   : 2\nlast_path      : 1500192045\nlast_crash     : 0\nlast_hang      : 1500191806\nexec_timeout   : 20\nafl_banner     : fuzzer-master\nafl_version    : 1.85b\ncommand_line   : /home/skaramcheti/.virtualenvs/afl/bin/afl-unix/afl-fuzz -i /dev/shm/work/TFTTP/input -o /dev/shm/work/TFTTP/sync -m 4G -Q -M fuzzer-master -x /dev/shm/work/TFTTP/TFTTP.dict -- data/linux/processed-challenges/TFTTP/bin/TFTTP\n'
p71
I2
tp72
a(I4320
S'start_time     : 1500187851\nlast_update    : 1500192179\nfuzzer_pid     : 22016\ncycles_done    : 0\nexecs_done     : 1679594\nexecs_per_sec  : 435.50\npaths_total    : 96\npaths_favored  : 34\npaths_found    : 95\npaths_imported : 0\nmax_depth      : 7\ncur_path       : 75\npending_favs   : 10\npending_total  : 60\nvariable_paths : 0\nbitmap_cvg     : 0.53%\nunique_crashes : 0\nunique_hangs   : 2\nlast_path      : 1500192142\nlast_crash     : 0\nlast_hang      : 1500191806\nexec_timeout   : 20\nafl_banner     : fuzzer-master\nafl_version    : 1.85b\ncommand_line   : /home/skaramcheti/.virtualenvs/afl/bin/afl-unix/afl-fuzz -i /dev/shm/work/TFTTP/input -o /dev/shm/work/TFTTP/sync -m 4G -Q -M fuzzer-master -x /dev/shm/work/TFTTP/TFTTP.dict -- data/linux/processed-challenges/TFTTP/bin/TFTTP\n'
p73
I5
tp74
a(I4440
S'start_time     : 1500187851\nlast_update    : 1500192300\nfuzzer_pid     : 22016\ncycles_done    : 0\nexecs_done     : 1732042\nexecs_per_sec  : 437.31\npaths_total    : 96\npaths_favored  : 34\npaths_found    : 95\npaths_imported : 0\nmax_depth      : 7\ncur_path       : 75\npending_favs   : 10\npending_total  : 60\nvariable_paths : 0\nbitmap_cvg     : 0.53%\nunique_crashes : 0\nunique_hangs   : 2\nlast_path      : 1500192142\nlast_crash     : 0\nlast_hang      : 1500191806\nexec_timeout   : 20\nafl_banner     : fuzzer-master\nafl_version    : 1.85b\ncommand_line   : /home/skaramcheti/.virtualenvs/afl/bin/afl-unix/afl-fuzz -i /dev/shm/work/TFTTP/input -o /dev/shm/work/TFTTP/sync -m 4G -Q -M fuzzer-master -x /dev/shm/work/TFTTP/TFTTP.dict -- data/linux/processed-challenges/TFTTP/bin/TFTTP\n'
p75
I0
tp76
a(I4560
S'start_time     : 1500187851\nlast_update    : 1500192420\nfuzzer_pid     : 22016\ncycles_done    : 0\nexecs_done     : 1752884\nexecs_per_sec  : 252.21\npaths_total    : 98\npaths_favored  : 38\npaths_found    : 97\npaths_imported : 0\nmax_depth      : 7\ncur_path       : 76\npending_favs   : 14\npending_total  : 61\nvariable_paths : 0\nbitmap_cvg     : 0.53%\nunique_crashes : 0\nunique_hangs   : 2\nlast_path      : 1500192307\nlast_crash     : 0\nlast_hang      : 1500191806\nexec_timeout   : 20\nafl_banner     : fuzzer-master\nafl_version    : 1.85b\ncommand_line   : /home/skaramcheti/.virtualenvs/afl/bin/afl-unix/afl-fuzz -i /dev/shm/work/TFTTP/input -o /dev/shm/work/TFTTP/sync -m 4G -Q -M fuzzer-master -x /dev/shm/work/TFTTP/TFTTP.dict -- data/linux/processed-challenges/TFTTP/bin/TFTTP\n'
p77
I2
tp78
a(I4680
S'start_time     : 1500187851\nlast_update    : 1500192540\nfuzzer_pid     : 22016\ncycles_done    : 0\nexecs_done     : 1786378\nexecs_per_sec  : 217.35\npaths_total    : 102\npaths_favored  : 39\npaths_found    : 101\npaths_imported : 0\nmax_depth      : 7\ncur_path       : 83\npending_favs   : 14\npending_total  : 63\nvariable_paths : 0\nbitmap_cvg     : 0.54%\nunique_crashes : 0\nunique_hangs   : 2\nlast_path      : 1500192506\nlast_crash     : 0\nlast_hang      : 1500191806\nexec_timeout   : 20\nafl_banner     : fuzzer-master\nafl_version    : 1.85b\ncommand_line   : /home/skaramcheti/.virtualenvs/afl/bin/afl-unix/afl-fuzz -i /dev/shm/work/TFTTP/input -o /dev/shm/work/TFTTP/sync -m 4G -Q -M fuzzer-master -x /dev/shm/work/TFTTP/TFTTP.dict -- data/linux/processed-challenges/TFTTP/bin/TFTTP\n'
p79
I4
tp80
a(I4800
S'start_time     : 1500187851\nlast_update    : 1500192660\nfuzzer_pid     : 22016\ncycles_done    : 0\nexecs_done     : 1817043\nexecs_per_sec  : 348.55\npaths_total    : 103\npaths_favored  : 41\npaths_found    : 102\npaths_imported : 0\nmax_depth      : 7\ncur_path       : 84\npending_favs   : 16\npending_total  : 63\nvariable_paths : 0\nbitmap_cvg     : 0.54%\nunique_crashes : 0\nunique_hangs   : 2\nlast_path      : 1500192600\nlast_crash     : 0\nlast_hang      : 1500191806\nexec_timeout   : 20\nafl_banner     : fuzzer-master\nafl_version    : 1.85b\ncommand_line   : /home/skaramcheti/.virtualenvs/afl/bin/afl-unix/afl-fuzz -i /dev/shm/work/TFTTP/input -o /dev/shm/work/TFTTP/sync -m 4G -Q -M fuzzer-master -x /dev/shm/work/TFTTP/TFTTP.dict -- data/linux/processed-challenges/TFTTP/bin/TFTTP\n'
p81
I1
tp82
a(I4920
S'start_time     : 1500187851\nlast_update    : 1500192780\nfuzzer_pid     : 22016\ncycles_done    : 0\nexecs_done     : 1844227\nexecs_per_sec  : 344.04\npaths_total    : 104\npaths_favored  : 42\npaths_found    : 103\npaths_imported : 0\nmax_depth      : 7\ncur_path       : 85\npending_favs   : 16\npending_total  : 63\nvariable_paths : 0\nbitmap_cvg     : 0.54%\nunique_crashes : 0\nunique_hangs   : 2\nlast_path      : 1500192738\nlast_crash     : 0\nlast_hang      : 1500191806\nexec_timeout   : 20\nafl_banner     : fuzzer-master\nafl_version    : 1.85b\ncommand_line   : /home/skaramcheti/.virtualenvs/afl/bin/afl-unix/afl-fuzz -i /dev/shm/work/TFTTP/input -o /dev/shm/work/TFTTP/sync -m 4G -Q -M fuzzer-master -x /dev/shm/work/TFTTP/TFTTP.dict -- data/linux/processed-challenges/TFTTP/bin/TFTTP\n'
p83
I1
tp84
a(I5040
S'start_time     : 1500187851\nlast_update    : 1500192900\nfuzzer_pid     : 22016\ncycles_done    : 0\nexecs_done     : 1874415\nexecs_per_sec  : 183.53\npaths_total    : 111\npaths_favored  : 47\npaths_found    : 110\npaths_imported : 0\nmax_depth      : 8\ncur_path       : 87\npending_favs   : 21\npending_total  : 68\nvariable_paths : 0\nbitmap_cvg     : 0.55%\nunique_crashes : 0\nunique_hangs   : 2\nlast_path      : 1500192842\nlast_crash     : 0\nlast_hang      : 1500191806\nexec_timeout   : 20\nafl_banner     : fuzzer-master\nafl_version    : 1.85b\ncommand_line   : /home/skaramcheti/.virtualenvs/afl/bin/afl-unix/afl-fuzz -i /dev/shm/work/TFTTP/input -o /dev/shm/work/TFTTP/sync -m 4G -Q -M fuzzer-master -x /dev/shm/work/TFTTP/TFTTP.dict -- data/linux/processed-challenges/TFTTP/bin/TFTTP\n'
p85
I7
tp86
a(I5160
S'start_time     : 1500187851\nlast_update    : 1500193021\nfuzzer_pid     : 22016\ncycles_done    : 0\nexecs_done     : 1908901\nexecs_per_sec  : 223.60\npaths_total    : 112\npaths_favored  : 47\npaths_found    : 111\npaths_imported : 0\nmax_depth      : 8\ncur_path       : 89\npending_favs   : 20\npending_total  : 68\nvariable_paths : 0\nbitmap_cvg     : 0.55%\nunique_crashes : 0\nunique_hangs   : 2\nlast_path      : 1500192973\nlast_crash     : 0\nlast_hang      : 1500191806\nexec_timeout   : 20\nafl_banner     : fuzzer-master\nafl_version    : 1.85b\ncommand_line   : /home/skaramcheti/.virtualenvs/afl/bin/afl-unix/afl-fuzz -i /dev/shm/work/TFTTP/input -o /dev/shm/work/TFTTP/sync -m 4G -Q -M fuzzer-master -x /dev/shm/work/TFTTP/TFTTP.dict -- data/linux/processed-challenges/TFTTP/bin/TFTTP\n'
p87
I1
tp88
a(I5280
S'start_time     : 1500187851\nlast_update    : 1500193141\nfuzzer_pid     : 22016\ncycles_done    : 0\nexecs_done     : 1938364\nexecs_per_sec  : 176.33\npaths_total    : 114\npaths_favored  : 47\npaths_found    : 113\npaths_imported : 0\nmax_depth      : 8\ncur_path       : 90\npending_favs   : 19\npending_total  : 69\nvariable_paths : 0\nbitmap_cvg     : 0.56%\nunique_crashes : 0\nunique_hangs   : 3\nlast_path      : 1500193120\nlast_crash     : 0\nlast_hang      : 1500193026\nexec_timeout   : 20\nafl_banner     : fuzzer-master\nafl_version    : 1.85b\ncommand_line   : /home/skaramcheti/.virtualenvs/afl/bin/afl-unix/afl-fuzz -i /dev/shm/work/TFTTP/input -o /dev/shm/work/TFTTP/sync -m 4G -Q -M fuzzer-master -x /dev/shm/work/TFTTP/TFTTP.dict -- data/linux/processed-challenges/TFTTP/bin/TFTTP\n'
p89
I2
tp90
a(I5400
S'start_time     : 1500187851\nlast_update    : 1500193261\nfuzzer_pid     : 22016\ncycles_done    : 0\nexecs_done     : 1981718\nexecs_per_sec  : 471.42\npaths_total    : 122\npaths_favored  : 50\npaths_found    : 121\npaths_imported : 0\nmax_depth      : 8\ncur_path       : 92\npending_favs   : 20\npending_total  : 75\nvariable_paths : 0\nbitmap_cvg     : 0.57%\nunique_crashes : 0\nunique_hangs   : 3\nlast_path      : 1500193224\nlast_crash     : 0\nlast_hang      : 1500193026\nexec_timeout   : 20\nafl_banner     : fuzzer-master\nafl_version    : 1.85b\ncommand_line   : /home/skaramcheti/.virtualenvs/afl/bin/afl-unix/afl-fuzz -i /dev/shm/work/TFTTP/input -o /dev/shm/work/TFTTP/sync -m 4G -Q -M fuzzer-master -x /dev/shm/work/TFTTP/TFTTP.dict -- data/linux/processed-challenges/TFTTP/bin/TFTTP\n'
p91
I8
tp92
a(I5520
S'start_time     : 1500187851\nlast_update    : 1500193381\nfuzzer_pid     : 22016\ncycles_done    : 0\nexecs_done     : 2007958\nexecs_per_sec  : 278.35\npaths_total    : 124\npaths_favored  : 57\npaths_found    : 123\npaths_imported : 0\nmax_depth      : 8\ncur_path       : 94\npending_favs   : 25\npending_total  : 75\nvariable_paths : 0\nbitmap_cvg     : 0.57%\nunique_crashes : 0\nunique_hangs   : 3\nlast_path      : 1500193348\nlast_crash     : 0\nlast_hang      : 1500193026\nexec_timeout   : 20\nafl_banner     : fuzzer-master\nafl_version    : 1.85b\ncommand_line   : /home/skaramcheti/.virtualenvs/afl/bin/afl-unix/afl-fuzz -i /dev/shm/work/TFTTP/input -o /dev/shm/work/TFTTP/sync -m 4G -Q -M fuzzer-master -x /dev/shm/work/TFTTP/TFTTP.dict -- data/linux/processed-challenges/TFTTP/bin/TFTTP\n'
p93
I2
tp94
a(I5640
S'start_time     : 1500187851\nlast_update    : 1500193441\nfuzzer_pid     : 22016\ncycles_done    : 0\nexecs_done     : 2028089\nexecs_per_sec  : 324.52\npaths_total    : 124\npaths_favored  : 57\npaths_found    : 123\npaths_imported : 0\nmax_depth      : 8\ncur_path       : 95\npending_favs   : 24\npending_total  : 74\nvariable_paths : 0\nbitmap_cvg     : 0.57%\nunique_crashes : 0\nunique_hangs   : 3\nlast_path      : 1500193348\nlast_crash     : 0\nlast_hang      : 1500193026\nexec_timeout   : 20\nafl_banner     : fuzzer-master\nafl_version    : 1.85b\ncommand_line   : /home/skaramcheti/.virtualenvs/afl/bin/afl-unix/afl-fuzz -i /dev/shm/work/TFTTP/input -o /dev/shm/work/TFTTP/sync -m 4G -Q -M fuzzer-master -x /dev/shm/work/TFTTP/TFTTP.dict -- data/linux/processed-challenges/TFTTP/bin/TFTTP\n'
p95
I0
tp96
a(I5760
S'start_time     : 1500187851\nlast_update    : 1500193621\nfuzzer_pid     : 22016\ncycles_done    : 0\nexecs_done     : 2073912\nexecs_per_sec  : 234.96\npaths_total    : 124\npaths_favored  : 57\npaths_found    : 123\npaths_imported : 0\nmax_depth      : 8\ncur_path       : 98\npending_favs   : 22\npending_total  : 72\nvariable_paths : 0\nbitmap_cvg     : 0.57%\nunique_crashes : 0\nunique_hangs   : 3\nlast_path      : 1500193348\nlast_crash     : 0\nlast_hang      : 1500193026\nexec_timeout   : 20\nafl_banner     : fuzzer-master\nafl_version    : 1.85b\ncommand_line   : /home/skaramcheti/.virtualenvs/afl/bin/afl-unix/afl-fuzz -i /dev/shm/work/TFTTP/input -o /dev/shm/work/TFTTP/sync -m 4G -Q -M fuzzer-master -x /dev/shm/work/TFTTP/TFTTP.dict -- data/linux/processed-challenges/TFTTP/bin/TFTTP\n'
p97
I0
tp98
a(I5880
S'start_time     : 1500187851\nlast_update    : 1500193682\nfuzzer_pid     : 22016\ncycles_done    : 0\nexecs_done     : 2091924\nexecs_per_sec  : 223.86\npaths_total    : 125\npaths_favored  : 57\npaths_found    : 124\npaths_imported : 0\nmax_depth      : 8\ncur_path       : 99\npending_favs   : 21\npending_total  : 72\nvariable_paths : 0\nbitmap_cvg     : 0.57%\nunique_crashes : 0\nunique_hangs   : 3\nlast_path      : 1500193662\nlast_crash     : 0\nlast_hang      : 1500193026\nexec_timeout   : 20\nafl_banner     : fuzzer-master\nafl_version    : 1.85b\ncommand_line   : /home/skaramcheti/.virtualenvs/afl/bin/afl-unix/afl-fuzz -i /dev/shm/work/TFTTP/input -o /dev/shm/work/TFTTP/sync -m 4G -Q -M fuzzer-master -x /dev/shm/work/TFTTP/TFTTP.dict -- data/linux/processed-challenges/TFTTP/bin/TFTTP\n'
p99
I1
tp100
a(I6000
S'start_time     : 1500187851\nlast_update    : 1500193802\nfuzzer_pid     : 22016\ncycles_done    : 0\nexecs_done     : 2120553\nexecs_per_sec  : 173.02\npaths_total    : 126\npaths_favored  : 57\npaths_found    : 125\npaths_imported : 0\nmax_depth      : 8\ncur_path       : 100\npending_favs   : 20\npending_total  : 72\nvariable_paths : 0\nbitmap_cvg     : 0.58%\nunique_crashes : 0\nunique_hangs   : 3\nlast_path      : 1500193757\nlast_crash     : 0\nlast_hang      : 1500193026\nexec_timeout   : 20\nafl_banner     : fuzzer-master\nafl_version    : 1.85b\ncommand_line   : /home/skaramcheti/.virtualenvs/afl/bin/afl-unix/afl-fuzz -i /dev/shm/work/TFTTP/input -o /dev/shm/work/TFTTP/sync -m 4G -Q -M fuzzer-master -x /dev/shm/work/TFTTP/TFTTP.dict -- data/linux/processed-challenges/TFTTP/bin/TFTTP\n'
p101
I1
tp102
a(I6120
S'start_time     : 1500187851\nlast_update    : 1500193922\nfuzzer_pid     : 22016\ncycles_done    : 0\nexecs_done     : 2149644\nexecs_per_sec  : 271.18\npaths_total    : 126\npaths_favored  : 58\npaths_found    : 125\npaths_imported : 0\nmax_depth      : 8\ncur_path       : 101\npending_favs   : 20\npending_total  : 71\nvariable_paths : 0\nbitmap_cvg     : 0.58%\nunique_crashes : 0\nunique_hangs   : 3\nlast_path      : 1500193757\nlast_crash     : 0\nlast_hang      : 1500193026\nexec_timeout   : 20\nafl_banner     : fuzzer-master\nafl_version    : 1.85b\ncommand_line   : /home/skaramcheti/.virtualenvs/afl/bin/afl-unix/afl-fuzz -i /dev/shm/work/TFTTP/input -o /dev/shm/work/TFTTP/sync -m 4G -Q -M fuzzer-master -x /dev/shm/work/TFTTP/TFTTP.dict -- data/linux/processed-challenges/TFTTP/bin/TFTTP\n'
p103
I0
tp104
a(I6240
S'start_time     : 1500187851\nlast_update    : 1500194042\nfuzzer_pid     : 22016\ncycles_done    : 0\nexecs_done     : 2184316\nexecs_per_sec  : 164.21\npaths_total    : 126\npaths_favored  : 58\npaths_found    : 125\npaths_imported : 0\nmax_depth      : 8\ncur_path       : 103\npending_favs   : 18\npending_total  : 69\nvariable_paths : 0\nbitmap_cvg     : 0.58%\nunique_crashes : 0\nunique_hangs   : 3\nlast_path      : 1500193757\nlast_crash     : 0\nlast_hang      : 1500193026\nexec_timeout   : 20\nafl_banner     : fuzzer-master\nafl_version    : 1.85b\ncommand_line   : /home/skaramcheti/.virtualenvs/afl/bin/afl-unix/afl-fuzz -i /dev/shm/work/TFTTP/input -o /dev/shm/work/TFTTP/sync -m 4G -Q -M fuzzer-master -x /dev/shm/work/TFTTP/TFTTP.dict -- data/linux/processed-challenges/TFTTP/bin/TFTTP\n'
p105
I0
tp106
a(I6360
S'start_time     : 1500187851\nlast_update    : 1500194162\nfuzzer_pid     : 22016\ncycles_done    : 0\nexecs_done     : 2215497\nexecs_per_sec  : 397.74\npaths_total    : 126\npaths_favored  : 58\npaths_found    : 125\npaths_imported : 0\nmax_depth      : 8\ncur_path       : 104\npending_favs   : 17\npending_total  : 68\nvariable_paths : 0\nbitmap_cvg     : 0.58%\nunique_crashes : 0\nunique_hangs   : 3\nlast_path      : 1500193757\nlast_crash     : 0\nlast_hang      : 1500193026\nexec_timeout   : 20\nafl_banner     : fuzzer-master\nafl_version    : 1.85b\ncommand_line   : /home/skaramcheti/.virtualenvs/afl/bin/afl-unix/afl-fuzz -i /dev/shm/work/TFTTP/input -o /dev/shm/work/TFTTP/sync -m 4G -Q -M fuzzer-master -x /dev/shm/work/TFTTP/TFTTP.dict -- data/linux/processed-challenges/TFTTP/bin/TFTTP\n'
p107
I0
tp108
a(I6480
S'start_time     : 1500187851\nlast_update    : 1500194282\nfuzzer_pid     : 22016\ncycles_done    : 0\nexecs_done     : 2250753\nexecs_per_sec  : 395.86\npaths_total    : 127\npaths_favored  : 58\npaths_found    : 126\npaths_imported : 0\nmax_depth      : 9\ncur_path       : 105\npending_favs   : 16\npending_total  : 68\nvariable_paths : 0\nbitmap_cvg     : 0.58%\nunique_crashes : 0\nunique_hangs   : 3\nlast_path      : 1500194275\nlast_crash     : 0\nlast_hang      : 1500193026\nexec_timeout   : 20\nafl_banner     : fuzzer-master\nafl_version    : 1.85b\ncommand_line   : /home/skaramcheti/.virtualenvs/afl/bin/afl-unix/afl-fuzz -i /dev/shm/work/TFTTP/input -o /dev/shm/work/TFTTP/sync -m 4G -Q -M fuzzer-master -x /dev/shm/work/TFTTP/TFTTP.dict -- data/linux/processed-challenges/TFTTP/bin/TFTTP\n'
p109
I1
tp110
a(I6600
S'start_time     : 1500187851\nlast_update    : 1500194403\nfuzzer_pid     : 22016\ncycles_done    : 0\nexecs_done     : 2286801\nexecs_per_sec  : 171.98\npaths_total    : 127\npaths_favored  : 58\npaths_found    : 126\npaths_imported : 0\nmax_depth      : 9\ncur_path       : 107\npending_favs   : 15\npending_total  : 67\nvariable_paths : 0\nbitmap_cvg     : 0.58%\nunique_crashes : 0\nunique_hangs   : 3\nlast_path      : 1500194275\nlast_crash     : 0\nlast_hang      : 1500193026\nexec_timeout   : 20\nafl_banner     : fuzzer-master\nafl_version    : 1.85b\ncommand_line   : /home/skaramcheti/.virtualenvs/afl/bin/afl-unix/afl-fuzz -i /dev/shm/work/TFTTP/input -o /dev/shm/work/TFTTP/sync -m 4G -Q -M fuzzer-master -x /dev/shm/work/TFTTP/TFTTP.dict -- data/linux/processed-challenges/TFTTP/bin/TFTTP\n'
p111
I0
tp112
a(I6720
S'start_time     : 1500187851\nlast_update    : 1500194523\nfuzzer_pid     : 22016\ncycles_done    : 0\nexecs_done     : 2318485\nexecs_per_sec  : 342.80\npaths_total    : 127\npaths_favored  : 58\npaths_found    : 126\npaths_imported : 0\nmax_depth      : 9\ncur_path       : 108\npending_favs   : 14\npending_total  : 66\nvariable_paths : 0\nbitmap_cvg     : 0.58%\nunique_crashes : 0\nunique_hangs   : 3\nlast_path      : 1500194275\nlast_crash     : 0\nlast_hang      : 1500193026\nexec_timeout   : 20\nafl_banner     : fuzzer-master\nafl_version    : 1.85b\ncommand_line   : /home/skaramcheti/.virtualenvs/afl/bin/afl-unix/afl-fuzz -i /dev/shm/work/TFTTP/input -o /dev/shm/work/TFTTP/sync -m 4G -Q -M fuzzer-master -x /dev/shm/work/TFTTP/TFTTP.dict -- data/linux/processed-challenges/TFTTP/bin/TFTTP\n'
p113
I0
tp114
a(I6840
S'start_time     : 1500187851\nlast_update    : 1500194643\nfuzzer_pid     : 22016\ncycles_done    : 0\nexecs_done     : 2352131\nexecs_per_sec  : 372.80\npaths_total    : 127\npaths_favored  : 58\npaths_found    : 126\npaths_imported : 0\nmax_depth      : 9\ncur_path       : 109\npending_favs   : 13\npending_total  : 65\nvariable_paths : 0\nbitmap_cvg     : 0.58%\nunique_crashes : 0\nunique_hangs   : 3\nlast_path      : 1500194275\nlast_crash     : 0\nlast_hang      : 1500193026\nexec_timeout   : 20\nafl_banner     : fuzzer-master\nafl_version    : 1.85b\ncommand_line   : /home/skaramcheti/.virtualenvs/afl/bin/afl-unix/afl-fuzz -i /dev/shm/work/TFTTP/input -o /dev/shm/work/TFTTP/sync -m 4G -Q -M fuzzer-master -x /dev/shm/work/TFTTP/TFTTP.dict -- data/linux/processed-challenges/TFTTP/bin/TFTTP\n'
p115
I0
tp116
a(I6960
S'start_time     : 1500187851\nlast_update    : 1500194763\nfuzzer_pid     : 22016\ncycles_done    : 0\nexecs_done     : 2388501\nexecs_per_sec  : 404.11\npaths_total    : 128\npaths_favored  : 58\npaths_found    : 127\npaths_imported : 0\nmax_depth      : 9\ncur_path       : 112\npending_favs   : 12\npending_total  : 65\nvariable_paths : 0\nbitmap_cvg     : 0.58%\nunique_crashes : 0\nunique_hangs   : 3\nlast_path      : 1500194724\nlast_crash     : 0\nlast_hang      : 1500193026\nexec_timeout   : 20\nafl_banner     : fuzzer-master\nafl_version    : 1.85b\ncommand_line   : /home/skaramcheti/.virtualenvs/afl/bin/afl-unix/afl-fuzz -i /dev/shm/work/TFTTP/input -o /dev/shm/work/TFTTP/sync -m 4G -Q -M fuzzer-master -x /dev/shm/work/TFTTP/TFTTP.dict -- data/linux/processed-challenges/TFTTP/bin/TFTTP\n'
p117
I1
tp118
a(I7080
S'start_time     : 1500187851\nlast_update    : 1500194883\nfuzzer_pid     : 22016\ncycles_done    : 0\nexecs_done     : 2424894\nexecs_per_sec  : 394.75\npaths_total    : 129\npaths_favored  : 59\npaths_found    : 128\npaths_imported : 0\nmax_depth      : 9\ncur_path       : 113\npending_favs   : 12\npending_total  : 65\nvariable_paths : 0\nbitmap_cvg     : 0.58%\nunique_crashes : 0\nunique_hangs   : 3\nlast_path      : 1500194859\nlast_crash     : 0\nlast_hang      : 1500193026\nexec_timeout   : 20\nafl_banner     : fuzzer-master\nafl_version    : 1.85b\ncommand_line   : /home/skaramcheti/.virtualenvs/afl/bin/afl-unix/afl-fuzz -i /dev/shm/work/TFTTP/input -o /dev/shm/work/TFTTP/sync -m 4G -Q -M fuzzer-master -x /dev/shm/work/TFTTP/TFTTP.dict -- data/linux/processed-challenges/TFTTP/bin/TFTTP\n'
p119
I2
tp120
a(I7200
S'start_time     : 1500187851\nlast_update    : 1500195004\nfuzzer_pid     : 22016\ncycles_done    : 0\nexecs_done     : 2473575\nexecs_per_sec  : 393.81\npaths_total    : 130\npaths_favored  : 59\npaths_found    : 129\npaths_imported : 0\nmax_depth      : 9\ncur_path       : 113\npending_favs   : 12\npending_total  : 66\nvariable_paths : 0\nbitmap_cvg     : 0.58%\nunique_crashes : 0\nunique_hangs   : 3\nlast_path      : 1500194935\nlast_crash     : 0\nlast_hang      : 1500193026\nexec_timeout   : 20\nafl_banner     : fuzzer-master\nafl_version    : 1.85b\ncommand_line   : /home/skaramcheti/.virtualenvs/afl/bin/afl-unix/afl-fuzz -i /dev/shm/work/TFTTP/input -o /dev/shm/work/TFTTP/sync -m 4G -Q -M fuzzer-master -x /dev/shm/work/TFTTP/TFTTP.dict -- data/linux/processed-challenges/TFTTP/bin/TFTTP\n'
p121
I0
tp122
a(I7320
S'start_time     : 1500187851\nlast_update    : 1500195124\nfuzzer_pid     : 22016\ncycles_done    : 0\nexecs_done     : 2522184\nexecs_per_sec  : 319.61\npaths_total    : 130\npaths_favored  : 59\npaths_found    : 129\npaths_imported : 0\nmax_depth      : 9\ncur_path       : 115\npending_favs   : 11\npending_total  : 64\nvariable_paths : 0\nbitmap_cvg     : 0.58%\nunique_crashes : 0\nunique_hangs   : 3\nlast_path      : 1500194935\nlast_crash     : 0\nlast_hang      : 1500193026\nexec_timeout   : 20\nafl_banner     : fuzzer-master\nafl_version    : 1.85b\ncommand_line   : /home/skaramcheti/.virtualenvs/afl/bin/afl-unix/afl-fuzz -i /dev/shm/work/TFTTP/input -o /dev/shm/work/TFTTP/sync -m 4G -Q -M fuzzer-master -x /dev/shm/work/TFTTP/TFTTP.dict -- data/linux/processed-challenges/TFTTP/bin/TFTTP\n'
p123
I1
tp124
a(I7440
S'start_time     : 1500187851\nlast_update    : 1500195244\nfuzzer_pid     : 22016\ncycles_done    : 0\nexecs_done     : 2574781\nexecs_per_sec  : 457.93\npaths_total    : 131\npaths_favored  : 59\npaths_found    : 130\npaths_imported : 0\nmax_depth      : 9\ncur_path       : 116\npending_favs   : 11\npending_total  : 64\nvariable_paths : 0\nbitmap_cvg     : 0.58%\nunique_crashes : 0\nunique_hangs   : 3\nlast_path      : 1500195147\nlast_crash     : 0\nlast_hang      : 1500193026\nexec_timeout   : 20\nafl_banner     : fuzzer-master\nafl_version    : 1.85b\ncommand_line   : /home/skaramcheti/.virtualenvs/afl/bin/afl-unix/afl-fuzz -i /dev/shm/work/TFTTP/input -o /dev/shm/work/TFTTP/sync -m 4G -Q -M fuzzer-master -x /dev/shm/work/TFTTP/TFTTP.dict -- data/linux/processed-challenges/TFTTP/bin/TFTTP\n'
p125
I0
tp126
a(I7560
S'start_time     : 1500187851\nlast_update    : 1500195364\nfuzzer_pid     : 22016\ncycles_done    : 0\nexecs_done     : 2625720\nexecs_per_sec  : 456.40\npaths_total    : 131\npaths_favored  : 59\npaths_found    : 130\npaths_imported : 0\nmax_depth      : 9\ncur_path       : 118\npending_favs   : 9\npending_total  : 62\nvariable_paths : 0\nbitmap_cvg     : 0.58%\nunique_crashes : 0\nunique_hangs   : 3\nlast_path      : 1500195147\nlast_crash     : 0\nlast_hang      : 1500193026\nexec_timeout   : 20\nafl_banner     : fuzzer-master\nafl_version    : 1.85b\ncommand_line   : /home/skaramcheti/.virtualenvs/afl/bin/afl-unix/afl-fuzz -i /dev/shm/work/TFTTP/input -o /dev/shm/work/TFTTP/sync -m 4G -Q -M fuzzer-master -x /dev/shm/work/TFTTP/TFTTP.dict -- data/linux/processed-challenges/TFTTP/bin/TFTTP\n'
p127
I0
tp128
a(I7680
S'start_time     : 1500187851\nlast_update    : 1500195484\nfuzzer_pid     : 22016\ncycles_done    : 0\nexecs_done     : 2676668\nexecs_per_sec  : 436.07\npaths_total    : 131\npaths_favored  : 59\npaths_found    : 130\npaths_imported : 0\nmax_depth      : 9\ncur_path       : 120\npending_favs   : 7\npending_total  : 60\nvariable_paths : 0\nbitmap_cvg     : 0.58%\nunique_crashes : 0\nunique_hangs   : 3\nlast_path      : 1500195147\nlast_crash     : 0\nlast_hang      : 1500193026\nexec_timeout   : 20\nafl_banner     : fuzzer-master\nafl_version    : 1.85b\ncommand_line   : /home/skaramcheti/.virtualenvs/afl/bin/afl-unix/afl-fuzz -i /dev/shm/work/TFTTP/input -o /dev/shm/work/TFTTP/sync -m 4G -Q -M fuzzer-master -x /dev/shm/work/TFTTP/TFTTP.dict -- data/linux/processed-challenges/TFTTP/bin/TFTTP\n'
p129
I0
tp130
a(I7800
S'start_time     : 1500187851\nlast_update    : 1500195605\nfuzzer_pid     : 22016\ncycles_done    : 0\nexecs_done     : 2724755\nexecs_per_sec  : 205.47\npaths_total    : 131\npaths_favored  : 59\npaths_found    : 130\npaths_imported : 0\nmax_depth      : 9\ncur_path       : 123\npending_favs   : 5\npending_total  : 58\nvariable_paths : 0\nbitmap_cvg     : 0.58%\nunique_crashes : 0\nunique_hangs   : 3\nlast_path      : 1500195147\nlast_crash     : 0\nlast_hang      : 1500193026\nexec_timeout   : 20\nafl_banner     : fuzzer-master\nafl_version    : 1.85b\ncommand_line   : /home/skaramcheti/.virtualenvs/afl/bin/afl-unix/afl-fuzz -i /dev/shm/work/TFTTP/input -o /dev/shm/work/TFTTP/sync -m 4G -Q -M fuzzer-master -x /dev/shm/work/TFTTP/TFTTP.dict -- data/linux/processed-challenges/TFTTP/bin/TFTTP\n'
p131
I1
tp132
a(I7920
S'start_time     : 1500187851\nlast_update    : 1500195725\nfuzzer_pid     : 22016\ncycles_done    : 0\nexecs_done     : 2764780\nexecs_per_sec  : 386.93\npaths_total    : 132\npaths_favored  : 59\npaths_found    : 131\npaths_imported : 0\nmax_depth      : 9\ncur_path       : 123\npending_favs   : 5\npending_total  : 59\nvariable_paths : 0\nbitmap_cvg     : 0.58%\nunique_crashes : 0\nunique_hangs   : 3\nlast_path      : 1500195649\nlast_crash     : 0\nlast_hang      : 1500193026\nexec_timeout   : 20\nafl_banner     : fuzzer-master\nafl_version    : 1.85b\ncommand_line   : /home/skaramcheti/.virtualenvs/afl/bin/afl-unix/afl-fuzz -i /dev/shm/work/TFTTP/input -o /dev/shm/work/TFTTP/sync -m 4G -Q -M fuzzer-master -x /dev/shm/work/TFTTP/TFTTP.dict -- data/linux/processed-challenges/TFTTP/bin/TFTTP\n'
p133
I1
tp134
a(I8040
S'start_time     : 1500187851\nlast_update    : 1500195845\nfuzzer_pid     : 22016\ncycles_done    : 0\nexecs_done     : 2812654\nexecs_per_sec  : 305.19\npaths_total    : 133\npaths_favored  : 59\npaths_found    : 132\npaths_imported : 0\nmax_depth      : 9\ncur_path       : 125\npending_favs   : 4\npending_total  : 59\nvariable_paths : 0\nbitmap_cvg     : 0.58%\nunique_crashes : 0\nunique_hangs   : 3\nlast_path      : 1500195734\nlast_crash     : 0\nlast_hang      : 1500193026\nexec_timeout   : 20\nafl_banner     : fuzzer-master\nafl_version    : 1.85b\ncommand_line   : /home/skaramcheti/.virtualenvs/afl/bin/afl-unix/afl-fuzz -i /dev/shm/work/TFTTP/input -o /dev/shm/work/TFTTP/sync -m 4G -Q -M fuzzer-master -x /dev/shm/work/TFTTP/TFTTP.dict -- data/linux/processed-challenges/TFTTP/bin/TFTTP\n'
p135
I0
tp136
a(I8160
S'start_time     : 1500187851\nlast_update    : 1500195965\nfuzzer_pid     : 22016\ncycles_done    : 0\nexecs_done     : 2845829\nexecs_per_sec  : 379.83\npaths_total    : 133\npaths_favored  : 59\npaths_found    : 132\npaths_imported : 0\nmax_depth      : 9\ncur_path       : 125\npending_favs   : 4\npending_total  : 59\nvariable_paths : 0\nbitmap_cvg     : 0.58%\nunique_crashes : 0\nunique_hangs   : 4\nlast_path      : 1500195734\nlast_crash     : 0\nlast_hang      : 1500195855\nexec_timeout   : 20\nafl_banner     : fuzzer-master\nafl_version    : 1.85b\ncommand_line   : /home/skaramcheti/.virtualenvs/afl/bin/afl-unix/afl-fuzz -i /dev/shm/work/TFTTP/input -o /dev/shm/work/TFTTP/sync -m 4G -Q -M fuzzer-master -x /dev/shm/work/TFTTP/TFTTP.dict -- data/linux/processed-challenges/TFTTP/bin/TFTTP\n'
p137
I0
tp138
a(I8280
S'start_time     : 1500187851\nlast_update    : 1500196086\nfuzzer_pid     : 22016\ncycles_done    : 0\nexecs_done     : 2880373\nexecs_per_sec  : 227.58\npaths_total    : 133\npaths_favored  : 59\npaths_found    : 132\npaths_imported : 0\nmax_depth      : 9\ncur_path       : 128\npending_favs   : 2\npending_total  : 57\nvariable_paths : 0\nbitmap_cvg     : 0.58%\nunique_crashes : 0\nunique_hangs   : 4\nlast_path      : 1500195734\nlast_crash     : 0\nlast_hang      : 1500195855\nexec_timeout   : 20\nafl_banner     : fuzzer-master\nafl_version    : 1.85b\ncommand_line   : /home/skaramcheti/.virtualenvs/afl/bin/afl-unix/afl-fuzz -i /dev/shm/work/TFTTP/input -o /dev/shm/work/TFTTP/sync -m 4G -Q -M fuzzer-master -x /dev/shm/work/TFTTP/TFTTP.dict -- data/linux/processed-challenges/TFTTP/bin/TFTTP\n'
p139
I1
tp140
a(I8400
S'start_time     : 1500187851\nlast_update    : 1500196206\nfuzzer_pid     : 22016\ncycles_done    : 0\nexecs_done     : 2919296\nexecs_per_sec  : 391.50\npaths_total    : 134\npaths_favored  : 59\npaths_found    : 133\npaths_imported : 0\nmax_depth      : 10\ncur_path       : 128\npending_favs   : 2\npending_total  : 58\nvariable_paths : 0\nbitmap_cvg     : 0.58%\nunique_crashes : 0\nunique_hangs   : 4\nlast_path      : 1500196141\nlast_crash     : 0\nlast_hang      : 1500195855\nexec_timeout   : 20\nafl_banner     : fuzzer-master\nafl_version    : 1.85b\ncommand_line   : /home/skaramcheti/.virtualenvs/afl/bin/afl-unix/afl-fuzz -i /dev/shm/work/TFTTP/input -o /dev/shm/work/TFTTP/sync -m 4G -Q -M fuzzer-master -x /dev/shm/work/TFTTP/TFTTP.dict -- data/linux/processed-challenges/TFTTP/bin/TFTTP\n'
p141
I0
tp142
a(I8520
S'start_time     : 1500187851\nlast_update    : 1500196326\nfuzzer_pid     : 22016\ncycles_done    : 1\nexecs_done     : 2974233\nexecs_per_sec  : 596.03\npaths_total    : 134\npaths_favored  : 59\npaths_found    : 133\npaths_imported : 0\nmax_depth      : 10\ncur_path       : 10\npending_favs   : 0\npending_total  : 56\nvariable_paths : 0\nbitmap_cvg     : 0.58%\nunique_crashes : 0\nunique_hangs   : 4\nlast_path      : 1500196141\nlast_crash     : 0\nlast_hang      : 1500195855\nexec_timeout   : 20\nafl_banner     : fuzzer-master\nafl_version    : 1.85b\ncommand_line   : /home/skaramcheti/.virtualenvs/afl/bin/afl-unix/afl-fuzz -i /dev/shm/work/TFTTP/input -o /dev/shm/work/TFTTP/sync -m 4G -Q -M fuzzer-master -x /dev/shm/work/TFTTP/TFTTP.dict -- data/linux/processed-challenges/TFTTP/bin/TFTTP\n'
p143
I0
tp144
a(I8640
S'start_time     : 1500187851\nlast_update    : 1500196446\nfuzzer_pid     : 22016\ncycles_done    : 1\nexecs_done     : 3030084\nexecs_per_sec  : 467.74\npaths_total    : 134\npaths_favored  : 59\npaths_found    : 133\npaths_imported : 0\nmax_depth      : 10\ncur_path       : 30\npending_favs   : 0\npending_total  : 53\nvariable_paths : 0\nbitmap_cvg     : 0.58%\nunique_crashes : 0\nunique_hangs   : 4\nlast_path      : 1500196141\nlast_crash     : 0\nlast_hang      : 1500195855\nexec_timeout   : 20\nafl_banner     : fuzzer-master\nafl_version    : 1.85b\ncommand_line   : /home/skaramcheti/.virtualenvs/afl/bin/afl-unix/afl-fuzz -i /dev/shm/work/TFTTP/input -o /dev/shm/work/TFTTP/sync -m 4G -Q -M fuzzer-master -x /dev/shm/work/TFTTP/TFTTP.dict -- data/linux/processed-challenges/TFTTP/bin/TFTTP\n'
p145
I0
tp146
a(I8760
S'start_time     : 1500187851\nlast_update    : 1500196566\nfuzzer_pid     : 22016\ncycles_done    : 1\nexecs_done     : 3078883\nexecs_per_sec  : 473.70\npaths_total    : 134\npaths_favored  : 59\npaths_found    : 133\npaths_imported : 0\nmax_depth      : 10\ncur_path       : 37\npending_favs   : 0\npending_total  : 52\nvariable_paths : 0\nbitmap_cvg     : 0.58%\nunique_crashes : 0\nunique_hangs   : 4\nlast_path      : 1500196141\nlast_crash     : 0\nlast_hang      : 1500195855\nexec_timeout   : 20\nafl_banner     : fuzzer-master\nafl_version    : 1.85b\ncommand_line   : /home/skaramcheti/.virtualenvs/afl/bin/afl-unix/afl-fuzz -i /dev/shm/work/TFTTP/input -o /dev/shm/work/TFTTP/sync -m 4G -Q -M fuzzer-master -x /dev/shm/work/TFTTP/TFTTP.dict -- data/linux/processed-challenges/TFTTP/bin/TFTTP\n'
p147
I0
tp148
a(I8880
S'start_time     : 1500187851\nlast_update    : 1500196687\nfuzzer_pid     : 22016\ncycles_done    : 1\nexecs_done     : 3134882\nexecs_per_sec  : 441.69\npaths_total    : 134\npaths_favored  : 59\npaths_found    : 133\npaths_imported : 0\nmax_depth      : 10\ncur_path       : 49\npending_favs   : 0\npending_total  : 52\nvariable_paths : 0\nbitmap_cvg     : 0.58%\nunique_crashes : 0\nunique_hangs   : 4\nlast_path      : 1500196141\nlast_crash     : 0\nlast_hang      : 1500195855\nexec_timeout   : 20\nafl_banner     : fuzzer-master\nafl_version    : 1.85b\ncommand_line   : /home/skaramcheti/.virtualenvs/afl/bin/afl-unix/afl-fuzz -i /dev/shm/work/TFTTP/input -o /dev/shm/work/TFTTP/sync -m 4G -Q -M fuzzer-master -x /dev/shm/work/TFTTP/TFTTP.dict -- data/linux/processed-challenges/TFTTP/bin/TFTTP\n'
p149
I0
tp150
a(I9000
S'start_time     : 1500187851\nlast_update    : 1500196807\nfuzzer_pid     : 22016\ncycles_done    : 1\nexecs_done     : 3166609\nexecs_per_sec  : 400.32\npaths_total    : 137\npaths_favored  : 59\npaths_found    : 136\npaths_imported : 0\nmax_depth      : 10\ncur_path       : 54\npending_favs   : 0\npending_total  : 55\nvariable_paths : 0\nbitmap_cvg     : 0.58%\nunique_crashes : 0\nunique_hangs   : 6\nlast_path      : 1500196782\nlast_crash     : 0\nlast_hang      : 1500196802\nexec_timeout   : 20\nafl_banner     : fuzzer-master\nafl_version    : 1.85b\ncommand_line   : /home/skaramcheti/.virtualenvs/afl/bin/afl-unix/afl-fuzz -i /dev/shm/work/TFTTP/input -o /dev/shm/work/TFTTP/sync -m 4G -Q -M fuzzer-master -x /dev/shm/work/TFTTP/TFTTP.dict -- data/linux/processed-challenges/TFTTP/bin/TFTTP\n'
p151
I3
tp152
a(I9120
S'start_time     : 1500187851\nlast_update    : 1500196927\nfuzzer_pid     : 22016\ncycles_done    : 1\nexecs_done     : 3212170\nexecs_per_sec  : 217.53\npaths_total    : 137\npaths_favored  : 59\npaths_found    : 136\npaths_imported : 0\nmax_depth      : 10\ncur_path       : 55\npending_favs   : 0\npending_total  : 54\nvariable_paths : 0\nbitmap_cvg     : 0.58%\nunique_crashes : 0\nunique_hangs   : 6\nlast_path      : 1500196782\nlast_crash     : 0\nlast_hang      : 1500196802\nexec_timeout   : 20\nafl_banner     : fuzzer-master\nafl_version    : 1.85b\ncommand_line   : /home/skaramcheti/.virtualenvs/afl/bin/afl-unix/afl-fuzz -i /dev/shm/work/TFTTP/input -o /dev/shm/work/TFTTP/sync -m 4G -Q -M fuzzer-master -x /dev/shm/work/TFTTP/TFTTP.dict -- data/linux/processed-challenges/TFTTP/bin/TFTTP\n'
p153
I0
tp154
a(I9240
S'start_time     : 1500187851\nlast_update    : 1500197047\nfuzzer_pid     : 22016\ncycles_done    : 1\nexecs_done     : 3241374\nexecs_per_sec  : 158.22\npaths_total    : 137\npaths_favored  : 59\npaths_found    : 136\npaths_imported : 0\nmax_depth      : 10\ncur_path       : 61\npending_favs   : 0\npending_total  : 53\nvariable_paths : 0\nbitmap_cvg     : 0.58%\nunique_crashes : 0\nunique_hangs   : 6\nlast_path      : 1500196782\nlast_crash     : 0\nlast_hang      : 1500196802\nexec_timeout   : 20\nafl_banner     : fuzzer-master\nafl_version    : 1.85b\ncommand_line   : /home/skaramcheti/.virtualenvs/afl/bin/afl-unix/afl-fuzz -i /dev/shm/work/TFTTP/input -o /dev/shm/work/TFTTP/sync -m 4G -Q -M fuzzer-master -x /dev/shm/work/TFTTP/TFTTP.dict -- data/linux/processed-challenges/TFTTP/bin/TFTTP\n'
p155
I0
tp156
a(I9360
S'start_time     : 1500187851\nlast_update    : 1500197167\nfuzzer_pid     : 22016\ncycles_done    : 1\nexecs_done     : 3287915\nexecs_per_sec  : 440.20\npaths_total    : 137\npaths_favored  : 59\npaths_found    : 136\npaths_imported : 0\nmax_depth      : 10\ncur_path       : 67\npending_favs   : 0\npending_total  : 52\nvariable_paths : 0\nbitmap_cvg     : 0.58%\nunique_crashes : 0\nunique_hangs   : 6\nlast_path      : 1500196782\nlast_crash     : 0\nlast_hang      : 1500196802\nexec_timeout   : 20\nafl_banner     : fuzzer-master\nafl_version    : 1.85b\ncommand_line   : /home/skaramcheti/.virtualenvs/afl/bin/afl-unix/afl-fuzz -i /dev/shm/work/TFTTP/input -o /dev/shm/work/TFTTP/sync -m 4G -Q -M fuzzer-master -x /dev/shm/work/TFTTP/TFTTP.dict -- data/linux/processed-challenges/TFTTP/bin/TFTTP\n'
p157
I1
tp158
a(I9480
S'start_time     : 1500187851\nlast_update    : 1500197288\nfuzzer_pid     : 22016\ncycles_done    : 1\nexecs_done     : 3325358\nexecs_per_sec  : 161.47\npaths_total    : 138\npaths_favored  : 59\npaths_found    : 137\npaths_imported : 0\nmax_depth      : 10\ncur_path       : 71\npending_favs   : 0\npending_total  : 53\nvariable_paths : 0\nbitmap_cvg     : 0.58%\nunique_crashes : 0\nunique_hangs   : 7\nlast_path      : 1500197187\nlast_crash     : 0\nlast_hang      : 1500197245\nexec_timeout   : 20\nafl_banner     : fuzzer-master\nafl_version    : 1.85b\ncommand_line   : /home/skaramcheti/.virtualenvs/afl/bin/afl-unix/afl-fuzz -i /dev/shm/work/TFTTP/input -o /dev/shm/work/TFTTP/sync -m 4G -Q -M fuzzer-master -x /dev/shm/work/TFTTP/TFTTP.dict -- data/linux/processed-challenges/TFTTP/bin/TFTTP\n'
p159
I0
tp160
a(I9600
S'start_time     : 1500187851\nlast_update    : 1500197408\nfuzzer_pid     : 22016\ncycles_done    : 1\nexecs_done     : 3351971\nexecs_per_sec  : 325.02\npaths_total    : 139\npaths_favored  : 59\npaths_found    : 138\npaths_imported : 0\nmax_depth      : 10\ncur_path       : 72\npending_favs   : 0\npending_total  : 53\nvariable_paths : 0\nbitmap_cvg     : 0.58%\nunique_crashes : 0\nunique_hangs   : 8\nlast_path      : 1500197383\nlast_crash     : 0\nlast_hang      : 1500197349\nexec_timeout   : 20\nafl_banner     : fuzzer-master\nafl_version    : 1.85b\ncommand_line   : /home/skaramcheti/.virtualenvs/afl/bin/afl-unix/afl-fuzz -i /dev/shm/work/TFTTP/input -o /dev/shm/work/TFTTP/sync -m 4G -Q -M fuzzer-master -x /dev/shm/work/TFTTP/TFTTP.dict -- data/linux/processed-challenges/TFTTP/bin/TFTTP\n'
p161
I2
tp162
a(I9720
S'start_time     : 1500187851\nlast_update    : 1500197528\nfuzzer_pid     : 22016\ncycles_done    : 1\nexecs_done     : 3393363\nexecs_per_sec  : 412.11\npaths_total    : 140\npaths_favored  : 59\npaths_found    : 139\npaths_imported : 0\nmax_depth      : 10\ncur_path       : 76\npending_favs   : 0\npending_total  : 53\nvariable_paths : 0\nbitmap_cvg     : 0.58%\nunique_crashes : 0\nunique_hangs   : 8\nlast_path      : 1500197461\nlast_crash     : 0\nlast_hang      : 1500197349\nexec_timeout   : 20\nafl_banner     : fuzzer-master\nafl_version    : 1.85b\ncommand_line   : /home/skaramcheti/.virtualenvs/afl/bin/afl-unix/afl-fuzz -i /dev/shm/work/TFTTP/input -o /dev/shm/work/TFTTP/sync -m 4G -Q -M fuzzer-master -x /dev/shm/work/TFTTP/TFTTP.dict -- data/linux/processed-challenges/TFTTP/bin/TFTTP\n'
p163
I0
tp164
a(I9840
S'start_time     : 1500187851\nlast_update    : 1500197648\nfuzzer_pid     : 22016\ncycles_done    : 1\nexecs_done     : 3443247\nexecs_per_sec  : 430.05\npaths_total    : 140\npaths_favored  : 59\npaths_found    : 139\npaths_imported : 0\nmax_depth      : 10\ncur_path       : 89\npending_favs   : 0\npending_total  : 53\nvariable_paths : 0\nbitmap_cvg     : 0.58%\nunique_crashes : 0\nunique_hangs   : 8\nlast_path      : 1500197461\nlast_crash     : 0\nlast_hang      : 1500197349\nexec_timeout   : 20\nafl_banner     : fuzzer-master\nafl_version    : 1.85b\ncommand_line   : /home/skaramcheti/.virtualenvs/afl/bin/afl-unix/afl-fuzz -i /dev/shm/work/TFTTP/input -o /dev/shm/work/TFTTP/sync -m 4G -Q -M fuzzer-master -x /dev/shm/work/TFTTP/TFTTP.dict -- data/linux/processed-challenges/TFTTP/bin/TFTTP\n'
p165
I1
tp166
a(I9960
S'start_time     : 1500187851\nlast_update    : 1500197768\nfuzzer_pid     : 22016\ncycles_done    : 1\nexecs_done     : 3495306\nexecs_per_sec  : 388.35\npaths_total    : 141\npaths_favored  : 59\npaths_found    : 140\npaths_imported : 0\nmax_depth      : 10\ncur_path       : 93\npending_favs   : 0\npending_total  : 54\nvariable_paths : 0\nbitmap_cvg     : 0.58%\nunique_crashes : 0\nunique_hangs   : 9\nlast_path      : 1500197684\nlast_crash     : 0\nlast_hang      : 1500197713\nexec_timeout   : 20\nafl_banner     : fuzzer-master\nafl_version    : 1.85b\ncommand_line   : /home/skaramcheti/.virtualenvs/afl/bin/afl-unix/afl-fuzz -i /dev/shm/work/TFTTP/input -o /dev/shm/work/TFTTP/sync -m 4G -Q -M fuzzer-master -x /dev/shm/work/TFTTP/TFTTP.dict -- data/linux/processed-challenges/TFTTP/bin/TFTTP\n'
p167
I0
tp168
a(I10080
S'start_time     : 1500187851\nlast_update    : 1500197888\nfuzzer_pid     : 22016\ncycles_done    : 1\nexecs_done     : 3546801\nexecs_per_sec  : 421.30\npaths_total    : 141\npaths_favored  : 59\npaths_found    : 140\npaths_imported : 0\nmax_depth      : 10\ncur_path       : 99\npending_favs   : 0\npending_total  : 54\nvariable_paths : 0\nbitmap_cvg     : 0.58%\nunique_crashes : 0\nunique_hangs   : 9\nlast_path      : 1500197684\nlast_crash     : 0\nlast_hang      : 1500197713\nexec_timeout   : 20\nafl_banner     : fuzzer-master\nafl_version    : 1.85b\ncommand_line   : /home/skaramcheti/.virtualenvs/afl/bin/afl-unix/afl-fuzz -i /dev/shm/work/TFTTP/input -o /dev/shm/work/TFTTP/sync -m 4G -Q -M fuzzer-master -x /dev/shm/work/TFTTP/TFTTP.dict -- data/linux/processed-challenges/TFTTP/bin/TFTTP\n'
p169
I1
tp170
a(I10200
S'start_time     : 1500187851\nlast_update    : 1500198009\nfuzzer_pid     : 22016\ncycles_done    : 1\nexecs_done     : 3597869\nexecs_per_sec  : 437.98\npaths_total    : 143\npaths_favored  : 59\npaths_found    : 142\npaths_imported : 0\nmax_depth      : 10\ncur_path       : 102\npending_favs   : 0\npending_total  : 56\nvariable_paths : 0\nbitmap_cvg     : 0.58%\nunique_crashes : 0\nunique_hangs   : 9\nlast_path      : 1500197977\nlast_crash     : 0\nlast_hang      : 1500197713\nexec_timeout   : 20\nafl_banner     : fuzzer-master\nafl_version    : 1.85b\ncommand_line   : /home/skaramcheti/.virtualenvs/afl/bin/afl-unix/afl-fuzz -i /dev/shm/work/TFTTP/input -o /dev/shm/work/TFTTP/sync -m 4G -Q -M fuzzer-master -x /dev/shm/work/TFTTP/TFTTP.dict -- data/linux/processed-challenges/TFTTP/bin/TFTTP\n'
p171
I1
tp172
a(I10320
S'start_time     : 1500187851\nlast_update    : 1500198129\nfuzzer_pid     : 22016\ncycles_done    : 1\nexecs_done     : 3650509\nexecs_per_sec  : 422.24\npaths_total    : 143\npaths_favored  : 59\npaths_found    : 142\npaths_imported : 0\nmax_depth      : 10\ncur_path       : 107\npending_favs   : 0\npending_total  : 56\nvariable_paths : 0\nbitmap_cvg     : 0.58%\nunique_crashes : 0\nunique_hangs   : 9\nlast_path      : 1500197977\nlast_crash     : 0\nlast_hang      : 1500197713\nexec_timeout   : 20\nafl_banner     : fuzzer-master\nafl_version    : 1.85b\ncommand_line   : /home/skaramcheti/.virtualenvs/afl/bin/afl-unix/afl-fuzz -i /dev/shm/work/TFTTP/input -o /dev/shm/work/TFTTP/sync -m 4G -Q -M fuzzer-master -x /dev/shm/work/TFTTP/TFTTP.dict -- data/linux/processed-challenges/TFTTP/bin/TFTTP\n'
p173
I0
tp174
a(I10440
S'start_time     : 1500187851\nlast_update    : 1500198249\nfuzzer_pid     : 22016\ncycles_done    : 1\nexecs_done     : 3701701\nexecs_per_sec  : 421.16\npaths_total    : 143\npaths_favored  : 59\npaths_found    : 142\npaths_imported : 0\nmax_depth      : 10\ncur_path       : 109\npending_favs   : 0\npending_total  : 56\nvariable_paths : 0\nbitmap_cvg     : 0.58%\nunique_crashes : 0\nunique_hangs   : 9\nlast_path      : 1500197977\nlast_crash     : 0\nlast_hang      : 1500197713\nexec_timeout   : 20\nafl_banner     : fuzzer-master\nafl_version    : 1.85b\ncommand_line   : /home/skaramcheti/.virtualenvs/afl/bin/afl-unix/afl-fuzz -i /dev/shm/work/TFTTP/input -o /dev/shm/work/TFTTP/sync -m 4G -Q -M fuzzer-master -x /dev/shm/work/TFTTP/TFTTP.dict -- data/linux/processed-challenges/TFTTP/bin/TFTTP\n'
p175
I0
tp176
a(I10560
S'start_time     : 1500187851\nlast_update    : 1500198369\nfuzzer_pid     : 22016\ncycles_done    : 1\nexecs_done     : 3751415\nexecs_per_sec  : 178.85\npaths_total    : 144\npaths_favored  : 60\npaths_found    : 143\npaths_imported : 0\nmax_depth      : 10\ncur_path       : 143\npending_favs   : 1\npending_total  : 57\nvariable_paths : 0\nbitmap_cvg     : 0.58%\nunique_crashes : 0\nunique_hangs   : 10\nlast_path      : 1500198311\nlast_crash     : 0\nlast_hang      : 1500198340\nexec_timeout   : 20\nafl_banner     : fuzzer-master\nafl_version    : 1.85b\ncommand_line   : /home/skaramcheti/.virtualenvs/afl/bin/afl-unix/afl-fuzz -i /dev/shm/work/TFTTP/input -o /dev/shm/work/TFTTP/sync -m 4G -Q -M fuzzer-master -x /dev/shm/work/TFTTP/TFTTP.dict -- data/linux/processed-challenges/TFTTP/bin/TFTTP\n'
p177
I1
tp178
a(I10680
S'start_time     : 1500187851\nlast_update    : 1500198489\nfuzzer_pid     : 22016\ncycles_done    : 1\nexecs_done     : 3769523\nexecs_per_sec  : 142.18\npaths_total    : 144\npaths_favored  : 60\npaths_found    : 143\npaths_imported : 0\nmax_depth      : 10\ncur_path       : 143\npending_favs   : 1\npending_total  : 57\nvariable_paths : 0\nbitmap_cvg     : 0.58%\nunique_crashes : 0\nunique_hangs   : 12\nlast_path      : 1500198311\nlast_crash     : 0\nlast_hang      : 1500198414\nexec_timeout   : 20\nafl_banner     : fuzzer-master\nafl_version    : 1.85b\ncommand_line   : /home/skaramcheti/.virtualenvs/afl/bin/afl-unix/afl-fuzz -i /dev/shm/work/TFTTP/input -o /dev/shm/work/TFTTP/sync -m 4G -Q -M fuzzer-master -x /dev/shm/work/TFTTP/TFTTP.dict -- data/linux/processed-challenges/TFTTP/bin/TFTTP\n'
p179
I0
tp180
a.