(lp0
(I0
S'start_time     : 1500241942\nlast_update    : 1500241943\nfuzzer_pid     : 6356\ncycles_done    : 0\nexecs_done     : 10\nexecs_per_sec  : 200.00\npaths_total    : 1\npaths_favored  : 1\npaths_found    : 0\npaths_imported : 0\nmax_depth      : 1\ncur_path       : 0\npending_favs   : 1\npending_total  : 1\nvariable_paths : 0\nbitmap_cvg     : 0.13%\nunique_crashes : 0\nunique_hangs   : 0\nlast_path      : 0\nlast_crash     : 0\nlast_hang      : 0\nexec_timeout   : 20\nafl_banner     : fuzzer-master\nafl_version    : 1.85b\ncommand_line   : /home/skaramcheti/.virtualenvs/afl/bin/afl-unix/afl-fuzz -i /dev/shm/work/Tick-A-Tack/input -o /dev/shm/work/Tick-A-Tack/sync -m 4G -Q -M fuzzer-master -x /dev/shm/work/Tick-A-Tack/Tick-A-Tack.dict -- data/linux/processed-challenges/Tick-A-Tack/bin/Tick-A-Tack\n'
p1
I10
tp2
a(I120
S'start_time     : 1500241942\nlast_update    : 1500242063\nfuzzer_pid     : 6356\ncycles_done    : 0\nexecs_done     : 124846\nexecs_per_sec  : 1093.03\npaths_total    : 11\npaths_favored  : 1\npaths_found    : 10\npaths_imported : 0\nmax_depth      : 2\ncur_path       : 0\npending_favs   : 1\npending_total  : 11\nvariable_paths : 0\nbitmap_cvg     : 0.21%\nunique_crashes : 0\nunique_hangs   : 1\nlast_path      : 1500241954\nlast_crash     : 0\nlast_hang      : 1500241943\nexec_timeout   : 20\nafl_banner     : fuzzer-master\nafl_version    : 1.85b\ncommand_line   : /home/skaramcheti/.virtualenvs/afl/bin/afl-unix/afl-fuzz -i /dev/shm/work/Tick-A-Tack/input -o /dev/shm/work/Tick-A-Tack/sync -m 4G -Q -M fuzzer-master -x /dev/shm/work/Tick-A-Tack/Tick-A-Tack.dict -- data/linux/processed-challenges/Tick-A-Tack/bin/Tick-A-Tack\n'
p3
I1
tp4
a(I240
S'start_time     : 1500241942\nlast_update    : 1500242183\nfuzzer_pid     : 6356\ncycles_done    : 0\nexecs_done     : 245913\nexecs_per_sec  : 962.86\npaths_total    : 22\npaths_favored  : 5\npaths_found    : 21\npaths_imported : 0\nmax_depth      : 5\ncur_path       : 15\npending_favs   : 1\npending_total  : 14\nvariable_paths : 0\nbitmap_cvg     : 0.50%\nunique_crashes : 0\nunique_hangs   : 1\nlast_path      : 1500242170\nlast_crash     : 0\nlast_hang      : 1500241943\nexec_timeout   : 20\nafl_banner     : fuzzer-master\nafl_version    : 1.85b\ncommand_line   : /home/skaramcheti/.virtualenvs/afl/bin/afl-unix/afl-fuzz -i /dev/shm/work/Tick-A-Tack/input -o /dev/shm/work/Tick-A-Tack/sync -m 4G -Q -M fuzzer-master -x /dev/shm/work/Tick-A-Tack/Tick-A-Tack.dict -- data/linux/processed-challenges/Tick-A-Tack/bin/Tick-A-Tack\n'
p5
I11
tp6
a(I360
S'start_time     : 1500241942\nlast_update    : 1500242303\nfuzzer_pid     : 6356\ncycles_done    : 0\nexecs_done     : 362579\nexecs_per_sec  : 987.23\npaths_total    : 29\npaths_favored  : 8\npaths_found    : 28\npaths_imported : 0\nmax_depth      : 6\ncur_path       : 16\npending_favs   : 3\npending_total  : 20\nvariable_paths : 0\nbitmap_cvg     : 0.63%\nunique_crashes : 0\nunique_hangs   : 1\nlast_path      : 1500242291\nlast_crash     : 0\nlast_hang      : 1500241943\nexec_timeout   : 20\nafl_banner     : fuzzer-master\nafl_version    : 1.85b\ncommand_line   : /home/skaramcheti/.virtualenvs/afl/bin/afl-unix/afl-fuzz -i /dev/shm/work/Tick-A-Tack/input -o /dev/shm/work/Tick-A-Tack/sync -m 4G -Q -M fuzzer-master -x /dev/shm/work/Tick-A-Tack/Tick-A-Tack.dict -- data/linux/processed-challenges/Tick-A-Tack/bin/Tick-A-Tack\n'
p7
I10
tp8
a(I480
S'start_time     : 1500241942\nlast_update    : 1500242423\nfuzzer_pid     : 6356\ncycles_done    : 0\nexecs_done     : 477073\nexecs_per_sec  : 956.91\npaths_total    : 50\npaths_favored  : 10\npaths_found    : 49\npaths_imported : 0\nmax_depth      : 6\ncur_path       : 22\npending_favs   : 4\npending_total  : 40\nvariable_paths : 0\nbitmap_cvg     : 0.72%\nunique_crashes : 0\nunique_hangs   : 1\nlast_path      : 1500242407\nlast_crash     : 0\nlast_hang      : 1500241943\nexec_timeout   : 20\nafl_banner     : fuzzer-master\nafl_version    : 1.85b\ncommand_line   : /home/skaramcheti/.virtualenvs/afl/bin/afl-unix/afl-fuzz -i /dev/shm/work/Tick-A-Tack/input -o /dev/shm/work/Tick-A-Tack/sync -m 4G -Q -M fuzzer-master -x /dev/shm/work/Tick-A-Tack/Tick-A-Tack.dict -- data/linux/processed-challenges/Tick-A-Tack/bin/Tick-A-Tack\n'
p9
I18
tp10
a(I600
S'start_time     : 1500241942\nlast_update    : 1500242543\nfuzzer_pid     : 6356\ncycles_done    : 0\nexecs_done     : 591891\nexecs_per_sec  : 973.55\npaths_total    : 57\npaths_favored  : 20\npaths_found    : 56\npaths_imported : 0\nmax_depth      : 7\ncur_path       : 30\npending_favs   : 12\npending_total  : 44\nvariable_paths : 0\nbitmap_cvg     : 0.73%\nunique_crashes : 0\nunique_hangs   : 1\nlast_path      : 1500242541\nlast_crash     : 0\nlast_hang      : 1500241943\nexec_timeout   : 20\nafl_banner     : fuzzer-master\nafl_version    : 1.85b\ncommand_line   : /home/skaramcheti/.virtualenvs/afl/bin/afl-unix/afl-fuzz -i /dev/shm/work/Tick-A-Tack/input -o /dev/shm/work/Tick-A-Tack/sync -m 4G -Q -M fuzzer-master -x /dev/shm/work/Tick-A-Tack/Tick-A-Tack.dict -- data/linux/processed-challenges/Tick-A-Tack/bin/Tick-A-Tack\n'
p11
I7
tp12
a(I720
S'start_time     : 1500241942\nlast_update    : 1500242663\nfuzzer_pid     : 6356\ncycles_done    : 0\nexecs_done     : 708960\nexecs_per_sec  : 963.51\npaths_total    : 58\npaths_favored  : 20\npaths_found    : 57\npaths_imported : 0\nmax_depth      : 7\ncur_path       : 30\npending_favs   : 12\npending_total  : 45\nvariable_paths : 0\nbitmap_cvg     : 0.73%\nunique_crashes : 0\nunique_hangs   : 1\nlast_path      : 1500242598\nlast_crash     : 0\nlast_hang      : 1500241943\nexec_timeout   : 20\nafl_banner     : fuzzer-master\nafl_version    : 1.85b\ncommand_line   : /home/skaramcheti/.virtualenvs/afl/bin/afl-unix/afl-fuzz -i /dev/shm/work/Tick-A-Tack/input -o /dev/shm/work/Tick-A-Tack/sync -m 4G -Q -M fuzzer-master -x /dev/shm/work/Tick-A-Tack/Tick-A-Tack.dict -- data/linux/processed-challenges/Tick-A-Tack/bin/Tick-A-Tack\n'
p13
I1
tp14
a(I840
S'start_time     : 1500241942\nlast_update    : 1500242784\nfuzzer_pid     : 6356\ncycles_done    : 0\nexecs_done     : 823757\nexecs_per_sec  : 958.65\npaths_total    : 66\npaths_favored  : 23\npaths_found    : 65\npaths_imported : 0\nmax_depth      : 7\ncur_path       : 33\npending_favs   : 14\npending_total  : 51\nvariable_paths : 0\nbitmap_cvg     : 0.85%\nunique_crashes : 0\nunique_hangs   : 1\nlast_path      : 1500242740\nlast_crash     : 0\nlast_hang      : 1500241943\nexec_timeout   : 20\nafl_banner     : fuzzer-master\nafl_version    : 1.85b\ncommand_line   : /home/skaramcheti/.virtualenvs/afl/bin/afl-unix/afl-fuzz -i /dev/shm/work/Tick-A-Tack/input -o /dev/shm/work/Tick-A-Tack/sync -m 4G -Q -M fuzzer-master -x /dev/shm/work/Tick-A-Tack/Tick-A-Tack.dict -- data/linux/processed-challenges/Tick-A-Tack/bin/Tick-A-Tack\n'
p15
I8
tp16
a(I960
S'start_time     : 1500241942\nlast_update    : 1500242904\nfuzzer_pid     : 6356\ncycles_done    : 0\nexecs_done     : 936110\nexecs_per_sec  : 905.67\npaths_total    : 68\npaths_favored  : 27\npaths_found    : 67\npaths_imported : 0\nmax_depth      : 7\ncur_path       : 48\npending_favs   : 14\npending_total  : 48\nvariable_paths : 0\nbitmap_cvg     : 0.85%\nunique_crashes : 0\nunique_hangs   : 1\nlast_path      : 1500242853\nlast_crash     : 0\nlast_hang      : 1500241943\nexec_timeout   : 20\nafl_banner     : fuzzer-master\nafl_version    : 1.85b\ncommand_line   : /home/skaramcheti/.virtualenvs/afl/bin/afl-unix/afl-fuzz -i /dev/shm/work/Tick-A-Tack/input -o /dev/shm/work/Tick-A-Tack/sync -m 4G -Q -M fuzzer-master -x /dev/shm/work/Tick-A-Tack/Tick-A-Tack.dict -- data/linux/processed-challenges/Tick-A-Tack/bin/Tick-A-Tack\n'
p17
I2
tp18
a(I1080
S'start_time     : 1500241942\nlast_update    : 1500243024\nfuzzer_pid     : 6356\ncycles_done    : 0\nexecs_done     : 1047771\nexecs_per_sec  : 945.09\npaths_total    : 77\npaths_favored  : 27\npaths_found    : 76\npaths_imported : 0\nmax_depth      : 7\ncur_path       : 48\npending_favs   : 14\npending_total  : 57\nvariable_paths : 0\nbitmap_cvg     : 0.86%\nunique_crashes : 0\nunique_hangs   : 1\nlast_path      : 1500242988\nlast_crash     : 0\nlast_hang      : 1500241943\nexec_timeout   : 20\nafl_banner     : fuzzer-master\nafl_version    : 1.85b\ncommand_line   : /home/skaramcheti/.virtualenvs/afl/bin/afl-unix/afl-fuzz -i /dev/shm/work/Tick-A-Tack/input -o /dev/shm/work/Tick-A-Tack/sync -m 4G -Q -M fuzzer-master -x /dev/shm/work/Tick-A-Tack/Tick-A-Tack.dict -- data/linux/processed-challenges/Tick-A-Tack/bin/Tick-A-Tack\n'
p19
I9
tp20
a(I1200
S'start_time     : 1500241942\nlast_update    : 1500243144\nfuzzer_pid     : 6356\ncycles_done    : 0\nexecs_done     : 1161505\nexecs_per_sec  : 885.08\npaths_total    : 77\npaths_favored  : 27\npaths_found    : 76\npaths_imported : 0\nmax_depth      : 7\ncur_path       : 53\npending_favs   : 10\npending_total  : 52\nvariable_paths : 0\nbitmap_cvg     : 0.86%\nunique_crashes : 0\nunique_hangs   : 1\nlast_path      : 1500242988\nlast_crash     : 0\nlast_hang      : 1500241943\nexec_timeout   : 20\nafl_banner     : fuzzer-master\nafl_version    : 1.85b\ncommand_line   : /home/skaramcheti/.virtualenvs/afl/bin/afl-unix/afl-fuzz -i /dev/shm/work/Tick-A-Tack/input -o /dev/shm/work/Tick-A-Tack/sync -m 4G -Q -M fuzzer-master -x /dev/shm/work/Tick-A-Tack/Tick-A-Tack.dict -- data/linux/processed-challenges/Tick-A-Tack/bin/Tick-A-Tack\n'
p21
I0
tp22
a(I1320
S'start_time     : 1500241942\nlast_update    : 1500243265\nfuzzer_pid     : 6356\ncycles_done    : 0\nexecs_done     : 1270433\nexecs_per_sec  : 902.13\npaths_total    : 84\npaths_favored  : 27\npaths_found    : 83\npaths_imported : 0\nmax_depth      : 8\ncur_path       : 60\npending_favs   : 7\npending_total  : 56\nvariable_paths : 0\nbitmap_cvg     : 0.89%\nunique_crashes : 0\nunique_hangs   : 1\nlast_path      : 1500243257\nlast_crash     : 0\nlast_hang      : 1500241943\nexec_timeout   : 20\nafl_banner     : fuzzer-master\nafl_version    : 1.85b\ncommand_line   : /home/skaramcheti/.virtualenvs/afl/bin/afl-unix/afl-fuzz -i /dev/shm/work/Tick-A-Tack/input -o /dev/shm/work/Tick-A-Tack/sync -m 4G -Q -M fuzzer-master -x /dev/shm/work/Tick-A-Tack/Tick-A-Tack.dict -- data/linux/processed-challenges/Tick-A-Tack/bin/Tick-A-Tack\n'
p23
I7
tp24
a(I1440
S'start_time     : 1500241942\nlast_update    : 1500243385\nfuzzer_pid     : 6356\ncycles_done    : 0\nexecs_done     : 1378669\nexecs_per_sec  : 927.18\npaths_total    : 92\npaths_favored  : 33\npaths_found    : 91\npaths_imported : 0\nmax_depth      : 8\ncur_path       : 63\npending_favs   : 14\npending_total  : 62\nvariable_paths : 0\nbitmap_cvg     : 0.91%\nunique_crashes : 1\nunique_hangs   : 1\nlast_path      : 1500243377\nlast_crash     : 1500243370\nlast_hang      : 1500241943\nexec_timeout   : 20\nafl_banner     : fuzzer-master\nafl_version    : 1.85b\ncommand_line   : /home/skaramcheti/.virtualenvs/afl/bin/afl-unix/afl-fuzz -i /dev/shm/work/Tick-A-Tack/input -o /dev/shm/work/Tick-A-Tack/sync -m 4G -Q -M fuzzer-master -x /dev/shm/work/Tick-A-Tack/Tick-A-Tack.dict -- data/linux/processed-challenges/Tick-A-Tack/bin/Tick-A-Tack\n'
p25
I8
tp26
a(I1560
S'start_time     : 1500241942\nlast_update    : 1500243505\nfuzzer_pid     : 6356\ncycles_done    : 0\nexecs_done     : 1489043\nexecs_per_sec  : 950.33\npaths_total    : 94\npaths_favored  : 38\npaths_found    : 93\npaths_imported : 0\nmax_depth      : 8\ncur_path       : 77\npending_favs   : 15\npending_total  : 60\nvariable_paths : 0\nbitmap_cvg     : 0.91%\nunique_crashes : 1\nunique_hangs   : 2\nlast_path      : 1500243455\nlast_crash     : 1500243370\nlast_hang      : 1500243427\nexec_timeout   : 20\nafl_banner     : fuzzer-master\nafl_version    : 1.85b\ncommand_line   : /home/skaramcheti/.virtualenvs/afl/bin/afl-unix/afl-fuzz -i /dev/shm/work/Tick-A-Tack/input -o /dev/shm/work/Tick-A-Tack/sync -m 4G -Q -M fuzzer-master -x /dev/shm/work/Tick-A-Tack/Tick-A-Tack.dict -- data/linux/processed-challenges/Tick-A-Tack/bin/Tick-A-Tack\n'
p27
I3
tp28
a(I1680
S'start_time     : 1500241942\nlast_update    : 1500243625\nfuzzer_pid     : 6356\ncycles_done    : 0\nexecs_done     : 1595459\nexecs_per_sec  : 857.78\npaths_total    : 99\npaths_favored  : 37\npaths_found    : 98\npaths_imported : 0\nmax_depth      : 9\ncur_path       : 80\npending_favs   : 14\npending_total  : 64\nvariable_paths : 0\nbitmap_cvg     : 0.92%\nunique_crashes : 1\nunique_hangs   : 3\nlast_path      : 1500243619\nlast_crash     : 1500243370\nlast_hang      : 1500243601\nexec_timeout   : 20\nafl_banner     : fuzzer-master\nafl_version    : 1.85b\ncommand_line   : /home/skaramcheti/.virtualenvs/afl/bin/afl-unix/afl-fuzz -i /dev/shm/work/Tick-A-Tack/input -o /dev/shm/work/Tick-A-Tack/sync -m 4G -Q -M fuzzer-master -x /dev/shm/work/Tick-A-Tack/Tick-A-Tack.dict -- data/linux/processed-challenges/Tick-A-Tack/bin/Tick-A-Tack\n'
p29
I4
tp30
a(I1800
S'start_time     : 1500241942\nlast_update    : 1500243745\nfuzzer_pid     : 6356\ncycles_done    : 0\nexecs_done     : 1698879\nexecs_per_sec  : 895.10\npaths_total    : 102\npaths_favored  : 37\npaths_found    : 101\npaths_imported : 0\nmax_depth      : 9\ncur_path       : 82\npending_favs   : 13\npending_total  : 66\nvariable_paths : 0\nbitmap_cvg     : 0.92%\nunique_crashes : 2\nunique_hangs   : 3\nlast_path      : 1500243718\nlast_crash     : 1500243733\nlast_hang      : 1500243601\nexec_timeout   : 20\nafl_banner     : fuzzer-master\nafl_version    : 1.85b\ncommand_line   : /home/skaramcheti/.virtualenvs/afl/bin/afl-unix/afl-fuzz -i /dev/shm/work/Tick-A-Tack/input -o /dev/shm/work/Tick-A-Tack/sync -m 4G -Q -M fuzzer-master -x /dev/shm/work/Tick-A-Tack/Tick-A-Tack.dict -- data/linux/processed-challenges/Tick-A-Tack/bin/Tick-A-Tack\n'
p31
I3
tp32
a(I1920
S'start_time     : 1500241942\nlast_update    : 1500243865\nfuzzer_pid     : 6356\ncycles_done    : 0\nexecs_done     : 1806880\nexecs_per_sec  : 924.12\npaths_total    : 110\npaths_favored  : 36\npaths_found    : 109\npaths_imported : 0\nmax_depth      : 9\ncur_path       : 84\npending_favs   : 11\npending_total  : 73\nvariable_paths : 0\nbitmap_cvg     : 0.95%\nunique_crashes : 2\nunique_hangs   : 3\nlast_path      : 1500243834\nlast_crash     : 1500243733\nlast_hang      : 1500243601\nexec_timeout   : 20\nafl_banner     : fuzzer-master\nafl_version    : 1.85b\ncommand_line   : /home/skaramcheti/.virtualenvs/afl/bin/afl-unix/afl-fuzz -i /dev/shm/work/Tick-A-Tack/input -o /dev/shm/work/Tick-A-Tack/sync -m 4G -Q -M fuzzer-master -x /dev/shm/work/Tick-A-Tack/Tick-A-Tack.dict -- data/linux/processed-challenges/Tick-A-Tack/bin/Tick-A-Tack\n'
p33
I8
tp34
a(I2040
S'start_time     : 1500241942\nlast_update    : 1500243986\nfuzzer_pid     : 6356\ncycles_done    : 0\nexecs_done     : 1894043\nexecs_per_sec  : 791.49\npaths_total    : 119\npaths_favored  : 40\npaths_found    : 118\npaths_imported : 0\nmax_depth      : 9\ncur_path       : 86\npending_favs   : 16\npending_total  : 81\nvariable_paths : 0\nbitmap_cvg     : 0.96%\nunique_crashes : 2\nunique_hangs   : 3\nlast_path      : 1500243985\nlast_crash     : 1500243733\nlast_hang      : 1500243601\nexec_timeout   : 20\nafl_banner     : fuzzer-master\nafl_version    : 1.85b\ncommand_line   : /home/skaramcheti/.virtualenvs/afl/bin/afl-unix/afl-fuzz -i /dev/shm/work/Tick-A-Tack/input -o /dev/shm/work/Tick-A-Tack/sync -m 4G -Q -M fuzzer-master -x /dev/shm/work/Tick-A-Tack/Tick-A-Tack.dict -- data/linux/processed-challenges/Tick-A-Tack/bin/Tick-A-Tack\n'
p35
I9
tp36
a(I2160
S'start_time     : 1500241942\nlast_update    : 1500244106\nfuzzer_pid     : 6356\ncycles_done    : 0\nexecs_done     : 1989971\nexecs_per_sec  : 902.49\npaths_total    : 124\npaths_favored  : 43\npaths_found    : 123\npaths_imported : 0\nmax_depth      : 9\ncur_path       : 89\npending_favs   : 20\npending_total  : 85\nvariable_paths : 0\nbitmap_cvg     : 0.97%\nunique_crashes : 2\nunique_hangs   : 3\nlast_path      : 1500244095\nlast_crash     : 1500243733\nlast_hang      : 1500243601\nexec_timeout   : 20\nafl_banner     : fuzzer-master\nafl_version    : 1.85b\ncommand_line   : /home/skaramcheti/.virtualenvs/afl/bin/afl-unix/afl-fuzz -i /dev/shm/work/Tick-A-Tack/input -o /dev/shm/work/Tick-A-Tack/sync -m 4G -Q -M fuzzer-master -x /dev/shm/work/Tick-A-Tack/Tick-A-Tack.dict -- data/linux/processed-challenges/Tick-A-Tack/bin/Tick-A-Tack\n'
p37
I5
tp38
a(I2280
S'start_time     : 1500241942\nlast_update    : 1500244226\nfuzzer_pid     : 6356\ncycles_done    : 0\nexecs_done     : 2087995\nexecs_per_sec  : 917.07\npaths_total    : 126\npaths_favored  : 45\npaths_found    : 125\npaths_imported : 0\nmax_depth      : 9\ncur_path       : 92\npending_favs   : 20\npending_total  : 85\nvariable_paths : 0\nbitmap_cvg     : 0.98%\nunique_crashes : 2\nunique_hangs   : 3\nlast_path      : 1500244201\nlast_crash     : 1500243733\nlast_hang      : 1500243601\nexec_timeout   : 20\nafl_banner     : fuzzer-master\nafl_version    : 1.85b\ncommand_line   : /home/skaramcheti/.virtualenvs/afl/bin/afl-unix/afl-fuzz -i /dev/shm/work/Tick-A-Tack/input -o /dev/shm/work/Tick-A-Tack/sync -m 4G -Q -M fuzzer-master -x /dev/shm/work/Tick-A-Tack/Tick-A-Tack.dict -- data/linux/processed-challenges/Tick-A-Tack/bin/Tick-A-Tack\n'
p39
I2
tp40
a(I2400
S'start_time     : 1500241942\nlast_update    : 1500244346\nfuzzer_pid     : 6356\ncycles_done    : 0\nexecs_done     : 2187322\nexecs_per_sec  : 682.22\npaths_total    : 129\npaths_favored  : 45\npaths_found    : 128\npaths_imported : 0\nmax_depth      : 10\ncur_path       : 101\npending_favs   : 17\npending_total  : 84\nvariable_paths : 0\nbitmap_cvg     : 0.98%\nunique_crashes : 2\nunique_hangs   : 3\nlast_path      : 1500244343\nlast_crash     : 1500243733\nlast_hang      : 1500243601\nexec_timeout   : 20\nafl_banner     : fuzzer-master\nafl_version    : 1.85b\ncommand_line   : /home/skaramcheti/.virtualenvs/afl/bin/afl-unix/afl-fuzz -i /dev/shm/work/Tick-A-Tack/input -o /dev/shm/work/Tick-A-Tack/sync -m 4G -Q -M fuzzer-master -x /dev/shm/work/Tick-A-Tack/Tick-A-Tack.dict -- data/linux/processed-challenges/Tick-A-Tack/bin/Tick-A-Tack\n'
p41
I3
tp42
a(I2520
S'start_time     : 1500241942\nlast_update    : 1500244466\nfuzzer_pid     : 6356\ncycles_done    : 0\nexecs_done     : 2294332\nexecs_per_sec  : 921.87\npaths_total    : 134\npaths_favored  : 45\npaths_found    : 133\npaths_imported : 0\nmax_depth      : 10\ncur_path       : 101\npending_favs   : 17\npending_total  : 89\nvariable_paths : 0\nbitmap_cvg     : 0.99%\nunique_crashes : 3\nunique_hangs   : 3\nlast_path      : 1500244408\nlast_crash     : 1500244351\nlast_hang      : 1500243601\nexec_timeout   : 20\nafl_banner     : fuzzer-master\nafl_version    : 1.85b\ncommand_line   : /home/skaramcheti/.virtualenvs/afl/bin/afl-unix/afl-fuzz -i /dev/shm/work/Tick-A-Tack/input -o /dev/shm/work/Tick-A-Tack/sync -m 4G -Q -M fuzzer-master -x /dev/shm/work/Tick-A-Tack/Tick-A-Tack.dict -- data/linux/processed-challenges/Tick-A-Tack/bin/Tick-A-Tack\n'
p43
I5
tp44
a(I2640
S'start_time     : 1500241942\nlast_update    : 1500244587\nfuzzer_pid     : 6356\ncycles_done    : 0\nexecs_done     : 2399221\nexecs_per_sec  : 920.04\npaths_total    : 136\npaths_favored  : 52\npaths_found    : 135\npaths_imported : 0\nmax_depth      : 10\ncur_path       : 105\npending_favs   : 22\npending_total  : 88\nvariable_paths : 0\nbitmap_cvg     : 1.00%\nunique_crashes : 4\nunique_hangs   : 3\nlast_path      : 1500244491\nlast_crash     : 1500244561\nlast_hang      : 1500243601\nexec_timeout   : 20\nafl_banner     : fuzzer-master\nafl_version    : 1.85b\ncommand_line   : /home/skaramcheti/.virtualenvs/afl/bin/afl-unix/afl-fuzz -i /dev/shm/work/Tick-A-Tack/input -o /dev/shm/work/Tick-A-Tack/sync -m 4G -Q -M fuzzer-master -x /dev/shm/work/Tick-A-Tack/Tick-A-Tack.dict -- data/linux/processed-challenges/Tick-A-Tack/bin/Tick-A-Tack\n'
p45
I2
tp46
a(I2760
S'start_time     : 1500241942\nlast_update    : 1500244707\nfuzzer_pid     : 6356\ncycles_done    : 0\nexecs_done     : 2498958\nexecs_per_sec  : 606.91\npaths_total    : 143\npaths_favored  : 51\npaths_found    : 142\npaths_imported : 0\nmax_depth      : 10\ncur_path       : 108\npending_favs   : 20\npending_total  : 93\nvariable_paths : 0\nbitmap_cvg     : 1.01%\nunique_crashes : 5\nunique_hangs   : 3\nlast_path      : 1500244682\nlast_crash     : 1500244697\nlast_hang      : 1500243601\nexec_timeout   : 20\nafl_banner     : fuzzer-master\nafl_version    : 1.85b\ncommand_line   : /home/skaramcheti/.virtualenvs/afl/bin/afl-unix/afl-fuzz -i /dev/shm/work/Tick-A-Tack/input -o /dev/shm/work/Tick-A-Tack/sync -m 4G -Q -M fuzzer-master -x /dev/shm/work/Tick-A-Tack/Tick-A-Tack.dict -- data/linux/processed-challenges/Tick-A-Tack/bin/Tick-A-Tack\n'
p47
I7
tp48
a(I2880
S'start_time     : 1500241942\nlast_update    : 1500244827\nfuzzer_pid     : 6356\ncycles_done    : 0\nexecs_done     : 2587575\nexecs_per_sec  : 586.19\npaths_total    : 149\npaths_favored  : 58\npaths_found    : 148\npaths_imported : 0\nmax_depth      : 10\ncur_path       : 110\npending_favs   : 26\npending_total  : 97\nvariable_paths : 0\nbitmap_cvg     : 1.02%\nunique_crashes : 5\nunique_hangs   : 3\nlast_path      : 1500244811\nlast_crash     : 1500244697\nlast_hang      : 1500243601\nexec_timeout   : 20\nafl_banner     : fuzzer-master\nafl_version    : 1.85b\ncommand_line   : /home/skaramcheti/.virtualenvs/afl/bin/afl-unix/afl-fuzz -i /dev/shm/work/Tick-A-Tack/input -o /dev/shm/work/Tick-A-Tack/sync -m 4G -Q -M fuzzer-master -x /dev/shm/work/Tick-A-Tack/Tick-A-Tack.dict -- data/linux/processed-challenges/Tick-A-Tack/bin/Tick-A-Tack\n'
p49
I6
tp50
a(I3000
S'start_time     : 1500241942\nlast_update    : 1500244947\nfuzzer_pid     : 6356\ncycles_done    : 0\nexecs_done     : 2677887\nexecs_per_sec  : 808.39\npaths_total    : 153\npaths_favored  : 58\npaths_found    : 152\npaths_imported : 0\nmax_depth      : 10\ncur_path       : 110\npending_favs   : 26\npending_total  : 101\nvariable_paths : 0\nbitmap_cvg     : 1.02%\nunique_crashes : 6\nunique_hangs   : 3\nlast_path      : 1500244881\nlast_crash     : 1500244832\nlast_hang      : 1500243601\nexec_timeout   : 20\nafl_banner     : fuzzer-master\nafl_version    : 1.85b\ncommand_line   : /home/skaramcheti/.virtualenvs/afl/bin/afl-unix/afl-fuzz -i /dev/shm/work/Tick-A-Tack/input -o /dev/shm/work/Tick-A-Tack/sync -m 4G -Q -M fuzzer-master -x /dev/shm/work/Tick-A-Tack/Tick-A-Tack.dict -- data/linux/processed-challenges/Tick-A-Tack/bin/Tick-A-Tack\n'
p51
I4
tp52
a(I3120
S'start_time     : 1500241942\nlast_update    : 1500245068\nfuzzer_pid     : 6356\ncycles_done    : 0\nexecs_done     : 2748697\nexecs_per_sec  : 550.03\npaths_total    : 155\npaths_favored  : 61\npaths_found    : 154\npaths_imported : 0\nmax_depth      : 10\ncur_path       : 116\npending_favs   : 27\npending_total  : 101\nvariable_paths : 0\nbitmap_cvg     : 1.02%\nunique_crashes : 7\nunique_hangs   : 3\nlast_path      : 1500245018\nlast_crash     : 1500245045\nlast_hang      : 1500243601\nexec_timeout   : 20\nafl_banner     : fuzzer-master\nafl_version    : 1.85b\ncommand_line   : /home/skaramcheti/.virtualenvs/afl/bin/afl-unix/afl-fuzz -i /dev/shm/work/Tick-A-Tack/input -o /dev/shm/work/Tick-A-Tack/sync -m 4G -Q -M fuzzer-master -x /dev/shm/work/Tick-A-Tack/Tick-A-Tack.dict -- data/linux/processed-challenges/Tick-A-Tack/bin/Tick-A-Tack\n'
p53
I2
tp54
a(I3240
S'start_time     : 1500241942\nlast_update    : 1500245188\nfuzzer_pid     : 6356\ncycles_done    : 0\nexecs_done     : 2838893\nexecs_per_sec  : 790.00\npaths_total    : 157\npaths_favored  : 62\npaths_found    : 156\npaths_imported : 0\nmax_depth      : 10\ncur_path       : 123\npending_favs   : 25\npending_total  : 100\nvariable_paths : 0\nbitmap_cvg     : 1.02%\nunique_crashes : 7\nunique_hangs   : 3\nlast_path      : 1500245186\nlast_crash     : 1500245045\nlast_hang      : 1500243601\nexec_timeout   : 20\nafl_banner     : fuzzer-master\nafl_version    : 1.85b\ncommand_line   : /home/skaramcheti/.virtualenvs/afl/bin/afl-unix/afl-fuzz -i /dev/shm/work/Tick-A-Tack/input -o /dev/shm/work/Tick-A-Tack/sync -m 4G -Q -M fuzzer-master -x /dev/shm/work/Tick-A-Tack/Tick-A-Tack.dict -- data/linux/processed-challenges/Tick-A-Tack/bin/Tick-A-Tack\n'
p55
I2
tp56
a(I3360
S'start_time     : 1500241942\nlast_update    : 1500245308\nfuzzer_pid     : 6356\ncycles_done    : 0\nexecs_done     : 2934899\nexecs_per_sec  : 875.56\npaths_total    : 162\npaths_favored  : 61\npaths_found    : 161\npaths_imported : 0\nmax_depth      : 11\ncur_path       : 126\npending_favs   : 24\npending_total  : 103\nvariable_paths : 0\nbitmap_cvg     : 1.03%\nunique_crashes : 8\nunique_hangs   : 3\nlast_path      : 1500245296\nlast_crash     : 1500245284\nlast_hang      : 1500243601\nexec_timeout   : 20\nafl_banner     : fuzzer-master\nafl_version    : 1.85b\ncommand_line   : /home/skaramcheti/.virtualenvs/afl/bin/afl-unix/afl-fuzz -i /dev/shm/work/Tick-A-Tack/input -o /dev/shm/work/Tick-A-Tack/sync -m 4G -Q -M fuzzer-master -x /dev/shm/work/Tick-A-Tack/Tick-A-Tack.dict -- data/linux/processed-challenges/Tick-A-Tack/bin/Tick-A-Tack\n'
p57
I5
tp58
a(I3480
S'start_time     : 1500241942\nlast_update    : 1500245428\nfuzzer_pid     : 6356\ncycles_done    : 0\nexecs_done     : 3040996\nexecs_per_sec  : 855.28\npaths_total    : 163\npaths_favored  : 61\npaths_found    : 162\npaths_imported : 0\nmax_depth      : 11\ncur_path       : 126\npending_favs   : 24\npending_total  : 104\nvariable_paths : 0\nbitmap_cvg     : 1.03%\nunique_crashes : 8\nunique_hangs   : 3\nlast_path      : 1500245321\nlast_crash     : 1500245284\nlast_hang      : 1500243601\nexec_timeout   : 20\nafl_banner     : fuzzer-master\nafl_version    : 1.85b\ncommand_line   : /home/skaramcheti/.virtualenvs/afl/bin/afl-unix/afl-fuzz -i /dev/shm/work/Tick-A-Tack/input -o /dev/shm/work/Tick-A-Tack/sync -m 4G -Q -M fuzzer-master -x /dev/shm/work/Tick-A-Tack/Tick-A-Tack.dict -- data/linux/processed-challenges/Tick-A-Tack/bin/Tick-A-Tack\n'
p59
I1
tp60
a(I3600
S'start_time     : 1500241942\nlast_update    : 1500245548\nfuzzer_pid     : 6356\ncycles_done    : 0\nexecs_done     : 3140669\nexecs_per_sec  : 913.38\npaths_total    : 164\npaths_favored  : 65\npaths_found    : 163\npaths_imported : 0\nmax_depth      : 11\ncur_path       : 129\npending_favs   : 26\npending_total  : 102\nvariable_paths : 0\nbitmap_cvg     : 1.03%\nunique_crashes : 9\nunique_hangs   : 3\nlast_path      : 1500245518\nlast_crash     : 1500245484\nlast_hang      : 1500243601\nexec_timeout   : 20\nafl_banner     : fuzzer-master\nafl_version    : 1.85b\ncommand_line   : /home/skaramcheti/.virtualenvs/afl/bin/afl-unix/afl-fuzz -i /dev/shm/work/Tick-A-Tack/input -o /dev/shm/work/Tick-A-Tack/sync -m 4G -Q -M fuzzer-master -x /dev/shm/work/Tick-A-Tack/Tick-A-Tack.dict -- data/linux/processed-challenges/Tick-A-Tack/bin/Tick-A-Tack\n'
p61
I1
tp62
a(I3720
S'start_time     : 1500241942\nlast_update    : 1500245669\nfuzzer_pid     : 6356\ncycles_done    : 0\nexecs_done     : 3220099\nexecs_per_sec  : 765.90\npaths_total    : 166\npaths_favored  : 65\npaths_found    : 165\npaths_imported : 0\nmax_depth      : 11\ncur_path       : 131\npending_favs   : 25\npending_total  : 103\nvariable_paths : 0\nbitmap_cvg     : 1.04%\nunique_crashes : 10\nunique_hangs   : 3\nlast_path      : 1500245637\nlast_crash     : 1500245612\nlast_hang      : 1500243601\nexec_timeout   : 20\nafl_banner     : fuzzer-master\nafl_version    : 1.85b\ncommand_line   : /home/skaramcheti/.virtualenvs/afl/bin/afl-unix/afl-fuzz -i /dev/shm/work/Tick-A-Tack/input -o /dev/shm/work/Tick-A-Tack/sync -m 4G -Q -M fuzzer-master -x /dev/shm/work/Tick-A-Tack/Tick-A-Tack.dict -- data/linux/processed-challenges/Tick-A-Tack/bin/Tick-A-Tack\n'
p63
I2
tp64
a(I3840
S'start_time     : 1500241942\nlast_update    : 1500245789\nfuzzer_pid     : 6356\ncycles_done    : 0\nexecs_done     : 3314229\nexecs_per_sec  : 849.35\npaths_total    : 167\npaths_favored  : 63\npaths_found    : 166\npaths_imported : 0\nmax_depth      : 11\ncur_path       : 133\npending_favs   : 25\npending_total  : 102\nvariable_paths : 0\nbitmap_cvg     : 1.04%\nunique_crashes : 11\nunique_hangs   : 3\nlast_path      : 1500245707\nlast_crash     : 1500245785\nlast_hang      : 1500243601\nexec_timeout   : 20\nafl_banner     : fuzzer-master\nafl_version    : 1.85b\ncommand_line   : /home/skaramcheti/.virtualenvs/afl/bin/afl-unix/afl-fuzz -i /dev/shm/work/Tick-A-Tack/input -o /dev/shm/work/Tick-A-Tack/sync -m 4G -Q -M fuzzer-master -x /dev/shm/work/Tick-A-Tack/Tick-A-Tack.dict -- data/linux/processed-challenges/Tick-A-Tack/bin/Tick-A-Tack\n'
p65
I1
tp66
a(I3960
S'start_time     : 1500241942\nlast_update    : 1500245909\nfuzzer_pid     : 6356\ncycles_done    : 0\nexecs_done     : 3401537\nexecs_per_sec  : 807.61\npaths_total    : 170\npaths_favored  : 64\npaths_found    : 169\npaths_imported : 0\nmax_depth      : 11\ncur_path       : 134\npending_favs   : 25\npending_total  : 104\nvariable_paths : 0\nbitmap_cvg     : 1.04%\nunique_crashes : 11\nunique_hangs   : 3\nlast_path      : 1500245904\nlast_crash     : 1500245785\nlast_hang      : 1500243601\nexec_timeout   : 20\nafl_banner     : fuzzer-master\nafl_version    : 1.85b\ncommand_line   : /home/skaramcheti/.virtualenvs/afl/bin/afl-unix/afl-fuzz -i /dev/shm/work/Tick-A-Tack/input -o /dev/shm/work/Tick-A-Tack/sync -m 4G -Q -M fuzzer-master -x /dev/shm/work/Tick-A-Tack/Tick-A-Tack.dict -- data/linux/processed-challenges/Tick-A-Tack/bin/Tick-A-Tack\n'
p67
I3
tp68
a(I4080
S'start_time     : 1500241942\nlast_update    : 1500246029\nfuzzer_pid     : 6356\ncycles_done    : 0\nexecs_done     : 3496725\nexecs_per_sec  : 808.70\npaths_total    : 172\npaths_favored  : 64\npaths_found    : 171\npaths_imported : 0\nmax_depth      : 11\ncur_path       : 134\npending_favs   : 25\npending_total  : 106\nvariable_paths : 0\nbitmap_cvg     : 1.05%\nunique_crashes : 11\nunique_hangs   : 4\nlast_path      : 1500246021\nlast_crash     : 1500245785\nlast_hang      : 1500246001\nexec_timeout   : 20\nafl_banner     : fuzzer-master\nafl_version    : 1.85b\ncommand_line   : /home/skaramcheti/.virtualenvs/afl/bin/afl-unix/afl-fuzz -i /dev/shm/work/Tick-A-Tack/input -o /dev/shm/work/Tick-A-Tack/sync -m 4G -Q -M fuzzer-master -x /dev/shm/work/Tick-A-Tack/Tick-A-Tack.dict -- data/linux/processed-challenges/Tick-A-Tack/bin/Tick-A-Tack\n'
p69
I2
tp70
a(I4200
S'start_time     : 1500241942\nlast_update    : 1500246149\nfuzzer_pid     : 6356\ncycles_done    : 0\nexecs_done     : 3590376\nexecs_per_sec  : 835.63\npaths_total    : 172\npaths_favored  : 66\npaths_found    : 171\npaths_imported : 0\nmax_depth      : 11\ncur_path       : 136\npending_favs   : 26\npending_total  : 104\nvariable_paths : 0\nbitmap_cvg     : 1.05%\nunique_crashes : 11\nunique_hangs   : 4\nlast_path      : 1500246021\nlast_crash     : 1500245785\nlast_hang      : 1500246001\nexec_timeout   : 20\nafl_banner     : fuzzer-master\nafl_version    : 1.85b\ncommand_line   : /home/skaramcheti/.virtualenvs/afl/bin/afl-unix/afl-fuzz -i /dev/shm/work/Tick-A-Tack/input -o /dev/shm/work/Tick-A-Tack/sync -m 4G -Q -M fuzzer-master -x /dev/shm/work/Tick-A-Tack/Tick-A-Tack.dict -- data/linux/processed-challenges/Tick-A-Tack/bin/Tick-A-Tack\n'
p71
I0
tp72
a(I4320
S'start_time     : 1500241942\nlast_update    : 1500246269\nfuzzer_pid     : 6356\ncycles_done    : 0\nexecs_done     : 3663663\nexecs_per_sec  : 672.18\npaths_total    : 175\npaths_favored  : 66\npaths_found    : 174\npaths_imported : 0\nmax_depth      : 11\ncur_path       : 138\npending_favs   : 26\npending_total  : 105\nvariable_paths : 0\nbitmap_cvg     : 1.05%\nunique_crashes : 12\nunique_hangs   : 4\nlast_path      : 1500246225\nlast_crash     : 1500246248\nlast_hang      : 1500246001\nexec_timeout   : 20\nafl_banner     : fuzzer-master\nafl_version    : 1.85b\ncommand_line   : /home/skaramcheti/.virtualenvs/afl/bin/afl-unix/afl-fuzz -i /dev/shm/work/Tick-A-Tack/input -o /dev/shm/work/Tick-A-Tack/sync -m 4G -Q -M fuzzer-master -x /dev/shm/work/Tick-A-Tack/Tick-A-Tack.dict -- data/linux/processed-challenges/Tick-A-Tack/bin/Tick-A-Tack\n'
p73
I3
tp74
a(I4440
S'start_time     : 1500241942\nlast_update    : 1500246390\nfuzzer_pid     : 6356\ncycles_done    : 0\nexecs_done     : 3747626\nexecs_per_sec  : 494.16\npaths_total    : 179\npaths_favored  : 69\npaths_found    : 178\npaths_imported : 0\nmax_depth      : 11\ncur_path       : 141\npending_favs   : 27\npending_total  : 106\nvariable_paths : 0\nbitmap_cvg     : 1.06%\nunique_crashes : 13\nunique_hangs   : 4\nlast_path      : 1500246388\nlast_crash     : 1500246294\nlast_hang      : 1500246001\nexec_timeout   : 20\nafl_banner     : fuzzer-master\nafl_version    : 1.85b\ncommand_line   : /home/skaramcheti/.virtualenvs/afl/bin/afl-unix/afl-fuzz -i /dev/shm/work/Tick-A-Tack/input -o /dev/shm/work/Tick-A-Tack/sync -m 4G -Q -M fuzzer-master -x /dev/shm/work/Tick-A-Tack/Tick-A-Tack.dict -- data/linux/processed-challenges/Tick-A-Tack/bin/Tick-A-Tack\n'
p75
I4
tp76
a(I4560
S'start_time     : 1500241942\nlast_update    : 1500246510\nfuzzer_pid     : 6356\ncycles_done    : 0\nexecs_done     : 3827815\nexecs_per_sec  : 721.33\npaths_total    : 180\npaths_favored  : 68\npaths_found    : 179\npaths_imported : 0\nmax_depth      : 11\ncur_path       : 142\npending_favs   : 27\npending_total  : 106\nvariable_paths : 0\nbitmap_cvg     : 1.06%\nunique_crashes : 13\nunique_hangs   : 4\nlast_path      : 1500246420\nlast_crash     : 1500246294\nlast_hang      : 1500246001\nexec_timeout   : 20\nafl_banner     : fuzzer-master\nafl_version    : 1.85b\ncommand_line   : /home/skaramcheti/.virtualenvs/afl/bin/afl-unix/afl-fuzz -i /dev/shm/work/Tick-A-Tack/input -o /dev/shm/work/Tick-A-Tack/sync -m 4G -Q -M fuzzer-master -x /dev/shm/work/Tick-A-Tack/Tick-A-Tack.dict -- data/linux/processed-challenges/Tick-A-Tack/bin/Tick-A-Tack\n'
p77
I1
tp78
a(I4680
S'start_time     : 1500241942\nlast_update    : 1500246630\nfuzzer_pid     : 6356\ncycles_done    : 0\nexecs_done     : 3920105\nexecs_per_sec  : 811.30\npaths_total    : 181\npaths_favored  : 69\npaths_found    : 180\npaths_imported : 0\nmax_depth      : 11\ncur_path       : 144\npending_favs   : 26\npending_total  : 105\nvariable_paths : 0\nbitmap_cvg     : 1.06%\nunique_crashes : 13\nunique_hangs   : 4\nlast_path      : 1500246568\nlast_crash     : 1500246294\nlast_hang      : 1500246001\nexec_timeout   : 20\nafl_banner     : fuzzer-master\nafl_version    : 1.85b\ncommand_line   : /home/skaramcheti/.virtualenvs/afl/bin/afl-unix/afl-fuzz -i /dev/shm/work/Tick-A-Tack/input -o /dev/shm/work/Tick-A-Tack/sync -m 4G -Q -M fuzzer-master -x /dev/shm/work/Tick-A-Tack/Tick-A-Tack.dict -- data/linux/processed-challenges/Tick-A-Tack/bin/Tick-A-Tack\n'
p79
I1
tp80
a(I4800
S'start_time     : 1500241942\nlast_update    : 1500246750\nfuzzer_pid     : 6356\ncycles_done    : 0\nexecs_done     : 3989230\nexecs_per_sec  : 714.10\npaths_total    : 181\npaths_favored  : 69\npaths_found    : 180\npaths_imported : 0\nmax_depth      : 11\ncur_path       : 146\npending_favs   : 24\npending_total  : 103\nvariable_paths : 0\nbitmap_cvg     : 1.06%\nunique_crashes : 13\nunique_hangs   : 4\nlast_path      : 1500246568\nlast_crash     : 1500246294\nlast_hang      : 1500246001\nexec_timeout   : 20\nafl_banner     : fuzzer-master\nafl_version    : 1.85b\ncommand_line   : /home/skaramcheti/.virtualenvs/afl/bin/afl-unix/afl-fuzz -i /dev/shm/work/Tick-A-Tack/input -o /dev/shm/work/Tick-A-Tack/sync -m 4G -Q -M fuzzer-master -x /dev/shm/work/Tick-A-Tack/Tick-A-Tack.dict -- data/linux/processed-challenges/Tick-A-Tack/bin/Tick-A-Tack\n'
p81
I0
tp82
a(I4920
S'start_time     : 1500241942\nlast_update    : 1500246871\nfuzzer_pid     : 6356\ncycles_done    : 0\nexecs_done     : 4050634\nexecs_per_sec  : 328.83\npaths_total    : 181\npaths_favored  : 69\npaths_found    : 180\npaths_imported : 0\nmax_depth      : 11\ncur_path       : 151\npending_favs   : 22\npending_total  : 101\nvariable_paths : 0\nbitmap_cvg     : 1.06%\nunique_crashes : 14\nunique_hangs   : 4\nlast_path      : 1500246568\nlast_crash     : 1500246792\nlast_hang      : 1500246001\nexec_timeout   : 20\nafl_banner     : fuzzer-master\nafl_version    : 1.85b\ncommand_line   : /home/skaramcheti/.virtualenvs/afl/bin/afl-unix/afl-fuzz -i /dev/shm/work/Tick-A-Tack/input -o /dev/shm/work/Tick-A-Tack/sync -m 4G -Q -M fuzzer-master -x /dev/shm/work/Tick-A-Tack/Tick-A-Tack.dict -- data/linux/processed-challenges/Tick-A-Tack/bin/Tick-A-Tack\n'
p83
I0
tp84
a(I5040
S'start_time     : 1500241942\nlast_update    : 1500246991\nfuzzer_pid     : 6356\ncycles_done    : 0\nexecs_done     : 4120769\nexecs_per_sec  : 379.69\npaths_total    : 182\npaths_favored  : 69\npaths_found    : 181\npaths_imported : 0\nmax_depth      : 11\ncur_path       : 154\npending_favs   : 22\npending_total  : 101\nvariable_paths : 0\nbitmap_cvg     : 1.06%\nunique_crashes : 15\nunique_hangs   : 4\nlast_path      : 1500246909\nlast_crash     : 1500246890\nlast_hang      : 1500246001\nexec_timeout   : 20\nafl_banner     : fuzzer-master\nafl_version    : 1.85b\ncommand_line   : /home/skaramcheti/.virtualenvs/afl/bin/afl-unix/afl-fuzz -i /dev/shm/work/Tick-A-Tack/input -o /dev/shm/work/Tick-A-Tack/sync -m 4G -Q -M fuzzer-master -x /dev/shm/work/Tick-A-Tack/Tick-A-Tack.dict -- data/linux/processed-challenges/Tick-A-Tack/bin/Tick-A-Tack\n'
p85
I1
tp86
a(I5160
S'start_time     : 1500241942\nlast_update    : 1500247111\nfuzzer_pid     : 6356\ncycles_done    : 0\nexecs_done     : 4216854\nexecs_per_sec  : 845.92\npaths_total    : 183\npaths_favored  : 69\npaths_found    : 182\npaths_imported : 0\nmax_depth      : 12\ncur_path       : 158\npending_favs   : 19\npending_total  : 99\nvariable_paths : 0\nbitmap_cvg     : 1.06%\nunique_crashes : 17\nunique_hangs   : 4\nlast_path      : 1500247073\nlast_crash     : 1500247019\nlast_hang      : 1500246001\nexec_timeout   : 20\nafl_banner     : fuzzer-master\nafl_version    : 1.85b\ncommand_line   : /home/skaramcheti/.virtualenvs/afl/bin/afl-unix/afl-fuzz -i /dev/shm/work/Tick-A-Tack/input -o /dev/shm/work/Tick-A-Tack/sync -m 4G -Q -M fuzzer-master -x /dev/shm/work/Tick-A-Tack/Tick-A-Tack.dict -- data/linux/processed-challenges/Tick-A-Tack/bin/Tick-A-Tack\n'
p87
I1
tp88
a(I5280
S'start_time     : 1500241942\nlast_update    : 1500247231\nfuzzer_pid     : 6356\ncycles_done    : 0\nexecs_done     : 4313910\nexecs_per_sec  : 888.14\npaths_total    : 187\npaths_favored  : 68\npaths_found    : 186\npaths_imported : 0\nmax_depth      : 12\ncur_path       : 159\npending_favs   : 19\npending_total  : 102\nvariable_paths : 0\nbitmap_cvg     : 1.07%\nunique_crashes : 18\nunique_hangs   : 4\nlast_path      : 1500247190\nlast_crash     : 1500247231\nlast_hang      : 1500246001\nexec_timeout   : 20\nafl_banner     : fuzzer-master\nafl_version    : 1.85b\ncommand_line   : /home/skaramcheti/.virtualenvs/afl/bin/afl-unix/afl-fuzz -i /dev/shm/work/Tick-A-Tack/input -o /dev/shm/work/Tick-A-Tack/sync -m 4G -Q -M fuzzer-master -x /dev/shm/work/Tick-A-Tack/Tick-A-Tack.dict -- data/linux/processed-challenges/Tick-A-Tack/bin/Tick-A-Tack\n'
p89
I4
tp90
a(I5400
S'start_time     : 1500241942\nlast_update    : 1500247351\nfuzzer_pid     : 6356\ncycles_done    : 0\nexecs_done     : 4398046\nexecs_per_sec  : 766.48\npaths_total    : 189\npaths_favored  : 68\npaths_found    : 188\npaths_imported : 0\nmax_depth      : 12\ncur_path       : 160\npending_favs   : 20\npending_total  : 103\nvariable_paths : 0\nbitmap_cvg     : 1.07%\nunique_crashes : 18\nunique_hangs   : 4\nlast_path      : 1500247327\nlast_crash     : 1500247231\nlast_hang      : 1500246001\nexec_timeout   : 20\nafl_banner     : fuzzer-master\nafl_version    : 1.85b\ncommand_line   : /home/skaramcheti/.virtualenvs/afl/bin/afl-unix/afl-fuzz -i /dev/shm/work/Tick-A-Tack/input -o /dev/shm/work/Tick-A-Tack/sync -m 4G -Q -M fuzzer-master -x /dev/shm/work/Tick-A-Tack/Tick-A-Tack.dict -- data/linux/processed-challenges/Tick-A-Tack/bin/Tick-A-Tack\n'
p91
I2
tp92
a(I5520
S'start_time     : 1500241942\nlast_update    : 1500247471\nfuzzer_pid     : 6356\ncycles_done    : 0\nexecs_done     : 4478888\nexecs_per_sec  : 787.03\npaths_total    : 190\npaths_favored  : 70\npaths_found    : 189\npaths_imported : 0\nmax_depth      : 12\ncur_path       : 162\npending_favs   : 20\npending_total  : 102\nvariable_paths : 0\nbitmap_cvg     : 1.07%\nunique_crashes : 18\nunique_hangs   : 4\nlast_path      : 1500247462\nlast_crash     : 1500247231\nlast_hang      : 1500246001\nexec_timeout   : 20\nafl_banner     : fuzzer-master\nafl_version    : 1.85b\ncommand_line   : /home/skaramcheti/.virtualenvs/afl/bin/afl-unix/afl-fuzz -i /dev/shm/work/Tick-A-Tack/input -o /dev/shm/work/Tick-A-Tack/sync -m 4G -Q -M fuzzer-master -x /dev/shm/work/Tick-A-Tack/Tick-A-Tack.dict -- data/linux/processed-challenges/Tick-A-Tack/bin/Tick-A-Tack\n'
p93
I1
tp94
a(I5640
S'start_time     : 1500241942\nlast_update    : 1500247592\nfuzzer_pid     : 6356\ncycles_done    : 0\nexecs_done     : 4563077\nexecs_per_sec  : 813.58\npaths_total    : 192\npaths_favored  : 70\npaths_found    : 191\npaths_imported : 0\nmax_depth      : 12\ncur_path       : 164\npending_favs   : 20\npending_total  : 103\nvariable_paths : 0\nbitmap_cvg     : 1.07%\nunique_crashes : 19\nunique_hangs   : 4\nlast_path      : 1500247570\nlast_crash     : 1500247526\nlast_hang      : 1500246001\nexec_timeout   : 20\nafl_banner     : fuzzer-master\nafl_version    : 1.85b\ncommand_line   : /home/skaramcheti/.virtualenvs/afl/bin/afl-unix/afl-fuzz -i /dev/shm/work/Tick-A-Tack/input -o /dev/shm/work/Tick-A-Tack/sync -m 4G -Q -M fuzzer-master -x /dev/shm/work/Tick-A-Tack/Tick-A-Tack.dict -- data/linux/processed-challenges/Tick-A-Tack/bin/Tick-A-Tack\n'
p95
I2
tp96
a(I5760
S'start_time     : 1500241942\nlast_update    : 1500247712\nfuzzer_pid     : 6356\ncycles_done    : 0\nexecs_done     : 4647297\nexecs_per_sec  : 810.28\npaths_total    : 196\npaths_favored  : 71\npaths_found    : 195\npaths_imported : 0\nmax_depth      : 12\ncur_path       : 165\npending_favs   : 21\npending_total  : 106\nvariable_paths : 0\nbitmap_cvg     : 1.08%\nunique_crashes : 20\nunique_hangs   : 4\nlast_path      : 1500247650\nlast_crash     : 1500247646\nlast_hang      : 1500246001\nexec_timeout   : 20\nafl_banner     : fuzzer-master\nafl_version    : 1.85b\ncommand_line   : /home/skaramcheti/.virtualenvs/afl/bin/afl-unix/afl-fuzz -i /dev/shm/work/Tick-A-Tack/input -o /dev/shm/work/Tick-A-Tack/sync -m 4G -Q -M fuzzer-master -x /dev/shm/work/Tick-A-Tack/Tick-A-Tack.dict -- data/linux/processed-challenges/Tick-A-Tack/bin/Tick-A-Tack\n'
p97
I4
tp98
a(I5880
S'start_time     : 1500241942\nlast_update    : 1500247832\nfuzzer_pid     : 6356\ncycles_done    : 0\nexecs_done     : 4734512\nexecs_per_sec  : 796.56\npaths_total    : 196\npaths_favored  : 73\npaths_found    : 195\npaths_imported : 0\nmax_depth      : 12\ncur_path       : 170\npending_favs   : 22\npending_total  : 104\nvariable_paths : 0\nbitmap_cvg     : 1.08%\nunique_crashes : 22\nunique_hangs   : 4\nlast_path      : 1500247650\nlast_crash     : 1500247796\nlast_hang      : 1500246001\nexec_timeout   : 20\nafl_banner     : fuzzer-master\nafl_version    : 1.85b\ncommand_line   : /home/skaramcheti/.virtualenvs/afl/bin/afl-unix/afl-fuzz -i /dev/shm/work/Tick-A-Tack/input -o /dev/shm/work/Tick-A-Tack/sync -m 4G -Q -M fuzzer-master -x /dev/shm/work/Tick-A-Tack/Tick-A-Tack.dict -- data/linux/processed-challenges/Tick-A-Tack/bin/Tick-A-Tack\n'
p99
I0
tp100
a(I6000
S'start_time     : 1500241942\nlast_update    : 1500247952\nfuzzer_pid     : 6356\ncycles_done    : 0\nexecs_done     : 4812268\nexecs_per_sec  : 789.86\npaths_total    : 196\npaths_favored  : 73\npaths_found    : 195\npaths_imported : 0\nmax_depth      : 12\ncur_path       : 172\npending_favs   : 20\npending_total  : 102\nvariable_paths : 0\nbitmap_cvg     : 1.08%\nunique_crashes : 22\nunique_hangs   : 4\nlast_path      : 1500247650\nlast_crash     : 1500247796\nlast_hang      : 1500246001\nexec_timeout   : 20\nafl_banner     : fuzzer-master\nafl_version    : 1.85b\ncommand_line   : /home/skaramcheti/.virtualenvs/afl/bin/afl-unix/afl-fuzz -i /dev/shm/work/Tick-A-Tack/input -o /dev/shm/work/Tick-A-Tack/sync -m 4G -Q -M fuzzer-master -x /dev/shm/work/Tick-A-Tack/Tick-A-Tack.dict -- data/linux/processed-challenges/Tick-A-Tack/bin/Tick-A-Tack\n'
p101
I0
tp102
a(I6120
S'start_time     : 1500241942\nlast_update    : 1500248072\nfuzzer_pid     : 6356\ncycles_done    : 0\nexecs_done     : 4882450\nexecs_per_sec  : 749.65\npaths_total    : 198\npaths_favored  : 74\npaths_found    : 197\npaths_imported : 0\nmax_depth      : 12\ncur_path       : 174\npending_favs   : 19\npending_total  : 102\nvariable_paths : 0\nbitmap_cvg     : 1.08%\nunique_crashes : 22\nunique_hangs   : 4\nlast_path      : 1500248024\nlast_crash     : 1500247796\nlast_hang      : 1500246001\nexec_timeout   : 20\nafl_banner     : fuzzer-master\nafl_version    : 1.85b\ncommand_line   : /home/skaramcheti/.virtualenvs/afl/bin/afl-unix/afl-fuzz -i /dev/shm/work/Tick-A-Tack/input -o /dev/shm/work/Tick-A-Tack/sync -m 4G -Q -M fuzzer-master -x /dev/shm/work/Tick-A-Tack/Tick-A-Tack.dict -- data/linux/processed-challenges/Tick-A-Tack/bin/Tick-A-Tack\n'
p103
I2
tp104
a(I6240
S'start_time     : 1500241942\nlast_update    : 1500248193\nfuzzer_pid     : 6356\ncycles_done    : 0\nexecs_done     : 4964132\nexecs_per_sec  : 534.09\npaths_total    : 199\npaths_favored  : 75\npaths_found    : 198\npaths_imported : 0\nmax_depth      : 12\ncur_path       : 176\npending_favs   : 18\npending_total  : 101\nvariable_paths : 0\nbitmap_cvg     : 1.08%\nunique_crashes : 22\nunique_hangs   : 4\nlast_path      : 1500248149\nlast_crash     : 1500247796\nlast_hang      : 1500246001\nexec_timeout   : 20\nafl_banner     : fuzzer-master\nafl_version    : 1.85b\ncommand_line   : /home/skaramcheti/.virtualenvs/afl/bin/afl-unix/afl-fuzz -i /dev/shm/work/Tick-A-Tack/input -o /dev/shm/work/Tick-A-Tack/sync -m 4G -Q -M fuzzer-master -x /dev/shm/work/Tick-A-Tack/Tick-A-Tack.dict -- data/linux/processed-challenges/Tick-A-Tack/bin/Tick-A-Tack\n'
p105
I1
tp106
a(I6360
S'start_time     : 1500241942\nlast_update    : 1500248313\nfuzzer_pid     : 6356\ncycles_done    : 0\nexecs_done     : 5042623\nexecs_per_sec  : 543.70\npaths_total    : 199\npaths_favored  : 75\npaths_found    : 198\npaths_imported : 0\nmax_depth      : 12\ncur_path       : 178\npending_favs   : 16\npending_total  : 99\nvariable_paths : 0\nbitmap_cvg     : 1.08%\nunique_crashes : 22\nunique_hangs   : 4\nlast_path      : 1500248149\nlast_crash     : 1500247796\nlast_hang      : 1500246001\nexec_timeout   : 20\nafl_banner     : fuzzer-master\nafl_version    : 1.85b\ncommand_line   : /home/skaramcheti/.virtualenvs/afl/bin/afl-unix/afl-fuzz -i /dev/shm/work/Tick-A-Tack/input -o /dev/shm/work/Tick-A-Tack/sync -m 4G -Q -M fuzzer-master -x /dev/shm/work/Tick-A-Tack/Tick-A-Tack.dict -- data/linux/processed-challenges/Tick-A-Tack/bin/Tick-A-Tack\n'
p107
I0
tp108
a(I6480
S'start_time     : 1500241942\nlast_update    : 1500248433\nfuzzer_pid     : 6356\ncycles_done    : 0\nexecs_done     : 5117246\nexecs_per_sec  : 400.02\npaths_total    : 200\npaths_favored  : 75\npaths_found    : 199\npaths_imported : 0\nmax_depth      : 12\ncur_path       : 179\npending_favs   : 15\npending_total  : 99\nvariable_paths : 0\nbitmap_cvg     : 1.08%\nunique_crashes : 23\nunique_hangs   : 4\nlast_path      : 1500248340\nlast_crash     : 1500248430\nlast_hang      : 1500246001\nexec_timeout   : 20\nafl_banner     : fuzzer-master\nafl_version    : 1.85b\ncommand_line   : /home/skaramcheti/.virtualenvs/afl/bin/afl-unix/afl-fuzz -i /dev/shm/work/Tick-A-Tack/input -o /dev/shm/work/Tick-A-Tack/sync -m 4G -Q -M fuzzer-master -x /dev/shm/work/Tick-A-Tack/Tick-A-Tack.dict -- data/linux/processed-challenges/Tick-A-Tack/bin/Tick-A-Tack\n'
p109
I1
tp110
a(I6600
S'start_time     : 1500241942\nlast_update    : 1500248553\nfuzzer_pid     : 6356\ncycles_done    : 0\nexecs_done     : 5191428\nexecs_per_sec  : 617.62\npaths_total    : 201\npaths_favored  : 75\npaths_found    : 200\npaths_imported : 0\nmax_depth      : 12\ncur_path       : 180\npending_favs   : 14\npending_total  : 99\nvariable_paths : 0\nbitmap_cvg     : 1.08%\nunique_crashes : 24\nunique_hangs   : 4\nlast_path      : 1500248474\nlast_crash     : 1500248548\nlast_hang      : 1500246001\nexec_timeout   : 20\nafl_banner     : fuzzer-master\nafl_version    : 1.85b\ncommand_line   : /home/skaramcheti/.virtualenvs/afl/bin/afl-unix/afl-fuzz -i /dev/shm/work/Tick-A-Tack/input -o /dev/shm/work/Tick-A-Tack/sync -m 4G -Q -M fuzzer-master -x /dev/shm/work/Tick-A-Tack/Tick-A-Tack.dict -- data/linux/processed-challenges/Tick-A-Tack/bin/Tick-A-Tack\n'
p111
I1
tp112
a(I6720
S'start_time     : 1500241942\nlast_update    : 1500248673\nfuzzer_pid     : 6356\ncycles_done    : 0\nexecs_done     : 5272074\nexecs_per_sec  : 724.05\npaths_total    : 202\npaths_favored  : 76\npaths_found    : 201\npaths_imported : 0\nmax_depth      : 12\ncur_path       : 183\npending_favs   : 13\npending_total  : 98\nvariable_paths : 0\nbitmap_cvg     : 1.08%\nunique_crashes : 24\nunique_hangs   : 4\nlast_path      : 1500248561\nlast_crash     : 1500248548\nlast_hang      : 1500246001\nexec_timeout   : 20\nafl_banner     : fuzzer-master\nafl_version    : 1.85b\ncommand_line   : /home/skaramcheti/.virtualenvs/afl/bin/afl-unix/afl-fuzz -i /dev/shm/work/Tick-A-Tack/input -o /dev/shm/work/Tick-A-Tack/sync -m 4G -Q -M fuzzer-master -x /dev/shm/work/Tick-A-Tack/Tick-A-Tack.dict -- data/linux/processed-challenges/Tick-A-Tack/bin/Tick-A-Tack\n'
p113
I1
tp114
a(I6840
S'start_time     : 1500241942\nlast_update    : 1500248794\nfuzzer_pid     : 6356\ncycles_done    : 0\nexecs_done     : 5345113\nexecs_per_sec  : 734.51\npaths_total    : 203\npaths_favored  : 76\npaths_found    : 202\npaths_imported : 0\nmax_depth      : 13\ncur_path       : 187\npending_favs   : 11\npending_total  : 97\nvariable_paths : 0\nbitmap_cvg     : 1.08%\nunique_crashes : 24\nunique_hangs   : 4\nlast_path      : 1500248789\nlast_crash     : 1500248548\nlast_hang      : 1500246001\nexec_timeout   : 20\nafl_banner     : fuzzer-master\nafl_version    : 1.85b\ncommand_line   : /home/skaramcheti/.virtualenvs/afl/bin/afl-unix/afl-fuzz -i /dev/shm/work/Tick-A-Tack/input -o /dev/shm/work/Tick-A-Tack/sync -m 4G -Q -M fuzzer-master -x /dev/shm/work/Tick-A-Tack/Tick-A-Tack.dict -- data/linux/processed-challenges/Tick-A-Tack/bin/Tick-A-Tack\n'
p115
I1
tp116
a(I6960
S'start_time     : 1500241942\nlast_update    : 1500248914\nfuzzer_pid     : 6356\ncycles_done    : 0\nexecs_done     : 5421040\nexecs_per_sec  : 588.62\npaths_total    : 205\npaths_favored  : 78\npaths_found    : 204\npaths_imported : 0\nmax_depth      : 13\ncur_path       : 189\npending_favs   : 12\npending_total  : 97\nvariable_paths : 0\nbitmap_cvg     : 1.09%\nunique_crashes : 24\nunique_hangs   : 4\nlast_path      : 1500248854\nlast_crash     : 1500248548\nlast_hang      : 1500246001\nexec_timeout   : 20\nafl_banner     : fuzzer-master\nafl_version    : 1.85b\ncommand_line   : /home/skaramcheti/.virtualenvs/afl/bin/afl-unix/afl-fuzz -i /dev/shm/work/Tick-A-Tack/input -o /dev/shm/work/Tick-A-Tack/sync -m 4G -Q -M fuzzer-master -x /dev/shm/work/Tick-A-Tack/Tick-A-Tack.dict -- data/linux/processed-challenges/Tick-A-Tack/bin/Tick-A-Tack\n'
p117
I2
tp118
a(I7080
S'start_time     : 1500241942\nlast_update    : 1500249034\nfuzzer_pid     : 6356\ncycles_done    : 0\nexecs_done     : 5498065\nexecs_per_sec  : 801.59\npaths_total    : 205\npaths_favored  : 78\npaths_found    : 204\npaths_imported : 0\nmax_depth      : 13\ncur_path       : 190\npending_favs   : 11\npending_total  : 96\nvariable_paths : 0\nbitmap_cvg     : 1.09%\nunique_crashes : 24\nunique_hangs   : 4\nlast_path      : 1500248854\nlast_crash     : 1500248548\nlast_hang      : 1500246001\nexec_timeout   : 20\nafl_banner     : fuzzer-master\nafl_version    : 1.85b\ncommand_line   : /home/skaramcheti/.virtualenvs/afl/bin/afl-unix/afl-fuzz -i /dev/shm/work/Tick-A-Tack/input -o /dev/shm/work/Tick-A-Tack/sync -m 4G -Q -M fuzzer-master -x /dev/shm/work/Tick-A-Tack/Tick-A-Tack.dict -- data/linux/processed-challenges/Tick-A-Tack/bin/Tick-A-Tack\n'
p119
I0
tp120
a(I7200
S'start_time     : 1500241942\nlast_update    : 1500249154\nfuzzer_pid     : 6356\ncycles_done    : 0\nexecs_done     : 5557995\nexecs_per_sec  : 539.23\npaths_total    : 205\npaths_favored  : 78\npaths_found    : 204\npaths_imported : 0\nmax_depth      : 13\ncur_path       : 193\npending_favs   : 9\npending_total  : 94\nvariable_paths : 0\nbitmap_cvg     : 1.09%\nunique_crashes : 25\nunique_hangs   : 4\nlast_path      : 1500248854\nlast_crash     : 1500249089\nlast_hang      : 1500246001\nexec_timeout   : 20\nafl_banner     : fuzzer-master\nafl_version    : 1.85b\ncommand_line   : /home/skaramcheti/.virtualenvs/afl/bin/afl-unix/afl-fuzz -i /dev/shm/work/Tick-A-Tack/input -o /dev/shm/work/Tick-A-Tack/sync -m 4G -Q -M fuzzer-master -x /dev/shm/work/Tick-A-Tack/Tick-A-Tack.dict -- data/linux/processed-challenges/Tick-A-Tack/bin/Tick-A-Tack\n'
p121
I0
tp122
a(I7320
S'start_time     : 1500241942\nlast_update    : 1500249275\nfuzzer_pid     : 6356\ncycles_done    : 0\nexecs_done     : 5631471\nexecs_per_sec  : 750.33\npaths_total    : 205\npaths_favored  : 78\npaths_found    : 204\npaths_imported : 0\nmax_depth      : 13\ncur_path       : 194\npending_favs   : 8\npending_total  : 93\nvariable_paths : 0\nbitmap_cvg     : 1.09%\nunique_crashes : 25\nunique_hangs   : 4\nlast_path      : 1500248854\nlast_crash     : 1500249089\nlast_hang      : 1500246001\nexec_timeout   : 20\nafl_banner     : fuzzer-master\nafl_version    : 1.85b\ncommand_line   : /home/skaramcheti/.virtualenvs/afl/bin/afl-unix/afl-fuzz -i /dev/shm/work/Tick-A-Tack/input -o /dev/shm/work/Tick-A-Tack/sync -m 4G -Q -M fuzzer-master -x /dev/shm/work/Tick-A-Tack/Tick-A-Tack.dict -- data/linux/processed-challenges/Tick-A-Tack/bin/Tick-A-Tack\n'
p123
I0
tp124
a(I7440
S'start_time     : 1500241942\nlast_update    : 1500249395\nfuzzer_pid     : 6356\ncycles_done    : 0\nexecs_done     : 5706865\nexecs_per_sec  : 797.61\npaths_total    : 206\npaths_favored  : 79\npaths_found    : 205\npaths_imported : 0\nmax_depth      : 13\ncur_path       : 196\npending_favs   : 7\npending_total  : 92\nvariable_paths : 0\nbitmap_cvg     : 1.09%\nunique_crashes : 25\nunique_hangs   : 4\nlast_path      : 1500249299\nlast_crash     : 1500249089\nlast_hang      : 1500246001\nexec_timeout   : 20\nafl_banner     : fuzzer-master\nafl_version    : 1.85b\ncommand_line   : /home/skaramcheti/.virtualenvs/afl/bin/afl-unix/afl-fuzz -i /dev/shm/work/Tick-A-Tack/input -o /dev/shm/work/Tick-A-Tack/sync -m 4G -Q -M fuzzer-master -x /dev/shm/work/Tick-A-Tack/Tick-A-Tack.dict -- data/linux/processed-challenges/Tick-A-Tack/bin/Tick-A-Tack\n'
p125
I1
tp126
a(I7560
S'start_time     : 1500241942\nlast_update    : 1500249515\nfuzzer_pid     : 6356\ncycles_done    : 0\nexecs_done     : 5786536\nexecs_per_sec  : 596.24\npaths_total    : 207\npaths_favored  : 79\npaths_found    : 206\npaths_imported : 0\nmax_depth      : 13\ncur_path       : 201\npending_favs   : 5\npending_total  : 91\nvariable_paths : 0\nbitmap_cvg     : 1.09%\nunique_crashes : 25\nunique_hangs   : 4\nlast_path      : 1500249445\nlast_crash     : 1500249089\nlast_hang      : 1500246001\nexec_timeout   : 20\nafl_banner     : fuzzer-master\nafl_version    : 1.85b\ncommand_line   : /home/skaramcheti/.virtualenvs/afl/bin/afl-unix/afl-fuzz -i /dev/shm/work/Tick-A-Tack/input -o /dev/shm/work/Tick-A-Tack/sync -m 4G -Q -M fuzzer-master -x /dev/shm/work/Tick-A-Tack/Tick-A-Tack.dict -- data/linux/processed-challenges/Tick-A-Tack/bin/Tick-A-Tack\n'
p127
I1
tp128
a(I7680
S'start_time     : 1500241942\nlast_update    : 1500249635\nfuzzer_pid     : 6356\ncycles_done    : 0\nexecs_done     : 5862871\nexecs_per_sec  : 737.40\npaths_total    : 207\npaths_favored  : 79\npaths_found    : 206\npaths_imported : 0\nmax_depth      : 13\ncur_path       : 203\npending_favs   : 3\npending_total  : 89\nvariable_paths : 0\nbitmap_cvg     : 1.09%\nunique_crashes : 25\nunique_hangs   : 4\nlast_path      : 1500249445\nlast_crash     : 1500249089\nlast_hang      : 1500246001\nexec_timeout   : 20\nafl_banner     : fuzzer-master\nafl_version    : 1.85b\ncommand_line   : /home/skaramcheti/.virtualenvs/afl/bin/afl-unix/afl-fuzz -i /dev/shm/work/Tick-A-Tack/input -o /dev/shm/work/Tick-A-Tack/sync -m 4G -Q -M fuzzer-master -x /dev/shm/work/Tick-A-Tack/Tick-A-Tack.dict -- data/linux/processed-challenges/Tick-A-Tack/bin/Tick-A-Tack\n'
p129
I0
tp130
a(I7800
S'start_time     : 1500241942\nlast_update    : 1500249755\nfuzzer_pid     : 6356\ncycles_done    : 0\nexecs_done     : 5933454\nexecs_per_sec  : 770.19\npaths_total    : 208\npaths_favored  : 79\npaths_found    : 207\npaths_imported : 0\nmax_depth      : 14\ncur_path       : 204\npending_favs   : 2\npending_total  : 89\nvariable_paths : 0\nbitmap_cvg     : 1.09%\nunique_crashes : 26\nunique_hangs   : 4\nlast_path      : 1500249745\nlast_crash     : 1500249671\nlast_hang      : 1500246001\nexec_timeout   : 20\nafl_banner     : fuzzer-master\nafl_version    : 1.85b\ncommand_line   : /home/skaramcheti/.virtualenvs/afl/bin/afl-unix/afl-fuzz -i /dev/shm/work/Tick-A-Tack/input -o /dev/shm/work/Tick-A-Tack/sync -m 4G -Q -M fuzzer-master -x /dev/shm/work/Tick-A-Tack/Tick-A-Tack.dict -- data/linux/processed-challenges/Tick-A-Tack/bin/Tick-A-Tack\n'
p131
I1
tp132
a(I7920
S'start_time     : 1500241942\nlast_update    : 1500249876\nfuzzer_pid     : 6356\ncycles_done    : 0\nexecs_done     : 6028199\nexecs_per_sec  : 765.45\npaths_total    : 210\npaths_favored  : 79\npaths_found    : 209\npaths_imported : 0\nmax_depth      : 14\ncur_path       : 204\npending_favs   : 2\npending_total  : 91\nvariable_paths : 0\nbitmap_cvg     : 1.09%\nunique_crashes : 26\nunique_hangs   : 4\nlast_path      : 1500249783\nlast_crash     : 1500249671\nlast_hang      : 1500246001\nexec_timeout   : 20\nafl_banner     : fuzzer-master\nafl_version    : 1.85b\ncommand_line   : /home/skaramcheti/.virtualenvs/afl/bin/afl-unix/afl-fuzz -i /dev/shm/work/Tick-A-Tack/input -o /dev/shm/work/Tick-A-Tack/sync -m 4G -Q -M fuzzer-master -x /dev/shm/work/Tick-A-Tack/Tick-A-Tack.dict -- data/linux/processed-challenges/Tick-A-Tack/bin/Tick-A-Tack\n'
p133
I2
tp134
a(I8040
S'start_time     : 1500241942\nlast_update    : 1500249936\nfuzzer_pid     : 6356\ncycles_done    : 0\nexecs_done     : 6075779\nexecs_per_sec  : 774.99\npaths_total    : 210\npaths_favored  : 79\npaths_found    : 209\npaths_imported : 0\nmax_depth      : 14\ncur_path       : 204\npending_favs   : 2\npending_total  : 91\nvariable_paths : 0\nbitmap_cvg     : 1.09%\nunique_crashes : 26\nunique_hangs   : 4\nlast_path      : 1500249783\nlast_crash     : 1500249671\nlast_hang      : 1500246001\nexec_timeout   : 20\nafl_banner     : fuzzer-master\nafl_version    : 1.85b\ncommand_line   : /home/skaramcheti/.virtualenvs/afl/bin/afl-unix/afl-fuzz -i /dev/shm/work/Tick-A-Tack/input -o /dev/shm/work/Tick-A-Tack/sync -m 4G -Q -M fuzzer-master -x /dev/shm/work/Tick-A-Tack/Tick-A-Tack.dict -- data/linux/processed-challenges/Tick-A-Tack/bin/Tick-A-Tack\n'
p135
I0
tp136
a(I8160
S'start_time     : 1500241942\nlast_update    : 1500250056\nfuzzer_pid     : 6356\ncycles_done    : 0\nexecs_done     : 6155335\nexecs_per_sec  : 860.05\npaths_total    : 210\npaths_favored  : 80\npaths_found    : 209\npaths_imported : 0\nmax_depth      : 14\ncur_path       : 209\npending_favs   : 1\npending_total  : 89\nvariable_paths : 0\nbitmap_cvg     : 1.09%\nunique_crashes : 27\nunique_hangs   : 4\nlast_path      : 1500249783\nlast_crash     : 1500250039\nlast_hang      : 1500246001\nexec_timeout   : 20\nafl_banner     : fuzzer-master\nafl_version    : 1.85b\ncommand_line   : /home/skaramcheti/.virtualenvs/afl/bin/afl-unix/afl-fuzz -i /dev/shm/work/Tick-A-Tack/input -o /dev/shm/work/Tick-A-Tack/sync -m 4G -Q -M fuzzer-master -x /dev/shm/work/Tick-A-Tack/Tick-A-Tack.dict -- data/linux/processed-challenges/Tick-A-Tack/bin/Tick-A-Tack\n'
p137
I0
tp138
a(I8280
S'start_time     : 1500241942\nlast_update    : 1500250176\nfuzzer_pid     : 6356\ncycles_done    : 1\nexecs_done     : 6268935\nexecs_per_sec  : 959.87\npaths_total    : 210\npaths_favored  : 80\npaths_found    : 209\npaths_imported : 0\nmax_depth      : 14\ncur_path       : 38\npending_favs   : 0\npending_total  : 82\nvariable_paths : 0\nbitmap_cvg     : 1.09%\nunique_crashes : 27\nunique_hangs   : 4\nlast_path      : 1500249783\nlast_crash     : 1500250039\nlast_hang      : 1500246001\nexec_timeout   : 20\nafl_banner     : fuzzer-master\nafl_version    : 1.85b\ncommand_line   : /home/skaramcheti/.virtualenvs/afl/bin/afl-unix/afl-fuzz -i /dev/shm/work/Tick-A-Tack/input -o /dev/shm/work/Tick-A-Tack/sync -m 4G -Q -M fuzzer-master -x /dev/shm/work/Tick-A-Tack/Tick-A-Tack.dict -- data/linux/processed-challenges/Tick-A-Tack/bin/Tick-A-Tack\n'
p139
I0
tp140
a(I8400
S'start_time     : 1500241942\nlast_update    : 1500250296\nfuzzer_pid     : 6356\ncycles_done    : 1\nexecs_done     : 6383035\nexecs_per_sec  : 899.20\npaths_total    : 210\npaths_favored  : 80\npaths_found    : 209\npaths_imported : 0\nmax_depth      : 14\ncur_path       : 55\npending_favs   : 0\npending_total  : 79\nvariable_paths : 0\nbitmap_cvg     : 1.09%\nunique_crashes : 27\nunique_hangs   : 4\nlast_path      : 1500249783\nlast_crash     : 1500250039\nlast_hang      : 1500246001\nexec_timeout   : 20\nafl_banner     : fuzzer-master\nafl_version    : 1.85b\ncommand_line   : /home/skaramcheti/.virtualenvs/afl/bin/afl-unix/afl-fuzz -i /dev/shm/work/Tick-A-Tack/input -o /dev/shm/work/Tick-A-Tack/sync -m 4G -Q -M fuzzer-master -x /dev/shm/work/Tick-A-Tack/Tick-A-Tack.dict -- data/linux/processed-challenges/Tick-A-Tack/bin/Tick-A-Tack\n'
p141
I0
tp142
a(I8520
S'start_time     : 1500241942\nlast_update    : 1500250417\nfuzzer_pid     : 6356\ncycles_done    : 1\nexecs_done     : 6484478\nexecs_per_sec  : 670.10\npaths_total    : 211\npaths_favored  : 80\npaths_found    : 209\npaths_imported : 0\nmax_depth      : 14\ncur_path       : 71\npending_favs   : 0\npending_total  : 78\nvariable_paths : 0\nbitmap_cvg     : 1.09%\nunique_crashes : 27\nunique_hangs   : 4\nlast_path      : 1500250417\nlast_crash     : 1500250039\nlast_hang      : 1500246001\nexec_timeout   : 20\nafl_banner     : fuzzer-master\nafl_version    : 1.85b\ncommand_line   : /home/skaramcheti/.virtualenvs/afl/bin/afl-unix/afl-fuzz -i /dev/shm/work/Tick-A-Tack/input -o /dev/shm/work/Tick-A-Tack/sync -m 4G -Q -M fuzzer-master -x /dev/shm/work/Tick-A-Tack/Tick-A-Tack.dict -- data/linux/processed-challenges/Tick-A-Tack/bin/Tick-A-Tack\n'
p143
I4
tp144
a(I8640
S'start_time     : 1500241942\nlast_update    : 1500250537\nfuzzer_pid     : 6356\ncycles_done    : 1\nexecs_done     : 6591750\nexecs_per_sec  : 897.91\npaths_total    : 215\npaths_favored  : 80\npaths_found    : 214\npaths_imported : 0\nmax_depth      : 14\ncur_path       : 71\npending_favs   : 0\npending_total  : 82\nvariable_paths : 0\nbitmap_cvg     : 1.09%\nunique_crashes : 27\nunique_hangs   : 4\nlast_path      : 1500250499\nlast_crash     : 1500250039\nlast_hang      : 1500246001\nexec_timeout   : 20\nafl_banner     : fuzzer-master\nafl_version    : 1.85b\ncommand_line   : /home/skaramcheti/.virtualenvs/afl/bin/afl-unix/afl-fuzz -i /dev/shm/work/Tick-A-Tack/input -o /dev/shm/work/Tick-A-Tack/sync -m 4G -Q -M fuzzer-master -x /dev/shm/work/Tick-A-Tack/Tick-A-Tack.dict -- data/linux/processed-challenges/Tick-A-Tack/bin/Tick-A-Tack\n'
p145
I1
tp146
a(I8760
S'start_time     : 1500241942\nlast_update    : 1500250657\nfuzzer_pid     : 6356\ncycles_done    : 1\nexecs_done     : 6696567\nexecs_per_sec  : 755.62\npaths_total    : 215\npaths_favored  : 80\npaths_found    : 214\npaths_imported : 0\nmax_depth      : 14\ncur_path       : 93\npending_favs   : 0\npending_total  : 80\nvariable_paths : 0\nbitmap_cvg     : 1.09%\nunique_crashes : 27\nunique_hangs   : 4\nlast_path      : 1500250499\nlast_crash     : 1500250039\nlast_hang      : 1500246001\nexec_timeout   : 20\nafl_banner     : fuzzer-master\nafl_version    : 1.85b\ncommand_line   : /home/skaramcheti/.virtualenvs/afl/bin/afl-unix/afl-fuzz -i /dev/shm/work/Tick-A-Tack/input -o /dev/shm/work/Tick-A-Tack/sync -m 4G -Q -M fuzzer-master -x /dev/shm/work/Tick-A-Tack/Tick-A-Tack.dict -- data/linux/processed-challenges/Tick-A-Tack/bin/Tick-A-Tack\n'
p147
I0
tp148
a(I8880
S'start_time     : 1500241942\nlast_update    : 1500250777\nfuzzer_pid     : 6356\ncycles_done    : 1\nexecs_done     : 6804015\nexecs_per_sec  : 899.96\npaths_total    : 215\npaths_favored  : 80\npaths_found    : 214\npaths_imported : 0\nmax_depth      : 14\ncur_path       : 110\npending_favs   : 0\npending_total  : 78\nvariable_paths : 0\nbitmap_cvg     : 1.09%\nunique_crashes : 27\nunique_hangs   : 4\nlast_path      : 1500250499\nlast_crash     : 1500250039\nlast_hang      : 1500246001\nexec_timeout   : 20\nafl_banner     : fuzzer-master\nafl_version    : 1.85b\ncommand_line   : /home/skaramcheti/.virtualenvs/afl/bin/afl-unix/afl-fuzz -i /dev/shm/work/Tick-A-Tack/input -o /dev/shm/work/Tick-A-Tack/sync -m 4G -Q -M fuzzer-master -x /dev/shm/work/Tick-A-Tack/Tick-A-Tack.dict -- data/linux/processed-challenges/Tick-A-Tack/bin/Tick-A-Tack\n'
p149
I1
tp150
a(I9000
S'start_time     : 1500241942\nlast_update    : 1500250898\nfuzzer_pid     : 6356\ncycles_done    : 1\nexecs_done     : 6879740\nexecs_per_sec  : 808.61\npaths_total    : 217\npaths_favored  : 80\npaths_found    : 216\npaths_imported : 0\nmax_depth      : 14\ncur_path       : 215\npending_favs   : 1\npending_total  : 79\nvariable_paths : 0\nbitmap_cvg     : 1.09%\nunique_crashes : 28\nunique_hangs   : 4\nlast_path      : 1500250887\nlast_crash     : 1500250875\nlast_hang      : 1500246001\nexec_timeout   : 20\nafl_banner     : fuzzer-master\nafl_version    : 1.85b\ncommand_line   : /home/skaramcheti/.virtualenvs/afl/bin/afl-unix/afl-fuzz -i /dev/shm/work/Tick-A-Tack/input -o /dev/shm/work/Tick-A-Tack/sync -m 4G -Q -M fuzzer-master -x /dev/shm/work/Tick-A-Tack/Tick-A-Tack.dict -- data/linux/processed-challenges/Tick-A-Tack/bin/Tick-A-Tack\n'
p151
I1
tp152
a(I9120
S'start_time     : 1500241942\nlast_update    : 1500251018\nfuzzer_pid     : 6356\ncycles_done    : 1\nexecs_done     : 6966287\nexecs_per_sec  : 835.99\npaths_total    : 218\npaths_favored  : 81\npaths_found    : 217\npaths_imported : 0\nmax_depth      : 14\ncur_path       : 216\npending_favs   : 1\npending_total  : 79\nvariable_paths : 0\nbitmap_cvg     : 1.09%\nunique_crashes : 28\nunique_hangs   : 4\nlast_path      : 1500250978\nlast_crash     : 1500250875\nlast_hang      : 1500246001\nexec_timeout   : 20\nafl_banner     : fuzzer-master\nafl_version    : 1.85b\ncommand_line   : /home/skaramcheti/.virtualenvs/afl/bin/afl-unix/afl-fuzz -i /dev/shm/work/Tick-A-Tack/input -o /dev/shm/work/Tick-A-Tack/sync -m 4G -Q -M fuzzer-master -x /dev/shm/work/Tick-A-Tack/Tick-A-Tack.dict -- data/linux/processed-challenges/Tick-A-Tack/bin/Tick-A-Tack\n'
p153
I1
tp154
a(I9240
S'start_time     : 1500241942\nlast_update    : 1500251138\nfuzzer_pid     : 6356\ncycles_done    : 2\nexecs_done     : 7055476\nexecs_per_sec  : 1006.13\npaths_total    : 218\npaths_favored  : 80\npaths_found    : 217\npaths_imported : 0\nmax_depth      : 14\ncur_path       : 13\npending_favs   : 0\npending_total  : 76\nvariable_paths : 0\nbitmap_cvg     : 1.09%\nunique_crashes : 28\nunique_hangs   : 4\nlast_path      : 1500250978\nlast_crash     : 1500250875\nlast_hang      : 1500246001\nexec_timeout   : 20\nafl_banner     : fuzzer-master\nafl_version    : 1.85b\ncommand_line   : /home/skaramcheti/.virtualenvs/afl/bin/afl-unix/afl-fuzz -i /dev/shm/work/Tick-A-Tack/input -o /dev/shm/work/Tick-A-Tack/sync -m 4G -Q -M fuzzer-master -x /dev/shm/work/Tick-A-Tack/Tick-A-Tack.dict -- data/linux/processed-challenges/Tick-A-Tack/bin/Tick-A-Tack\n'
p155
I0
tp156
a(I9360
S'start_time     : 1500241942\nlast_update    : 1500251258\nfuzzer_pid     : 6356\ncycles_done    : 2\nexecs_done     : 7171433\nexecs_per_sec  : 680.91\npaths_total    : 218\npaths_favored  : 80\npaths_found    : 217\npaths_imported : 0\nmax_depth      : 14\ncur_path       : 56\npending_favs   : 0\npending_total  : 76\nvariable_paths : 0\nbitmap_cvg     : 1.09%\nunique_crashes : 28\nunique_hangs   : 4\nlast_path      : 1500250978\nlast_crash     : 1500250875\nlast_hang      : 1500246001\nexec_timeout   : 20\nafl_banner     : fuzzer-master\nafl_version    : 1.85b\ncommand_line   : /home/skaramcheti/.virtualenvs/afl/bin/afl-unix/afl-fuzz -i /dev/shm/work/Tick-A-Tack/input -o /dev/shm/work/Tick-A-Tack/sync -m 4G -Q -M fuzzer-master -x /dev/shm/work/Tick-A-Tack/Tick-A-Tack.dict -- data/linux/processed-challenges/Tick-A-Tack/bin/Tick-A-Tack\n'
p157
I0
tp158
a(I9480
S'start_time     : 1500241942\nlast_update    : 1500251378\nfuzzer_pid     : 6356\ncycles_done    : 2\nexecs_done     : 7270754\nexecs_per_sec  : 786.63\npaths_total    : 218\npaths_favored  : 80\npaths_found    : 217\npaths_imported : 0\nmax_depth      : 14\ncur_path       : 73\npending_favs   : 0\npending_total  : 73\nvariable_paths : 0\nbitmap_cvg     : 1.09%\nunique_crashes : 28\nunique_hangs   : 4\nlast_path      : 1500250978\nlast_crash     : 1500250875\nlast_hang      : 1500246001\nexec_timeout   : 20\nafl_banner     : fuzzer-master\nafl_version    : 1.85b\ncommand_line   : /home/skaramcheti/.virtualenvs/afl/bin/afl-unix/afl-fuzz -i /dev/shm/work/Tick-A-Tack/input -o /dev/shm/work/Tick-A-Tack/sync -m 4G -Q -M fuzzer-master -x /dev/shm/work/Tick-A-Tack/Tick-A-Tack.dict -- data/linux/processed-challenges/Tick-A-Tack/bin/Tick-A-Tack\n'
p159
I1
tp160
a(I9600
S'start_time     : 1500241942\nlast_update    : 1500251499\nfuzzer_pid     : 6356\ncycles_done    : 2\nexecs_done     : 7364719\nexecs_per_sec  : 851.55\npaths_total    : 221\npaths_favored  : 80\npaths_found    : 220\npaths_imported : 0\nmax_depth      : 14\ncur_path       : 75\npending_favs   : 0\npending_total  : 74\nvariable_paths : 0\nbitmap_cvg     : 1.09%\nunique_crashes : 28\nunique_hangs   : 4\nlast_path      : 1500251485\nlast_crash     : 1500250875\nlast_hang      : 1500246001\nexec_timeout   : 20\nafl_banner     : fuzzer-master\nafl_version    : 1.85b\ncommand_line   : /home/skaramcheti/.virtualenvs/afl/bin/afl-unix/afl-fuzz -i /dev/shm/work/Tick-A-Tack/input -o /dev/shm/work/Tick-A-Tack/sync -m 4G -Q -M fuzzer-master -x /dev/shm/work/Tick-A-Tack/Tick-A-Tack.dict -- data/linux/processed-challenges/Tick-A-Tack/bin/Tick-A-Tack\n'
p161
I4
tp162
a(I9720
S'start_time     : 1500241942\nlast_update    : 1500251619\nfuzzer_pid     : 6356\ncycles_done    : 2\nexecs_done     : 7466721\nexecs_per_sec  : 872.79\npaths_total    : 223\npaths_favored  : 80\npaths_found    : 222\npaths_imported : 0\nmax_depth      : 14\ncur_path       : 75\npending_favs   : 0\npending_total  : 76\nvariable_paths : 0\nbitmap_cvg     : 1.09%\nunique_crashes : 28\nunique_hangs   : 4\nlast_path      : 1500251514\nlast_crash     : 1500250875\nlast_hang      : 1500246001\nexec_timeout   : 20\nafl_banner     : fuzzer-master\nafl_version    : 1.85b\ncommand_line   : /home/skaramcheti/.virtualenvs/afl/bin/afl-unix/afl-fuzz -i /dev/shm/work/Tick-A-Tack/input -o /dev/shm/work/Tick-A-Tack/sync -m 4G -Q -M fuzzer-master -x /dev/shm/work/Tick-A-Tack/Tick-A-Tack.dict -- data/linux/processed-challenges/Tick-A-Tack/bin/Tick-A-Tack\n'
p163
I0
tp164
a(I9840
S'start_time     : 1500241942\nlast_update    : 1500251739\nfuzzer_pid     : 6356\ncycles_done    : 2\nexecs_done     : 7570328\nexecs_per_sec  : 921.00\npaths_total    : 223\npaths_favored  : 80\npaths_found    : 222\npaths_imported : 0\nmax_depth      : 14\ncur_path       : 88\npending_favs   : 0\npending_total  : 74\nvariable_paths : 0\nbitmap_cvg     : 1.09%\nunique_crashes : 28\nunique_hangs   : 4\nlast_path      : 1500251514\nlast_crash     : 1500250875\nlast_hang      : 1500246001\nexec_timeout   : 20\nafl_banner     : fuzzer-master\nafl_version    : 1.85b\ncommand_line   : /home/skaramcheti/.virtualenvs/afl/bin/afl-unix/afl-fuzz -i /dev/shm/work/Tick-A-Tack/input -o /dev/shm/work/Tick-A-Tack/sync -m 4G -Q -M fuzzer-master -x /dev/shm/work/Tick-A-Tack/Tick-A-Tack.dict -- data/linux/processed-challenges/Tick-A-Tack/bin/Tick-A-Tack\n'
p165
I0
tp166
a(I9960
S'start_time     : 1500241942\nlast_update    : 1500251859\nfuzzer_pid     : 6356\ncycles_done    : 2\nexecs_done     : 7674717\nexecs_per_sec  : 925.18\npaths_total    : 223\npaths_favored  : 80\npaths_found    : 222\npaths_imported : 0\nmax_depth      : 14\ncur_path       : 109\npending_favs   : 0\npending_total  : 72\nvariable_paths : 0\nbitmap_cvg     : 1.09%\nunique_crashes : 28\nunique_hangs   : 4\nlast_path      : 1500251514\nlast_crash     : 1500250875\nlast_hang      : 1500246001\nexec_timeout   : 20\nafl_banner     : fuzzer-master\nafl_version    : 1.85b\ncommand_line   : /home/skaramcheti/.virtualenvs/afl/bin/afl-unix/afl-fuzz -i /dev/shm/work/Tick-A-Tack/input -o /dev/shm/work/Tick-A-Tack/sync -m 4G -Q -M fuzzer-master -x /dev/shm/work/Tick-A-Tack/Tick-A-Tack.dict -- data/linux/processed-challenges/Tick-A-Tack/bin/Tick-A-Tack\n'
p167
I1
tp168
a(I10080
S'start_time     : 1500241942\nlast_update    : 1500251979\nfuzzer_pid     : 6356\ncycles_done    : 3\nexecs_done     : 7770584\nexecs_per_sec  : 964.02\npaths_total    : 224\npaths_favored  : 81\npaths_found    : 223\npaths_imported : 0\nmax_depth      : 14\ncur_path       : 7\npending_favs   : 0\npending_total  : 72\nvariable_paths : 0\nbitmap_cvg     : 1.09%\nunique_crashes : 28\nunique_hangs   : 4\nlast_path      : 1500251865\nlast_crash     : 1500250875\nlast_hang      : 1500246001\nexec_timeout   : 20\nafl_banner     : fuzzer-master\nafl_version    : 1.85b\ncommand_line   : /home/skaramcheti/.virtualenvs/afl/bin/afl-unix/afl-fuzz -i /dev/shm/work/Tick-A-Tack/input -o /dev/shm/work/Tick-A-Tack/sync -m 4G -Q -M fuzzer-master -x /dev/shm/work/Tick-A-Tack/Tick-A-Tack.dict -- data/linux/processed-challenges/Tick-A-Tack/bin/Tick-A-Tack\n'
p169
I0
tp170
a(I10200
S'start_time     : 1500241942\nlast_update    : 1500252099\nfuzzer_pid     : 6356\ncycles_done    : 3\nexecs_done     : 7887401\nexecs_per_sec  : 960.61\npaths_total    : 224\npaths_favored  : 81\npaths_found    : 223\npaths_imported : 0\nmax_depth      : 14\ncur_path       : 37\npending_favs   : 0\npending_total  : 67\nvariable_paths : 0\nbitmap_cvg     : 1.09%\nunique_crashes : 28\nunique_hangs   : 4\nlast_path      : 1500251865\nlast_crash     : 1500250875\nlast_hang      : 1500246001\nexec_timeout   : 20\nafl_banner     : fuzzer-master\nafl_version    : 1.85b\ncommand_line   : /home/skaramcheti/.virtualenvs/afl/bin/afl-unix/afl-fuzz -i /dev/shm/work/Tick-A-Tack/input -o /dev/shm/work/Tick-A-Tack/sync -m 4G -Q -M fuzzer-master -x /dev/shm/work/Tick-A-Tack/Tick-A-Tack.dict -- data/linux/processed-challenges/Tick-A-Tack/bin/Tick-A-Tack\n'
p171
I0
tp172
a(I10320
S'start_time     : 1500241942\nlast_update    : 1500252220\nfuzzer_pid     : 6356\ncycles_done    : 3\nexecs_done     : 8001535\nexecs_per_sec  : 1001.20\npaths_total    : 224\npaths_favored  : 81\npaths_found    : 223\npaths_imported : 0\nmax_depth      : 14\ncur_path       : 58\npending_favs   : 0\npending_total  : 66\nvariable_paths : 0\nbitmap_cvg     : 1.09%\nunique_crashes : 28\nunique_hangs   : 4\nlast_path      : 1500251865\nlast_crash     : 1500250875\nlast_hang      : 1500246001\nexec_timeout   : 20\nafl_banner     : fuzzer-master\nafl_version    : 1.85b\ncommand_line   : /home/skaramcheti/.virtualenvs/afl/bin/afl-unix/afl-fuzz -i /dev/shm/work/Tick-A-Tack/input -o /dev/shm/work/Tick-A-Tack/sync -m 4G -Q -M fuzzer-master -x /dev/shm/work/Tick-A-Tack/Tick-A-Tack.dict -- data/linux/processed-challenges/Tick-A-Tack/bin/Tick-A-Tack\n'
p173
I0
tp174
a(I10440
S'start_time     : 1500241942\nlast_update    : 1500252340\nfuzzer_pid     : 6356\ncycles_done    : 3\nexecs_done     : 8110201\nexecs_per_sec  : 924.06\npaths_total    : 224\npaths_favored  : 81\npaths_found    : 223\npaths_imported : 0\nmax_depth      : 14\ncur_path       : 97\npending_favs   : 0\npending_total  : 64\nvariable_paths : 0\nbitmap_cvg     : 1.09%\nunique_crashes : 28\nunique_hangs   : 4\nlast_path      : 1500251865\nlast_crash     : 1500250875\nlast_hang      : 1500246001\nexec_timeout   : 20\nafl_banner     : fuzzer-master\nafl_version    : 1.85b\ncommand_line   : /home/skaramcheti/.virtualenvs/afl/bin/afl-unix/afl-fuzz -i /dev/shm/work/Tick-A-Tack/input -o /dev/shm/work/Tick-A-Tack/sync -m 4G -Q -M fuzzer-master -x /dev/shm/work/Tick-A-Tack/Tick-A-Tack.dict -- data/linux/processed-challenges/Tick-A-Tack/bin/Tick-A-Tack\n'
p175
I0
tp176
a(I10560
S'start_time     : 1500241942\nlast_update    : 1500252460\nfuzzer_pid     : 6356\ncycles_done    : 3\nexecs_done     : 8200338\nexecs_per_sec  : 811.66\npaths_total    : 224\npaths_favored  : 81\npaths_found    : 223\npaths_imported : 0\nmax_depth      : 14\ncur_path       : 102\npending_favs   : 0\npending_total  : 62\nvariable_paths : 0\nbitmap_cvg     : 1.09%\nunique_crashes : 28\nunique_hangs   : 4\nlast_path      : 1500251865\nlast_crash     : 1500250875\nlast_hang      : 1500246001\nexec_timeout   : 20\nafl_banner     : fuzzer-master\nafl_version    : 1.85b\ncommand_line   : /home/skaramcheti/.virtualenvs/afl/bin/afl-unix/afl-fuzz -i /dev/shm/work/Tick-A-Tack/input -o /dev/shm/work/Tick-A-Tack/sync -m 4G -Q -M fuzzer-master -x /dev/shm/work/Tick-A-Tack/Tick-A-Tack.dict -- data/linux/processed-challenges/Tick-A-Tack/bin/Tick-A-Tack\n'
p177
I0
tp178
a(I10680
S'start_time     : 1500241942\nlast_update    : 1500252580\nfuzzer_pid     : 6356\ncycles_done    : 3\nexecs_done     : 8298231\nexecs_per_sec  : 920.64\npaths_total    : 224\npaths_favored  : 81\npaths_found    : 223\npaths_imported : 0\nmax_depth      : 14\ncur_path       : 115\npending_favs   : 0\npending_total  : 60\nvariable_paths : 0\nbitmap_cvg     : 1.09%\nunique_crashes : 29\nunique_hangs   : 4\nlast_path      : 1500251865\nlast_crash     : 1500252546\nlast_hang      : 1500246001\nexec_timeout   : 20\nafl_banner     : fuzzer-master\nafl_version    : 1.85b\ncommand_line   : /home/skaramcheti/.virtualenvs/afl/bin/afl-unix/afl-fuzz -i /dev/shm/work/Tick-A-Tack/input -o /dev/shm/work/Tick-A-Tack/sync -m 4G -Q -M fuzzer-master -x /dev/shm/work/Tick-A-Tack/Tick-A-Tack.dict -- data/linux/processed-challenges/Tick-A-Tack/bin/Tick-A-Tack\n'
p179
I0
tp180
a.