(lp0
(I0
S'start_time     : 1500003937\nlast_update    : 1500003937\nfuzzer_pid     : 13105\ncycles_done    : 0\nexecs_done     : 10\nexecs_per_sec  : 212.77\npaths_total    : 1\npaths_favored  : 1\npaths_found    : 0\npaths_imported : 0\nmax_depth      : 1\ncur_path       : 0\npending_favs   : 1\npending_total  : 1\nvariable_paths : 0\nbitmap_cvg     : 0.19%\nunique_crashes : 0\nunique_hangs   : 0\nlast_path      : 0\nlast_crash     : 0\nlast_hang      : 0\nexec_timeout   : 20\nafl_banner     : fuzzer-master\nafl_version    : 1.85b\ncommand_line   : /home/skaramcheti/.virtualenvs/afl/bin/afl-unix/afl-fuzz -i /dev/shm/work/Snail_Mail/input -o /dev/shm/work/Snail_Mail/sync -m 4G -Q -M fuzzer-master -x /dev/shm/work/Snail_Mail/Snail_Mail.dict -- data/linux/processed-challenges/Snail_Mail/bin/Snail_Mail\n'
p1
I43
tp2
a(I120
S'start_time     : 1500003937\nlast_update    : 1500004057\nfuzzer_pid     : 13105\ncycles_done    : 0\nexecs_done     : 193954\nexecs_per_sec  : 1641.65\npaths_total    : 69\npaths_favored  : 34\npaths_found    : 68\npaths_imported : 0\nmax_depth      : 3\ncur_path       : 13\npending_favs   : 31\npending_total  : 65\nvariable_paths : 0\nbitmap_cvg     : 0.64%\nunique_crashes : 0\nunique_hangs   : 0\nlast_path      : 1500004057\nlast_crash     : 0\nlast_hang      : 0\nexec_timeout   : 20\nafl_banner     : fuzzer-master\nafl_version    : 1.85b\ncommand_line   : /home/skaramcheti/.virtualenvs/afl/bin/afl-unix/afl-fuzz -i /dev/shm/work/Snail_Mail/input -o /dev/shm/work/Snail_Mail/sync -m 4G -Q -M fuzzer-master -x /dev/shm/work/Snail_Mail/Snail_Mail.dict -- data/linux/processed-challenges/Snail_Mail/bin/Snail_Mail\n'
p3
I27
tp4
a(I240
S'start_time     : 1500003937\nlast_update    : 1500004178\nfuzzer_pid     : 13105\ncycles_done    : 0\nexecs_done     : 385454\nexecs_per_sec  : 1589.71\npaths_total    : 93\npaths_favored  : 41\npaths_found    : 92\npaths_imported : 0\nmax_depth      : 3\ncur_path       : 28\npending_favs   : 33\npending_total  : 84\nvariable_paths : 0\nbitmap_cvg     : 0.70%\nunique_crashes : 0\nunique_hangs   : 0\nlast_path      : 1500004176\nlast_crash     : 0\nlast_hang      : 0\nexec_timeout   : 20\nafl_banner     : fuzzer-master\nafl_version    : 1.85b\ncommand_line   : /home/skaramcheti/.virtualenvs/afl/bin/afl-unix/afl-fuzz -i /dev/shm/work/Snail_Mail/input -o /dev/shm/work/Snail_Mail/sync -m 4G -Q -M fuzzer-master -x /dev/shm/work/Snail_Mail/Snail_Mail.dict -- data/linux/processed-challenges/Snail_Mail/bin/Snail_Mail\n'
p5
I25
tp6
a(I360
S'start_time     : 1500003937\nlast_update    : 1500004298\nfuzzer_pid     : 13105\ncycles_done    : 0\nexecs_done     : 576759\nexecs_per_sec  : 1603.40\npaths_total    : 113\npaths_favored  : 44\npaths_found    : 112\npaths_imported : 0\nmax_depth      : 3\ncur_path       : 40\npending_favs   : 30\npending_total  : 97\nvariable_paths : 0\nbitmap_cvg     : 0.73%\nunique_crashes : 0\nunique_hangs   : 0\nlast_path      : 1500004296\nlast_crash     : 0\nlast_hang      : 0\nexec_timeout   : 20\nafl_banner     : fuzzer-master\nafl_version    : 1.85b\ncommand_line   : /home/skaramcheti/.virtualenvs/afl/bin/afl-unix/afl-fuzz -i /dev/shm/work/Snail_Mail/input -o /dev/shm/work/Snail_Mail/sync -m 4G -Q -M fuzzer-master -x /dev/shm/work/Snail_Mail/Snail_Mail.dict -- data/linux/processed-challenges/Snail_Mail/bin/Snail_Mail\n'
p7
I19
tp8
a(I480
S'start_time     : 1500003937\nlast_update    : 1500004418\nfuzzer_pid     : 13105\ncycles_done    : 0\nexecs_done     : 760920\nexecs_per_sec  : 1573.05\npaths_total    : 126\npaths_favored  : 46\npaths_found    : 125\npaths_imported : 0\nmax_depth      : 3\ncur_path       : 41\npending_favs   : 31\npending_total  : 109\nvariable_paths : 0\nbitmap_cvg     : 0.74%\nunique_crashes : 0\nunique_hangs   : 0\nlast_path      : 1500004417\nlast_crash     : 0\nlast_hang      : 0\nexec_timeout   : 20\nafl_banner     : fuzzer-master\nafl_version    : 1.85b\ncommand_line   : /home/skaramcheti/.virtualenvs/afl/bin/afl-unix/afl-fuzz -i /dev/shm/work/Snail_Mail/input -o /dev/shm/work/Snail_Mail/sync -m 4G -Q -M fuzzer-master -x /dev/shm/work/Snail_Mail/Snail_Mail.dict -- data/linux/processed-challenges/Snail_Mail/bin/Snail_Mail\n'
p9
I12
tp10
a(I600
S'start_time     : 1500003937\nlast_update    : 1500004538\nfuzzer_pid     : 13105\ncycles_done    : 0\nexecs_done     : 947187\nexecs_per_sec  : 1578.53\npaths_total    : 134\npaths_favored  : 46\npaths_found    : 133\npaths_imported : 0\nmax_depth      : 3\ncur_path       : 44\npending_favs   : 31\npending_total  : 116\nvariable_paths : 0\nbitmap_cvg     : 0.74%\nunique_crashes : 0\nunique_hangs   : 0\nlast_path      : 1500004528\nlast_crash     : 0\nlast_hang      : 0\nexec_timeout   : 20\nafl_banner     : fuzzer-master\nafl_version    : 1.85b\ncommand_line   : /home/skaramcheti/.virtualenvs/afl/bin/afl-unix/afl-fuzz -i /dev/shm/work/Snail_Mail/input -o /dev/shm/work/Snail_Mail/sync -m 4G -Q -M fuzzer-master -x /dev/shm/work/Snail_Mail/Snail_Mail.dict -- data/linux/processed-challenges/Snail_Mail/bin/Snail_Mail\n'
p11
I9
tp12
a(I720
S'start_time     : 1500003937\nlast_update    : 1500004659\nfuzzer_pid     : 13105\ncycles_done    : 0\nexecs_done     : 1126213\nexecs_per_sec  : 1380.06\npaths_total    : 145\npaths_favored  : 46\npaths_found    : 144\npaths_imported : 0\nmax_depth      : 3\ncur_path       : 56\npending_favs   : 27\npending_total  : 121\nvariable_paths : 0\nbitmap_cvg     : 0.83%\nunique_crashes : 0\nunique_hangs   : 0\nlast_path      : 1500004655\nlast_crash     : 0\nlast_hang      : 0\nexec_timeout   : 20\nafl_banner     : fuzzer-master\nafl_version    : 1.85b\ncommand_line   : /home/skaramcheti/.virtualenvs/afl/bin/afl-unix/afl-fuzz -i /dev/shm/work/Snail_Mail/input -o /dev/shm/work/Snail_Mail/sync -m 4G -Q -M fuzzer-master -x /dev/shm/work/Snail_Mail/Snail_Mail.dict -- data/linux/processed-challenges/Snail_Mail/bin/Snail_Mail\n'
p13
I10
tp14
a(I840
S'start_time     : 1500003937\nlast_update    : 1500004779\nfuzzer_pid     : 13105\ncycles_done    : 0\nexecs_done     : 1299377\nexecs_per_sec  : 1468.02\npaths_total    : 153\npaths_favored  : 49\npaths_found    : 152\npaths_imported : 0\nmax_depth      : 3\ncur_path       : 69\npending_favs   : 26\npending_total  : 124\nvariable_paths : 0\nbitmap_cvg     : 0.84%\nunique_crashes : 0\nunique_hangs   : 0\nlast_path      : 1500004724\nlast_crash     : 0\nlast_hang      : 0\nexec_timeout   : 20\nafl_banner     : fuzzer-master\nafl_version    : 1.85b\ncommand_line   : /home/skaramcheti/.virtualenvs/afl/bin/afl-unix/afl-fuzz -i /dev/shm/work/Snail_Mail/input -o /dev/shm/work/Snail_Mail/sync -m 4G -Q -M fuzzer-master -x /dev/shm/work/Snail_Mail/Snail_Mail.dict -- data/linux/processed-challenges/Snail_Mail/bin/Snail_Mail\n'
p15
I8
tp16
a(I960
S'start_time     : 1500003937\nlast_update    : 1500004899\nfuzzer_pid     : 13105\ncycles_done    : 0\nexecs_done     : 1472366\nexecs_per_sec  : 1454.90\npaths_total    : 160\npaths_favored  : 49\npaths_found    : 159\npaths_imported : 0\nmax_depth      : 4\ncur_path       : 103\npending_favs   : 17\npending_total  : 122\nvariable_paths : 0\nbitmap_cvg     : 0.84%\nunique_crashes : 0\nunique_hangs   : 1\nlast_path      : 1500004884\nlast_crash     : 0\nlast_hang      : 1500004836\nexec_timeout   : 20\nafl_banner     : fuzzer-master\nafl_version    : 1.85b\ncommand_line   : /home/skaramcheti/.virtualenvs/afl/bin/afl-unix/afl-fuzz -i /dev/shm/work/Snail_Mail/input -o /dev/shm/work/Snail_Mail/sync -m 4G -Q -M fuzzer-master -x /dev/shm/work/Snail_Mail/Snail_Mail.dict -- data/linux/processed-challenges/Snail_Mail/bin/Snail_Mail\n'
p17
I7
tp18
a(I1080
S'start_time     : 1500003937\nlast_update    : 1500005019\nfuzzer_pid     : 13105\ncycles_done    : 0\nexecs_done     : 1639300\nexecs_per_sec  : 1363.20\npaths_total    : 171\npaths_favored  : 51\npaths_found    : 170\npaths_imported : 0\nmax_depth      : 4\ncur_path       : 116\npending_favs   : 15\npending_total  : 129\nvariable_paths : 0\nbitmap_cvg     : 0.84%\nunique_crashes : 0\nunique_hangs   : 1\nlast_path      : 1500005011\nlast_crash     : 0\nlast_hang      : 1500004836\nexec_timeout   : 20\nafl_banner     : fuzzer-master\nafl_version    : 1.85b\ncommand_line   : /home/skaramcheti/.virtualenvs/afl/bin/afl-unix/afl-fuzz -i /dev/shm/work/Snail_Mail/input -o /dev/shm/work/Snail_Mail/sync -m 4G -Q -M fuzzer-master -x /dev/shm/work/Snail_Mail/Snail_Mail.dict -- data/linux/processed-challenges/Snail_Mail/bin/Snail_Mail\n'
p19
I11
tp20
a(I1200
S'start_time     : 1500003937\nlast_update    : 1500005140\nfuzzer_pid     : 13105\ncycles_done    : 0\nexecs_done     : 1803784\nexecs_per_sec  : 1409.14\npaths_total    : 174\npaths_favored  : 52\npaths_found    : 173\npaths_imported : 0\nmax_depth      : 4\ncur_path       : 130\npending_favs   : 13\npending_total  : 127\nvariable_paths : 0\nbitmap_cvg     : 0.87%\nunique_crashes : 0\nunique_hangs   : 1\nlast_path      : 1500005078\nlast_crash     : 0\nlast_hang      : 1500004836\nexec_timeout   : 20\nafl_banner     : fuzzer-master\nafl_version    : 1.85b\ncommand_line   : /home/skaramcheti/.virtualenvs/afl/bin/afl-unix/afl-fuzz -i /dev/shm/work/Snail_Mail/input -o /dev/shm/work/Snail_Mail/sync -m 4G -Q -M fuzzer-master -x /dev/shm/work/Snail_Mail/Snail_Mail.dict -- data/linux/processed-challenges/Snail_Mail/bin/Snail_Mail\n'
p21
I3
tp22
a(I1320
S'start_time     : 1500003937\nlast_update    : 1500005260\nfuzzer_pid     : 13105\ncycles_done    : 0\nexecs_done     : 1974124\nexecs_per_sec  : 1434.68\npaths_total    : 183\npaths_favored  : 55\npaths_found    : 182\npaths_imported : 0\nmax_depth      : 4\ncur_path       : 144\npending_favs   : 11\npending_total  : 133\nvariable_paths : 0\nbitmap_cvg     : 0.88%\nunique_crashes : 0\nunique_hangs   : 1\nlast_path      : 1500005197\nlast_crash     : 0\nlast_hang      : 1500004836\nexec_timeout   : 20\nafl_banner     : fuzzer-master\nafl_version    : 1.85b\ncommand_line   : /home/skaramcheti/.virtualenvs/afl/bin/afl-unix/afl-fuzz -i /dev/shm/work/Snail_Mail/input -o /dev/shm/work/Snail_Mail/sync -m 4G -Q -M fuzzer-master -x /dev/shm/work/Snail_Mail/Snail_Mail.dict -- data/linux/processed-challenges/Snail_Mail/bin/Snail_Mail\n'
p23
I9
tp24
a(I1440
S'start_time     : 1500003937\nlast_update    : 1500005380\nfuzzer_pid     : 13105\ncycles_done    : 0\nexecs_done     : 2130288\nexecs_per_sec  : 1275.27\npaths_total    : 192\npaths_favored  : 58\npaths_found    : 191\npaths_imported : 0\nmax_depth      : 5\ncur_path       : 157\npending_favs   : 10\npending_total  : 138\nvariable_paths : 0\nbitmap_cvg     : 0.88%\nunique_crashes : 0\nunique_hangs   : 1\nlast_path      : 1500005362\nlast_crash     : 0\nlast_hang      : 1500004836\nexec_timeout   : 20\nafl_banner     : fuzzer-master\nafl_version    : 1.85b\ncommand_line   : /home/skaramcheti/.virtualenvs/afl/bin/afl-unix/afl-fuzz -i /dev/shm/work/Snail_Mail/input -o /dev/shm/work/Snail_Mail/sync -m 4G -Q -M fuzzer-master -x /dev/shm/work/Snail_Mail/Snail_Mail.dict -- data/linux/processed-challenges/Snail_Mail/bin/Snail_Mail\n'
p25
I9
tp26
a(I1560
S'start_time     : 1500003937\nlast_update    : 1500005500\nfuzzer_pid     : 13105\ncycles_done    : 0\nexecs_done     : 2281361\nexecs_per_sec  : 1276.48\npaths_total    : 195\npaths_favored  : 57\npaths_found    : 194\npaths_imported : 0\nmax_depth      : 5\ncur_path       : 159\npending_favs   : 9\npending_total  : 140\nvariable_paths : 0\nbitmap_cvg     : 0.89%\nunique_crashes : 0\nunique_hangs   : 1\nlast_path      : 1500005482\nlast_crash     : 0\nlast_hang      : 1500004836\nexec_timeout   : 20\nafl_banner     : fuzzer-master\nafl_version    : 1.85b\ncommand_line   : /home/skaramcheti/.virtualenvs/afl/bin/afl-unix/afl-fuzz -i /dev/shm/work/Snail_Mail/input -o /dev/shm/work/Snail_Mail/sync -m 4G -Q -M fuzzer-master -x /dev/shm/work/Snail_Mail/Snail_Mail.dict -- data/linux/processed-challenges/Snail_Mail/bin/Snail_Mail\n'
p27
I3
tp28
a(I1680
S'start_time     : 1500003937\nlast_update    : 1500005620\nfuzzer_pid     : 13105\ncycles_done    : 0\nexecs_done     : 2430144\nexecs_per_sec  : 1229.93\npaths_total    : 199\npaths_favored  : 57\npaths_found    : 198\npaths_imported : 0\nmax_depth      : 5\ncur_path       : 173\npending_favs   : 7\npending_total  : 141\nvariable_paths : 0\nbitmap_cvg     : 0.89%\nunique_crashes : 0\nunique_hangs   : 1\nlast_path      : 1500005615\nlast_crash     : 0\nlast_hang      : 1500004836\nexec_timeout   : 20\nafl_banner     : fuzzer-master\nafl_version    : 1.85b\ncommand_line   : /home/skaramcheti/.virtualenvs/afl/bin/afl-unix/afl-fuzz -i /dev/shm/work/Snail_Mail/input -o /dev/shm/work/Snail_Mail/sync -m 4G -Q -M fuzzer-master -x /dev/shm/work/Snail_Mail/Snail_Mail.dict -- data/linux/processed-challenges/Snail_Mail/bin/Snail_Mail\n'
p29
I4
tp30
a(I1800
S'start_time     : 1500003937\nlast_update    : 1500005741\nfuzzer_pid     : 13105\ncycles_done    : 0\nexecs_done     : 2590751\nexecs_per_sec  : 1355.89\npaths_total    : 208\npaths_favored  : 56\npaths_found    : 207\npaths_imported : 0\nmax_depth      : 5\ncur_path       : 176\npending_favs   : 5\npending_total  : 148\nvariable_paths : 0\nbitmap_cvg     : 0.89%\nunique_crashes : 0\nunique_hangs   : 1\nlast_path      : 1500005628\nlast_crash     : 0\nlast_hang      : 1500004836\nexec_timeout   : 20\nafl_banner     : fuzzer-master\nafl_version    : 1.85b\ncommand_line   : /home/skaramcheti/.virtualenvs/afl/bin/afl-unix/afl-fuzz -i /dev/shm/work/Snail_Mail/input -o /dev/shm/work/Snail_Mail/sync -m 4G -Q -M fuzzer-master -x /dev/shm/work/Snail_Mail/Snail_Mail.dict -- data/linux/processed-challenges/Snail_Mail/bin/Snail_Mail\n'
p31
I9
tp32
a(I1920
S'start_time     : 1500003937\nlast_update    : 1500005861\nfuzzer_pid     : 13105\ncycles_done    : 1\nexecs_done     : 2745037\nexecs_per_sec  : 1482.16\npaths_total    : 208\npaths_favored  : 56\npaths_found    : 207\npaths_imported : 0\nmax_depth      : 5\ncur_path       : 20\npending_favs   : 0\npending_total  : 141\nvariable_paths : 0\nbitmap_cvg     : 0.89%\nunique_crashes : 0\nunique_hangs   : 1\nlast_path      : 1500005628\nlast_crash     : 0\nlast_hang      : 1500004836\nexec_timeout   : 20\nafl_banner     : fuzzer-master\nafl_version    : 1.85b\ncommand_line   : /home/skaramcheti/.virtualenvs/afl/bin/afl-unix/afl-fuzz -i /dev/shm/work/Snail_Mail/input -o /dev/shm/work/Snail_Mail/sync -m 4G -Q -M fuzzer-master -x /dev/shm/work/Snail_Mail/Snail_Mail.dict -- data/linux/processed-challenges/Snail_Mail/bin/Snail_Mail\n'
p33
I0
tp34
a(I2040
S'start_time     : 1500003937\nlast_update    : 1500005981\nfuzzer_pid     : 13105\ncycles_done    : 1\nexecs_done     : 2920083\nexecs_per_sec  : 1394.14\npaths_total    : 218\npaths_favored  : 56\npaths_found    : 217\npaths_imported : 0\nmax_depth      : 5\ncur_path       : 39\npending_favs   : 0\npending_total  : 145\nvariable_paths : 0\nbitmap_cvg     : 0.89%\nunique_crashes : 0\nunique_hangs   : 1\nlast_path      : 1500005966\nlast_crash     : 0\nlast_hang      : 1500004836\nexec_timeout   : 20\nafl_banner     : fuzzer-master\nafl_version    : 1.85b\ncommand_line   : /home/skaramcheti/.virtualenvs/afl/bin/afl-unix/afl-fuzz -i /dev/shm/work/Snail_Mail/input -o /dev/shm/work/Snail_Mail/sync -m 4G -Q -M fuzzer-master -x /dev/shm/work/Snail_Mail/Snail_Mail.dict -- data/linux/processed-challenges/Snail_Mail/bin/Snail_Mail\n'
p35
I10
tp36
a(I2160
S'start_time     : 1500003937\nlast_update    : 1500006102\nfuzzer_pid     : 13105\ncycles_done    : 1\nexecs_done     : 3093126\nexecs_per_sec  : 1297.71\npaths_total    : 220\npaths_favored  : 56\npaths_found    : 219\npaths_imported : 0\nmax_depth      : 5\ncur_path       : 81\npending_favs   : 0\npending_total  : 143\nvariable_paths : 0\nbitmap_cvg     : 0.89%\nunique_crashes : 0\nunique_hangs   : 1\nlast_path      : 1500006078\nlast_crash     : 0\nlast_hang      : 1500004836\nexec_timeout   : 20\nafl_banner     : fuzzer-master\nafl_version    : 1.85b\ncommand_line   : /home/skaramcheti/.virtualenvs/afl/bin/afl-unix/afl-fuzz -i /dev/shm/work/Snail_Mail/input -o /dev/shm/work/Snail_Mail/sync -m 4G -Q -M fuzzer-master -x /dev/shm/work/Snail_Mail/Snail_Mail.dict -- data/linux/processed-challenges/Snail_Mail/bin/Snail_Mail\n'
p37
I2
tp38
a(I2280
S'start_time     : 1500003937\nlast_update    : 1500006222\nfuzzer_pid     : 13105\ncycles_done    : 1\nexecs_done     : 3261419\nexecs_per_sec  : 1478.20\npaths_total    : 220\npaths_favored  : 56\npaths_found    : 219\npaths_imported : 0\nmax_depth      : 5\ncur_path       : 122\npending_favs   : 0\npending_total  : 133\nvariable_paths : 0\nbitmap_cvg     : 0.89%\nunique_crashes : 0\nunique_hangs   : 1\nlast_path      : 1500006078\nlast_crash     : 0\nlast_hang      : 1500004836\nexec_timeout   : 20\nafl_banner     : fuzzer-master\nafl_version    : 1.85b\ncommand_line   : /home/skaramcheti/.virtualenvs/afl/bin/afl-unix/afl-fuzz -i /dev/shm/work/Snail_Mail/input -o /dev/shm/work/Snail_Mail/sync -m 4G -Q -M fuzzer-master -x /dev/shm/work/Snail_Mail/Snail_Mail.dict -- data/linux/processed-challenges/Snail_Mail/bin/Snail_Mail\n'
p39
I0
tp40
a(I2400
S'start_time     : 1500003937\nlast_update    : 1500006342\nfuzzer_pid     : 13105\ncycles_done    : 1\nexecs_done     : 3427524\nexecs_per_sec  : 1398.77\npaths_total    : 223\npaths_favored  : 56\npaths_found    : 222\npaths_imported : 0\nmax_depth      : 5\ncur_path       : 144\npending_favs   : 0\npending_total  : 129\nvariable_paths : 0\nbitmap_cvg     : 0.89%\nunique_crashes : 0\nunique_hangs   : 1\nlast_path      : 1500006278\nlast_crash     : 0\nlast_hang      : 1500004836\nexec_timeout   : 20\nafl_banner     : fuzzer-master\nafl_version    : 1.85b\ncommand_line   : /home/skaramcheti/.virtualenvs/afl/bin/afl-unix/afl-fuzz -i /dev/shm/work/Snail_Mail/input -o /dev/shm/work/Snail_Mail/sync -m 4G -Q -M fuzzer-master -x /dev/shm/work/Snail_Mail/Snail_Mail.dict -- data/linux/processed-challenges/Snail_Mail/bin/Snail_Mail\n'
p41
I3
tp42
a(I2520
S'start_time     : 1500003937\nlast_update    : 1500006462\nfuzzer_pid     : 13105\ncycles_done    : 1\nexecs_done     : 3585852\nexecs_per_sec  : 1285.92\npaths_total    : 229\npaths_favored  : 56\npaths_found    : 228\npaths_imported : 0\nmax_depth      : 5\ncur_path       : 159\npending_favs   : 0\npending_total  : 134\nvariable_paths : 0\nbitmap_cvg     : 0.89%\nunique_crashes : 0\nunique_hangs   : 1\nlast_path      : 1500006461\nlast_crash     : 0\nlast_hang      : 1500004836\nexec_timeout   : 20\nafl_banner     : fuzzer-master\nafl_version    : 1.85b\ncommand_line   : /home/skaramcheti/.virtualenvs/afl/bin/afl-unix/afl-fuzz -i /dev/shm/work/Snail_Mail/input -o /dev/shm/work/Snail_Mail/sync -m 4G -Q -M fuzzer-master -x /dev/shm/work/Snail_Mail/Snail_Mail.dict -- data/linux/processed-challenges/Snail_Mail/bin/Snail_Mail\n'
p43
I6
tp44
a(I2640
S'start_time     : 1500003937\nlast_update    : 1500006582\nfuzzer_pid     : 13105\ncycles_done    : 1\nexecs_done     : 3751469\nexecs_per_sec  : 1363.18\npaths_total    : 232\npaths_favored  : 56\npaths_found    : 231\npaths_imported : 0\nmax_depth      : 5\ncur_path       : 173\npending_favs   : 0\npending_total  : 136\nvariable_paths : 0\nbitmap_cvg     : 0.89%\nunique_crashes : 0\nunique_hangs   : 1\nlast_path      : 1500006526\nlast_crash     : 0\nlast_hang      : 1500004836\nexec_timeout   : 20\nafl_banner     : fuzzer-master\nafl_version    : 1.85b\ncommand_line   : /home/skaramcheti/.virtualenvs/afl/bin/afl-unix/afl-fuzz -i /dev/shm/work/Snail_Mail/input -o /dev/shm/work/Snail_Mail/sync -m 4G -Q -M fuzzer-master -x /dev/shm/work/Snail_Mail/Snail_Mail.dict -- data/linux/processed-challenges/Snail_Mail/bin/Snail_Mail\n'
p45
I3
tp46
a(I2760
S'start_time     : 1500003937\nlast_update    : 1500006702\nfuzzer_pid     : 13105\ncycles_done    : 1\nexecs_done     : 3907099\nexecs_per_sec  : 1225.34\npaths_total    : 233\npaths_favored  : 56\npaths_found    : 232\npaths_imported : 0\nmax_depth      : 6\ncur_path       : 188\npending_favs   : 0\npending_total  : 134\nvariable_paths : 0\nbitmap_cvg     : 0.89%\nunique_crashes : 0\nunique_hangs   : 1\nlast_path      : 1500006687\nlast_crash     : 0\nlast_hang      : 1500004836\nexec_timeout   : 20\nafl_banner     : fuzzer-master\nafl_version    : 1.85b\ncommand_line   : /home/skaramcheti/.virtualenvs/afl/bin/afl-unix/afl-fuzz -i /dev/shm/work/Snail_Mail/input -o /dev/shm/work/Snail_Mail/sync -m 4G -Q -M fuzzer-master -x /dev/shm/work/Snail_Mail/Snail_Mail.dict -- data/linux/processed-challenges/Snail_Mail/bin/Snail_Mail\n'
p47
I1
tp48
a(I2880
S'start_time     : 1500003937\nlast_update    : 1500006823\nfuzzer_pid     : 13105\ncycles_done    : 1\nexecs_done     : 4057188\nexecs_per_sec  : 1190.88\npaths_total    : 233\npaths_favored  : 56\npaths_found    : 232\npaths_imported : 0\nmax_depth      : 6\ncur_path       : 202\npending_favs   : 0\npending_total  : 130\nvariable_paths : 0\nbitmap_cvg     : 0.89%\nunique_crashes : 0\nunique_hangs   : 1\nlast_path      : 1500006687\nlast_crash     : 0\nlast_hang      : 1500004836\nexec_timeout   : 20\nafl_banner     : fuzzer-master\nafl_version    : 1.85b\ncommand_line   : /home/skaramcheti/.virtualenvs/afl/bin/afl-unix/afl-fuzz -i /dev/shm/work/Snail_Mail/input -o /dev/shm/work/Snail_Mail/sync -m 4G -Q -M fuzzer-master -x /dev/shm/work/Snail_Mail/Snail_Mail.dict -- data/linux/processed-challenges/Snail_Mail/bin/Snail_Mail\n'
p49
I0
tp50
a(I3000
S'start_time     : 1500003937\nlast_update    : 1500006943\nfuzzer_pid     : 13105\ncycles_done    : 1\nexecs_done     : 4201570\nexecs_per_sec  : 1212.82\npaths_total    : 236\npaths_favored  : 56\npaths_found    : 235\npaths_imported : 0\nmax_depth      : 6\ncur_path       : 214\npending_favs   : 0\npending_total  : 129\nvariable_paths : 0\nbitmap_cvg     : 0.89%\nunique_crashes : 0\nunique_hangs   : 1\nlast_path      : 1500006937\nlast_crash     : 0\nlast_hang      : 1500004836\nexec_timeout   : 20\nafl_banner     : fuzzer-master\nafl_version    : 1.85b\ncommand_line   : /home/skaramcheti/.virtualenvs/afl/bin/afl-unix/afl-fuzz -i /dev/shm/work/Snail_Mail/input -o /dev/shm/work/Snail_Mail/sync -m 4G -Q -M fuzzer-master -x /dev/shm/work/Snail_Mail/Snail_Mail.dict -- data/linux/processed-challenges/Snail_Mail/bin/Snail_Mail\n'
p51
I3
tp52
a(I3120
S'start_time     : 1500003937\nlast_update    : 1500007063\nfuzzer_pid     : 13105\ncycles_done    : 1\nexecs_done     : 4353831\nexecs_per_sec  : 1298.45\npaths_total    : 240\npaths_favored  : 56\npaths_found    : 239\npaths_imported : 0\nmax_depth      : 6\ncur_path       : 214\npending_favs   : 0\npending_total  : 133\nvariable_paths : 0\nbitmap_cvg     : 0.89%\nunique_crashes : 0\nunique_hangs   : 1\nlast_path      : 1500007061\nlast_crash     : 0\nlast_hang      : 1500004836\nexec_timeout   : 20\nafl_banner     : fuzzer-master\nafl_version    : 1.85b\ncommand_line   : /home/skaramcheti/.virtualenvs/afl/bin/afl-unix/afl-fuzz -i /dev/shm/work/Snail_Mail/input -o /dev/shm/work/Snail_Mail/sync -m 4G -Q -M fuzzer-master -x /dev/shm/work/Snail_Mail/Snail_Mail.dict -- data/linux/processed-challenges/Snail_Mail/bin/Snail_Mail\n'
p53
I4
tp54
a(I3240
S'start_time     : 1500003937\nlast_update    : 1500007183\nfuzzer_pid     : 13105\ncycles_done    : 1\nexecs_done     : 4478837\nexecs_per_sec  : 1000.68\npaths_total    : 242\npaths_favored  : 56\npaths_found    : 241\npaths_imported : 0\nmax_depth      : 6\ncur_path       : 223\npending_favs   : 0\npending_total  : 133\nvariable_paths : 0\nbitmap_cvg     : 0.89%\nunique_crashes : 0\nunique_hangs   : 1\nlast_path      : 1500007176\nlast_crash     : 0\nlast_hang      : 1500004836\nexec_timeout   : 20\nafl_banner     : fuzzer-master\nafl_version    : 1.85b\ncommand_line   : /home/skaramcheti/.virtualenvs/afl/bin/afl-unix/afl-fuzz -i /dev/shm/work/Snail_Mail/input -o /dev/shm/work/Snail_Mail/sync -m 4G -Q -M fuzzer-master -x /dev/shm/work/Snail_Mail/Snail_Mail.dict -- data/linux/processed-challenges/Snail_Mail/bin/Snail_Mail\n'
p55
I2
tp56
a(I3360
S'start_time     : 1500003937\nlast_update    : 1500007303\nfuzzer_pid     : 13105\ncycles_done    : 1\nexecs_done     : 4604029\nexecs_per_sec  : 1163.29\npaths_total    : 243\npaths_favored  : 56\npaths_found    : 242\npaths_imported : 0\nmax_depth      : 6\ncur_path       : 229\npending_favs   : 0\npending_total  : 133\nvariable_paths : 0\nbitmap_cvg     : 0.89%\nunique_crashes : 0\nunique_hangs   : 1\nlast_path      : 1500007194\nlast_crash     : 0\nlast_hang      : 1500004836\nexec_timeout   : 20\nafl_banner     : fuzzer-master\nafl_version    : 1.85b\ncommand_line   : /home/skaramcheti/.virtualenvs/afl/bin/afl-unix/afl-fuzz -i /dev/shm/work/Snail_Mail/input -o /dev/shm/work/Snail_Mail/sync -m 4G -Q -M fuzzer-master -x /dev/shm/work/Snail_Mail/Snail_Mail.dict -- data/linux/processed-challenges/Snail_Mail/bin/Snail_Mail\n'
p57
I1
tp58
a(I3480
S'start_time     : 1500003937\nlast_update    : 1500007424\nfuzzer_pid     : 13105\ncycles_done    : 1\nexecs_done     : 4733432\nexecs_per_sec  : 864.65\npaths_total    : 244\npaths_favored  : 56\npaths_found    : 243\npaths_imported : 0\nmax_depth      : 6\ncur_path       : 236\npending_favs   : 0\npending_total  : 132\nvariable_paths : 0\nbitmap_cvg     : 0.89%\nunique_crashes : 0\nunique_hangs   : 1\nlast_path      : 1500007347\nlast_crash     : 0\nlast_hang      : 1500004836\nexec_timeout   : 20\nafl_banner     : fuzzer-master\nafl_version    : 1.85b\ncommand_line   : /home/skaramcheti/.virtualenvs/afl/bin/afl-unix/afl-fuzz -i /dev/shm/work/Snail_Mail/input -o /dev/shm/work/Snail_Mail/sync -m 4G -Q -M fuzzer-master -x /dev/shm/work/Snail_Mail/Snail_Mail.dict -- data/linux/processed-challenges/Snail_Mail/bin/Snail_Mail\n'
p59
I1
tp60
a(I3600
S'start_time     : 1500003937\nlast_update    : 1500007544\nfuzzer_pid     : 13105\ncycles_done    : 1\nexecs_done     : 4837465\nexecs_per_sec  : 828.88\npaths_total    : 244\npaths_favored  : 56\npaths_found    : 243\npaths_imported : 0\nmax_depth      : 6\ncur_path       : 237\npending_favs   : 0\npending_total  : 131\nvariable_paths : 0\nbitmap_cvg     : 0.89%\nunique_crashes : 0\nunique_hangs   : 1\nlast_path      : 1500007347\nlast_crash     : 0\nlast_hang      : 1500004836\nexec_timeout   : 20\nafl_banner     : fuzzer-master\nafl_version    : 1.85b\ncommand_line   : /home/skaramcheti/.virtualenvs/afl/bin/afl-unix/afl-fuzz -i /dev/shm/work/Snail_Mail/input -o /dev/shm/work/Snail_Mail/sync -m 4G -Q -M fuzzer-master -x /dev/shm/work/Snail_Mail/Snail_Mail.dict -- data/linux/processed-challenges/Snail_Mail/bin/Snail_Mail\n'
p61
I0
tp62
a(I3720
S'start_time     : 1500003937\nlast_update    : 1500007664\nfuzzer_pid     : 13105\ncycles_done    : 1\nexecs_done     : 4938482\nexecs_per_sec  : 790.25\npaths_total    : 246\npaths_favored  : 56\npaths_found    : 245\npaths_imported : 0\nmax_depth      : 7\ncur_path       : 241\npending_favs   : 0\npending_total  : 132\nvariable_paths : 0\nbitmap_cvg     : 0.89%\nunique_crashes : 0\nunique_hangs   : 1\nlast_path      : 1500007662\nlast_crash     : 0\nlast_hang      : 1500004836\nexec_timeout   : 20\nafl_banner     : fuzzer-master\nafl_version    : 1.85b\ncommand_line   : /home/skaramcheti/.virtualenvs/afl/bin/afl-unix/afl-fuzz -i /dev/shm/work/Snail_Mail/input -o /dev/shm/work/Snail_Mail/sync -m 4G -Q -M fuzzer-master -x /dev/shm/work/Snail_Mail/Snail_Mail.dict -- data/linux/processed-challenges/Snail_Mail/bin/Snail_Mail\n'
p63
I2
tp64
a(I3840
S'start_time     : 1500003937\nlast_update    : 1500007784\nfuzzer_pid     : 13105\ncycles_done    : 1\nexecs_done     : 5028231\nexecs_per_sec  : 692.35\npaths_total    : 246\npaths_favored  : 56\npaths_found    : 245\npaths_imported : 0\nmax_depth      : 7\ncur_path       : 242\npending_favs   : 0\npending_total  : 131\nvariable_paths : 0\nbitmap_cvg     : 0.89%\nunique_crashes : 0\nunique_hangs   : 1\nlast_path      : 1500007662\nlast_crash     : 0\nlast_hang      : 1500004836\nexec_timeout   : 20\nafl_banner     : fuzzer-master\nafl_version    : 1.85b\ncommand_line   : /home/skaramcheti/.virtualenvs/afl/bin/afl-unix/afl-fuzz -i /dev/shm/work/Snail_Mail/input -o /dev/shm/work/Snail_Mail/sync -m 4G -Q -M fuzzer-master -x /dev/shm/work/Snail_Mail/Snail_Mail.dict -- data/linux/processed-challenges/Snail_Mail/bin/Snail_Mail\n'
p65
I0
tp66
a(I3960
S'start_time     : 1500003937\nlast_update    : 1500007905\nfuzzer_pid     : 13105\ncycles_done    : 2\nexecs_done     : 5175797\nexecs_per_sec  : 1461.26\npaths_total    : 246\npaths_favored  : 56\npaths_found    : 245\npaths_imported : 0\nmax_depth      : 7\ncur_path       : 45\npending_favs   : 0\npending_total  : 125\nvariable_paths : 0\nbitmap_cvg     : 0.89%\nunique_crashes : 0\nunique_hangs   : 1\nlast_path      : 1500007662\nlast_crash     : 0\nlast_hang      : 1500004836\nexec_timeout   : 20\nafl_banner     : fuzzer-master\nafl_version    : 1.85b\ncommand_line   : /home/skaramcheti/.virtualenvs/afl/bin/afl-unix/afl-fuzz -i /dev/shm/work/Snail_Mail/input -o /dev/shm/work/Snail_Mail/sync -m 4G -Q -M fuzzer-master -x /dev/shm/work/Snail_Mail/Snail_Mail.dict -- data/linux/processed-challenges/Snail_Mail/bin/Snail_Mail\n'
p67
I0
tp68
a(I4080
S'start_time     : 1500003937\nlast_update    : 1500008025\nfuzzer_pid     : 13105\ncycles_done    : 2\nexecs_done     : 5343153\nexecs_per_sec  : 1295.25\npaths_total    : 246\npaths_favored  : 57\npaths_found    : 245\npaths_imported : 0\nmax_depth      : 7\ncur_path       : 109\npending_favs   : 0\npending_total  : 120\nvariable_paths : 0\nbitmap_cvg     : 0.89%\nunique_crashes : 0\nunique_hangs   : 1\nlast_path      : 1500007662\nlast_crash     : 0\nlast_hang      : 1500004836\nexec_timeout   : 20\nafl_banner     : fuzzer-master\nafl_version    : 1.85b\ncommand_line   : /home/skaramcheti/.virtualenvs/afl/bin/afl-unix/afl-fuzz -i /dev/shm/work/Snail_Mail/input -o /dev/shm/work/Snail_Mail/sync -m 4G -Q -M fuzzer-master -x /dev/shm/work/Snail_Mail/Snail_Mail.dict -- data/linux/processed-challenges/Snail_Mail/bin/Snail_Mail\n'
p69
I0
tp70
a(I4200
S'start_time     : 1500003937\nlast_update    : 1500008145\nfuzzer_pid     : 13105\ncycles_done    : 2\nexecs_done     : 5503410\nexecs_per_sec  : 1241.69\npaths_total    : 247\npaths_favored  : 57\npaths_found    : 246\npaths_imported : 0\nmax_depth      : 7\ncur_path       : 145\npending_favs   : 0\npending_total  : 114\nvariable_paths : 0\nbitmap_cvg     : 0.89%\nunique_crashes : 0\nunique_hangs   : 1\nlast_path      : 1500008078\nlast_crash     : 0\nlast_hang      : 1500004836\nexec_timeout   : 20\nafl_banner     : fuzzer-master\nafl_version    : 1.85b\ncommand_line   : /home/skaramcheti/.virtualenvs/afl/bin/afl-unix/afl-fuzz -i /dev/shm/work/Snail_Mail/input -o /dev/shm/work/Snail_Mail/sync -m 4G -Q -M fuzzer-master -x /dev/shm/work/Snail_Mail/Snail_Mail.dict -- data/linux/processed-challenges/Snail_Mail/bin/Snail_Mail\n'
p71
I1
tp72
a(I4320
S'start_time     : 1500003937\nlast_update    : 1500008265\nfuzzer_pid     : 13105\ncycles_done    : 2\nexecs_done     : 5659502\nexecs_per_sec  : 1281.65\npaths_total    : 248\npaths_favored  : 57\npaths_found    : 247\npaths_imported : 0\nmax_depth      : 7\ncur_path       : 166\npending_favs   : 0\npending_total  : 112\nvariable_paths : 0\nbitmap_cvg     : 0.89%\nunique_crashes : 0\nunique_hangs   : 1\nlast_path      : 1500008164\nlast_crash     : 0\nlast_hang      : 1500004836\nexec_timeout   : 20\nafl_banner     : fuzzer-master\nafl_version    : 1.85b\ncommand_line   : /home/skaramcheti/.virtualenvs/afl/bin/afl-unix/afl-fuzz -i /dev/shm/work/Snail_Mail/input -o /dev/shm/work/Snail_Mail/sync -m 4G -Q -M fuzzer-master -x /dev/shm/work/Snail_Mail/Snail_Mail.dict -- data/linux/processed-challenges/Snail_Mail/bin/Snail_Mail\n'
p73
I1
tp74
a(I4440
S'start_time     : 1500003937\nlast_update    : 1500008385\nfuzzer_pid     : 13105\ncycles_done    : 2\nexecs_done     : 5822359\nexecs_per_sec  : 1325.24\npaths_total    : 250\npaths_favored  : 57\npaths_found    : 249\npaths_imported : 0\nmax_depth      : 7\ncur_path       : 184\npending_favs   : 0\npending_total  : 111\nvariable_paths : 0\nbitmap_cvg     : 0.89%\nunique_crashes : 0\nunique_hangs   : 1\nlast_path      : 1500008306\nlast_crash     : 0\nlast_hang      : 1500004836\nexec_timeout   : 20\nafl_banner     : fuzzer-master\nafl_version    : 1.85b\ncommand_line   : /home/skaramcheti/.virtualenvs/afl/bin/afl-unix/afl-fuzz -i /dev/shm/work/Snail_Mail/input -o /dev/shm/work/Snail_Mail/sync -m 4G -Q -M fuzzer-master -x /dev/shm/work/Snail_Mail/Snail_Mail.dict -- data/linux/processed-challenges/Snail_Mail/bin/Snail_Mail\n'
p75
I2
tp76
a(I4560
S'start_time     : 1500003937\nlast_update    : 1500008505\nfuzzer_pid     : 13105\ncycles_done    : 2\nexecs_done     : 5973149\nexecs_per_sec  : 987.92\npaths_total    : 250\npaths_favored  : 57\npaths_found    : 249\npaths_imported : 0\nmax_depth      : 7\ncur_path       : 208\npending_favs   : 0\npending_total  : 108\nvariable_paths : 0\nbitmap_cvg     : 0.89%\nunique_crashes : 0\nunique_hangs   : 1\nlast_path      : 1500008306\nlast_crash     : 0\nlast_hang      : 1500004836\nexec_timeout   : 20\nafl_banner     : fuzzer-master\nafl_version    : 1.85b\ncommand_line   : /home/skaramcheti/.virtualenvs/afl/bin/afl-unix/afl-fuzz -i /dev/shm/work/Snail_Mail/input -o /dev/shm/work/Snail_Mail/sync -m 4G -Q -M fuzzer-master -x /dev/shm/work/Snail_Mail/Snail_Mail.dict -- data/linux/processed-challenges/Snail_Mail/bin/Snail_Mail\n'
p77
I0
tp78
a(I4680
S'start_time     : 1500003937\nlast_update    : 1500008626\nfuzzer_pid     : 13105\ncycles_done    : 2\nexecs_done     : 6115604\nexecs_per_sec  : 1241.13\npaths_total    : 254\npaths_favored  : 57\npaths_found    : 253\npaths_imported : 0\nmax_depth      : 7\ncur_path       : 220\npending_favs   : 0\npending_total  : 110\nvariable_paths : 0\nbitmap_cvg     : 0.92%\nunique_crashes : 0\nunique_hangs   : 1\nlast_path      : 1500008584\nlast_crash     : 0\nlast_hang      : 1500004836\nexec_timeout   : 20\nafl_banner     : fuzzer-master\nafl_version    : 1.85b\ncommand_line   : /home/skaramcheti/.virtualenvs/afl/bin/afl-unix/afl-fuzz -i /dev/shm/work/Snail_Mail/input -o /dev/shm/work/Snail_Mail/sync -m 4G -Q -M fuzzer-master -x /dev/shm/work/Snail_Mail/Snail_Mail.dict -- data/linux/processed-challenges/Snail_Mail/bin/Snail_Mail\n'
p79
I4
tp80
a(I4800
S'start_time     : 1500003937\nlast_update    : 1500008746\nfuzzer_pid     : 13105\ncycles_done    : 2\nexecs_done     : 6182109\nexecs_per_sec  : 245.61\npaths_total    : 256\npaths_favored  : 59\npaths_found    : 255\npaths_imported : 0\nmax_depth      : 7\ncur_path       : 250\npending_favs   : 2\npending_total  : 111\nvariable_paths : 0\nbitmap_cvg     : 0.92%\nunique_crashes : 0\nunique_hangs   : 1\nlast_path      : 1500008717\nlast_crash     : 0\nlast_hang      : 1500004836\nexec_timeout   : 20\nafl_banner     : fuzzer-master\nafl_version    : 1.85b\ncommand_line   : /home/skaramcheti/.virtualenvs/afl/bin/afl-unix/afl-fuzz -i /dev/shm/work/Snail_Mail/input -o /dev/shm/work/Snail_Mail/sync -m 4G -Q -M fuzzer-master -x /dev/shm/work/Snail_Mail/Snail_Mail.dict -- data/linux/processed-challenges/Snail_Mail/bin/Snail_Mail\n'
p81
I2
tp82
a(I4920
S'start_time     : 1500003937\nlast_update    : 1500008866\nfuzzer_pid     : 13105\ncycles_done    : 2\nexecs_done     : 6211213\nexecs_per_sec  : 236.15\npaths_total    : 256\npaths_favored  : 59\npaths_found    : 255\npaths_imported : 0\nmax_depth      : 7\ncur_path       : 250\npending_favs   : 2\npending_total  : 111\nvariable_paths : 0\nbitmap_cvg     : 0.92%\nunique_crashes : 0\nunique_hangs   : 1\nlast_path      : 1500008717\nlast_crash     : 0\nlast_hang      : 1500004836\nexec_timeout   : 20\nafl_banner     : fuzzer-master\nafl_version    : 1.85b\ncommand_line   : /home/skaramcheti/.virtualenvs/afl/bin/afl-unix/afl-fuzz -i /dev/shm/work/Snail_Mail/input -o /dev/shm/work/Snail_Mail/sync -m 4G -Q -M fuzzer-master -x /dev/shm/work/Snail_Mail/Snail_Mail.dict -- data/linux/processed-challenges/Snail_Mail/bin/Snail_Mail\n'
p83
I0
tp84
a(I5040
S'start_time     : 1500003937\nlast_update    : 1500008986\nfuzzer_pid     : 13105\ncycles_done    : 2\nexecs_done     : 6240405\nexecs_per_sec  : 243.66\npaths_total    : 256\npaths_favored  : 59\npaths_found    : 255\npaths_imported : 0\nmax_depth      : 7\ncur_path       : 250\npending_favs   : 2\npending_total  : 111\nvariable_paths : 0\nbitmap_cvg     : 0.92%\nunique_crashes : 0\nunique_hangs   : 1\nlast_path      : 1500008717\nlast_crash     : 0\nlast_hang      : 1500004836\nexec_timeout   : 20\nafl_banner     : fuzzer-master\nafl_version    : 1.85b\ncommand_line   : /home/skaramcheti/.virtualenvs/afl/bin/afl-unix/afl-fuzz -i /dev/shm/work/Snail_Mail/input -o /dev/shm/work/Snail_Mail/sync -m 4G -Q -M fuzzer-master -x /dev/shm/work/Snail_Mail/Snail_Mail.dict -- data/linux/processed-challenges/Snail_Mail/bin/Snail_Mail\n'
p85
I0
tp86
a(I5160
S'start_time     : 1500003937\nlast_update    : 1500009106\nfuzzer_pid     : 13105\ncycles_done    : 2\nexecs_done     : 6269409\nexecs_per_sec  : 241.18\npaths_total    : 256\npaths_favored  : 59\npaths_found    : 255\npaths_imported : 0\nmax_depth      : 7\ncur_path       : 250\npending_favs   : 2\npending_total  : 111\nvariable_paths : 0\nbitmap_cvg     : 0.92%\nunique_crashes : 0\nunique_hangs   : 1\nlast_path      : 1500008717\nlast_crash     : 0\nlast_hang      : 1500004836\nexec_timeout   : 20\nafl_banner     : fuzzer-master\nafl_version    : 1.85b\ncommand_line   : /home/skaramcheti/.virtualenvs/afl/bin/afl-unix/afl-fuzz -i /dev/shm/work/Snail_Mail/input -o /dev/shm/work/Snail_Mail/sync -m 4G -Q -M fuzzer-master -x /dev/shm/work/Snail_Mail/Snail_Mail.dict -- data/linux/processed-challenges/Snail_Mail/bin/Snail_Mail\n'
p87
I0
tp88
a(I5280
S'start_time     : 1500003937\nlast_update    : 1500009226\nfuzzer_pid     : 13105\ncycles_done    : 2\nexecs_done     : 6298641\nexecs_per_sec  : 245.61\npaths_total    : 256\npaths_favored  : 59\npaths_found    : 255\npaths_imported : 0\nmax_depth      : 7\ncur_path       : 250\npending_favs   : 2\npending_total  : 111\nvariable_paths : 0\nbitmap_cvg     : 0.92%\nunique_crashes : 0\nunique_hangs   : 1\nlast_path      : 1500008717\nlast_crash     : 0\nlast_hang      : 1500004836\nexec_timeout   : 20\nafl_banner     : fuzzer-master\nafl_version    : 1.85b\ncommand_line   : /home/skaramcheti/.virtualenvs/afl/bin/afl-unix/afl-fuzz -i /dev/shm/work/Snail_Mail/input -o /dev/shm/work/Snail_Mail/sync -m 4G -Q -M fuzzer-master -x /dev/shm/work/Snail_Mail/Snail_Mail.dict -- data/linux/processed-challenges/Snail_Mail/bin/Snail_Mail\n'
p89
I0
tp90
a(I5400
S'start_time     : 1500003937\nlast_update    : 1500009346\nfuzzer_pid     : 13105\ncycles_done    : 2\nexecs_done     : 6327657\nexecs_per_sec  : 246.16\npaths_total    : 256\npaths_favored  : 59\npaths_found    : 255\npaths_imported : 0\nmax_depth      : 7\ncur_path       : 250\npending_favs   : 2\npending_total  : 111\nvariable_paths : 0\nbitmap_cvg     : 0.92%\nunique_crashes : 0\nunique_hangs   : 1\nlast_path      : 1500008717\nlast_crash     : 0\nlast_hang      : 1500004836\nexec_timeout   : 20\nafl_banner     : fuzzer-master\nafl_version    : 1.85b\ncommand_line   : /home/skaramcheti/.virtualenvs/afl/bin/afl-unix/afl-fuzz -i /dev/shm/work/Snail_Mail/input -o /dev/shm/work/Snail_Mail/sync -m 4G -Q -M fuzzer-master -x /dev/shm/work/Snail_Mail/Snail_Mail.dict -- data/linux/processed-challenges/Snail_Mail/bin/Snail_Mail\n'
p91
I0
tp92
a(I5520
S'start_time     : 1500003937\nlast_update    : 1500009467\nfuzzer_pid     : 13105\ncycles_done    : 2\nexecs_done     : 6356937\nexecs_per_sec  : 241.69\npaths_total    : 256\npaths_favored  : 59\npaths_found    : 255\npaths_imported : 0\nmax_depth      : 7\ncur_path       : 250\npending_favs   : 2\npending_total  : 111\nvariable_paths : 0\nbitmap_cvg     : 0.92%\nunique_crashes : 0\nunique_hangs   : 1\nlast_path      : 1500008717\nlast_crash     : 0\nlast_hang      : 1500004836\nexec_timeout   : 20\nafl_banner     : fuzzer-master\nafl_version    : 1.85b\ncommand_line   : /home/skaramcheti/.virtualenvs/afl/bin/afl-unix/afl-fuzz -i /dev/shm/work/Snail_Mail/input -o /dev/shm/work/Snail_Mail/sync -m 4G -Q -M fuzzer-master -x /dev/shm/work/Snail_Mail/Snail_Mail.dict -- data/linux/processed-challenges/Snail_Mail/bin/Snail_Mail\n'
p93
I0
tp94
a(I5640
S'start_time     : 1500003937\nlast_update    : 1500009587\nfuzzer_pid     : 13105\ncycles_done    : 2\nexecs_done     : 6386132\nexecs_per_sec  : 246.23\npaths_total    : 256\npaths_favored  : 59\npaths_found    : 255\npaths_imported : 0\nmax_depth      : 7\ncur_path       : 250\npending_favs   : 2\npending_total  : 111\nvariable_paths : 0\nbitmap_cvg     : 0.92%\nunique_crashes : 0\nunique_hangs   : 1\nlast_path      : 1500008717\nlast_crash     : 0\nlast_hang      : 1500004836\nexec_timeout   : 20\nafl_banner     : fuzzer-master\nafl_version    : 1.85b\ncommand_line   : /home/skaramcheti/.virtualenvs/afl/bin/afl-unix/afl-fuzz -i /dev/shm/work/Snail_Mail/input -o /dev/shm/work/Snail_Mail/sync -m 4G -Q -M fuzzer-master -x /dev/shm/work/Snail_Mail/Snail_Mail.dict -- data/linux/processed-challenges/Snail_Mail/bin/Snail_Mail\n'
p95
I0
tp96
a(I5760
S'start_time     : 1500003937\nlast_update    : 1500009707\nfuzzer_pid     : 13105\ncycles_done    : 2\nexecs_done     : 6415266\nexecs_per_sec  : 240.31\npaths_total    : 256\npaths_favored  : 59\npaths_found    : 255\npaths_imported : 0\nmax_depth      : 7\ncur_path       : 250\npending_favs   : 2\npending_total  : 111\nvariable_paths : 0\nbitmap_cvg     : 0.92%\nunique_crashes : 0\nunique_hangs   : 1\nlast_path      : 1500008717\nlast_crash     : 0\nlast_hang      : 1500004836\nexec_timeout   : 20\nafl_banner     : fuzzer-master\nafl_version    : 1.85b\ncommand_line   : /home/skaramcheti/.virtualenvs/afl/bin/afl-unix/afl-fuzz -i /dev/shm/work/Snail_Mail/input -o /dev/shm/work/Snail_Mail/sync -m 4G -Q -M fuzzer-master -x /dev/shm/work/Snail_Mail/Snail_Mail.dict -- data/linux/processed-challenges/Snail_Mail/bin/Snail_Mail\n'
p97
I0
tp98
a(I5880
S'start_time     : 1500003937\nlast_update    : 1500009827\nfuzzer_pid     : 13105\ncycles_done    : 2\nexecs_done     : 6444572\nexecs_per_sec  : 248.37\npaths_total    : 256\npaths_favored  : 59\npaths_found    : 255\npaths_imported : 0\nmax_depth      : 7\ncur_path       : 250\npending_favs   : 2\npending_total  : 111\nvariable_paths : 0\nbitmap_cvg     : 0.92%\nunique_crashes : 0\nunique_hangs   : 1\nlast_path      : 1500008717\nlast_crash     : 0\nlast_hang      : 1500004836\nexec_timeout   : 20\nafl_banner     : fuzzer-master\nafl_version    : 1.85b\ncommand_line   : /home/skaramcheti/.virtualenvs/afl/bin/afl-unix/afl-fuzz -i /dev/shm/work/Snail_Mail/input -o /dev/shm/work/Snail_Mail/sync -m 4G -Q -M fuzzer-master -x /dev/shm/work/Snail_Mail/Snail_Mail.dict -- data/linux/processed-challenges/Snail_Mail/bin/Snail_Mail\n'
p99
I0
tp100
a(I6000
S'start_time     : 1500003937\nlast_update    : 1500009947\nfuzzer_pid     : 13105\ncycles_done    : 2\nexecs_done     : 6477445\nexecs_per_sec  : 306.90\npaths_total    : 273\npaths_favored  : 59\npaths_found    : 272\npaths_imported : 0\nmax_depth      : 7\ncur_path       : 250\npending_favs   : 2\npending_total  : 128\nvariable_paths : 0\nbitmap_cvg     : 0.93%\nunique_crashes : 0\nunique_hangs   : 1\nlast_path      : 1500009935\nlast_crash     : 0\nlast_hang      : 1500004836\nexec_timeout   : 20\nafl_banner     : fuzzer-master\nafl_version    : 1.85b\ncommand_line   : /home/skaramcheti/.virtualenvs/afl/bin/afl-unix/afl-fuzz -i /dev/shm/work/Snail_Mail/input -o /dev/shm/work/Snail_Mail/sync -m 4G -Q -M fuzzer-master -x /dev/shm/work/Snail_Mail/Snail_Mail.dict -- data/linux/processed-challenges/Snail_Mail/bin/Snail_Mail\n'
p101
I17
tp102
a(I6120
S'start_time     : 1500003937\nlast_update    : 1500010068\nfuzzer_pid     : 13105\ncycles_done    : 2\nexecs_done     : 6513477\nexecs_per_sec  : 297.06\npaths_total    : 276\npaths_favored  : 59\npaths_found    : 275\npaths_imported : 0\nmax_depth      : 7\ncur_path       : 250\npending_favs   : 2\npending_total  : 131\nvariable_paths : 0\nbitmap_cvg     : 0.93%\nunique_crashes : 0\nunique_hangs   : 1\nlast_path      : 1500010052\nlast_crash     : 0\nlast_hang      : 1500004836\nexec_timeout   : 20\nafl_banner     : fuzzer-master\nafl_version    : 1.85b\ncommand_line   : /home/skaramcheti/.virtualenvs/afl/bin/afl-unix/afl-fuzz -i /dev/shm/work/Snail_Mail/input -o /dev/shm/work/Snail_Mail/sync -m 4G -Q -M fuzzer-master -x /dev/shm/work/Snail_Mail/Snail_Mail.dict -- data/linux/processed-challenges/Snail_Mail/bin/Snail_Mail\n'
p103
I3
tp104
a(I6240
S'start_time     : 1500003937\nlast_update    : 1500010188\nfuzzer_pid     : 13105\ncycles_done    : 2\nexecs_done     : 6549397\nexecs_per_sec  : 298.39\npaths_total    : 277\npaths_favored  : 59\npaths_found    : 276\npaths_imported : 0\nmax_depth      : 7\ncur_path       : 250\npending_favs   : 2\npending_total  : 132\nvariable_paths : 0\nbitmap_cvg     : 0.93%\nunique_crashes : 0\nunique_hangs   : 1\nlast_path      : 1500010145\nlast_crash     : 0\nlast_hang      : 1500004836\nexec_timeout   : 20\nafl_banner     : fuzzer-master\nafl_version    : 1.85b\ncommand_line   : /home/skaramcheti/.virtualenvs/afl/bin/afl-unix/afl-fuzz -i /dev/shm/work/Snail_Mail/input -o /dev/shm/work/Snail_Mail/sync -m 4G -Q -M fuzzer-master -x /dev/shm/work/Snail_Mail/Snail_Mail.dict -- data/linux/processed-challenges/Snail_Mail/bin/Snail_Mail\n'
p105
I1
tp106
a(I6360
S'start_time     : 1500003937\nlast_update    : 1500010308\nfuzzer_pid     : 13105\ncycles_done    : 2\nexecs_done     : 6585864\nexecs_per_sec  : 312.24\npaths_total    : 277\npaths_favored  : 59\npaths_found    : 276\npaths_imported : 0\nmax_depth      : 7\ncur_path       : 267\npending_favs   : 2\npending_total  : 131\nvariable_paths : 0\nbitmap_cvg     : 0.93%\nunique_crashes : 0\nunique_hangs   : 1\nlast_path      : 1500010145\nlast_crash     : 0\nlast_hang      : 1500004836\nexec_timeout   : 20\nafl_banner     : fuzzer-master\nafl_version    : 1.85b\ncommand_line   : /home/skaramcheti/.virtualenvs/afl/bin/afl-unix/afl-fuzz -i /dev/shm/work/Snail_Mail/input -o /dev/shm/work/Snail_Mail/sync -m 4G -Q -M fuzzer-master -x /dev/shm/work/Snail_Mail/Snail_Mail.dict -- data/linux/processed-challenges/Snail_Mail/bin/Snail_Mail\n'
p107
I0
tp108
a(I6480
S'start_time     : 1500003937\nlast_update    : 1500010428\nfuzzer_pid     : 13105\ncycles_done    : 2\nexecs_done     : 6624089\nexecs_per_sec  : 315.58\npaths_total    : 277\npaths_favored  : 59\npaths_found    : 276\npaths_imported : 0\nmax_depth      : 7\ncur_path       : 267\npending_favs   : 2\npending_total  : 131\nvariable_paths : 0\nbitmap_cvg     : 0.93%\nunique_crashes : 0\nunique_hangs   : 1\nlast_path      : 1500010145\nlast_crash     : 0\nlast_hang      : 1500004836\nexec_timeout   : 20\nafl_banner     : fuzzer-master\nafl_version    : 1.85b\ncommand_line   : /home/skaramcheti/.virtualenvs/afl/bin/afl-unix/afl-fuzz -i /dev/shm/work/Snail_Mail/input -o /dev/shm/work/Snail_Mail/sync -m 4G -Q -M fuzzer-master -x /dev/shm/work/Snail_Mail/Snail_Mail.dict -- data/linux/processed-challenges/Snail_Mail/bin/Snail_Mail\n'
p109
I0
tp110
a(I6600
S'start_time     : 1500003937\nlast_update    : 1500010488\nfuzzer_pid     : 13105\ncycles_done    : 2\nexecs_done     : 6643228\nexecs_per_sec  : 318.57\npaths_total    : 277\npaths_favored  : 59\npaths_found    : 276\npaths_imported : 0\nmax_depth      : 7\ncur_path       : 267\npending_favs   : 2\npending_total  : 131\nvariable_paths : 0\nbitmap_cvg     : 0.93%\nunique_crashes : 0\nunique_hangs   : 1\nlast_path      : 1500010145\nlast_crash     : 0\nlast_hang      : 1500004836\nexec_timeout   : 20\nafl_banner     : fuzzer-master\nafl_version    : 1.85b\ncommand_line   : /home/skaramcheti/.virtualenvs/afl/bin/afl-unix/afl-fuzz -i /dev/shm/work/Snail_Mail/input -o /dev/shm/work/Snail_Mail/sync -m 4G -Q -M fuzzer-master -x /dev/shm/work/Snail_Mail/Snail_Mail.dict -- data/linux/processed-challenges/Snail_Mail/bin/Snail_Mail\n'
p111
I0
tp112
a(I6720
S'start_time     : 1500003937\nlast_update    : 1500010609\nfuzzer_pid     : 13105\ncycles_done    : 2\nexecs_done     : 6681604\nexecs_per_sec  : 319.02\npaths_total    : 277\npaths_favored  : 59\npaths_found    : 276\npaths_imported : 0\nmax_depth      : 7\ncur_path       : 267\npending_favs   : 2\npending_total  : 131\nvariable_paths : 0\nbitmap_cvg     : 0.93%\nunique_crashes : 0\nunique_hangs   : 1\nlast_path      : 1500010145\nlast_crash     : 0\nlast_hang      : 1500004836\nexec_timeout   : 20\nafl_banner     : fuzzer-master\nafl_version    : 1.85b\ncommand_line   : /home/skaramcheti/.virtualenvs/afl/bin/afl-unix/afl-fuzz -i /dev/shm/work/Snail_Mail/input -o /dev/shm/work/Snail_Mail/sync -m 4G -Q -M fuzzer-master -x /dev/shm/work/Snail_Mail/Snail_Mail.dict -- data/linux/processed-challenges/Snail_Mail/bin/Snail_Mail\n'
p113
I0
tp114
a(I6840
S'start_time     : 1500003937\nlast_update    : 1500010729\nfuzzer_pid     : 13105\ncycles_done    : 2\nexecs_done     : 6720171\nexecs_per_sec  : 321.29\npaths_total    : 277\npaths_favored  : 59\npaths_found    : 276\npaths_imported : 0\nmax_depth      : 7\ncur_path       : 267\npending_favs   : 2\npending_total  : 131\nvariable_paths : 0\nbitmap_cvg     : 0.93%\nunique_crashes : 0\nunique_hangs   : 1\nlast_path      : 1500010145\nlast_crash     : 0\nlast_hang      : 1500004836\nexec_timeout   : 20\nafl_banner     : fuzzer-master\nafl_version    : 1.85b\ncommand_line   : /home/skaramcheti/.virtualenvs/afl/bin/afl-unix/afl-fuzz -i /dev/shm/work/Snail_Mail/input -o /dev/shm/work/Snail_Mail/sync -m 4G -Q -M fuzzer-master -x /dev/shm/work/Snail_Mail/Snail_Mail.dict -- data/linux/processed-challenges/Snail_Mail/bin/Snail_Mail\n'
p115
I0
tp116
a(I6960
S'start_time     : 1500003937\nlast_update    : 1500010849\nfuzzer_pid     : 13105\ncycles_done    : 2\nexecs_done     : 6758390\nexecs_per_sec  : 325.85\npaths_total    : 277\npaths_favored  : 59\npaths_found    : 276\npaths_imported : 0\nmax_depth      : 7\ncur_path       : 267\npending_favs   : 2\npending_total  : 131\nvariable_paths : 0\nbitmap_cvg     : 0.93%\nunique_crashes : 0\nunique_hangs   : 1\nlast_path      : 1500010145\nlast_crash     : 0\nlast_hang      : 1500004836\nexec_timeout   : 20\nafl_banner     : fuzzer-master\nafl_version    : 1.85b\ncommand_line   : /home/skaramcheti/.virtualenvs/afl/bin/afl-unix/afl-fuzz -i /dev/shm/work/Snail_Mail/input -o /dev/shm/work/Snail_Mail/sync -m 4G -Q -M fuzzer-master -x /dev/shm/work/Snail_Mail/Snail_Mail.dict -- data/linux/processed-challenges/Snail_Mail/bin/Snail_Mail\n'
p117
I0
tp118
a(I7080
S'start_time     : 1500003937\nlast_update    : 1500010969\nfuzzer_pid     : 13105\ncycles_done    : 2\nexecs_done     : 6796955\nexecs_per_sec  : 322.50\npaths_total    : 277\npaths_favored  : 59\npaths_found    : 276\npaths_imported : 0\nmax_depth      : 7\ncur_path       : 267\npending_favs   : 2\npending_total  : 131\nvariable_paths : 0\nbitmap_cvg     : 0.93%\nunique_crashes : 0\nunique_hangs   : 1\nlast_path      : 1500010145\nlast_crash     : 0\nlast_hang      : 1500004836\nexec_timeout   : 20\nafl_banner     : fuzzer-master\nafl_version    : 1.85b\ncommand_line   : /home/skaramcheti/.virtualenvs/afl/bin/afl-unix/afl-fuzz -i /dev/shm/work/Snail_Mail/input -o /dev/shm/work/Snail_Mail/sync -m 4G -Q -M fuzzer-master -x /dev/shm/work/Snail_Mail/Snail_Mail.dict -- data/linux/processed-challenges/Snail_Mail/bin/Snail_Mail\n'
p119
I0
tp120
a(I7200
S'start_time     : 1500003937\nlast_update    : 1500011089\nfuzzer_pid     : 13105\ncycles_done    : 2\nexecs_done     : 6838606\nexecs_per_sec  : 316.46\npaths_total    : 277\npaths_favored  : 59\npaths_found    : 276\npaths_imported : 0\nmax_depth      : 7\ncur_path       : 272\npending_favs   : 1\npending_total  : 130\nvariable_paths : 0\nbitmap_cvg     : 0.93%\nunique_crashes : 0\nunique_hangs   : 1\nlast_path      : 1500010145\nlast_crash     : 0\nlast_hang      : 1500004836\nexec_timeout   : 20\nafl_banner     : fuzzer-master\nafl_version    : 1.85b\ncommand_line   : /home/skaramcheti/.virtualenvs/afl/bin/afl-unix/afl-fuzz -i /dev/shm/work/Snail_Mail/input -o /dev/shm/work/Snail_Mail/sync -m 4G -Q -M fuzzer-master -x /dev/shm/work/Snail_Mail/Snail_Mail.dict -- data/linux/processed-challenges/Snail_Mail/bin/Snail_Mail\n'
p121
I0
tp122
a(I7320
S'start_time     : 1500003937\nlast_update    : 1500011210\nfuzzer_pid     : 13105\ncycles_done    : 2\nexecs_done     : 6875031\nexecs_per_sec  : 306.88\npaths_total    : 277\npaths_favored  : 59\npaths_found    : 276\npaths_imported : 0\nmax_depth      : 7\ncur_path       : 272\npending_favs   : 1\npending_total  : 130\nvariable_paths : 0\nbitmap_cvg     : 0.93%\nunique_crashes : 0\nunique_hangs   : 1\nlast_path      : 1500010145\nlast_crash     : 0\nlast_hang      : 1500004836\nexec_timeout   : 20\nafl_banner     : fuzzer-master\nafl_version    : 1.85b\ncommand_line   : /home/skaramcheti/.virtualenvs/afl/bin/afl-unix/afl-fuzz -i /dev/shm/work/Snail_Mail/input -o /dev/shm/work/Snail_Mail/sync -m 4G -Q -M fuzzer-master -x /dev/shm/work/Snail_Mail/Snail_Mail.dict -- data/linux/processed-challenges/Snail_Mail/bin/Snail_Mail\n'
p123
I0
tp124
a(I7440
S'start_time     : 1500003937\nlast_update    : 1500011330\nfuzzer_pid     : 13105\ncycles_done    : 2\nexecs_done     : 6911816\nexecs_per_sec  : 312.52\npaths_total    : 278\npaths_favored  : 59\npaths_found    : 277\npaths_imported : 0\nmax_depth      : 7\ncur_path       : 272\npending_favs   : 1\npending_total  : 131\nvariable_paths : 0\nbitmap_cvg     : 0.93%\nunique_crashes : 0\nunique_hangs   : 1\nlast_path      : 1500011330\nlast_crash     : 0\nlast_hang      : 1500004836\nexec_timeout   : 20\nafl_banner     : fuzzer-master\nafl_version    : 1.85b\ncommand_line   : /home/skaramcheti/.virtualenvs/afl/bin/afl-unix/afl-fuzz -i /dev/shm/work/Snail_Mail/input -o /dev/shm/work/Snail_Mail/sync -m 4G -Q -M fuzzer-master -x /dev/shm/work/Snail_Mail/Snail_Mail.dict -- data/linux/processed-challenges/Snail_Mail/bin/Snail_Mail\n'
p125
I2
tp126
a(I7560
S'start_time     : 1500003937\nlast_update    : 1500011450\nfuzzer_pid     : 13105\ncycles_done    : 2\nexecs_done     : 6958414\nexecs_per_sec  : 388.42\npaths_total    : 279\npaths_favored  : 59\npaths_found    : 278\npaths_imported : 0\nmax_depth      : 7\ncur_path       : 272\npending_favs   : 1\npending_total  : 132\nvariable_paths : 0\nbitmap_cvg     : 0.93%\nunique_crashes : 0\nunique_hangs   : 1\nlast_path      : 1500011366\nlast_crash     : 0\nlast_hang      : 1500004836\nexec_timeout   : 20\nafl_banner     : fuzzer-master\nafl_version    : 1.85b\ncommand_line   : /home/skaramcheti/.virtualenvs/afl/bin/afl-unix/afl-fuzz -i /dev/shm/work/Snail_Mail/input -o /dev/shm/work/Snail_Mail/sync -m 4G -Q -M fuzzer-master -x /dev/shm/work/Snail_Mail/Snail_Mail.dict -- data/linux/processed-challenges/Snail_Mail/bin/Snail_Mail\n'
p127
I1
tp128
a(I7680
S'start_time     : 1500003937\nlast_update    : 1500011571\nfuzzer_pid     : 13105\ncycles_done    : 2\nexecs_done     : 7004995\nexecs_per_sec  : 399.44\npaths_total    : 280\npaths_favored  : 59\npaths_found    : 279\npaths_imported : 0\nmax_depth      : 7\ncur_path       : 272\npending_favs   : 1\npending_total  : 133\nvariable_paths : 0\nbitmap_cvg     : 0.93%\nunique_crashes : 0\nunique_hangs   : 1\nlast_path      : 1500011474\nlast_crash     : 0\nlast_hang      : 1500004836\nexec_timeout   : 20\nafl_banner     : fuzzer-master\nafl_version    : 1.85b\ncommand_line   : /home/skaramcheti/.virtualenvs/afl/bin/afl-unix/afl-fuzz -i /dev/shm/work/Snail_Mail/input -o /dev/shm/work/Snail_Mail/sync -m 4G -Q -M fuzzer-master -x /dev/shm/work/Snail_Mail/Snail_Mail.dict -- data/linux/processed-challenges/Snail_Mail/bin/Snail_Mail\n'
p129
I0
tp130
a(I7800
S'start_time     : 1500003937\nlast_update    : 1500011691\nfuzzer_pid     : 13105\ncycles_done    : 2\nexecs_done     : 7047481\nexecs_per_sec  : 305.74\npaths_total    : 280\npaths_favored  : 57\npaths_found    : 279\npaths_imported : 0\nmax_depth      : 7\ncur_path       : 277\npending_favs   : 1\npending_total  : 132\nvariable_paths : 0\nbitmap_cvg     : 0.93%\nunique_crashes : 0\nunique_hangs   : 1\nlast_path      : 1500011474\nlast_crash     : 0\nlast_hang      : 1500004836\nexec_timeout   : 20\nafl_banner     : fuzzer-master\nafl_version    : 1.85b\ncommand_line   : /home/skaramcheti/.virtualenvs/afl/bin/afl-unix/afl-fuzz -i /dev/shm/work/Snail_Mail/input -o /dev/shm/work/Snail_Mail/sync -m 4G -Q -M fuzzer-master -x /dev/shm/work/Snail_Mail/Snail_Mail.dict -- data/linux/processed-challenges/Snail_Mail/bin/Snail_Mail\n'
p131
I0
tp132
a(I7920
S'start_time     : 1500003937\nlast_update    : 1500011811\nfuzzer_pid     : 13105\ncycles_done    : 2\nexecs_done     : 7084264\nexecs_per_sec  : 308.17\npaths_total    : 280\npaths_favored  : 57\npaths_found    : 279\npaths_imported : 0\nmax_depth      : 7\ncur_path       : 277\npending_favs   : 1\npending_total  : 132\nvariable_paths : 0\nbitmap_cvg     : 0.93%\nunique_crashes : 0\nunique_hangs   : 1\nlast_path      : 1500011474\nlast_crash     : 0\nlast_hang      : 1500004836\nexec_timeout   : 20\nafl_banner     : fuzzer-master\nafl_version    : 1.85b\ncommand_line   : /home/skaramcheti/.virtualenvs/afl/bin/afl-unix/afl-fuzz -i /dev/shm/work/Snail_Mail/input -o /dev/shm/work/Snail_Mail/sync -m 4G -Q -M fuzzer-master -x /dev/shm/work/Snail_Mail/Snail_Mail.dict -- data/linux/processed-challenges/Snail_Mail/bin/Snail_Mail\n'
p133
I0
tp134
a(I8040
S'start_time     : 1500003937\nlast_update    : 1500011931\nfuzzer_pid     : 13105\ncycles_done    : 2\nexecs_done     : 7121139\nexecs_per_sec  : 305.12\npaths_total    : 280\npaths_favored  : 57\npaths_found    : 279\npaths_imported : 0\nmax_depth      : 7\ncur_path       : 277\npending_favs   : 1\npending_total  : 132\nvariable_paths : 0\nbitmap_cvg     : 0.93%\nunique_crashes : 0\nunique_hangs   : 1\nlast_path      : 1500011474\nlast_crash     : 0\nlast_hang      : 1500004836\nexec_timeout   : 20\nafl_banner     : fuzzer-master\nafl_version    : 1.85b\ncommand_line   : /home/skaramcheti/.virtualenvs/afl/bin/afl-unix/afl-fuzz -i /dev/shm/work/Snail_Mail/input -o /dev/shm/work/Snail_Mail/sync -m 4G -Q -M fuzzer-master -x /dev/shm/work/Snail_Mail/Snail_Mail.dict -- data/linux/processed-challenges/Snail_Mail/bin/Snail_Mail\n'
p135
I0
tp136
a(I8160
S'start_time     : 1500003937\nlast_update    : 1500012051\nfuzzer_pid     : 13105\ncycles_done    : 2\nexecs_done     : 7158246\nexecs_per_sec  : 306.20\npaths_total    : 280\npaths_favored  : 57\npaths_found    : 279\npaths_imported : 0\nmax_depth      : 7\ncur_path       : 277\npending_favs   : 1\npending_total  : 132\nvariable_paths : 0\nbitmap_cvg     : 0.93%\nunique_crashes : 0\nunique_hangs   : 1\nlast_path      : 1500011474\nlast_crash     : 0\nlast_hang      : 1500004836\nexec_timeout   : 20\nafl_banner     : fuzzer-master\nafl_version    : 1.85b\ncommand_line   : /home/skaramcheti/.virtualenvs/afl/bin/afl-unix/afl-fuzz -i /dev/shm/work/Snail_Mail/input -o /dev/shm/work/Snail_Mail/sync -m 4G -Q -M fuzzer-master -x /dev/shm/work/Snail_Mail/Snail_Mail.dict -- data/linux/processed-challenges/Snail_Mail/bin/Snail_Mail\n'
p137
I0
tp138
a(I8280
S'start_time     : 1500003937\nlast_update    : 1500012172\nfuzzer_pid     : 13105\ncycles_done    : 2\nexecs_done     : 7195296\nexecs_per_sec  : 307.84\npaths_total    : 280\npaths_favored  : 57\npaths_found    : 279\npaths_imported : 0\nmax_depth      : 7\ncur_path       : 277\npending_favs   : 1\npending_total  : 132\nvariable_paths : 0\nbitmap_cvg     : 0.93%\nunique_crashes : 0\nunique_hangs   : 1\nlast_path      : 1500011474\nlast_crash     : 0\nlast_hang      : 1500004836\nexec_timeout   : 20\nafl_banner     : fuzzer-master\nafl_version    : 1.85b\ncommand_line   : /home/skaramcheti/.virtualenvs/afl/bin/afl-unix/afl-fuzz -i /dev/shm/work/Snail_Mail/input -o /dev/shm/work/Snail_Mail/sync -m 4G -Q -M fuzzer-master -x /dev/shm/work/Snail_Mail/Snail_Mail.dict -- data/linux/processed-challenges/Snail_Mail/bin/Snail_Mail\n'
p139
I0
tp140
a(I8400
S'start_time     : 1500003937\nlast_update    : 1500012292\nfuzzer_pid     : 13105\ncycles_done    : 2\nexecs_done     : 7232553\nexecs_per_sec  : 313.12\npaths_total    : 280\npaths_favored  : 57\npaths_found    : 279\npaths_imported : 0\nmax_depth      : 7\ncur_path       : 277\npending_favs   : 1\npending_total  : 132\nvariable_paths : 0\nbitmap_cvg     : 0.93%\nunique_crashes : 0\nunique_hangs   : 1\nlast_path      : 1500011474\nlast_crash     : 0\nlast_hang      : 1500004836\nexec_timeout   : 20\nafl_banner     : fuzzer-master\nafl_version    : 1.85b\ncommand_line   : /home/skaramcheti/.virtualenvs/afl/bin/afl-unix/afl-fuzz -i /dev/shm/work/Snail_Mail/input -o /dev/shm/work/Snail_Mail/sync -m 4G -Q -M fuzzer-master -x /dev/shm/work/Snail_Mail/Snail_Mail.dict -- data/linux/processed-challenges/Snail_Mail/bin/Snail_Mail\n'
p141
I0
tp142
a(I8520
S'start_time     : 1500003937\nlast_update    : 1500012412\nfuzzer_pid     : 13105\ncycles_done    : 2\nexecs_done     : 7269525\nexecs_per_sec  : 308.46\npaths_total    : 280\npaths_favored  : 57\npaths_found    : 279\npaths_imported : 0\nmax_depth      : 7\ncur_path       : 277\npending_favs   : 1\npending_total  : 132\nvariable_paths : 0\nbitmap_cvg     : 0.93%\nunique_crashes : 0\nunique_hangs   : 1\nlast_path      : 1500011474\nlast_crash     : 0\nlast_hang      : 1500004836\nexec_timeout   : 20\nafl_banner     : fuzzer-master\nafl_version    : 1.85b\ncommand_line   : /home/skaramcheti/.virtualenvs/afl/bin/afl-unix/afl-fuzz -i /dev/shm/work/Snail_Mail/input -o /dev/shm/work/Snail_Mail/sync -m 4G -Q -M fuzzer-master -x /dev/shm/work/Snail_Mail/Snail_Mail.dict -- data/linux/processed-challenges/Snail_Mail/bin/Snail_Mail\n'
p143
I0
tp144
a(I8640
S'start_time     : 1500003937\nlast_update    : 1500012532\nfuzzer_pid     : 13105\ncycles_done    : 2\nexecs_done     : 7312950\nexecs_per_sec  : 389.32\npaths_total    : 281\npaths_favored  : 57\npaths_found    : 280\npaths_imported : 0\nmax_depth      : 8\ncur_path       : 277\npending_favs   : 1\npending_total  : 133\nvariable_paths : 0\nbitmap_cvg     : 0.93%\nunique_crashes : 0\nunique_hangs   : 1\nlast_path      : 1500012496\nlast_crash     : 0\nlast_hang      : 1500004836\nexec_timeout   : 20\nafl_banner     : fuzzer-master\nafl_version    : 1.85b\ncommand_line   : /home/skaramcheti/.virtualenvs/afl/bin/afl-unix/afl-fuzz -i /dev/shm/work/Snail_Mail/input -o /dev/shm/work/Snail_Mail/sync -m 4G -Q -M fuzzer-master -x /dev/shm/work/Snail_Mail/Snail_Mail.dict -- data/linux/processed-challenges/Snail_Mail/bin/Snail_Mail\n'
p145
I1
tp146
a(I8760
S'start_time     : 1500003937\nlast_update    : 1500012653\nfuzzer_pid     : 13105\ncycles_done    : 2\nexecs_done     : 7327872\nexecs_per_sec  : 113.94\npaths_total    : 281\npaths_favored  : 57\npaths_found    : 280\npaths_imported : 0\nmax_depth      : 8\ncur_path       : 278\npending_favs   : 0\npending_total  : 132\nvariable_paths : 0\nbitmap_cvg     : 0.93%\nunique_crashes : 0\nunique_hangs   : 1\nlast_path      : 1500012496\nlast_crash     : 0\nlast_hang      : 1500004836\nexec_timeout   : 20\nafl_banner     : fuzzer-master\nafl_version    : 1.85b\ncommand_line   : /home/skaramcheti/.virtualenvs/afl/bin/afl-unix/afl-fuzz -i /dev/shm/work/Snail_Mail/input -o /dev/shm/work/Snail_Mail/sync -m 4G -Q -M fuzzer-master -x /dev/shm/work/Snail_Mail/Snail_Mail.dict -- data/linux/processed-challenges/Snail_Mail/bin/Snail_Mail\n'
p147
I0
tp148
a(I8880
S'start_time     : 1500003937\nlast_update    : 1500012773\nfuzzer_pid     : 13105\ncycles_done    : 2\nexecs_done     : 7341730\nexecs_per_sec  : 117.90\npaths_total    : 281\npaths_favored  : 57\npaths_found    : 280\npaths_imported : 0\nmax_depth      : 8\ncur_path       : 278\npending_favs   : 0\npending_total  : 132\nvariable_paths : 0\nbitmap_cvg     : 0.93%\nunique_crashes : 0\nunique_hangs   : 1\nlast_path      : 1500012496\nlast_crash     : 0\nlast_hang      : 1500004836\nexec_timeout   : 20\nafl_banner     : fuzzer-master\nafl_version    : 1.85b\ncommand_line   : /home/skaramcheti/.virtualenvs/afl/bin/afl-unix/afl-fuzz -i /dev/shm/work/Snail_Mail/input -o /dev/shm/work/Snail_Mail/sync -m 4G -Q -M fuzzer-master -x /dev/shm/work/Snail_Mail/Snail_Mail.dict -- data/linux/processed-challenges/Snail_Mail/bin/Snail_Mail\n'
p149
I0
tp150
a(I9000
S'start_time     : 1500003937\nlast_update    : 1500012893\nfuzzer_pid     : 13105\ncycles_done    : 2\nexecs_done     : 7355576\nexecs_per_sec  : 116.13\npaths_total    : 281\npaths_favored  : 57\npaths_found    : 280\npaths_imported : 0\nmax_depth      : 8\ncur_path       : 278\npending_favs   : 0\npending_total  : 132\nvariable_paths : 0\nbitmap_cvg     : 0.93%\nunique_crashes : 0\nunique_hangs   : 1\nlast_path      : 1500012496\nlast_crash     : 0\nlast_hang      : 1500004836\nexec_timeout   : 20\nafl_banner     : fuzzer-master\nafl_version    : 1.85b\ncommand_line   : /home/skaramcheti/.virtualenvs/afl/bin/afl-unix/afl-fuzz -i /dev/shm/work/Snail_Mail/input -o /dev/shm/work/Snail_Mail/sync -m 4G -Q -M fuzzer-master -x /dev/shm/work/Snail_Mail/Snail_Mail.dict -- data/linux/processed-challenges/Snail_Mail/bin/Snail_Mail\n'
p151
I0
tp152
a(I9120
S'start_time     : 1500003937\nlast_update    : 1500013013\nfuzzer_pid     : 13105\ncycles_done    : 2\nexecs_done     : 7369528\nexecs_per_sec  : 117.84\npaths_total    : 281\npaths_favored  : 57\npaths_found    : 280\npaths_imported : 0\nmax_depth      : 8\ncur_path       : 278\npending_favs   : 0\npending_total  : 132\nvariable_paths : 0\nbitmap_cvg     : 0.93%\nunique_crashes : 0\nunique_hangs   : 1\nlast_path      : 1500012496\nlast_crash     : 0\nlast_hang      : 1500004836\nexec_timeout   : 20\nafl_banner     : fuzzer-master\nafl_version    : 1.85b\ncommand_line   : /home/skaramcheti/.virtualenvs/afl/bin/afl-unix/afl-fuzz -i /dev/shm/work/Snail_Mail/input -o /dev/shm/work/Snail_Mail/sync -m 4G -Q -M fuzzer-master -x /dev/shm/work/Snail_Mail/Snail_Mail.dict -- data/linux/processed-challenges/Snail_Mail/bin/Snail_Mail\n'
p153
I0
tp154
a(I9240
S'start_time     : 1500003937\nlast_update    : 1500013133\nfuzzer_pid     : 13105\ncycles_done    : 2\nexecs_done     : 7383356\nexecs_per_sec  : 111.24\npaths_total    : 281\npaths_favored  : 57\npaths_found    : 280\npaths_imported : 0\nmax_depth      : 8\ncur_path       : 278\npending_favs   : 0\npending_total  : 132\nvariable_paths : 0\nbitmap_cvg     : 0.93%\nunique_crashes : 0\nunique_hangs   : 2\nlast_path      : 1500012496\nlast_crash     : 0\nlast_hang      : 1500013113\nexec_timeout   : 20\nafl_banner     : fuzzer-master\nafl_version    : 1.85b\ncommand_line   : /home/skaramcheti/.virtualenvs/afl/bin/afl-unix/afl-fuzz -i /dev/shm/work/Snail_Mail/input -o /dev/shm/work/Snail_Mail/sync -m 4G -Q -M fuzzer-master -x /dev/shm/work/Snail_Mail/Snail_Mail.dict -- data/linux/processed-challenges/Snail_Mail/bin/Snail_Mail\n'
p155
I0
tp156
a(I9360
S'start_time     : 1500003937\nlast_update    : 1500013253\nfuzzer_pid     : 13105\ncycles_done    : 2\nexecs_done     : 7397262\nexecs_per_sec  : 115.50\npaths_total    : 281\npaths_favored  : 57\npaths_found    : 280\npaths_imported : 0\nmax_depth      : 8\ncur_path       : 278\npending_favs   : 0\npending_total  : 132\nvariable_paths : 0\nbitmap_cvg     : 0.93%\nunique_crashes : 0\nunique_hangs   : 2\nlast_path      : 1500012496\nlast_crash     : 0\nlast_hang      : 1500013113\nexec_timeout   : 20\nafl_banner     : fuzzer-master\nafl_version    : 1.85b\ncommand_line   : /home/skaramcheti/.virtualenvs/afl/bin/afl-unix/afl-fuzz -i /dev/shm/work/Snail_Mail/input -o /dev/shm/work/Snail_Mail/sync -m 4G -Q -M fuzzer-master -x /dev/shm/work/Snail_Mail/Snail_Mail.dict -- data/linux/processed-challenges/Snail_Mail/bin/Snail_Mail\n'
p157
I0
tp158
a(I9480
S'start_time     : 1500003937\nlast_update    : 1500013374\nfuzzer_pid     : 13105\ncycles_done    : 2\nexecs_done     : 7411219\nexecs_per_sec  : 117.26\npaths_total    : 281\npaths_favored  : 57\npaths_found    : 280\npaths_imported : 0\nmax_depth      : 8\ncur_path       : 278\npending_favs   : 0\npending_total  : 132\nvariable_paths : 0\nbitmap_cvg     : 0.93%\nunique_crashes : 0\nunique_hangs   : 2\nlast_path      : 1500012496\nlast_crash     : 0\nlast_hang      : 1500013113\nexec_timeout   : 20\nafl_banner     : fuzzer-master\nafl_version    : 1.85b\ncommand_line   : /home/skaramcheti/.virtualenvs/afl/bin/afl-unix/afl-fuzz -i /dev/shm/work/Snail_Mail/input -o /dev/shm/work/Snail_Mail/sync -m 4G -Q -M fuzzer-master -x /dev/shm/work/Snail_Mail/Snail_Mail.dict -- data/linux/processed-challenges/Snail_Mail/bin/Snail_Mail\n'
p159
I0
tp160
a(I9600
S'start_time     : 1500003937\nlast_update    : 1500013494\nfuzzer_pid     : 13105\ncycles_done    : 2\nexecs_done     : 7425085\nexecs_per_sec  : 117.16\npaths_total    : 281\npaths_favored  : 57\npaths_found    : 280\npaths_imported : 0\nmax_depth      : 8\ncur_path       : 278\npending_favs   : 0\npending_total  : 132\nvariable_paths : 0\nbitmap_cvg     : 0.93%\nunique_crashes : 0\nunique_hangs   : 2\nlast_path      : 1500012496\nlast_crash     : 0\nlast_hang      : 1500013113\nexec_timeout   : 20\nafl_banner     : fuzzer-master\nafl_version    : 1.85b\ncommand_line   : /home/skaramcheti/.virtualenvs/afl/bin/afl-unix/afl-fuzz -i /dev/shm/work/Snail_Mail/input -o /dev/shm/work/Snail_Mail/sync -m 4G -Q -M fuzzer-master -x /dev/shm/work/Snail_Mail/Snail_Mail.dict -- data/linux/processed-challenges/Snail_Mail/bin/Snail_Mail\n'
p161
I0
tp162
a(I9720
S'start_time     : 1500003937\nlast_update    : 1500013614\nfuzzer_pid     : 13105\ncycles_done    : 2\nexecs_done     : 7438991\nexecs_per_sec  : 116.38\npaths_total    : 281\npaths_favored  : 57\npaths_found    : 280\npaths_imported : 0\nmax_depth      : 8\ncur_path       : 278\npending_favs   : 0\npending_total  : 132\nvariable_paths : 0\nbitmap_cvg     : 0.93%\nunique_crashes : 0\nunique_hangs   : 2\nlast_path      : 1500012496\nlast_crash     : 0\nlast_hang      : 1500013113\nexec_timeout   : 20\nafl_banner     : fuzzer-master\nafl_version    : 1.85b\ncommand_line   : /home/skaramcheti/.virtualenvs/afl/bin/afl-unix/afl-fuzz -i /dev/shm/work/Snail_Mail/input -o /dev/shm/work/Snail_Mail/sync -m 4G -Q -M fuzzer-master -x /dev/shm/work/Snail_Mail/Snail_Mail.dict -- data/linux/processed-challenges/Snail_Mail/bin/Snail_Mail\n'
p163
I0
tp164
a(I9840
S'start_time     : 1500003937\nlast_update    : 1500013734\nfuzzer_pid     : 13105\ncycles_done    : 2\nexecs_done     : 7452883\nexecs_per_sec  : 115.17\npaths_total    : 281\npaths_favored  : 57\npaths_found    : 280\npaths_imported : 0\nmax_depth      : 8\ncur_path       : 278\npending_favs   : 0\npending_total  : 132\nvariable_paths : 0\nbitmap_cvg     : 0.93%\nunique_crashes : 0\nunique_hangs   : 2\nlast_path      : 1500012496\nlast_crash     : 0\nlast_hang      : 1500013113\nexec_timeout   : 20\nafl_banner     : fuzzer-master\nafl_version    : 1.85b\ncommand_line   : /home/skaramcheti/.virtualenvs/afl/bin/afl-unix/afl-fuzz -i /dev/shm/work/Snail_Mail/input -o /dev/shm/work/Snail_Mail/sync -m 4G -Q -M fuzzer-master -x /dev/shm/work/Snail_Mail/Snail_Mail.dict -- data/linux/processed-challenges/Snail_Mail/bin/Snail_Mail\n'
p165
I0
tp166
a(I9960
S'start_time     : 1500003937\nlast_update    : 1500013854\nfuzzer_pid     : 13105\ncycles_done    : 2\nexecs_done     : 7466717\nexecs_per_sec  : 116.83\npaths_total    : 281\npaths_favored  : 57\npaths_found    : 280\npaths_imported : 0\nmax_depth      : 8\ncur_path       : 278\npending_favs   : 0\npending_total  : 132\nvariable_paths : 0\nbitmap_cvg     : 0.93%\nunique_crashes : 0\nunique_hangs   : 3\nlast_path      : 1500012496\nlast_crash     : 0\nlast_hang      : 1500013781\nexec_timeout   : 20\nafl_banner     : fuzzer-master\nafl_version    : 1.85b\ncommand_line   : /home/skaramcheti/.virtualenvs/afl/bin/afl-unix/afl-fuzz -i /dev/shm/work/Snail_Mail/input -o /dev/shm/work/Snail_Mail/sync -m 4G -Q -M fuzzer-master -x /dev/shm/work/Snail_Mail/Snail_Mail.dict -- data/linux/processed-challenges/Snail_Mail/bin/Snail_Mail\n'
p167
I0
tp168
a(I10080
S'start_time     : 1500003937\nlast_update    : 1500013975\nfuzzer_pid     : 13105\ncycles_done    : 2\nexecs_done     : 7480591\nexecs_per_sec  : 116.79\npaths_total    : 281\npaths_favored  : 57\npaths_found    : 280\npaths_imported : 0\nmax_depth      : 8\ncur_path       : 278\npending_favs   : 0\npending_total  : 132\nvariable_paths : 0\nbitmap_cvg     : 0.93%\nunique_crashes : 0\nunique_hangs   : 3\nlast_path      : 1500012496\nlast_crash     : 0\nlast_hang      : 1500013781\nexec_timeout   : 20\nafl_banner     : fuzzer-master\nafl_version    : 1.85b\ncommand_line   : /home/skaramcheti/.virtualenvs/afl/bin/afl-unix/afl-fuzz -i /dev/shm/work/Snail_Mail/input -o /dev/shm/work/Snail_Mail/sync -m 4G -Q -M fuzzer-master -x /dev/shm/work/Snail_Mail/Snail_Mail.dict -- data/linux/processed-challenges/Snail_Mail/bin/Snail_Mail\n'
p169
I0
tp170
a(I10200
S'start_time     : 1500003937\nlast_update    : 1500014095\nfuzzer_pid     : 13105\ncycles_done    : 2\nexecs_done     : 7494393\nexecs_per_sec  : 116.09\npaths_total    : 281\npaths_favored  : 57\npaths_found    : 280\npaths_imported : 0\nmax_depth      : 8\ncur_path       : 278\npending_favs   : 0\npending_total  : 132\nvariable_paths : 0\nbitmap_cvg     : 0.93%\nunique_crashes : 0\nunique_hangs   : 3\nlast_path      : 1500012496\nlast_crash     : 0\nlast_hang      : 1500013781\nexec_timeout   : 20\nafl_banner     : fuzzer-master\nafl_version    : 1.85b\ncommand_line   : /home/skaramcheti/.virtualenvs/afl/bin/afl-unix/afl-fuzz -i /dev/shm/work/Snail_Mail/input -o /dev/shm/work/Snail_Mail/sync -m 4G -Q -M fuzzer-master -x /dev/shm/work/Snail_Mail/Snail_Mail.dict -- data/linux/processed-challenges/Snail_Mail/bin/Snail_Mail\n'
p171
I0
tp172
a(I10320
S'start_time     : 1500003937\nlast_update    : 1500014215\nfuzzer_pid     : 13105\ncycles_done    : 2\nexecs_done     : 7508285\nexecs_per_sec  : 114.22\npaths_total    : 281\npaths_favored  : 57\npaths_found    : 280\npaths_imported : 0\nmax_depth      : 8\ncur_path       : 278\npending_favs   : 0\npending_total  : 132\nvariable_paths : 0\nbitmap_cvg     : 0.93%\nunique_crashes : 0\nunique_hangs   : 3\nlast_path      : 1500012496\nlast_crash     : 0\nlast_hang      : 1500013781\nexec_timeout   : 20\nafl_banner     : fuzzer-master\nafl_version    : 1.85b\ncommand_line   : /home/skaramcheti/.virtualenvs/afl/bin/afl-unix/afl-fuzz -i /dev/shm/work/Snail_Mail/input -o /dev/shm/work/Snail_Mail/sync -m 4G -Q -M fuzzer-master -x /dev/shm/work/Snail_Mail/Snail_Mail.dict -- data/linux/processed-challenges/Snail_Mail/bin/Snail_Mail\n'
p173
I0
tp174
a(I10440
S'start_time     : 1500003937\nlast_update    : 1500014335\nfuzzer_pid     : 13105\ncycles_done    : 2\nexecs_done     : 7522215\nexecs_per_sec  : 115.62\npaths_total    : 281\npaths_favored  : 57\npaths_found    : 280\npaths_imported : 0\nmax_depth      : 8\ncur_path       : 278\npending_favs   : 0\npending_total  : 132\nvariable_paths : 0\nbitmap_cvg     : 0.93%\nunique_crashes : 0\nunique_hangs   : 3\nlast_path      : 1500012496\nlast_crash     : 0\nlast_hang      : 1500013781\nexec_timeout   : 20\nafl_banner     : fuzzer-master\nafl_version    : 1.85b\ncommand_line   : /home/skaramcheti/.virtualenvs/afl/bin/afl-unix/afl-fuzz -i /dev/shm/work/Snail_Mail/input -o /dev/shm/work/Snail_Mail/sync -m 4G -Q -M fuzzer-master -x /dev/shm/work/Snail_Mail/Snail_Mail.dict -- data/linux/processed-challenges/Snail_Mail/bin/Snail_Mail\n'
p175
I0
tp176
a(I10560
S'start_time     : 1500003937\nlast_update    : 1500014455\nfuzzer_pid     : 13105\ncycles_done    : 2\nexecs_done     : 7536037\nexecs_per_sec  : 113.83\npaths_total    : 281\npaths_favored  : 57\npaths_found    : 280\npaths_imported : 0\nmax_depth      : 8\ncur_path       : 278\npending_favs   : 0\npending_total  : 132\nvariable_paths : 0\nbitmap_cvg     : 0.93%\nunique_crashes : 0\nunique_hangs   : 3\nlast_path      : 1500012496\nlast_crash     : 0\nlast_hang      : 1500013781\nexec_timeout   : 20\nafl_banner     : fuzzer-master\nafl_version    : 1.85b\ncommand_line   : /home/skaramcheti/.virtualenvs/afl/bin/afl-unix/afl-fuzz -i /dev/shm/work/Snail_Mail/input -o /dev/shm/work/Snail_Mail/sync -m 4G -Q -M fuzzer-master -x /dev/shm/work/Snail_Mail/Snail_Mail.dict -- data/linux/processed-challenges/Snail_Mail/bin/Snail_Mail\n'
p177
I0
tp178
a(I10680
S'start_time     : 1500003937\nlast_update    : 1500014575\nfuzzer_pid     : 13105\ncycles_done    : 2\nexecs_done     : 7549591\nexecs_per_sec  : 113.21\npaths_total    : 281\npaths_favored  : 57\npaths_found    : 280\npaths_imported : 0\nmax_depth      : 8\ncur_path       : 278\npending_favs   : 0\npending_total  : 132\nvariable_paths : 0\nbitmap_cvg     : 0.93%\nunique_crashes : 0\nunique_hangs   : 3\nlast_path      : 1500012496\nlast_crash     : 0\nlast_hang      : 1500013781\nexec_timeout   : 20\nafl_banner     : fuzzer-master\nafl_version    : 1.85b\ncommand_line   : /home/skaramcheti/.virtualenvs/afl/bin/afl-unix/afl-fuzz -i /dev/shm/work/Snail_Mail/input -o /dev/shm/work/Snail_Mail/sync -m 4G -Q -M fuzzer-master -x /dev/shm/work/Snail_Mail/Snail_Mail.dict -- data/linux/processed-challenges/Snail_Mail/bin/Snail_Mail\n'
p179
I0
tp180
a.