(lp0
(I0
S'start_time     : 1499906281\nlast_update    : 1499906282\nfuzzer_pid     : 1973\ncycles_done    : 0\nexecs_done     : 10\nexecs_per_sec  : 98.04\npaths_total    : 1\npaths_favored  : 1\npaths_found    : 0\npaths_imported : 0\nmax_depth      : 1\ncur_path       : 0\npending_favs   : 1\npending_total  : 1\nvariable_paths : 0\nbitmap_cvg     : 0.36%\nunique_crashes : 0\nunique_hangs   : 0\nlast_path      : 0\nlast_crash     : 0\nlast_hang      : 0\nexec_timeout   : 40\nafl_banner     : fuzzer-master\nafl_version    : 1.85b\ncommand_line   : /home/skaramcheti/.virtualenvs/afl/bin/afl-unix/afl-fuzz -i /dev/shm/work/Flash_File_System/input -o /dev/shm/work/Flash_File_System/sync -m 4G -Q -M fuzzer-master -x /dev/shm/work/Flash_File_System/Flash_File_System.dict -- data/linux/processed-challenges/Flash_File_System/bin/Flash_File_System\n'
p1
I1
tp2
a(I120
S'start_time     : 1499906281\nlast_update    : 1499906402\nfuzzer_pid     : 1973\ncycles_done    : 0\nexecs_done     : 30033\nexecs_per_sec  : 238.99\npaths_total    : 35\npaths_favored  : 1\npaths_found    : 34\npaths_imported : 0\nmax_depth      : 2\ncur_path       : 0\npending_favs   : 1\npending_total  : 35\nvariable_paths : 0\nbitmap_cvg     : 0.74%\nunique_crashes : 1\nunique_hangs   : 0\nlast_path      : 1499906400\nlast_crash     : 1499906296\nlast_hang      : 0\nexec_timeout   : 40\nafl_banner     : fuzzer-master\nafl_version    : 1.85b\ncommand_line   : /home/skaramcheti/.virtualenvs/afl/bin/afl-unix/afl-fuzz -i /dev/shm/work/Flash_File_System/input -o /dev/shm/work/Flash_File_System/sync -m 4G -Q -M fuzzer-master -x /dev/shm/work/Flash_File_System/Flash_File_System.dict -- data/linux/processed-challenges/Flash_File_System/bin/Flash_File_System\n'
p3
I34
tp4
a(I240
S'start_time     : 1499906281\nlast_update    : 1499906522\nfuzzer_pid     : 1973\ncycles_done    : 0\nexecs_done     : 60203\nexecs_per_sec  : 242.77\npaths_total    : 40\npaths_favored  : 1\npaths_found    : 39\npaths_imported : 0\nmax_depth      : 2\ncur_path       : 0\npending_favs   : 1\npending_total  : 40\nvariable_paths : 0\nbitmap_cvg     : 0.76%\nunique_crashes : 3\nunique_hangs   : 0\nlast_path      : 1499906505\nlast_crash     : 1499906452\nlast_hang      : 0\nexec_timeout   : 40\nafl_banner     : fuzzer-master\nafl_version    : 1.85b\ncommand_line   : /home/skaramcheti/.virtualenvs/afl/bin/afl-unix/afl-fuzz -i /dev/shm/work/Flash_File_System/input -o /dev/shm/work/Flash_File_System/sync -m 4G -Q -M fuzzer-master -x /dev/shm/work/Flash_File_System/Flash_File_System.dict -- data/linux/processed-challenges/Flash_File_System/bin/Flash_File_System\n'
p5
I5
tp6
a(I360
S'start_time     : 1499906281\nlast_update    : 1499906642\nfuzzer_pid     : 1973\ncycles_done    : 0\nexecs_done     : 89885\nexecs_per_sec  : 243.00\npaths_total    : 45\npaths_favored  : 1\npaths_found    : 44\npaths_imported : 0\nmax_depth      : 2\ncur_path       : 0\npending_favs   : 1\npending_total  : 45\nvariable_paths : 0\nbitmap_cvg     : 0.77%\nunique_crashes : 4\nunique_hangs   : 1\nlast_path      : 1499906561\nlast_crash     : 1499906543\nlast_hang      : 1499906582\nexec_timeout   : 40\nafl_banner     : fuzzer-master\nafl_version    : 1.85b\ncommand_line   : /home/skaramcheti/.virtualenvs/afl/bin/afl-unix/afl-fuzz -i /dev/shm/work/Flash_File_System/input -o /dev/shm/work/Flash_File_System/sync -m 4G -Q -M fuzzer-master -x /dev/shm/work/Flash_File_System/Flash_File_System.dict -- data/linux/processed-challenges/Flash_File_System/bin/Flash_File_System\n'
p7
I5
tp8
a(I480
S'start_time     : 1499906281\nlast_update    : 1499906762\nfuzzer_pid     : 1973\ncycles_done    : 0\nexecs_done     : 119089\nexecs_per_sec  : 238.75\npaths_total    : 45\npaths_favored  : 1\npaths_found    : 44\npaths_imported : 0\nmax_depth      : 2\ncur_path       : 0\npending_favs   : 1\npending_total  : 45\nvariable_paths : 0\nbitmap_cvg     : 0.77%\nunique_crashes : 4\nunique_hangs   : 1\nlast_path      : 1499906561\nlast_crash     : 1499906543\nlast_hang      : 1499906582\nexec_timeout   : 40\nafl_banner     : fuzzer-master\nafl_version    : 1.85b\ncommand_line   : /home/skaramcheti/.virtualenvs/afl/bin/afl-unix/afl-fuzz -i /dev/shm/work/Flash_File_System/input -o /dev/shm/work/Flash_File_System/sync -m 4G -Q -M fuzzer-master -x /dev/shm/work/Flash_File_System/Flash_File_System.dict -- data/linux/processed-challenges/Flash_File_System/bin/Flash_File_System\n'
p9
I0
tp10
a(I600
S'start_time     : 1499906281\nlast_update    : 1499906882\nfuzzer_pid     : 1973\ncycles_done    : 0\nexecs_done     : 148215\nexecs_per_sec  : 235.43\npaths_total    : 46\npaths_favored  : 1\npaths_found    : 45\npaths_imported : 0\nmax_depth      : 2\ncur_path       : 0\npending_favs   : 1\npending_total  : 46\nvariable_paths : 0\nbitmap_cvg     : 0.77%\nunique_crashes : 4\nunique_hangs   : 1\nlast_path      : 1499906791\nlast_crash     : 1499906543\nlast_hang      : 1499906582\nexec_timeout   : 40\nafl_banner     : fuzzer-master\nafl_version    : 1.85b\ncommand_line   : /home/skaramcheti/.virtualenvs/afl/bin/afl-unix/afl-fuzz -i /dev/shm/work/Flash_File_System/input -o /dev/shm/work/Flash_File_System/sync -m 4G -Q -M fuzzer-master -x /dev/shm/work/Flash_File_System/Flash_File_System.dict -- data/linux/processed-challenges/Flash_File_System/bin/Flash_File_System\n'
p11
I1
tp12
a(I720
S'start_time     : 1499906281\nlast_update    : 1499907003\nfuzzer_pid     : 1973\ncycles_done    : 0\nexecs_done     : 177307\nexecs_per_sec  : 240.55\npaths_total    : 47\npaths_favored  : 21\npaths_found    : 46\npaths_imported : 0\nmax_depth      : 3\ncur_path       : 10\npending_favs   : 19\npending_total  : 45\nvariable_paths : 0\nbitmap_cvg     : 0.78%\nunique_crashes : 4\nunique_hangs   : 1\nlast_path      : 1499906991\nlast_crash     : 1499906543\nlast_hang      : 1499906582\nexec_timeout   : 40\nafl_banner     : fuzzer-master\nafl_version    : 1.85b\ncommand_line   : /home/skaramcheti/.virtualenvs/afl/bin/afl-unix/afl-fuzz -i /dev/shm/work/Flash_File_System/input -o /dev/shm/work/Flash_File_System/sync -m 4G -Q -M fuzzer-master -x /dev/shm/work/Flash_File_System/Flash_File_System.dict -- data/linux/processed-challenges/Flash_File_System/bin/Flash_File_System\n'
p13
I1
tp14
a(I840
S'start_time     : 1499906281\nlast_update    : 1499907123\nfuzzer_pid     : 1973\ncycles_done    : 0\nexecs_done     : 206427\nexecs_per_sec  : 246.95\npaths_total    : 49\npaths_favored  : 22\npaths_found    : 48\npaths_imported : 0\nmax_depth      : 3\ncur_path       : 13\npending_favs   : 17\npending_total  : 44\nvariable_paths : 0\nbitmap_cvg     : 0.79%\nunique_crashes : 4\nunique_hangs   : 1\nlast_path      : 1499907103\nlast_crash     : 1499906543\nlast_hang      : 1499906582\nexec_timeout   : 40\nafl_banner     : fuzzer-master\nafl_version    : 1.85b\ncommand_line   : /home/skaramcheti/.virtualenvs/afl/bin/afl-unix/afl-fuzz -i /dev/shm/work/Flash_File_System/input -o /dev/shm/work/Flash_File_System/sync -m 4G -Q -M fuzzer-master -x /dev/shm/work/Flash_File_System/Flash_File_System.dict -- data/linux/processed-challenges/Flash_File_System/bin/Flash_File_System\n'
p15
I2
tp16
a(I960
S'start_time     : 1499906281\nlast_update    : 1499907243\nfuzzer_pid     : 1973\ncycles_done    : 0\nexecs_done     : 235597\nexecs_per_sec  : 244.84\npaths_total    : 52\npaths_favored  : 22\npaths_found    : 51\npaths_imported : 0\nmax_depth      : 3\ncur_path       : 13\npending_favs   : 17\npending_total  : 47\nvariable_paths : 0\nbitmap_cvg     : 0.80%\nunique_crashes : 5\nunique_hangs   : 1\nlast_path      : 1499907163\nlast_crash     : 1499907180\nlast_hang      : 1499906582\nexec_timeout   : 40\nafl_banner     : fuzzer-master\nafl_version    : 1.85b\ncommand_line   : /home/skaramcheti/.virtualenvs/afl/bin/afl-unix/afl-fuzz -i /dev/shm/work/Flash_File_System/input -o /dev/shm/work/Flash_File_System/sync -m 4G -Q -M fuzzer-master -x /dev/shm/work/Flash_File_System/Flash_File_System.dict -- data/linux/processed-challenges/Flash_File_System/bin/Flash_File_System\n'
p17
I3
tp18
a(I1080
S'start_time     : 1499906281\nlast_update    : 1499907303\nfuzzer_pid     : 1973\ncycles_done    : 0\nexecs_done     : 250398\nexecs_per_sec  : 249.59\npaths_total    : 53\npaths_favored  : 22\npaths_found    : 52\npaths_imported : 0\nmax_depth      : 3\ncur_path       : 13\npending_favs   : 17\npending_total  : 48\nvariable_paths : 0\nbitmap_cvg     : 0.80%\nunique_crashes : 6\nunique_hangs   : 1\nlast_path      : 1499907255\nlast_crash     : 1499907271\nlast_hang      : 1499906582\nexec_timeout   : 40\nafl_banner     : fuzzer-master\nafl_version    : 1.85b\ncommand_line   : /home/skaramcheti/.virtualenvs/afl/bin/afl-unix/afl-fuzz -i /dev/shm/work/Flash_File_System/input -o /dev/shm/work/Flash_File_System/sync -m 4G -Q -M fuzzer-master -x /dev/shm/work/Flash_File_System/Flash_File_System.dict -- data/linux/processed-challenges/Flash_File_System/bin/Flash_File_System\n'
p19
I3
tp20
a(I1200
S'start_time     : 1499906281\nlast_update    : 1499907423\nfuzzer_pid     : 1973\ncycles_done    : 0\nexecs_done     : 279723\nexecs_per_sec  : 236.26\npaths_total    : 55\npaths_favored  : 22\npaths_found    : 54\npaths_imported : 0\nmax_depth      : 3\ncur_path       : 13\npending_favs   : 17\npending_total  : 50\nvariable_paths : 0\nbitmap_cvg     : 0.87%\nunique_crashes : 6\nunique_hangs   : 1\nlast_path      : 1499907356\nlast_crash     : 1499907271\nlast_hang      : 1499906582\nexec_timeout   : 40\nafl_banner     : fuzzer-master\nafl_version    : 1.85b\ncommand_line   : /home/skaramcheti/.virtualenvs/afl/bin/afl-unix/afl-fuzz -i /dev/shm/work/Flash_File_System/input -o /dev/shm/work/Flash_File_System/sync -m 4G -Q -M fuzzer-master -x /dev/shm/work/Flash_File_System/Flash_File_System.dict -- data/linux/processed-challenges/Flash_File_System/bin/Flash_File_System\n'
p21
I0
tp22
a(I1320
S'start_time     : 1499906281\nlast_update    : 1499907543\nfuzzer_pid     : 1973\ncycles_done    : 0\nexecs_done     : 308855\nexecs_per_sec  : 243.19\npaths_total    : 55\npaths_favored  : 22\npaths_found    : 54\npaths_imported : 0\nmax_depth      : 3\ncur_path       : 13\npending_favs   : 17\npending_total  : 50\nvariable_paths : 0\nbitmap_cvg     : 0.87%\nunique_crashes : 6\nunique_hangs   : 1\nlast_path      : 1499907356\nlast_crash     : 1499907271\nlast_hang      : 1499906582\nexec_timeout   : 40\nafl_banner     : fuzzer-master\nafl_version    : 1.85b\ncommand_line   : /home/skaramcheti/.virtualenvs/afl/bin/afl-unix/afl-fuzz -i /dev/shm/work/Flash_File_System/input -o /dev/shm/work/Flash_File_System/sync -m 4G -Q -M fuzzer-master -x /dev/shm/work/Flash_File_System/Flash_File_System.dict -- data/linux/processed-challenges/Flash_File_System/bin/Flash_File_System\n'
p23
I1
tp24
a(I1440
S'start_time     : 1499906281\nlast_update    : 1499907664\nfuzzer_pid     : 1973\ncycles_done    : 0\nexecs_done     : 338057\nexecs_per_sec  : 241.50\npaths_total    : 56\npaths_favored  : 22\npaths_found    : 55\npaths_imported : 0\nmax_depth      : 3\ncur_path       : 13\npending_favs   : 17\npending_total  : 51\nvariable_paths : 0\nbitmap_cvg     : 0.88%\nunique_crashes : 7\nunique_hangs   : 1\nlast_path      : 1499907567\nlast_crash     : 1499907558\nlast_hang      : 1499906582\nexec_timeout   : 40\nafl_banner     : fuzzer-master\nafl_version    : 1.85b\ncommand_line   : /home/skaramcheti/.virtualenvs/afl/bin/afl-unix/afl-fuzz -i /dev/shm/work/Flash_File_System/input -o /dev/shm/work/Flash_File_System/sync -m 4G -Q -M fuzzer-master -x /dev/shm/work/Flash_File_System/Flash_File_System.dict -- data/linux/processed-challenges/Flash_File_System/bin/Flash_File_System\n'
p25
I2
tp26
a(I1560
S'start_time     : 1499906281\nlast_update    : 1499907784\nfuzzer_pid     : 1973\ncycles_done    : 0\nexecs_done     : 367344\nexecs_per_sec  : 235.40\npaths_total    : 60\npaths_favored  : 26\npaths_found    : 59\npaths_imported : 0\nmax_depth      : 3\ncur_path       : 17\npending_favs   : 21\npending_total  : 54\nvariable_paths : 0\nbitmap_cvg     : 0.91%\nunique_crashes : 7\nunique_hangs   : 1\nlast_path      : 1499907765\nlast_crash     : 1499907558\nlast_hang      : 1499906582\nexec_timeout   : 40\nafl_banner     : fuzzer-master\nafl_version    : 1.85b\ncommand_line   : /home/skaramcheti/.virtualenvs/afl/bin/afl-unix/afl-fuzz -i /dev/shm/work/Flash_File_System/input -o /dev/shm/work/Flash_File_System/sync -m 4G -Q -M fuzzer-master -x /dev/shm/work/Flash_File_System/Flash_File_System.dict -- data/linux/processed-challenges/Flash_File_System/bin/Flash_File_System\n'
p27
I5
tp28
a(I1680
S'start_time     : 1499906281\nlast_update    : 1499907904\nfuzzer_pid     : 1973\ncycles_done    : 0\nexecs_done     : 396620\nexecs_per_sec  : 239.77\npaths_total    : 66\npaths_favored  : 26\npaths_found    : 65\npaths_imported : 0\nmax_depth      : 3\ncur_path       : 17\npending_favs   : 21\npending_total  : 60\nvariable_paths : 0\nbitmap_cvg     : 0.92%\nunique_crashes : 9\nunique_hangs   : 1\nlast_path      : 1499907903\nlast_crash     : 1499907853\nlast_hang      : 1499906582\nexec_timeout   : 40\nafl_banner     : fuzzer-master\nafl_version    : 1.85b\ncommand_line   : /home/skaramcheti/.virtualenvs/afl/bin/afl-unix/afl-fuzz -i /dev/shm/work/Flash_File_System/input -o /dev/shm/work/Flash_File_System/sync -m 4G -Q -M fuzzer-master -x /dev/shm/work/Flash_File_System/Flash_File_System.dict -- data/linux/processed-challenges/Flash_File_System/bin/Flash_File_System\n'
p29
I6
tp30
a(I1800
S'start_time     : 1499906281\nlast_update    : 1499908024\nfuzzer_pid     : 1973\ncycles_done    : 0\nexecs_done     : 425624\nexecs_per_sec  : 245.71\npaths_total    : 70\npaths_favored  : 26\npaths_found    : 69\npaths_imported : 0\nmax_depth      : 3\ncur_path       : 17\npending_favs   : 21\npending_total  : 64\nvariable_paths : 0\nbitmap_cvg     : 0.92%\nunique_crashes : 9\nunique_hangs   : 1\nlast_path      : 1499907967\nlast_crash     : 1499907853\nlast_hang      : 1499906582\nexec_timeout   : 40\nafl_banner     : fuzzer-master\nafl_version    : 1.85b\ncommand_line   : /home/skaramcheti/.virtualenvs/afl/bin/afl-unix/afl-fuzz -i /dev/shm/work/Flash_File_System/input -o /dev/shm/work/Flash_File_System/sync -m 4G -Q -M fuzzer-master -x /dev/shm/work/Flash_File_System/Flash_File_System.dict -- data/linux/processed-challenges/Flash_File_System/bin/Flash_File_System\n'
p31
I1
tp32
a(I1920
S'start_time     : 1499906281\nlast_update    : 1499908145\nfuzzer_pid     : 1973\ncycles_done    : 0\nexecs_done     : 454866\nexecs_per_sec  : 232.79\npaths_total    : 71\npaths_favored  : 26\npaths_found    : 70\npaths_imported : 0\nmax_depth      : 3\ncur_path       : 17\npending_favs   : 21\npending_total  : 65\nvariable_paths : 0\nbitmap_cvg     : 0.92%\nunique_crashes : 9\nunique_hangs   : 1\nlast_path      : 1499908107\nlast_crash     : 1499907853\nlast_hang      : 1499906582\nexec_timeout   : 40\nafl_banner     : fuzzer-master\nafl_version    : 1.85b\ncommand_line   : /home/skaramcheti/.virtualenvs/afl/bin/afl-unix/afl-fuzz -i /dev/shm/work/Flash_File_System/input -o /dev/shm/work/Flash_File_System/sync -m 4G -Q -M fuzzer-master -x /dev/shm/work/Flash_File_System/Flash_File_System.dict -- data/linux/processed-challenges/Flash_File_System/bin/Flash_File_System\n'
p33
I2
tp34
a(I2040
S'start_time     : 1499906281\nlast_update    : 1499908265\nfuzzer_pid     : 1973\ncycles_done    : 0\nexecs_done     : 484216\nexecs_per_sec  : 237.30\npaths_total    : 72\npaths_favored  : 26\npaths_found    : 71\npaths_imported : 0\nmax_depth      : 3\ncur_path       : 17\npending_favs   : 21\npending_total  : 66\nvariable_paths : 0\nbitmap_cvg     : 0.92%\nunique_crashes : 9\nunique_hangs   : 1\nlast_path      : 1499908200\nlast_crash     : 1499907853\nlast_hang      : 1499906582\nexec_timeout   : 40\nafl_banner     : fuzzer-master\nafl_version    : 1.85b\ncommand_line   : /home/skaramcheti/.virtualenvs/afl/bin/afl-unix/afl-fuzz -i /dev/shm/work/Flash_File_System/input -o /dev/shm/work/Flash_File_System/sync -m 4G -Q -M fuzzer-master -x /dev/shm/work/Flash_File_System/Flash_File_System.dict -- data/linux/processed-challenges/Flash_File_System/bin/Flash_File_System\n'
p35
I2
tp36
a(I2160
S'start_time     : 1499906281\nlast_update    : 1499908385\nfuzzer_pid     : 1973\ncycles_done    : 0\nexecs_done     : 513058\nexecs_per_sec  : 242.67\npaths_total    : 75\npaths_favored  : 26\npaths_found    : 74\npaths_imported : 0\nmax_depth      : 3\ncur_path       : 17\npending_favs   : 21\npending_total  : 69\nvariable_paths : 0\nbitmap_cvg     : 0.93%\nunique_crashes : 9\nunique_hangs   : 1\nlast_path      : 1499908337\nlast_crash     : 1499907853\nlast_hang      : 1499906582\nexec_timeout   : 40\nafl_banner     : fuzzer-master\nafl_version    : 1.85b\ncommand_line   : /home/skaramcheti/.virtualenvs/afl/bin/afl-unix/afl-fuzz -i /dev/shm/work/Flash_File_System/input -o /dev/shm/work/Flash_File_System/sync -m 4G -Q -M fuzzer-master -x /dev/shm/work/Flash_File_System/Flash_File_System.dict -- data/linux/processed-challenges/Flash_File_System/bin/Flash_File_System\n'
p37
I6
tp38
a(I2280
S'start_time     : 1499906281\nlast_update    : 1499908505\nfuzzer_pid     : 1973\ncycles_done    : 0\nexecs_done     : 541299\nexecs_per_sec  : 232.16\npaths_total    : 82\npaths_favored  : 34\npaths_found    : 81\npaths_imported : 0\nmax_depth      : 3\ncur_path       : 18\npending_favs   : 29\npending_total  : 75\nvariable_paths : 0\nbitmap_cvg     : 0.93%\nunique_crashes : 11\nunique_hangs   : 1\nlast_path      : 1499908455\nlast_crash     : 1499908477\nlast_hang      : 1499906582\nexec_timeout   : 40\nafl_banner     : fuzzer-master\nafl_version    : 1.85b\ncommand_line   : /home/skaramcheti/.virtualenvs/afl/bin/afl-unix/afl-fuzz -i /dev/shm/work/Flash_File_System/input -o /dev/shm/work/Flash_File_System/sync -m 4G -Q -M fuzzer-master -x /dev/shm/work/Flash_File_System/Flash_File_System.dict -- data/linux/processed-challenges/Flash_File_System/bin/Flash_File_System\n'
p39
I3
tp40
a(I2400
S'start_time     : 1499906281\nlast_update    : 1499908626\nfuzzer_pid     : 1973\ncycles_done    : 0\nexecs_done     : 569995\nexecs_per_sec  : 244.87\npaths_total    : 84\npaths_favored  : 34\npaths_found    : 83\npaths_imported : 0\nmax_depth      : 3\ncur_path       : 18\npending_favs   : 29\npending_total  : 77\nvariable_paths : 0\nbitmap_cvg     : 0.94%\nunique_crashes : 11\nunique_hangs   : 1\nlast_path      : 1499908567\nlast_crash     : 1499908477\nlast_hang      : 1499906582\nexec_timeout   : 40\nafl_banner     : fuzzer-master\nafl_version    : 1.85b\ncommand_line   : /home/skaramcheti/.virtualenvs/afl/bin/afl-unix/afl-fuzz -i /dev/shm/work/Flash_File_System/input -o /dev/shm/work/Flash_File_System/sync -m 4G -Q -M fuzzer-master -x /dev/shm/work/Flash_File_System/Flash_File_System.dict -- data/linux/processed-challenges/Flash_File_System/bin/Flash_File_System\n'
p41
I2
tp42
a(I2520
S'start_time     : 1499906281\nlast_update    : 1499908746\nfuzzer_pid     : 1973\ncycles_done    : 0\nexecs_done     : 598371\nexecs_per_sec  : 238.62\npaths_total    : 86\npaths_favored  : 34\npaths_found    : 85\npaths_imported : 0\nmax_depth      : 3\ncur_path       : 18\npending_favs   : 29\npending_total  : 79\nvariable_paths : 0\nbitmap_cvg     : 0.94%\nunique_crashes : 11\nunique_hangs   : 1\nlast_path      : 1499908686\nlast_crash     : 1499908477\nlast_hang      : 1499906582\nexec_timeout   : 40\nafl_banner     : fuzzer-master\nafl_version    : 1.85b\ncommand_line   : /home/skaramcheti/.virtualenvs/afl/bin/afl-unix/afl-fuzz -i /dev/shm/work/Flash_File_System/input -o /dev/shm/work/Flash_File_System/sync -m 4G -Q -M fuzzer-master -x /dev/shm/work/Flash_File_System/Flash_File_System.dict -- data/linux/processed-challenges/Flash_File_System/bin/Flash_File_System\n'
p43
I2
tp44
a(I2640
S'start_time     : 1499906281\nlast_update    : 1499908866\nfuzzer_pid     : 1973\ncycles_done    : 0\nexecs_done     : 626791\nexecs_per_sec  : 237.09\npaths_total    : 88\npaths_favored  : 34\npaths_found    : 87\npaths_imported : 0\nmax_depth      : 3\ncur_path       : 18\npending_favs   : 29\npending_total  : 81\nvariable_paths : 0\nbitmap_cvg     : 0.94%\nunique_crashes : 11\nunique_hangs   : 1\nlast_path      : 1499908835\nlast_crash     : 1499908477\nlast_hang      : 1499906582\nexec_timeout   : 40\nafl_banner     : fuzzer-master\nafl_version    : 1.85b\ncommand_line   : /home/skaramcheti/.virtualenvs/afl/bin/afl-unix/afl-fuzz -i /dev/shm/work/Flash_File_System/input -o /dev/shm/work/Flash_File_System/sync -m 4G -Q -M fuzzer-master -x /dev/shm/work/Flash_File_System/Flash_File_System.dict -- data/linux/processed-challenges/Flash_File_System/bin/Flash_File_System\n'
p45
I1
tp46
a(I2760
S'start_time     : 1499906281\nlast_update    : 1499908986\nfuzzer_pid     : 1973\ncycles_done    : 0\nexecs_done     : 655491\nexecs_per_sec  : 235.94\npaths_total    : 88\npaths_favored  : 34\npaths_found    : 87\npaths_imported : 0\nmax_depth      : 3\ncur_path       : 18\npending_favs   : 29\npending_total  : 81\nvariable_paths : 0\nbitmap_cvg     : 0.94%\nunique_crashes : 11\nunique_hangs   : 1\nlast_path      : 1499908835\nlast_crash     : 1499908477\nlast_hang      : 1499906582\nexec_timeout   : 40\nafl_banner     : fuzzer-master\nafl_version    : 1.85b\ncommand_line   : /home/skaramcheti/.virtualenvs/afl/bin/afl-unix/afl-fuzz -i /dev/shm/work/Flash_File_System/input -o /dev/shm/work/Flash_File_System/sync -m 4G -Q -M fuzzer-master -x /dev/shm/work/Flash_File_System/Flash_File_System.dict -- data/linux/processed-challenges/Flash_File_System/bin/Flash_File_System\n'
p47
I0
tp48
a(I2880
S'start_time     : 1499906281\nlast_update    : 1499909107\nfuzzer_pid     : 1973\ncycles_done    : 0\nexecs_done     : 683936\nexecs_per_sec  : 230.15\npaths_total    : 88\npaths_favored  : 35\npaths_found    : 87\npaths_imported : 0\nmax_depth      : 3\ncur_path       : 22\npending_favs   : 29\npending_total  : 80\nvariable_paths : 0\nbitmap_cvg     : 0.94%\nunique_crashes : 11\nunique_hangs   : 1\nlast_path      : 1499908835\nlast_crash     : 1499908477\nlast_hang      : 1499906582\nexec_timeout   : 40\nafl_banner     : fuzzer-master\nafl_version    : 1.85b\ncommand_line   : /home/skaramcheti/.virtualenvs/afl/bin/afl-unix/afl-fuzz -i /dev/shm/work/Flash_File_System/input -o /dev/shm/work/Flash_File_System/sync -m 4G -Q -M fuzzer-master -x /dev/shm/work/Flash_File_System/Flash_File_System.dict -- data/linux/processed-challenges/Flash_File_System/bin/Flash_File_System\n'
p49
I0
tp50
a(I3000
S'start_time     : 1499906281\nlast_update    : 1499909227\nfuzzer_pid     : 1973\ncycles_done    : 0\nexecs_done     : 712226\nexecs_per_sec  : 238.26\npaths_total    : 88\npaths_favored  : 35\npaths_found    : 87\npaths_imported : 0\nmax_depth      : 3\ncur_path       : 29\npending_favs   : 26\npending_total  : 77\nvariable_paths : 0\nbitmap_cvg     : 0.94%\nunique_crashes : 14\nunique_hangs   : 1\nlast_path      : 1499908835\nlast_crash     : 1499909194\nlast_hang      : 1499906582\nexec_timeout   : 40\nafl_banner     : fuzzer-master\nafl_version    : 1.85b\ncommand_line   : /home/skaramcheti/.virtualenvs/afl/bin/afl-unix/afl-fuzz -i /dev/shm/work/Flash_File_System/input -o /dev/shm/work/Flash_File_System/sync -m 4G -Q -M fuzzer-master -x /dev/shm/work/Flash_File_System/Flash_File_System.dict -- data/linux/processed-challenges/Flash_File_System/bin/Flash_File_System\n'
p51
I0
tp52
a(I3120
S'start_time     : 1499906281\nlast_update    : 1499909347\nfuzzer_pid     : 1973\ncycles_done    : 0\nexecs_done     : 740589\nexecs_per_sec  : 229.59\npaths_total    : 92\npaths_favored  : 35\npaths_found    : 91\npaths_imported : 0\nmax_depth      : 3\ncur_path       : 38\npending_favs   : 23\npending_total  : 78\nvariable_paths : 0\nbitmap_cvg     : 0.94%\nunique_crashes : 14\nunique_hangs   : 1\nlast_path      : 1499909341\nlast_crash     : 1499909194\nlast_hang      : 1499906582\nexec_timeout   : 40\nafl_banner     : fuzzer-master\nafl_version    : 1.85b\ncommand_line   : /home/skaramcheti/.virtualenvs/afl/bin/afl-unix/afl-fuzz -i /dev/shm/work/Flash_File_System/input -o /dev/shm/work/Flash_File_System/sync -m 4G -Q -M fuzzer-master -x /dev/shm/work/Flash_File_System/Flash_File_System.dict -- data/linux/processed-challenges/Flash_File_System/bin/Flash_File_System\n'
p53
I6
tp54
a(I3240
S'start_time     : 1499906281\nlast_update    : 1499909467\nfuzzer_pid     : 1973\ncycles_done    : 0\nexecs_done     : 769543\nexecs_per_sec  : 244.11\npaths_total    : 95\npaths_favored  : 35\npaths_found    : 94\npaths_imported : 0\nmax_depth      : 3\ncur_path       : 38\npending_favs   : 23\npending_total  : 81\nvariable_paths : 0\nbitmap_cvg     : 0.94%\nunique_crashes : 17\nunique_hangs   : 1\nlast_path      : 1499909419\nlast_crash     : 1499909443\nlast_hang      : 1499906582\nexec_timeout   : 40\nafl_banner     : fuzzer-master\nafl_version    : 1.85b\ncommand_line   : /home/skaramcheti/.virtualenvs/afl/bin/afl-unix/afl-fuzz -i /dev/shm/work/Flash_File_System/input -o /dev/shm/work/Flash_File_System/sync -m 4G -Q -M fuzzer-master -x /dev/shm/work/Flash_File_System/Flash_File_System.dict -- data/linux/processed-challenges/Flash_File_System/bin/Flash_File_System\n'
p55
I3
tp56
a(I3360
S'start_time     : 1499906281\nlast_update    : 1499909587\nfuzzer_pid     : 1973\ncycles_done    : 0\nexecs_done     : 798867\nexecs_per_sec  : 246.58\npaths_total    : 97\npaths_favored  : 35\npaths_found    : 96\npaths_imported : 0\nmax_depth      : 3\ncur_path       : 38\npending_favs   : 23\npending_total  : 83\nvariable_paths : 0\nbitmap_cvg     : 0.94%\nunique_crashes : 17\nunique_hangs   : 1\nlast_path      : 1499909524\nlast_crash     : 1499909443\nlast_hang      : 1499906582\nexec_timeout   : 40\nafl_banner     : fuzzer-master\nafl_version    : 1.85b\ncommand_line   : /home/skaramcheti/.virtualenvs/afl/bin/afl-unix/afl-fuzz -i /dev/shm/work/Flash_File_System/input -o /dev/shm/work/Flash_File_System/sync -m 4G -Q -M fuzzer-master -x /dev/shm/work/Flash_File_System/Flash_File_System.dict -- data/linux/processed-challenges/Flash_File_System/bin/Flash_File_System\n'
p57
I0
tp58
a(I3480
S'start_time     : 1499906281\nlast_update    : 1499909708\nfuzzer_pid     : 1973\ncycles_done    : 0\nexecs_done     : 828039\nexecs_per_sec  : 243.10\npaths_total    : 97\npaths_favored  : 35\npaths_found    : 96\npaths_imported : 0\nmax_depth      : 3\ncur_path       : 38\npending_favs   : 23\npending_total  : 83\nvariable_paths : 0\nbitmap_cvg     : 0.94%\nunique_crashes : 18\nunique_hangs   : 1\nlast_path      : 1499909524\nlast_crash     : 1499909666\nlast_hang      : 1499906582\nexec_timeout   : 40\nafl_banner     : fuzzer-master\nafl_version    : 1.85b\ncommand_line   : /home/skaramcheti/.virtualenvs/afl/bin/afl-unix/afl-fuzz -i /dev/shm/work/Flash_File_System/input -o /dev/shm/work/Flash_File_System/sync -m 4G -Q -M fuzzer-master -x /dev/shm/work/Flash_File_System/Flash_File_System.dict -- data/linux/processed-challenges/Flash_File_System/bin/Flash_File_System\n'
p59
I0
tp60
a(I3600
S'start_time     : 1499906281\nlast_update    : 1499909828\nfuzzer_pid     : 1973\ncycles_done    : 0\nexecs_done     : 857311\nexecs_per_sec  : 246.23\npaths_total    : 97\npaths_favored  : 35\npaths_found    : 96\npaths_imported : 0\nmax_depth      : 3\ncur_path       : 38\npending_favs   : 23\npending_total  : 83\nvariable_paths : 0\nbitmap_cvg     : 0.94%\nunique_crashes : 18\nunique_hangs   : 1\nlast_path      : 1499909524\nlast_crash     : 1499909666\nlast_hang      : 1499906582\nexec_timeout   : 40\nafl_banner     : fuzzer-master\nafl_version    : 1.85b\ncommand_line   : /home/skaramcheti/.virtualenvs/afl/bin/afl-unix/afl-fuzz -i /dev/shm/work/Flash_File_System/input -o /dev/shm/work/Flash_File_System/sync -m 4G -Q -M fuzzer-master -x /dev/shm/work/Flash_File_System/Flash_File_System.dict -- data/linux/processed-challenges/Flash_File_System/bin/Flash_File_System\n'
p61
I0
tp62
a(I3720
S'start_time     : 1499906281\nlast_update    : 1499909948\nfuzzer_pid     : 1973\ncycles_done    : 0\nexecs_done     : 886523\nexecs_per_sec  : 246.99\npaths_total    : 97\npaths_favored  : 35\npaths_found    : 96\npaths_imported : 0\nmax_depth      : 3\ncur_path       : 38\npending_favs   : 23\npending_total  : 83\nvariable_paths : 0\nbitmap_cvg     : 0.94%\nunique_crashes : 19\nunique_hangs   : 1\nlast_path      : 1499909524\nlast_crash     : 1499909851\nlast_hang      : 1499906582\nexec_timeout   : 40\nafl_banner     : fuzzer-master\nafl_version    : 1.85b\ncommand_line   : /home/skaramcheti/.virtualenvs/afl/bin/afl-unix/afl-fuzz -i /dev/shm/work/Flash_File_System/input -o /dev/shm/work/Flash_File_System/sync -m 4G -Q -M fuzzer-master -x /dev/shm/work/Flash_File_System/Flash_File_System.dict -- data/linux/processed-challenges/Flash_File_System/bin/Flash_File_System\n'
p63
I0
tp64
a(I3840
S'start_time     : 1499906281\nlast_update    : 1499910068\nfuzzer_pid     : 1973\ncycles_done    : 0\nexecs_done     : 915820\nexecs_per_sec  : 238.93\npaths_total    : 100\npaths_favored  : 36\npaths_found    : 99\npaths_imported : 0\nmax_depth      : 3\ncur_path       : 40\npending_favs   : 23\npending_total  : 85\nvariable_paths : 0\nbitmap_cvg     : 0.94%\nunique_crashes : 20\nunique_hangs   : 1\nlast_path      : 1499910047\nlast_crash     : 1499909976\nlast_hang      : 1499906582\nexec_timeout   : 40\nafl_banner     : fuzzer-master\nafl_version    : 1.85b\ncommand_line   : /home/skaramcheti/.virtualenvs/afl/bin/afl-unix/afl-fuzz -i /dev/shm/work/Flash_File_System/input -o /dev/shm/work/Flash_File_System/sync -m 4G -Q -M fuzzer-master -x /dev/shm/work/Flash_File_System/Flash_File_System.dict -- data/linux/processed-challenges/Flash_File_System/bin/Flash_File_System\n'
p65
I3
tp66
a(I3960
S'start_time     : 1499906281\nlast_update    : 1499910188\nfuzzer_pid     : 1973\ncycles_done    : 0\nexecs_done     : 945194\nexecs_per_sec  : 242.88\npaths_total    : 100\npaths_favored  : 36\npaths_found    : 99\npaths_imported : 0\nmax_depth      : 3\ncur_path       : 46\npending_favs   : 22\npending_total  : 84\nvariable_paths : 0\nbitmap_cvg     : 0.94%\nunique_crashes : 20\nunique_hangs   : 1\nlast_path      : 1499910047\nlast_crash     : 1499909976\nlast_hang      : 1499906582\nexec_timeout   : 40\nafl_banner     : fuzzer-master\nafl_version    : 1.85b\ncommand_line   : /home/skaramcheti/.virtualenvs/afl/bin/afl-unix/afl-fuzz -i /dev/shm/work/Flash_File_System/input -o /dev/shm/work/Flash_File_System/sync -m 4G -Q -M fuzzer-master -x /dev/shm/work/Flash_File_System/Flash_File_System.dict -- data/linux/processed-challenges/Flash_File_System/bin/Flash_File_System\n'
p67
I1
tp68
a(I4080
S'start_time     : 1499906281\nlast_update    : 1499910309\nfuzzer_pid     : 1973\ncycles_done    : 0\nexecs_done     : 974215\nexecs_per_sec  : 246.74\npaths_total    : 103\npaths_favored  : 36\npaths_found    : 102\npaths_imported : 0\nmax_depth      : 4\ncur_path       : 49\npending_favs   : 21\npending_total  : 86\nvariable_paths : 0\nbitmap_cvg     : 0.95%\nunique_crashes : 21\nunique_hangs   : 1\nlast_path      : 1499910293\nlast_crash     : 1499910300\nlast_hang      : 1499906582\nexec_timeout   : 40\nafl_banner     : fuzzer-master\nafl_version    : 1.85b\ncommand_line   : /home/skaramcheti/.virtualenvs/afl/bin/afl-unix/afl-fuzz -i /dev/shm/work/Flash_File_System/input -o /dev/shm/work/Flash_File_System/sync -m 4G -Q -M fuzzer-master -x /dev/shm/work/Flash_File_System/Flash_File_System.dict -- data/linux/processed-challenges/Flash_File_System/bin/Flash_File_System\n'
p69
I2
tp70
a(I4200
S'start_time     : 1499906281\nlast_update    : 1499910429\nfuzzer_pid     : 1973\ncycles_done    : 0\nexecs_done     : 1003328\nexecs_per_sec  : 233.14\npaths_total    : 107\npaths_favored  : 37\npaths_found    : 106\npaths_imported : 0\nmax_depth      : 4\ncur_path       : 50\npending_favs   : 21\npending_total  : 89\nvariable_paths : 0\nbitmap_cvg     : 0.96%\nunique_crashes : 23\nunique_hangs   : 1\nlast_path      : 1499910428\nlast_crash     : 1499910402\nlast_hang      : 1499906582\nexec_timeout   : 40\nafl_banner     : fuzzer-master\nafl_version    : 1.85b\ncommand_line   : /home/skaramcheti/.virtualenvs/afl/bin/afl-unix/afl-fuzz -i /dev/shm/work/Flash_File_System/input -o /dev/shm/work/Flash_File_System/sync -m 4G -Q -M fuzzer-master -x /dev/shm/work/Flash_File_System/Flash_File_System.dict -- data/linux/processed-challenges/Flash_File_System/bin/Flash_File_System\n'
p71
I8
tp72
a(I4320
S'start_time     : 1499906281\nlast_update    : 1499910549\nfuzzer_pid     : 1973\ncycles_done    : 0\nexecs_done     : 1032596\nexecs_per_sec  : 245.81\npaths_total    : 113\npaths_favored  : 37\npaths_found    : 112\npaths_imported : 0\nmax_depth      : 4\ncur_path       : 50\npending_favs   : 21\npending_total  : 95\nvariable_paths : 0\nbitmap_cvg     : 0.98%\nunique_crashes : 24\nunique_hangs   : 1\nlast_path      : 1499910502\nlast_crash     : 1499910456\nlast_hang      : 1499906582\nexec_timeout   : 40\nafl_banner     : fuzzer-master\nafl_version    : 1.85b\ncommand_line   : /home/skaramcheti/.virtualenvs/afl/bin/afl-unix/afl-fuzz -i /dev/shm/work/Flash_File_System/input -o /dev/shm/work/Flash_File_System/sync -m 4G -Q -M fuzzer-master -x /dev/shm/work/Flash_File_System/Flash_File_System.dict -- data/linux/processed-challenges/Flash_File_System/bin/Flash_File_System\n'
p73
I3
tp74
a(I4440
S'start_time     : 1499906281\nlast_update    : 1499910669\nfuzzer_pid     : 1973\ncycles_done    : 0\nexecs_done     : 1061910\nexecs_per_sec  : 237.84\npaths_total    : 114\npaths_favored  : 37\npaths_found    : 113\npaths_imported : 0\nmax_depth      : 4\ncur_path       : 50\npending_favs   : 21\npending_total  : 96\nvariable_paths : 0\nbitmap_cvg     : 0.98%\nunique_crashes : 27\nunique_hangs   : 1\nlast_path      : 1499910558\nlast_crash     : 1499910618\nlast_hang      : 1499906582\nexec_timeout   : 40\nafl_banner     : fuzzer-master\nafl_version    : 1.85b\ncommand_line   : /home/skaramcheti/.virtualenvs/afl/bin/afl-unix/afl-fuzz -i /dev/shm/work/Flash_File_System/input -o /dev/shm/work/Flash_File_System/sync -m 4G -Q -M fuzzer-master -x /dev/shm/work/Flash_File_System/Flash_File_System.dict -- data/linux/processed-challenges/Flash_File_System/bin/Flash_File_System\n'
p75
I1
tp76
a(I4560
S'start_time     : 1499906281\nlast_update    : 1499910789\nfuzzer_pid     : 1973\ncycles_done    : 0\nexecs_done     : 1091022\nexecs_per_sec  : 249.50\npaths_total    : 116\npaths_favored  : 37\npaths_found    : 115\npaths_imported : 0\nmax_depth      : 4\ncur_path       : 50\npending_favs   : 21\npending_total  : 98\nvariable_paths : 0\nbitmap_cvg     : 0.98%\nunique_crashes : 27\nunique_hangs   : 1\nlast_path      : 1499910736\nlast_crash     : 1499910618\nlast_hang      : 1499906582\nexec_timeout   : 40\nafl_banner     : fuzzer-master\nafl_version    : 1.85b\ncommand_line   : /home/skaramcheti/.virtualenvs/afl/bin/afl-unix/afl-fuzz -i /dev/shm/work/Flash_File_System/input -o /dev/shm/work/Flash_File_System/sync -m 4G -Q -M fuzzer-master -x /dev/shm/work/Flash_File_System/Flash_File_System.dict -- data/linux/processed-challenges/Flash_File_System/bin/Flash_File_System\n'
p77
I2
tp78
a(I4680
S'start_time     : 1499906281\nlast_update    : 1499910910\nfuzzer_pid     : 1973\ncycles_done    : 0\nexecs_done     : 1120190\nexecs_per_sec  : 248.33\npaths_total    : 120\npaths_favored  : 37\npaths_found    : 119\npaths_imported : 0\nmax_depth      : 4\ncur_path       : 50\npending_favs   : 21\npending_total  : 102\nvariable_paths : 0\nbitmap_cvg     : 0.99%\nunique_crashes : 27\nunique_hangs   : 1\nlast_path      : 1499910900\nlast_crash     : 1499910618\nlast_hang      : 1499906582\nexec_timeout   : 40\nafl_banner     : fuzzer-master\nafl_version    : 1.85b\ncommand_line   : /home/skaramcheti/.virtualenvs/afl/bin/afl-unix/afl-fuzz -i /dev/shm/work/Flash_File_System/input -o /dev/shm/work/Flash_File_System/sync -m 4G -Q -M fuzzer-master -x /dev/shm/work/Flash_File_System/Flash_File_System.dict -- data/linux/processed-challenges/Flash_File_System/bin/Flash_File_System\n'
p79
I4
tp80
a(I4800
S'start_time     : 1499906281\nlast_update    : 1499911030\nfuzzer_pid     : 1973\ncycles_done    : 0\nexecs_done     : 1149160\nexecs_per_sec  : 239.05\npaths_total    : 121\npaths_favored  : 37\npaths_found    : 120\npaths_imported : 0\nmax_depth      : 4\ncur_path       : 50\npending_favs   : 21\npending_total  : 103\nvariable_paths : 0\nbitmap_cvg     : 0.99%\nunique_crashes : 28\nunique_hangs   : 1\nlast_path      : 1499910939\nlast_crash     : 1499910929\nlast_hang      : 1499906582\nexec_timeout   : 40\nafl_banner     : fuzzer-master\nafl_version    : 1.85b\ncommand_line   : /home/skaramcheti/.virtualenvs/afl/bin/afl-unix/afl-fuzz -i /dev/shm/work/Flash_File_System/input -o /dev/shm/work/Flash_File_System/sync -m 4G -Q -M fuzzer-master -x /dev/shm/work/Flash_File_System/Flash_File_System.dict -- data/linux/processed-challenges/Flash_File_System/bin/Flash_File_System\n'
p81
I0
tp82
a(I4920
S'start_time     : 1499906281\nlast_update    : 1499911150\nfuzzer_pid     : 1973\ncycles_done    : 0\nexecs_done     : 1178254\nexecs_per_sec  : 243.89\npaths_total    : 121\npaths_favored  : 41\npaths_found    : 120\npaths_imported : 0\nmax_depth      : 4\ncur_path       : 55\npending_favs   : 25\npending_total  : 101\nvariable_paths : 0\nbitmap_cvg     : 0.99%\nunique_crashes : 28\nunique_hangs   : 1\nlast_path      : 1499910939\nlast_crash     : 1499910929\nlast_hang      : 1499906582\nexec_timeout   : 40\nafl_banner     : fuzzer-master\nafl_version    : 1.85b\ncommand_line   : /home/skaramcheti/.virtualenvs/afl/bin/afl-unix/afl-fuzz -i /dev/shm/work/Flash_File_System/input -o /dev/shm/work/Flash_File_System/sync -m 4G -Q -M fuzzer-master -x /dev/shm/work/Flash_File_System/Flash_File_System.dict -- data/linux/processed-challenges/Flash_File_System/bin/Flash_File_System\n'
p83
I2
tp84
a(I5040
S'start_time     : 1499906281\nlast_update    : 1499911270\nfuzzer_pid     : 1973\ncycles_done    : 0\nexecs_done     : 1206959\nexecs_per_sec  : 236.61\npaths_total    : 125\npaths_favored  : 41\npaths_found    : 124\npaths_imported : 0\nmax_depth      : 4\ncur_path       : 56\npending_favs   : 24\npending_total  : 104\nvariable_paths : 0\nbitmap_cvg     : 1.00%\nunique_crashes : 29\nunique_hangs   : 1\nlast_path      : 1499911216\nlast_crash     : 1499911253\nlast_hang      : 1499906582\nexec_timeout   : 40\nafl_banner     : fuzzer-master\nafl_version    : 1.85b\ncommand_line   : /home/skaramcheti/.virtualenvs/afl/bin/afl-unix/afl-fuzz -i /dev/shm/work/Flash_File_System/input -o /dev/shm/work/Flash_File_System/sync -m 4G -Q -M fuzzer-master -x /dev/shm/work/Flash_File_System/Flash_File_System.dict -- data/linux/processed-challenges/Flash_File_System/bin/Flash_File_System\n'
p85
I5
tp86
a(I5160
S'start_time     : 1499906281\nlast_update    : 1499911391\nfuzzer_pid     : 1973\ncycles_done    : 0\nexecs_done     : 1236125\nexecs_per_sec  : 234.16\npaths_total    : 128\npaths_favored  : 41\npaths_found    : 127\npaths_imported : 0\nmax_depth      : 4\ncur_path       : 56\npending_favs   : 24\npending_total  : 107\nvariable_paths : 0\nbitmap_cvg     : 1.00%\nunique_crashes : 29\nunique_hangs   : 1\nlast_path      : 1499911314\nlast_crash     : 1499911253\nlast_hang      : 1499906582\nexec_timeout   : 40\nafl_banner     : fuzzer-master\nafl_version    : 1.85b\ncommand_line   : /home/skaramcheti/.virtualenvs/afl/bin/afl-unix/afl-fuzz -i /dev/shm/work/Flash_File_System/input -o /dev/shm/work/Flash_File_System/sync -m 4G -Q -M fuzzer-master -x /dev/shm/work/Flash_File_System/Flash_File_System.dict -- data/linux/processed-challenges/Flash_File_System/bin/Flash_File_System\n'
p87
I1
tp88
a(I5280
S'start_time     : 1499906281\nlast_update    : 1499911511\nfuzzer_pid     : 1973\ncycles_done    : 0\nexecs_done     : 1265345\nexecs_per_sec  : 250.82\npaths_total    : 129\npaths_favored  : 41\npaths_found    : 128\npaths_imported : 0\nmax_depth      : 4\ncur_path       : 56\npending_favs   : 24\npending_total  : 108\nvariable_paths : 0\nbitmap_cvg     : 1.00%\nunique_crashes : 29\nunique_hangs   : 1\nlast_path      : 1499911437\nlast_crash     : 1499911253\nlast_hang      : 1499906582\nexec_timeout   : 40\nafl_banner     : fuzzer-master\nafl_version    : 1.85b\ncommand_line   : /home/skaramcheti/.virtualenvs/afl/bin/afl-unix/afl-fuzz -i /dev/shm/work/Flash_File_System/input -o /dev/shm/work/Flash_File_System/sync -m 4G -Q -M fuzzer-master -x /dev/shm/work/Flash_File_System/Flash_File_System.dict -- data/linux/processed-challenges/Flash_File_System/bin/Flash_File_System\n'
p89
I0
tp90
a(I5400
S'start_time     : 1499906281\nlast_update    : 1499911631\nfuzzer_pid     : 1973\ncycles_done    : 0\nexecs_done     : 1294535\nexecs_per_sec  : 241.43\npaths_total    : 129\npaths_favored  : 41\npaths_found    : 128\npaths_imported : 0\nmax_depth      : 4\ncur_path       : 56\npending_favs   : 24\npending_total  : 108\nvariable_paths : 0\nbitmap_cvg     : 1.00%\nunique_crashes : 30\nunique_hangs   : 1\nlast_path      : 1499911437\nlast_crash     : 1499911623\nlast_hang      : 1499906582\nexec_timeout   : 40\nafl_banner     : fuzzer-master\nafl_version    : 1.85b\ncommand_line   : /home/skaramcheti/.virtualenvs/afl/bin/afl-unix/afl-fuzz -i /dev/shm/work/Flash_File_System/input -o /dev/shm/work/Flash_File_System/sync -m 4G -Q -M fuzzer-master -x /dev/shm/work/Flash_File_System/Flash_File_System.dict -- data/linux/processed-challenges/Flash_File_System/bin/Flash_File_System\n'
p91
I0
tp92
a(I5520
S'start_time     : 1499906281\nlast_update    : 1499911751\nfuzzer_pid     : 1973\ncycles_done    : 0\nexecs_done     : 1323905\nexecs_per_sec  : 247.13\npaths_total    : 130\npaths_favored  : 41\npaths_found    : 129\npaths_imported : 0\nmax_depth      : 4\ncur_path       : 56\npending_favs   : 24\npending_total  : 109\nvariable_paths : 0\nbitmap_cvg     : 1.00%\nunique_crashes : 30\nunique_hangs   : 1\nlast_path      : 1499911742\nlast_crash     : 1499911623\nlast_hang      : 1499906582\nexec_timeout   : 40\nafl_banner     : fuzzer-master\nafl_version    : 1.85b\ncommand_line   : /home/skaramcheti/.virtualenvs/afl/bin/afl-unix/afl-fuzz -i /dev/shm/work/Flash_File_System/input -o /dev/shm/work/Flash_File_System/sync -m 4G -Q -M fuzzer-master -x /dev/shm/work/Flash_File_System/Flash_File_System.dict -- data/linux/processed-challenges/Flash_File_System/bin/Flash_File_System\n'
p93
I1
tp94
a(I5640
S'start_time     : 1499906281\nlast_update    : 1499911871\nfuzzer_pid     : 1973\ncycles_done    : 0\nexecs_done     : 1353381\nexecs_per_sec  : 245.05\npaths_total    : 130\npaths_favored  : 40\npaths_found    : 129\npaths_imported : 0\nmax_depth      : 4\ncur_path       : 59\npending_favs   : 24\npending_total  : 108\nvariable_paths : 0\nbitmap_cvg     : 1.00%\nunique_crashes : 31\nunique_hangs   : 1\nlast_path      : 1499911742\nlast_crash     : 1499911855\nlast_hang      : 1499906582\nexec_timeout   : 40\nafl_banner     : fuzzer-master\nafl_version    : 1.85b\ncommand_line   : /home/skaramcheti/.virtualenvs/afl/bin/afl-unix/afl-fuzz -i /dev/shm/work/Flash_File_System/input -o /dev/shm/work/Flash_File_System/sync -m 4G -Q -M fuzzer-master -x /dev/shm/work/Flash_File_System/Flash_File_System.dict -- data/linux/processed-challenges/Flash_File_System/bin/Flash_File_System\n'
p95
I3
tp96
a(I5760
S'start_time     : 1499906281\nlast_update    : 1499911992\nfuzzer_pid     : 1973\ncycles_done    : 0\nexecs_done     : 1382499\nexecs_per_sec  : 241.47\npaths_total    : 135\npaths_favored  : 40\npaths_found    : 134\npaths_imported : 0\nmax_depth      : 4\ncur_path       : 59\npending_favs   : 24\npending_total  : 113\nvariable_paths : 0\nbitmap_cvg     : 1.10%\nunique_crashes : 31\nunique_hangs   : 1\nlast_path      : 1499911972\nlast_crash     : 1499911855\nlast_hang      : 1499906582\nexec_timeout   : 40\nafl_banner     : fuzzer-master\nafl_version    : 1.85b\ncommand_line   : /home/skaramcheti/.virtualenvs/afl/bin/afl-unix/afl-fuzz -i /dev/shm/work/Flash_File_System/input -o /dev/shm/work/Flash_File_System/sync -m 4G -Q -M fuzzer-master -x /dev/shm/work/Flash_File_System/Flash_File_System.dict -- data/linux/processed-challenges/Flash_File_System/bin/Flash_File_System\n'
p97
I3
tp98
a(I5880
S'start_time     : 1499906281\nlast_update    : 1499912112\nfuzzer_pid     : 1973\ncycles_done    : 0\nexecs_done     : 1411907\nexecs_per_sec  : 245.33\npaths_total    : 139\npaths_favored  : 40\npaths_found    : 138\npaths_imported : 0\nmax_depth      : 4\ncur_path       : 59\npending_favs   : 24\npending_total  : 117\nvariable_paths : 0\nbitmap_cvg     : 1.10%\nunique_crashes : 32\nunique_hangs   : 1\nlast_path      : 1499912090\nlast_crash     : 1499912035\nlast_hang      : 1499906582\nexec_timeout   : 40\nafl_banner     : fuzzer-master\nafl_version    : 1.85b\ncommand_line   : /home/skaramcheti/.virtualenvs/afl/bin/afl-unix/afl-fuzz -i /dev/shm/work/Flash_File_System/input -o /dev/shm/work/Flash_File_System/sync -m 4G -Q -M fuzzer-master -x /dev/shm/work/Flash_File_System/Flash_File_System.dict -- data/linux/processed-challenges/Flash_File_System/bin/Flash_File_System\n'
p99
I3
tp100
a(I6000
S'start_time     : 1499906281\nlast_update    : 1499912232\nfuzzer_pid     : 1973\ncycles_done    : 0\nexecs_done     : 1441139\nexecs_per_sec  : 243.57\npaths_total    : 139\npaths_favored  : 40\npaths_found    : 138\npaths_imported : 0\nmax_depth      : 4\ncur_path       : 59\npending_favs   : 24\npending_total  : 117\nvariable_paths : 0\nbitmap_cvg     : 1.10%\nunique_crashes : 33\nunique_hangs   : 1\nlast_path      : 1499912090\nlast_crash     : 1499912219\nlast_hang      : 1499906582\nexec_timeout   : 40\nafl_banner     : fuzzer-master\nafl_version    : 1.85b\ncommand_line   : /home/skaramcheti/.virtualenvs/afl/bin/afl-unix/afl-fuzz -i /dev/shm/work/Flash_File_System/input -o /dev/shm/work/Flash_File_System/sync -m 4G -Q -M fuzzer-master -x /dev/shm/work/Flash_File_System/Flash_File_System.dict -- data/linux/processed-challenges/Flash_File_System/bin/Flash_File_System\n'
p101
I0
tp102
a(I6120
S'start_time     : 1499906281\nlast_update    : 1499912352\nfuzzer_pid     : 1973\ncycles_done    : 0\nexecs_done     : 1470261\nexecs_per_sec  : 241.10\npaths_total    : 140\npaths_favored  : 40\npaths_found    : 139\npaths_imported : 0\nmax_depth      : 4\ncur_path       : 59\npending_favs   : 24\npending_total  : 118\nvariable_paths : 0\nbitmap_cvg     : 1.10%\nunique_crashes : 35\nunique_hangs   : 1\nlast_path      : 1499912340\nlast_crash     : 1499912344\nlast_hang      : 1499906582\nexec_timeout   : 40\nafl_banner     : fuzzer-master\nafl_version    : 1.85b\ncommand_line   : /home/skaramcheti/.virtualenvs/afl/bin/afl-unix/afl-fuzz -i /dev/shm/work/Flash_File_System/input -o /dev/shm/work/Flash_File_System/sync -m 4G -Q -M fuzzer-master -x /dev/shm/work/Flash_File_System/Flash_File_System.dict -- data/linux/processed-challenges/Flash_File_System/bin/Flash_File_System\n'
p103
I1
tp104
a(I6240
S'start_time     : 1499906281\nlast_update    : 1499912473\nfuzzer_pid     : 1973\ncycles_done    : 0\nexecs_done     : 1499899\nexecs_per_sec  : 240.78\npaths_total    : 141\npaths_favored  : 40\npaths_found    : 140\npaths_imported : 0\nmax_depth      : 4\ncur_path       : 59\npending_favs   : 24\npending_total  : 119\nvariable_paths : 0\nbitmap_cvg     : 1.10%\nunique_crashes : 35\nunique_hangs   : 1\nlast_path      : 1499912452\nlast_crash     : 1499912344\nlast_hang      : 1499906582\nexec_timeout   : 40\nafl_banner     : fuzzer-master\nafl_version    : 1.85b\ncommand_line   : /home/skaramcheti/.virtualenvs/afl/bin/afl-unix/afl-fuzz -i /dev/shm/work/Flash_File_System/input -o /dev/shm/work/Flash_File_System/sync -m 4G -Q -M fuzzer-master -x /dev/shm/work/Flash_File_System/Flash_File_System.dict -- data/linux/processed-challenges/Flash_File_System/bin/Flash_File_System\n'
p105
I2
tp106
a(I6360
S'start_time     : 1499906281\nlast_update    : 1499912593\nfuzzer_pid     : 1973\ncycles_done    : 0\nexecs_done     : 1529231\nexecs_per_sec  : 237.71\npaths_total    : 142\npaths_favored  : 39\npaths_found    : 141\npaths_imported : 0\nmax_depth      : 4\ncur_path       : 61\npending_favs   : 26\npending_total  : 119\nvariable_paths : 0\nbitmap_cvg     : 1.11%\nunique_crashes : 36\nunique_hangs   : 1\nlast_path      : 1499912499\nlast_crash     : 1499912578\nlast_hang      : 1499906582\nexec_timeout   : 40\nafl_banner     : fuzzer-master\nafl_version    : 1.85b\ncommand_line   : /home/skaramcheti/.virtualenvs/afl/bin/afl-unix/afl-fuzz -i /dev/shm/work/Flash_File_System/input -o /dev/shm/work/Flash_File_System/sync -m 4G -Q -M fuzzer-master -x /dev/shm/work/Flash_File_System/Flash_File_System.dict -- data/linux/processed-challenges/Flash_File_System/bin/Flash_File_System\n'
p107
I1
tp108
a(I6480
S'start_time     : 1499906281\nlast_update    : 1499912713\nfuzzer_pid     : 1973\ncycles_done    : 0\nexecs_done     : 1558747\nexecs_per_sec  : 242.37\npaths_total    : 144\npaths_favored  : 39\npaths_found    : 143\npaths_imported : 0\nmax_depth      : 4\ncur_path       : 74\npending_favs   : 23\npending_total  : 118\nvariable_paths : 0\nbitmap_cvg     : 1.11%\nunique_crashes : 36\nunique_hangs   : 1\nlast_path      : 1499912665\nlast_crash     : 1499912578\nlast_hang      : 1499906582\nexec_timeout   : 40\nafl_banner     : fuzzer-master\nafl_version    : 1.85b\ncommand_line   : /home/skaramcheti/.virtualenvs/afl/bin/afl-unix/afl-fuzz -i /dev/shm/work/Flash_File_System/input -o /dev/shm/work/Flash_File_System/sync -m 4G -Q -M fuzzer-master -x /dev/shm/work/Flash_File_System/Flash_File_System.dict -- data/linux/processed-challenges/Flash_File_System/bin/Flash_File_System\n'
p109
I1
tp110
a(I6600
S'start_time     : 1499906281\nlast_update    : 1499912833\nfuzzer_pid     : 1973\ncycles_done    : 0\nexecs_done     : 1588202\nexecs_per_sec  : 248.10\npaths_total    : 146\npaths_favored  : 39\npaths_found    : 145\npaths_imported : 0\nmax_depth      : 4\ncur_path       : 75\npending_favs   : 22\npending_total  : 119\nvariable_paths : 0\nbitmap_cvg     : 1.11%\nunique_crashes : 36\nunique_hangs   : 1\nlast_path      : 1499912802\nlast_crash     : 1499912578\nlast_hang      : 1499906582\nexec_timeout   : 40\nafl_banner     : fuzzer-master\nafl_version    : 1.85b\ncommand_line   : /home/skaramcheti/.virtualenvs/afl/bin/afl-unix/afl-fuzz -i /dev/shm/work/Flash_File_System/input -o /dev/shm/work/Flash_File_System/sync -m 4G -Q -M fuzzer-master -x /dev/shm/work/Flash_File_System/Flash_File_System.dict -- data/linux/processed-challenges/Flash_File_System/bin/Flash_File_System\n'
p111
I2
tp112
a(I6720
S'start_time     : 1499906281\nlast_update    : 1499912953\nfuzzer_pid     : 1973\ncycles_done    : 0\nexecs_done     : 1617581\nexecs_per_sec  : 245.18\npaths_total    : 146\npaths_favored  : 39\npaths_found    : 145\npaths_imported : 0\nmax_depth      : 4\ncur_path       : 79\npending_favs   : 21\npending_total  : 117\nvariable_paths : 0\nbitmap_cvg     : 1.11%\nunique_crashes : 38\nunique_hangs   : 1\nlast_path      : 1499912802\nlast_crash     : 1499912946\nlast_hang      : 1499906582\nexec_timeout   : 40\nafl_banner     : fuzzer-master\nafl_version    : 1.85b\ncommand_line   : /home/skaramcheti/.virtualenvs/afl/bin/afl-unix/afl-fuzz -i /dev/shm/work/Flash_File_System/input -o /dev/shm/work/Flash_File_System/sync -m 4G -Q -M fuzzer-master -x /dev/shm/work/Flash_File_System/Flash_File_System.dict -- data/linux/processed-challenges/Flash_File_System/bin/Flash_File_System\n'
p113
I0
tp114
a(I6840
S'start_time     : 1499906281\nlast_update    : 1499913074\nfuzzer_pid     : 1973\ncycles_done    : 0\nexecs_done     : 1647137\nexecs_per_sec  : 242.32\npaths_total    : 149\npaths_favored  : 39\npaths_found    : 148\npaths_imported : 0\nmax_depth      : 4\ncur_path       : 87\npending_favs   : 20\npending_total  : 119\nvariable_paths : 0\nbitmap_cvg     : 1.11%\nunique_crashes : 39\nunique_hangs   : 1\nlast_path      : 1499913045\nlast_crash     : 1499913015\nlast_hang      : 1499906582\nexec_timeout   : 40\nafl_banner     : fuzzer-master\nafl_version    : 1.85b\ncommand_line   : /home/skaramcheti/.virtualenvs/afl/bin/afl-unix/afl-fuzz -i /dev/shm/work/Flash_File_System/input -o /dev/shm/work/Flash_File_System/sync -m 4G -Q -M fuzzer-master -x /dev/shm/work/Flash_File_System/Flash_File_System.dict -- data/linux/processed-challenges/Flash_File_System/bin/Flash_File_System\n'
p115
I3
tp116
a(I6960
S'start_time     : 1499906281\nlast_update    : 1499913194\nfuzzer_pid     : 1973\ncycles_done    : 0\nexecs_done     : 1676465\nexecs_per_sec  : 243.79\npaths_total    : 149\npaths_favored  : 39\npaths_found    : 148\npaths_imported : 0\nmax_depth      : 4\ncur_path       : 89\npending_favs   : 19\npending_total  : 118\nvariable_paths : 0\nbitmap_cvg     : 1.11%\nunique_crashes : 39\nunique_hangs   : 1\nlast_path      : 1499913045\nlast_crash     : 1499913015\nlast_hang      : 1499906582\nexec_timeout   : 40\nafl_banner     : fuzzer-master\nafl_version    : 1.85b\ncommand_line   : /home/skaramcheti/.virtualenvs/afl/bin/afl-unix/afl-fuzz -i /dev/shm/work/Flash_File_System/input -o /dev/shm/work/Flash_File_System/sync -m 4G -Q -M fuzzer-master -x /dev/shm/work/Flash_File_System/Flash_File_System.dict -- data/linux/processed-challenges/Flash_File_System/bin/Flash_File_System\n'
p117
I0
tp118
a(I7080
S'start_time     : 1499906281\nlast_update    : 1499913314\nfuzzer_pid     : 1973\ncycles_done    : 0\nexecs_done     : 1705140\nexecs_per_sec  : 242.85\npaths_total    : 150\npaths_favored  : 39\npaths_found    : 149\npaths_imported : 0\nmax_depth      : 5\ncur_path       : 107\npending_favs   : 17\npending_total  : 117\nvariable_paths : 0\nbitmap_cvg     : 1.12%\nunique_crashes : 39\nunique_hangs   : 1\nlast_path      : 1499913296\nlast_crash     : 1499913015\nlast_hang      : 1499906582\nexec_timeout   : 40\nafl_banner     : fuzzer-master\nafl_version    : 1.85b\ncommand_line   : /home/skaramcheti/.virtualenvs/afl/bin/afl-unix/afl-fuzz -i /dev/shm/work/Flash_File_System/input -o /dev/shm/work/Flash_File_System/sync -m 4G -Q -M fuzzer-master -x /dev/shm/work/Flash_File_System/Flash_File_System.dict -- data/linux/processed-challenges/Flash_File_System/bin/Flash_File_System\n'
p119
I2
tp120
a(I7200
S'start_time     : 1499906281\nlast_update    : 1499913434\nfuzzer_pid     : 1973\ncycles_done    : 0\nexecs_done     : 1734660\nexecs_per_sec  : 241.36\npaths_total    : 152\npaths_favored  : 39\npaths_found    : 151\npaths_imported : 0\nmax_depth      : 5\ncur_path       : 107\npending_favs   : 17\npending_total  : 119\nvariable_paths : 0\nbitmap_cvg     : 1.12%\nunique_crashes : 40\nunique_hangs   : 1\nlast_path      : 1499913390\nlast_crash     : 1499913394\nlast_hang      : 1499906582\nexec_timeout   : 40\nafl_banner     : fuzzer-master\nafl_version    : 1.85b\ncommand_line   : /home/skaramcheti/.virtualenvs/afl/bin/afl-unix/afl-fuzz -i /dev/shm/work/Flash_File_System/input -o /dev/shm/work/Flash_File_System/sync -m 4G -Q -M fuzzer-master -x /dev/shm/work/Flash_File_System/Flash_File_System.dict -- data/linux/processed-challenges/Flash_File_System/bin/Flash_File_System\n'
p121
I1
tp122
a(I7320
S'start_time     : 1499906281\nlast_update    : 1499913554\nfuzzer_pid     : 1973\ncycles_done    : 0\nexecs_done     : 1764099\nexecs_per_sec  : 246.68\npaths_total    : 154\npaths_favored  : 42\npaths_found    : 153\npaths_imported : 0\nmax_depth      : 5\ncur_path       : 109\npending_favs   : 19\npending_total  : 120\nvariable_paths : 0\nbitmap_cvg     : 1.12%\nunique_crashes : 41\nunique_hangs   : 1\nlast_path      : 1499913522\nlast_crash     : 1499913538\nlast_hang      : 1499906582\nexec_timeout   : 40\nafl_banner     : fuzzer-master\nafl_version    : 1.85b\ncommand_line   : /home/skaramcheti/.virtualenvs/afl/bin/afl-unix/afl-fuzz -i /dev/shm/work/Flash_File_System/input -o /dev/shm/work/Flash_File_System/sync -m 4G -Q -M fuzzer-master -x /dev/shm/work/Flash_File_System/Flash_File_System.dict -- data/linux/processed-challenges/Flash_File_System/bin/Flash_File_System\n'
p123
I2
tp124
a(I7440
S'start_time     : 1499906281\nlast_update    : 1499913675\nfuzzer_pid     : 1973\ncycles_done    : 0\nexecs_done     : 1793456\nexecs_per_sec  : 240.34\npaths_total    : 154\npaths_favored  : 42\npaths_found    : 153\npaths_imported : 0\nmax_depth      : 5\ncur_path       : 112\npending_favs   : 18\npending_total  : 119\nvariable_paths : 0\nbitmap_cvg     : 1.12%\nunique_crashes : 42\nunique_hangs   : 1\nlast_path      : 1499913522\nlast_crash     : 1499913624\nlast_hang      : 1499906582\nexec_timeout   : 40\nafl_banner     : fuzzer-master\nafl_version    : 1.85b\ncommand_line   : /home/skaramcheti/.virtualenvs/afl/bin/afl-unix/afl-fuzz -i /dev/shm/work/Flash_File_System/input -o /dev/shm/work/Flash_File_System/sync -m 4G -Q -M fuzzer-master -x /dev/shm/work/Flash_File_System/Flash_File_System.dict -- data/linux/processed-challenges/Flash_File_System/bin/Flash_File_System\n'
p125
I1
tp126
a(I7560
S'start_time     : 1499906281\nlast_update    : 1499913795\nfuzzer_pid     : 1973\ncycles_done    : 0\nexecs_done     : 1822779\nexecs_per_sec  : 237.53\npaths_total    : 157\npaths_favored  : 42\npaths_found    : 156\npaths_imported : 0\nmax_depth      : 5\ncur_path       : 112\npending_favs   : 18\npending_total  : 122\nvariable_paths : 0\nbitmap_cvg     : 1.12%\nunique_crashes : 42\nunique_hangs   : 1\nlast_path      : 1499913769\nlast_crash     : 1499913624\nlast_hang      : 1499906582\nexec_timeout   : 40\nafl_banner     : fuzzer-master\nafl_version    : 1.85b\ncommand_line   : /home/skaramcheti/.virtualenvs/afl/bin/afl-unix/afl-fuzz -i /dev/shm/work/Flash_File_System/input -o /dev/shm/work/Flash_File_System/sync -m 4G -Q -M fuzzer-master -x /dev/shm/work/Flash_File_System/Flash_File_System.dict -- data/linux/processed-challenges/Flash_File_System/bin/Flash_File_System\n'
p127
I3
tp128
a(I7680
S'start_time     : 1499906281\nlast_update    : 1499913915\nfuzzer_pid     : 1973\ncycles_done    : 0\nexecs_done     : 1851853\nexecs_per_sec  : 242.89\npaths_total    : 158\npaths_favored  : 42\npaths_found    : 157\npaths_imported : 0\nmax_depth      : 5\ncur_path       : 112\npending_favs   : 18\npending_total  : 123\nvariable_paths : 0\nbitmap_cvg     : 1.13%\nunique_crashes : 42\nunique_hangs   : 1\nlast_path      : 1499913837\nlast_crash     : 1499913624\nlast_hang      : 1499906582\nexec_timeout   : 40\nafl_banner     : fuzzer-master\nafl_version    : 1.85b\ncommand_line   : /home/skaramcheti/.virtualenvs/afl/bin/afl-unix/afl-fuzz -i /dev/shm/work/Flash_File_System/input -o /dev/shm/work/Flash_File_System/sync -m 4G -Q -M fuzzer-master -x /dev/shm/work/Flash_File_System/Flash_File_System.dict -- data/linux/processed-challenges/Flash_File_System/bin/Flash_File_System\n'
p129
I0
tp130
a(I7800
S'start_time     : 1499906281\nlast_update    : 1499914035\nfuzzer_pid     : 1973\ncycles_done    : 0\nexecs_done     : 1880745\nexecs_per_sec  : 245.80\npaths_total    : 158\npaths_favored  : 42\npaths_found    : 157\npaths_imported : 0\nmax_depth      : 5\ncur_path       : 112\npending_favs   : 18\npending_total  : 123\nvariable_paths : 0\nbitmap_cvg     : 1.13%\nunique_crashes : 42\nunique_hangs   : 1\nlast_path      : 1499913837\nlast_crash     : 1499913624\nlast_hang      : 1499906582\nexec_timeout   : 40\nafl_banner     : fuzzer-master\nafl_version    : 1.85b\ncommand_line   : /home/skaramcheti/.virtualenvs/afl/bin/afl-unix/afl-fuzz -i /dev/shm/work/Flash_File_System/input -o /dev/shm/work/Flash_File_System/sync -m 4G -Q -M fuzzer-master -x /dev/shm/work/Flash_File_System/Flash_File_System.dict -- data/linux/processed-challenges/Flash_File_System/bin/Flash_File_System\n'
p131
I0
tp132
a(I7920
S'start_time     : 1499906281\nlast_update    : 1499914156\nfuzzer_pid     : 1973\ncycles_done    : 0\nexecs_done     : 1909897\nexecs_per_sec  : 241.32\npaths_total    : 158\npaths_favored  : 42\npaths_found    : 157\npaths_imported : 0\nmax_depth      : 5\ncur_path       : 112\npending_favs   : 18\npending_total  : 123\nvariable_paths : 0\nbitmap_cvg     : 1.13%\nunique_crashes : 42\nunique_hangs   : 1\nlast_path      : 1499913837\nlast_crash     : 1499913624\nlast_hang      : 1499906582\nexec_timeout   : 40\nafl_banner     : fuzzer-master\nafl_version    : 1.85b\ncommand_line   : /home/skaramcheti/.virtualenvs/afl/bin/afl-unix/afl-fuzz -i /dev/shm/work/Flash_File_System/input -o /dev/shm/work/Flash_File_System/sync -m 4G -Q -M fuzzer-master -x /dev/shm/work/Flash_File_System/Flash_File_System.dict -- data/linux/processed-challenges/Flash_File_System/bin/Flash_File_System\n'
p133
I0
tp134
a(I8040
S'start_time     : 1499906281\nlast_update    : 1499914276\nfuzzer_pid     : 1973\ncycles_done    : 0\nexecs_done     : 1938929\nexecs_per_sec  : 242.12\npaths_total    : 158\npaths_favored  : 42\npaths_found    : 157\npaths_imported : 0\nmax_depth      : 5\ncur_path       : 112\npending_favs   : 18\npending_total  : 123\nvariable_paths : 0\nbitmap_cvg     : 1.13%\nunique_crashes : 42\nunique_hangs   : 1\nlast_path      : 1499913837\nlast_crash     : 1499913624\nlast_hang      : 1499906582\nexec_timeout   : 40\nafl_banner     : fuzzer-master\nafl_version    : 1.85b\ncommand_line   : /home/skaramcheti/.virtualenvs/afl/bin/afl-unix/afl-fuzz -i /dev/shm/work/Flash_File_System/input -o /dev/shm/work/Flash_File_System/sync -m 4G -Q -M fuzzer-master -x /dev/shm/work/Flash_File_System/Flash_File_System.dict -- data/linux/processed-challenges/Flash_File_System/bin/Flash_File_System\n'
p135
I0
tp136
a(I8160
S'start_time     : 1499906281\nlast_update    : 1499914396\nfuzzer_pid     : 1973\ncycles_done    : 0\nexecs_done     : 1967973\nexecs_per_sec  : 244.17\npaths_total    : 159\npaths_favored  : 44\npaths_found    : 158\npaths_imported : 0\nmax_depth      : 5\ncur_path       : 113\npending_favs   : 19\npending_total  : 123\nvariable_paths : 0\nbitmap_cvg     : 1.13%\nunique_crashes : 42\nunique_hangs   : 1\nlast_path      : 1499914385\nlast_crash     : 1499913624\nlast_hang      : 1499906582\nexec_timeout   : 40\nafl_banner     : fuzzer-master\nafl_version    : 1.85b\ncommand_line   : /home/skaramcheti/.virtualenvs/afl/bin/afl-unix/afl-fuzz -i /dev/shm/work/Flash_File_System/input -o /dev/shm/work/Flash_File_System/sync -m 4G -Q -M fuzzer-master -x /dev/shm/work/Flash_File_System/Flash_File_System.dict -- data/linux/processed-challenges/Flash_File_System/bin/Flash_File_System\n'
p137
I1
tp138
a(I8280
S'start_time     : 1499906281\nlast_update    : 1499914516\nfuzzer_pid     : 1973\ncycles_done    : 0\nexecs_done     : 1996941\nexecs_per_sec  : 237.97\npaths_total    : 159\npaths_favored  : 44\npaths_found    : 158\npaths_imported : 0\nmax_depth      : 5\ncur_path       : 117\npending_favs   : 18\npending_total  : 122\nvariable_paths : 0\nbitmap_cvg     : 1.13%\nunique_crashes : 42\nunique_hangs   : 1\nlast_path      : 1499914385\nlast_crash     : 1499913624\nlast_hang      : 1499906582\nexec_timeout   : 40\nafl_banner     : fuzzer-master\nafl_version    : 1.85b\ncommand_line   : /home/skaramcheti/.virtualenvs/afl/bin/afl-unix/afl-fuzz -i /dev/shm/work/Flash_File_System/input -o /dev/shm/work/Flash_File_System/sync -m 4G -Q -M fuzzer-master -x /dev/shm/work/Flash_File_System/Flash_File_System.dict -- data/linux/processed-challenges/Flash_File_System/bin/Flash_File_System\n'
p139
I0
tp140
a(I8400
S'start_time     : 1499906281\nlast_update    : 1499914636\nfuzzer_pid     : 1973\ncycles_done    : 0\nexecs_done     : 2025870\nexecs_per_sec  : 250.21\npaths_total    : 160\npaths_favored  : 44\npaths_found    : 159\npaths_imported : 0\nmax_depth      : 5\ncur_path       : 121\npending_favs   : 17\npending_total  : 122\nvariable_paths : 0\nbitmap_cvg     : 1.13%\nunique_crashes : 45\nunique_hangs   : 1\nlast_path      : 1499914607\nlast_crash     : 1499914544\nlast_hang      : 1499906582\nexec_timeout   : 40\nafl_banner     : fuzzer-master\nafl_version    : 1.85b\ncommand_line   : /home/skaramcheti/.virtualenvs/afl/bin/afl-unix/afl-fuzz -i /dev/shm/work/Flash_File_System/input -o /dev/shm/work/Flash_File_System/sync -m 4G -Q -M fuzzer-master -x /dev/shm/work/Flash_File_System/Flash_File_System.dict -- data/linux/processed-challenges/Flash_File_System/bin/Flash_File_System\n'
p141
I1
tp142
a(I8520
S'start_time     : 1499906281\nlast_update    : 1499914757\nfuzzer_pid     : 1973\ncycles_done    : 0\nexecs_done     : 2054860\nexecs_per_sec  : 242.21\npaths_total    : 160\npaths_favored  : 45\npaths_found    : 159\npaths_imported : 0\nmax_depth      : 5\ncur_path       : 124\npending_favs   : 17\npending_total  : 121\nvariable_paths : 0\nbitmap_cvg     : 1.13%\nunique_crashes : 45\nunique_hangs   : 1\nlast_path      : 1499914607\nlast_crash     : 1499914544\nlast_hang      : 1499906582\nexec_timeout   : 40\nafl_banner     : fuzzer-master\nafl_version    : 1.85b\ncommand_line   : /home/skaramcheti/.virtualenvs/afl/bin/afl-unix/afl-fuzz -i /dev/shm/work/Flash_File_System/input -o /dev/shm/work/Flash_File_System/sync -m 4G -Q -M fuzzer-master -x /dev/shm/work/Flash_File_System/Flash_File_System.dict -- data/linux/processed-challenges/Flash_File_System/bin/Flash_File_System\n'
p143
I0
tp144
a(I8640
S'start_time     : 1499906281\nlast_update    : 1499914877\nfuzzer_pid     : 1973\ncycles_done    : 0\nexecs_done     : 2083853\nexecs_per_sec  : 246.27\npaths_total    : 164\npaths_favored  : 45\npaths_found    : 163\npaths_imported : 0\nmax_depth      : 5\ncur_path       : 130\npending_favs   : 16\npending_total  : 124\nvariable_paths : 0\nbitmap_cvg     : 1.20%\nunique_crashes : 45\nunique_hangs   : 1\nlast_path      : 1499914877\nlast_crash     : 1499914544\nlast_hang      : 1499906582\nexec_timeout   : 40\nafl_banner     : fuzzer-master\nafl_version    : 1.85b\ncommand_line   : /home/skaramcheti/.virtualenvs/afl/bin/afl-unix/afl-fuzz -i /dev/shm/work/Flash_File_System/input -o /dev/shm/work/Flash_File_System/sync -m 4G -Q -M fuzzer-master -x /dev/shm/work/Flash_File_System/Flash_File_System.dict -- data/linux/processed-challenges/Flash_File_System/bin/Flash_File_System\n'
p145
I4
tp146
a(I8760
S'start_time     : 1499906281\nlast_update    : 1499914997\nfuzzer_pid     : 1973\ncycles_done    : 0\nexecs_done     : 2112789\nexecs_per_sec  : 241.17\npaths_total    : 168\npaths_favored  : 45\npaths_found    : 167\npaths_imported : 0\nmax_depth      : 5\ncur_path       : 130\npending_favs   : 16\npending_total  : 128\nvariable_paths : 0\nbitmap_cvg     : 1.21%\nunique_crashes : 47\nunique_hangs   : 1\nlast_path      : 1499914993\nlast_crash     : 1499914898\nlast_hang      : 1499906582\nexec_timeout   : 40\nafl_banner     : fuzzer-master\nafl_version    : 1.85b\ncommand_line   : /home/skaramcheti/.virtualenvs/afl/bin/afl-unix/afl-fuzz -i /dev/shm/work/Flash_File_System/input -o /dev/shm/work/Flash_File_System/sync -m 4G -Q -M fuzzer-master -x /dev/shm/work/Flash_File_System/Flash_File_System.dict -- data/linux/processed-challenges/Flash_File_System/bin/Flash_File_System\n'
p147
I5
tp148
a(I8880
S'start_time     : 1499906281\nlast_update    : 1499915117\nfuzzer_pid     : 1973\ncycles_done    : 0\nexecs_done     : 2141761\nexecs_per_sec  : 236.15\npaths_total    : 170\npaths_favored  : 45\npaths_found    : 169\npaths_imported : 0\nmax_depth      : 5\ncur_path       : 130\npending_favs   : 16\npending_total  : 130\nvariable_paths : 0\nbitmap_cvg     : 1.21%\nunique_crashes : 49\nunique_hangs   : 1\nlast_path      : 1499915082\nlast_crash     : 1499915103\nlast_hang      : 1499906582\nexec_timeout   : 40\nafl_banner     : fuzzer-master\nafl_version    : 1.85b\ncommand_line   : /home/skaramcheti/.virtualenvs/afl/bin/afl-unix/afl-fuzz -i /dev/shm/work/Flash_File_System/input -o /dev/shm/work/Flash_File_System/sync -m 4G -Q -M fuzzer-master -x /dev/shm/work/Flash_File_System/Flash_File_System.dict -- data/linux/processed-challenges/Flash_File_System/bin/Flash_File_System\n'
p149
I1
tp150
a(I9000
S'start_time     : 1499906281\nlast_update    : 1499915237\nfuzzer_pid     : 1973\ncycles_done    : 0\nexecs_done     : 2171001\nexecs_per_sec  : 243.17\npaths_total    : 170\npaths_favored  : 45\npaths_found    : 169\npaths_imported : 0\nmax_depth      : 5\ncur_path       : 130\npending_favs   : 16\npending_total  : 130\nvariable_paths : 0\nbitmap_cvg     : 1.21%\nunique_crashes : 50\nunique_hangs   : 1\nlast_path      : 1499915082\nlast_crash     : 1499915235\nlast_hang      : 1499906582\nexec_timeout   : 40\nafl_banner     : fuzzer-master\nafl_version    : 1.85b\ncommand_line   : /home/skaramcheti/.virtualenvs/afl/bin/afl-unix/afl-fuzz -i /dev/shm/work/Flash_File_System/input -o /dev/shm/work/Flash_File_System/sync -m 4G -Q -M fuzzer-master -x /dev/shm/work/Flash_File_System/Flash_File_System.dict -- data/linux/processed-challenges/Flash_File_System/bin/Flash_File_System\n'
p151
I3
tp152
a(I9120
S'start_time     : 1499906281\nlast_update    : 1499915358\nfuzzer_pid     : 1973\ncycles_done    : 0\nexecs_done     : 2200361\nexecs_per_sec  : 245.61\npaths_total    : 174\npaths_favored  : 48\npaths_found    : 173\npaths_imported : 0\nmax_depth      : 5\ncur_path       : 134\npending_favs   : 21\npending_total  : 133\nvariable_paths : 0\nbitmap_cvg     : 1.25%\nunique_crashes : 50\nunique_hangs   : 1\nlast_path      : 1499915355\nlast_crash     : 1499915235\nlast_hang      : 1499906582\nexec_timeout   : 40\nafl_banner     : fuzzer-master\nafl_version    : 1.85b\ncommand_line   : /home/skaramcheti/.virtualenvs/afl/bin/afl-unix/afl-fuzz -i /dev/shm/work/Flash_File_System/input -o /dev/shm/work/Flash_File_System/sync -m 4G -Q -M fuzzer-master -x /dev/shm/work/Flash_File_System/Flash_File_System.dict -- data/linux/processed-challenges/Flash_File_System/bin/Flash_File_System\n'
p153
I1
tp154
a(I9240
S'start_time     : 1499906281\nlast_update    : 1499915478\nfuzzer_pid     : 1973\ncycles_done    : 0\nexecs_done     : 2229592\nexecs_per_sec  : 240.15\npaths_total    : 174\npaths_favored  : 48\npaths_found    : 173\npaths_imported : 0\nmax_depth      : 5\ncur_path       : 137\npending_favs   : 20\npending_total  : 132\nvariable_paths : 0\nbitmap_cvg     : 1.25%\nunique_crashes : 50\nunique_hangs   : 1\nlast_path      : 1499915355\nlast_crash     : 1499915235\nlast_hang      : 1499906582\nexec_timeout   : 40\nafl_banner     : fuzzer-master\nafl_version    : 1.85b\ncommand_line   : /home/skaramcheti/.virtualenvs/afl/bin/afl-unix/afl-fuzz -i /dev/shm/work/Flash_File_System/input -o /dev/shm/work/Flash_File_System/sync -m 4G -Q -M fuzzer-master -x /dev/shm/work/Flash_File_System/Flash_File_System.dict -- data/linux/processed-challenges/Flash_File_System/bin/Flash_File_System\n'
p155
I2
tp156
a(I9360
S'start_time     : 1499906281\nlast_update    : 1499915598\nfuzzer_pid     : 1973\ncycles_done    : 0\nexecs_done     : 2258854\nexecs_per_sec  : 238.82\npaths_total    : 177\npaths_favored  : 48\npaths_found    : 176\npaths_imported : 0\nmax_depth      : 5\ncur_path       : 137\npending_favs   : 20\npending_total  : 135\nvariable_paths : 0\nbitmap_cvg     : 1.25%\nunique_crashes : 50\nunique_hangs   : 1\nlast_path      : 1499915579\nlast_crash     : 1499915235\nlast_hang      : 1499906582\nexec_timeout   : 40\nafl_banner     : fuzzer-master\nafl_version    : 1.85b\ncommand_line   : /home/skaramcheti/.virtualenvs/afl/bin/afl-unix/afl-fuzz -i /dev/shm/work/Flash_File_System/input -o /dev/shm/work/Flash_File_System/sync -m 4G -Q -M fuzzer-master -x /dev/shm/work/Flash_File_System/Flash_File_System.dict -- data/linux/processed-challenges/Flash_File_System/bin/Flash_File_System\n'
p157
I1
tp158
a(I9480
S'start_time     : 1499906281\nlast_update    : 1499915718\nfuzzer_pid     : 1973\ncycles_done    : 0\nexecs_done     : 2288074\nexecs_per_sec  : 239.12\npaths_total    : 179\npaths_favored  : 48\npaths_found    : 178\npaths_imported : 0\nmax_depth      : 5\ncur_path       : 137\npending_favs   : 20\npending_total  : 137\nvariable_paths : 0\nbitmap_cvg     : 1.25%\nunique_crashes : 50\nunique_hangs   : 1\nlast_path      : 1499915680\nlast_crash     : 1499915235\nlast_hang      : 1499906582\nexec_timeout   : 40\nafl_banner     : fuzzer-master\nafl_version    : 1.85b\ncommand_line   : /home/skaramcheti/.virtualenvs/afl/bin/afl-unix/afl-fuzz -i /dev/shm/work/Flash_File_System/input -o /dev/shm/work/Flash_File_System/sync -m 4G -Q -M fuzzer-master -x /dev/shm/work/Flash_File_System/Flash_File_System.dict -- data/linux/processed-challenges/Flash_File_System/bin/Flash_File_System\n'
p159
I2
tp160
a(I9600
S'start_time     : 1499906281\nlast_update    : 1499915839\nfuzzer_pid     : 1973\ncycles_done    : 0\nexecs_done     : 2317546\nexecs_per_sec  : 250.06\npaths_total    : 179\npaths_favored  : 48\npaths_found    : 178\npaths_imported : 0\nmax_depth      : 5\ncur_path       : 137\npending_favs   : 20\npending_total  : 137\nvariable_paths : 0\nbitmap_cvg     : 1.25%\nunique_crashes : 50\nunique_hangs   : 1\nlast_path      : 1499915680\nlast_crash     : 1499915235\nlast_hang      : 1499906582\nexec_timeout   : 40\nafl_banner     : fuzzer-master\nafl_version    : 1.85b\ncommand_line   : /home/skaramcheti/.virtualenvs/afl/bin/afl-unix/afl-fuzz -i /dev/shm/work/Flash_File_System/input -o /dev/shm/work/Flash_File_System/sync -m 4G -Q -M fuzzer-master -x /dev/shm/work/Flash_File_System/Flash_File_System.dict -- data/linux/processed-challenges/Flash_File_System/bin/Flash_File_System\n'
p161
I0
tp162
a(I9720
S'start_time     : 1499906281\nlast_update    : 1499915959\nfuzzer_pid     : 1973\ncycles_done    : 0\nexecs_done     : 2347194\nexecs_per_sec  : 246.09\npaths_total    : 179\npaths_favored  : 48\npaths_found    : 178\npaths_imported : 0\nmax_depth      : 5\ncur_path       : 137\npending_favs   : 20\npending_total  : 137\nvariable_paths : 0\nbitmap_cvg     : 1.25%\nunique_crashes : 50\nunique_hangs   : 1\nlast_path      : 1499915680\nlast_crash     : 1499915235\nlast_hang      : 1499906582\nexec_timeout   : 40\nafl_banner     : fuzzer-master\nafl_version    : 1.85b\ncommand_line   : /home/skaramcheti/.virtualenvs/afl/bin/afl-unix/afl-fuzz -i /dev/shm/work/Flash_File_System/input -o /dev/shm/work/Flash_File_System/sync -m 4G -Q -M fuzzer-master -x /dev/shm/work/Flash_File_System/Flash_File_System.dict -- data/linux/processed-challenges/Flash_File_System/bin/Flash_File_System\n'
p163
I0
tp164
a(I9840
S'start_time     : 1499906281\nlast_update    : 1499916079\nfuzzer_pid     : 1973\ncycles_done    : 0\nexecs_done     : 2376555\nexecs_per_sec  : 250.81\npaths_total    : 179\npaths_favored  : 48\npaths_found    : 178\npaths_imported : 0\nmax_depth      : 5\ncur_path       : 137\npending_favs   : 20\npending_total  : 137\nvariable_paths : 0\nbitmap_cvg     : 1.25%\nunique_crashes : 50\nunique_hangs   : 1\nlast_path      : 1499915680\nlast_crash     : 1499915235\nlast_hang      : 1499906582\nexec_timeout   : 40\nafl_banner     : fuzzer-master\nafl_version    : 1.85b\ncommand_line   : /home/skaramcheti/.virtualenvs/afl/bin/afl-unix/afl-fuzz -i /dev/shm/work/Flash_File_System/input -o /dev/shm/work/Flash_File_System/sync -m 4G -Q -M fuzzer-master -x /dev/shm/work/Flash_File_System/Flash_File_System.dict -- data/linux/processed-challenges/Flash_File_System/bin/Flash_File_System\n'
p165
I0
tp166
a(I9960
S'start_time     : 1499906281\nlast_update    : 1499916199\nfuzzer_pid     : 1973\ncycles_done    : 0\nexecs_done     : 2405950\nexecs_per_sec  : 244.65\npaths_total    : 179\npaths_favored  : 48\npaths_found    : 178\npaths_imported : 0\nmax_depth      : 5\ncur_path       : 138\npending_favs   : 19\npending_total  : 136\nvariable_paths : 0\nbitmap_cvg     : 1.25%\nunique_crashes : 50\nunique_hangs   : 1\nlast_path      : 1499915680\nlast_crash     : 1499915235\nlast_hang      : 1499906582\nexec_timeout   : 40\nafl_banner     : fuzzer-master\nafl_version    : 1.85b\ncommand_line   : /home/skaramcheti/.virtualenvs/afl/bin/afl-unix/afl-fuzz -i /dev/shm/work/Flash_File_System/input -o /dev/shm/work/Flash_File_System/sync -m 4G -Q -M fuzzer-master -x /dev/shm/work/Flash_File_System/Flash_File_System.dict -- data/linux/processed-challenges/Flash_File_System/bin/Flash_File_System\n'
p167
I0
tp168
a(I10080
S'start_time     : 1499906281\nlast_update    : 1499916319\nfuzzer_pid     : 1973\ncycles_done    : 0\nexecs_done     : 2435008\nexecs_per_sec  : 239.64\npaths_total    : 179\npaths_favored  : 48\npaths_found    : 178\npaths_imported : 0\nmax_depth      : 5\ncur_path       : 139\npending_favs   : 18\npending_total  : 135\nvariable_paths : 0\nbitmap_cvg     : 1.25%\nunique_crashes : 50\nunique_hangs   : 1\nlast_path      : 1499915680\nlast_crash     : 1499915235\nlast_hang      : 1499906582\nexec_timeout   : 40\nafl_banner     : fuzzer-master\nafl_version    : 1.85b\ncommand_line   : /home/skaramcheti/.virtualenvs/afl/bin/afl-unix/afl-fuzz -i /dev/shm/work/Flash_File_System/input -o /dev/shm/work/Flash_File_System/sync -m 4G -Q -M fuzzer-master -x /dev/shm/work/Flash_File_System/Flash_File_System.dict -- data/linux/processed-challenges/Flash_File_System/bin/Flash_File_System\n'
p169
I0
tp170
a(I10200
S'start_time     : 1499906281\nlast_update    : 1499916439\nfuzzer_pid     : 1973\ncycles_done    : 0\nexecs_done     : 2464090\nexecs_per_sec  : 240.03\npaths_total    : 183\npaths_favored  : 48\npaths_found    : 182\npaths_imported : 0\nmax_depth      : 5\ncur_path       : 141\npending_favs   : 17\npending_total  : 138\nvariable_paths : 0\nbitmap_cvg     : 1.25%\nunique_crashes : 51\nunique_hangs   : 1\nlast_path      : 1499916432\nlast_crash     : 1499916339\nlast_hang      : 1499906582\nexec_timeout   : 40\nafl_banner     : fuzzer-master\nafl_version    : 1.85b\ncommand_line   : /home/skaramcheti/.virtualenvs/afl/bin/afl-unix/afl-fuzz -i /dev/shm/work/Flash_File_System/input -o /dev/shm/work/Flash_File_System/sync -m 4G -Q -M fuzzer-master -x /dev/shm/work/Flash_File_System/Flash_File_System.dict -- data/linux/processed-challenges/Flash_File_System/bin/Flash_File_System\n'
p171
I4
tp172
a(I10320
S'start_time     : 1499906281\nlast_update    : 1499916560\nfuzzer_pid     : 1973\ncycles_done    : 0\nexecs_done     : 2492910\nexecs_per_sec  : 238.80\npaths_total    : 183\npaths_favored  : 48\npaths_found    : 182\npaths_imported : 0\nmax_depth      : 5\ncur_path       : 141\npending_favs   : 17\npending_total  : 138\nvariable_paths : 0\nbitmap_cvg     : 1.25%\nunique_crashes : 52\nunique_hangs   : 1\nlast_path      : 1499916432\nlast_crash     : 1499916523\nlast_hang      : 1499906582\nexec_timeout   : 40\nafl_banner     : fuzzer-master\nafl_version    : 1.85b\ncommand_line   : /home/skaramcheti/.virtualenvs/afl/bin/afl-unix/afl-fuzz -i /dev/shm/work/Flash_File_System/input -o /dev/shm/work/Flash_File_System/sync -m 4G -Q -M fuzzer-master -x /dev/shm/work/Flash_File_System/Flash_File_System.dict -- data/linux/processed-challenges/Flash_File_System/bin/Flash_File_System\n'
p173
I0
tp174
a(I10440
S'start_time     : 1499906281\nlast_update    : 1499916680\nfuzzer_pid     : 1973\ncycles_done    : 0\nexecs_done     : 2521658\nexecs_per_sec  : 244.16\npaths_total    : 183\npaths_favored  : 48\npaths_found    : 182\npaths_imported : 0\nmax_depth      : 5\ncur_path       : 141\npending_favs   : 17\npending_total  : 138\nvariable_paths : 0\nbitmap_cvg     : 1.25%\nunique_crashes : 52\nunique_hangs   : 1\nlast_path      : 1499916432\nlast_crash     : 1499916523\nlast_hang      : 1499906582\nexec_timeout   : 40\nafl_banner     : fuzzer-master\nafl_version    : 1.85b\ncommand_line   : /home/skaramcheti/.virtualenvs/afl/bin/afl-unix/afl-fuzz -i /dev/shm/work/Flash_File_System/input -o /dev/shm/work/Flash_File_System/sync -m 4G -Q -M fuzzer-master -x /dev/shm/work/Flash_File_System/Flash_File_System.dict -- data/linux/processed-challenges/Flash_File_System/bin/Flash_File_System\n'
p175
I0
tp176
a(I10560
S'start_time     : 1499906281\nlast_update    : 1499916800\nfuzzer_pid     : 1973\ncycles_done    : 0\nexecs_done     : 2550162\nexecs_per_sec  : 240.13\npaths_total    : 183\npaths_favored  : 48\npaths_found    : 182\npaths_imported : 0\nmax_depth      : 5\ncur_path       : 141\npending_favs   : 17\npending_total  : 138\nvariable_paths : 0\nbitmap_cvg     : 1.25%\nunique_crashes : 53\nunique_hangs   : 1\nlast_path      : 1499916432\nlast_crash     : 1499916745\nlast_hang      : 1499906582\nexec_timeout   : 40\nafl_banner     : fuzzer-master\nafl_version    : 1.85b\ncommand_line   : /home/skaramcheti/.virtualenvs/afl/bin/afl-unix/afl-fuzz -i /dev/shm/work/Flash_File_System/input -o /dev/shm/work/Flash_File_System/sync -m 4G -Q -M fuzzer-master -x /dev/shm/work/Flash_File_System/Flash_File_System.dict -- data/linux/processed-challenges/Flash_File_System/bin/Flash_File_System\n'
p177
I0
tp178
a(I10680
S'start_time     : 1499906281\nlast_update    : 1499916921\nfuzzer_pid     : 1973\ncycles_done    : 0\nexecs_done     : 2579021\nexecs_per_sec  : 238.67\npaths_total    : 183\npaths_favored  : 48\npaths_found    : 182\npaths_imported : 0\nmax_depth      : 5\ncur_path       : 143\npending_favs   : 16\npending_total  : 137\nvariable_paths : 0\nbitmap_cvg     : 1.25%\nunique_crashes : 56\nunique_hangs   : 1\nlast_path      : 1499916432\nlast_crash     : 1499916901\nlast_hang      : 1499906582\nexec_timeout   : 40\nafl_banner     : fuzzer-master\nafl_version    : 1.85b\ncommand_line   : /home/skaramcheti/.virtualenvs/afl/bin/afl-unix/afl-fuzz -i /dev/shm/work/Flash_File_System/input -o /dev/shm/work/Flash_File_System/sync -m 4G -Q -M fuzzer-master -x /dev/shm/work/Flash_File_System/Flash_File_System.dict -- data/linux/processed-challenges/Flash_File_System/bin/Flash_File_System\n'
p179
I2
tp180
a.