(lp0
(I0
S'start_time     : 1500090207\nlast_update    : 1500090208\nfuzzer_pid     : 22880\ncycles_done    : 0\nexecs_done     : 10\nexecs_per_sec  : 138.89\npaths_total    : 1\npaths_favored  : 1\npaths_found    : 0\npaths_imported : 0\nmax_depth      : 1\ncur_path       : 0\npending_favs   : 1\npending_total  : 1\nvariable_paths : 0\nbitmap_cvg     : 0.42%\nunique_crashes : 0\nunique_hangs   : 0\nlast_path      : 0\nlast_crash     : 0\nlast_hang      : 0\nexec_timeout   : 20\nafl_banner     : fuzzer-master\nafl_version    : 1.85b\ncommand_line   : /home/skaramcheti/.virtualenvs/afl/bin/afl-unix/afl-fuzz -i /dev/shm/work/Checkmate/input -o /dev/shm/work/Checkmate/sync -m 4G -Q -M fuzzer-master -x /dev/shm/work/Checkmate/Checkmate.dict -- data/linux/processed-challenges/Checkmate/bin/Checkmate\n'
p1
I16
tp2
a(I120
S'start_time     : 1500090207\nlast_update    : 1500090328\nfuzzer_pid     : 22880\ncycles_done    : 0\nexecs_done     : 61099\nexecs_per_sec  : 517.65\npaths_total    : 39\npaths_favored  : 1\npaths_found    : 38\npaths_imported : 0\nmax_depth      : 2\ncur_path       : 0\npending_favs   : 1\npending_total  : 39\nvariable_paths : 0\nbitmap_cvg     : 0.63%\nunique_crashes : 0\nunique_hangs   : 1\nlast_path      : 1500090311\nlast_crash     : 0\nlast_hang      : 1500090254\nexec_timeout   : 20\nafl_banner     : fuzzer-master\nafl_version    : 1.85b\ncommand_line   : /home/skaramcheti/.virtualenvs/afl/bin/afl-unix/afl-fuzz -i /dev/shm/work/Checkmate/input -o /dev/shm/work/Checkmate/sync -m 4G -Q -M fuzzer-master -x /dev/shm/work/Checkmate/Checkmate.dict -- data/linux/processed-challenges/Checkmate/bin/Checkmate\n'
p3
I23
tp4
a(I240
S'start_time     : 1500090207\nlast_update    : 1500090448\nfuzzer_pid     : 22880\ncycles_done    : 0\nexecs_done     : 122349\nexecs_per_sec  : 508.39\npaths_total    : 51\npaths_favored  : 1\npaths_found    : 50\npaths_imported : 0\nmax_depth      : 2\ncur_path       : 0\npending_favs   : 1\npending_total  : 51\nvariable_paths : 0\nbitmap_cvg     : 0.70%\nunique_crashes : 0\nunique_hangs   : 1\nlast_path      : 1500090444\nlast_crash     : 0\nlast_hang      : 1500090254\nexec_timeout   : 20\nafl_banner     : fuzzer-master\nafl_version    : 1.85b\ncommand_line   : /home/skaramcheti/.virtualenvs/afl/bin/afl-unix/afl-fuzz -i /dev/shm/work/Checkmate/input -o /dev/shm/work/Checkmate/sync -m 4G -Q -M fuzzer-master -x /dev/shm/work/Checkmate/Checkmate.dict -- data/linux/processed-challenges/Checkmate/bin/Checkmate\n'
p5
I12
tp6
a(I360
S'start_time     : 1500090207\nlast_update    : 1500090568\nfuzzer_pid     : 22880\ncycles_done    : 0\nexecs_done     : 182741\nexecs_per_sec  : 497.72\npaths_total    : 69\npaths_favored  : 24\npaths_found    : 68\npaths_imported : 0\nmax_depth      : 3\ncur_path       : 4\npending_favs   : 24\npending_total  : 68\nvariable_paths : 0\nbitmap_cvg     : 0.78%\nunique_crashes : 0\nunique_hangs   : 2\nlast_path      : 1500090562\nlast_crash     : 0\nlast_hang      : 1500090567\nexec_timeout   : 20\nafl_banner     : fuzzer-master\nafl_version    : 1.85b\ncommand_line   : /home/skaramcheti/.virtualenvs/afl/bin/afl-unix/afl-fuzz -i /dev/shm/work/Checkmate/input -o /dev/shm/work/Checkmate/sync -m 4G -Q -M fuzzer-master -x /dev/shm/work/Checkmate/Checkmate.dict -- data/linux/processed-challenges/Checkmate/bin/Checkmate\n'
p7
I19
tp8
a(I480
S'start_time     : 1500090207\nlast_update    : 1500090688\nfuzzer_pid     : 22880\ncycles_done    : 0\nexecs_done     : 242513\nexecs_per_sec  : 496.70\npaths_total    : 90\npaths_favored  : 24\npaths_found    : 89\npaths_imported : 0\nmax_depth      : 3\ncur_path       : 4\npending_favs   : 24\npending_total  : 89\nvariable_paths : 0\nbitmap_cvg     : 1.48%\nunique_crashes : 0\nunique_hangs   : 2\nlast_path      : 1500090670\nlast_crash     : 0\nlast_hang      : 1500090567\nexec_timeout   : 20\nafl_banner     : fuzzer-master\nafl_version    : 1.85b\ncommand_line   : /home/skaramcheti/.virtualenvs/afl/bin/afl-unix/afl-fuzz -i /dev/shm/work/Checkmate/input -o /dev/shm/work/Checkmate/sync -m 4G -Q -M fuzzer-master -x /dev/shm/work/Checkmate/Checkmate.dict -- data/linux/processed-challenges/Checkmate/bin/Checkmate\n'
p9
I20
tp10
a(I600
S'start_time     : 1500090207\nlast_update    : 1500090809\nfuzzer_pid     : 22880\ncycles_done    : 0\nexecs_done     : 302292\nexecs_per_sec  : 503.03\npaths_total    : 97\npaths_favored  : 24\npaths_found    : 96\npaths_imported : 0\nmax_depth      : 3\ncur_path       : 4\npending_favs   : 24\npending_total  : 96\nvariable_paths : 0\nbitmap_cvg     : 1.49%\nunique_crashes : 0\nunique_hangs   : 2\nlast_path      : 1500090794\nlast_crash     : 0\nlast_hang      : 1500090567\nexec_timeout   : 20\nafl_banner     : fuzzer-master\nafl_version    : 1.85b\ncommand_line   : /home/skaramcheti/.virtualenvs/afl/bin/afl-unix/afl-fuzz -i /dev/shm/work/Checkmate/input -o /dev/shm/work/Checkmate/sync -m 4G -Q -M fuzzer-master -x /dev/shm/work/Checkmate/Checkmate.dict -- data/linux/processed-challenges/Checkmate/bin/Checkmate\n'
p11
I8
tp12
a(I720
S'start_time     : 1500090207\nlast_update    : 1500090929\nfuzzer_pid     : 22880\ncycles_done    : 0\nexecs_done     : 360079\nexecs_per_sec  : 478.92\npaths_total    : 112\npaths_favored  : 39\npaths_found    : 111\npaths_imported : 0\nmax_depth      : 3\ncur_path       : 12\npending_favs   : 37\npending_total  : 109\nvariable_paths : 0\nbitmap_cvg     : 1.51%\nunique_crashes : 0\nunique_hangs   : 2\nlast_path      : 1500090914\nlast_crash     : 0\nlast_hang      : 1500090567\nexec_timeout   : 20\nafl_banner     : fuzzer-master\nafl_version    : 1.85b\ncommand_line   : /home/skaramcheti/.virtualenvs/afl/bin/afl-unix/afl-fuzz -i /dev/shm/work/Checkmate/input -o /dev/shm/work/Checkmate/sync -m 4G -Q -M fuzzer-master -x /dev/shm/work/Checkmate/Checkmate.dict -- data/linux/processed-challenges/Checkmate/bin/Checkmate\n'
p13
I14
tp14
a(I840
S'start_time     : 1500090207\nlast_update    : 1500091049\nfuzzer_pid     : 22880\ncycles_done    : 0\nexecs_done     : 416987\nexecs_per_sec  : 478.53\npaths_total    : 122\npaths_favored  : 39\npaths_found    : 121\npaths_imported : 0\nmax_depth      : 3\ncur_path       : 12\npending_favs   : 37\npending_total  : 119\nvariable_paths : 0\nbitmap_cvg     : 1.52%\nunique_crashes : 0\nunique_hangs   : 2\nlast_path      : 1500091037\nlast_crash     : 0\nlast_hang      : 1500090567\nexec_timeout   : 20\nafl_banner     : fuzzer-master\nafl_version    : 1.85b\ncommand_line   : /home/skaramcheti/.virtualenvs/afl/bin/afl-unix/afl-fuzz -i /dev/shm/work/Checkmate/input -o /dev/shm/work/Checkmate/sync -m 4G -Q -M fuzzer-master -x /dev/shm/work/Checkmate/Checkmate.dict -- data/linux/processed-challenges/Checkmate/bin/Checkmate\n'
p15
I10
tp16
a(I960
S'start_time     : 1500090207\nlast_update    : 1500091169\nfuzzer_pid     : 22880\ncycles_done    : 0\nexecs_done     : 473734\nexecs_per_sec  : 485.10\npaths_total    : 133\npaths_favored  : 39\npaths_found    : 132\npaths_imported : 0\nmax_depth      : 3\ncur_path       : 12\npending_favs   : 37\npending_total  : 130\nvariable_paths : 0\nbitmap_cvg     : 1.53%\nunique_crashes : 0\nunique_hangs   : 2\nlast_path      : 1500091136\nlast_crash     : 0\nlast_hang      : 1500090567\nexec_timeout   : 20\nafl_banner     : fuzzer-master\nafl_version    : 1.85b\ncommand_line   : /home/skaramcheti/.virtualenvs/afl/bin/afl-unix/afl-fuzz -i /dev/shm/work/Checkmate/input -o /dev/shm/work/Checkmate/sync -m 4G -Q -M fuzzer-master -x /dev/shm/work/Checkmate/Checkmate.dict -- data/linux/processed-challenges/Checkmate/bin/Checkmate\n'
p17
I11
tp18
a(I1080
S'start_time     : 1500090207\nlast_update    : 1500091289\nfuzzer_pid     : 22880\ncycles_done    : 0\nexecs_done     : 530394\nexecs_per_sec  : 471.38\npaths_total    : 137\npaths_favored  : 51\npaths_found    : 136\npaths_imported : 0\nmax_depth      : 3\ncur_path       : 21\npending_favs   : 47\npending_total  : 131\nvariable_paths : 0\nbitmap_cvg     : 1.53%\nunique_crashes : 0\nunique_hangs   : 2\nlast_path      : 1500091270\nlast_crash     : 0\nlast_hang      : 1500090567\nexec_timeout   : 20\nafl_banner     : fuzzer-master\nafl_version    : 1.85b\ncommand_line   : /home/skaramcheti/.virtualenvs/afl/bin/afl-unix/afl-fuzz -i /dev/shm/work/Checkmate/input -o /dev/shm/work/Checkmate/sync -m 4G -Q -M fuzzer-master -x /dev/shm/work/Checkmate/Checkmate.dict -- data/linux/processed-challenges/Checkmate/bin/Checkmate\n'
p19
I4
tp20
a(I1200
S'start_time     : 1500090207\nlast_update    : 1500091410\nfuzzer_pid     : 22880\ncycles_done    : 0\nexecs_done     : 574019\nexecs_per_sec  : 395.57\npaths_total    : 146\npaths_favored  : 51\npaths_found    : 145\npaths_imported : 0\nmax_depth      : 3\ncur_path       : 24\npending_favs   : 46\npending_total  : 139\nvariable_paths : 0\nbitmap_cvg     : 1.53%\nunique_crashes : 0\nunique_hangs   : 2\nlast_path      : 1500091394\nlast_crash     : 0\nlast_hang      : 1500090567\nexec_timeout   : 20\nafl_banner     : fuzzer-master\nafl_version    : 1.85b\ncommand_line   : /home/skaramcheti/.virtualenvs/afl/bin/afl-unix/afl-fuzz -i /dev/shm/work/Checkmate/input -o /dev/shm/work/Checkmate/sync -m 4G -Q -M fuzzer-master -x /dev/shm/work/Checkmate/Checkmate.dict -- data/linux/processed-challenges/Checkmate/bin/Checkmate\n'
p21
I10
tp22
a(I1320
S'start_time     : 1500090207\nlast_update    : 1500091530\nfuzzer_pid     : 22880\ncycles_done    : 0\nexecs_done     : 620453\nexecs_per_sec  : 391.53\npaths_total    : 154\npaths_favored  : 51\npaths_found    : 153\npaths_imported : 0\nmax_depth      : 3\ncur_path       : 24\npending_favs   : 46\npending_total  : 147\nvariable_paths : 0\nbitmap_cvg     : 1.53%\nunique_crashes : 0\nunique_hangs   : 2\nlast_path      : 1500091526\nlast_crash     : 0\nlast_hang      : 1500090567\nexec_timeout   : 20\nafl_banner     : fuzzer-master\nafl_version    : 1.85b\ncommand_line   : /home/skaramcheti/.virtualenvs/afl/bin/afl-unix/afl-fuzz -i /dev/shm/work/Checkmate/input -o /dev/shm/work/Checkmate/sync -m 4G -Q -M fuzzer-master -x /dev/shm/work/Checkmate/Checkmate.dict -- data/linux/processed-challenges/Checkmate/bin/Checkmate\n'
p23
I7
tp24
a(I1440
S'start_time     : 1500090207\nlast_update    : 1500091650\nfuzzer_pid     : 22880\ncycles_done    : 0\nexecs_done     : 666102\nexecs_per_sec  : 386.53\npaths_total    : 157\npaths_favored  : 51\npaths_found    : 156\npaths_imported : 0\nmax_depth      : 3\ncur_path       : 24\npending_favs   : 46\npending_total  : 150\nvariable_paths : 0\nbitmap_cvg     : 1.53%\nunique_crashes : 0\nunique_hangs   : 2\nlast_path      : 1500091644\nlast_crash     : 0\nlast_hang      : 1500090567\nexec_timeout   : 20\nafl_banner     : fuzzer-master\nafl_version    : 1.85b\ncommand_line   : /home/skaramcheti/.virtualenvs/afl/bin/afl-unix/afl-fuzz -i /dev/shm/work/Checkmate/input -o /dev/shm/work/Checkmate/sync -m 4G -Q -M fuzzer-master -x /dev/shm/work/Checkmate/Checkmate.dict -- data/linux/processed-challenges/Checkmate/bin/Checkmate\n'
p25
I3
tp26
a(I1560
S'start_time     : 1500090207\nlast_update    : 1500091770\nfuzzer_pid     : 22880\ncycles_done    : 0\nexecs_done     : 713948\nexecs_per_sec  : 430.63\npaths_total    : 158\npaths_favored  : 52\npaths_found    : 157\npaths_imported : 0\nmax_depth      : 3\ncur_path       : 26\npending_favs   : 47\npending_total  : 150\nvariable_paths : 0\nbitmap_cvg     : 1.53%\nunique_crashes : 0\nunique_hangs   : 2\nlast_path      : 1500091709\nlast_crash     : 0\nlast_hang      : 1500090567\nexec_timeout   : 20\nafl_banner     : fuzzer-master\nafl_version    : 1.85b\ncommand_line   : /home/skaramcheti/.virtualenvs/afl/bin/afl-unix/afl-fuzz -i /dev/shm/work/Checkmate/input -o /dev/shm/work/Checkmate/sync -m 4G -Q -M fuzzer-master -x /dev/shm/work/Checkmate/Checkmate.dict -- data/linux/processed-challenges/Checkmate/bin/Checkmate\n'
p27
I1
tp28
a(I1680
S'start_time     : 1500090207\nlast_update    : 1500091890\nfuzzer_pid     : 22880\ncycles_done    : 0\nexecs_done     : 772243\nexecs_per_sec  : 482.46\npaths_total    : 161\npaths_favored  : 52\npaths_found    : 160\npaths_imported : 0\nmax_depth      : 3\ncur_path       : 42\npending_favs   : 43\npending_total  : 149\nvariable_paths : 0\nbitmap_cvg     : 1.54%\nunique_crashes : 0\nunique_hangs   : 2\nlast_path      : 1500091867\nlast_crash     : 0\nlast_hang      : 1500090567\nexec_timeout   : 20\nafl_banner     : fuzzer-master\nafl_version    : 1.85b\ncommand_line   : /home/skaramcheti/.virtualenvs/afl/bin/afl-unix/afl-fuzz -i /dev/shm/work/Checkmate/input -o /dev/shm/work/Checkmate/sync -m 4G -Q -M fuzzer-master -x /dev/shm/work/Checkmate/Checkmate.dict -- data/linux/processed-challenges/Checkmate/bin/Checkmate\n'
p29
I3
tp30
a(I1800
S'start_time     : 1500090207\nlast_update    : 1500092011\nfuzzer_pid     : 22880\ncycles_done    : 0\nexecs_done     : 832180\nexecs_per_sec  : 503.26\npaths_total    : 164\npaths_favored  : 52\npaths_found    : 163\npaths_imported : 0\nmax_depth      : 3\ncur_path       : 42\npending_favs   : 43\npending_total  : 152\nvariable_paths : 0\nbitmap_cvg     : 1.54%\nunique_crashes : 0\nunique_hangs   : 2\nlast_path      : 1500091979\nlast_crash     : 0\nlast_hang      : 1500090567\nexec_timeout   : 20\nafl_banner     : fuzzer-master\nafl_version    : 1.85b\ncommand_line   : /home/skaramcheti/.virtualenvs/afl/bin/afl-unix/afl-fuzz -i /dev/shm/work/Checkmate/input -o /dev/shm/work/Checkmate/sync -m 4G -Q -M fuzzer-master -x /dev/shm/work/Checkmate/Checkmate.dict -- data/linux/processed-challenges/Checkmate/bin/Checkmate\n'
p31
I3
tp32
a(I1920
S'start_time     : 1500090207\nlast_update    : 1500092131\nfuzzer_pid     : 22880\ncycles_done    : 0\nexecs_done     : 892550\nexecs_per_sec  : 503.89\npaths_total    : 165\npaths_favored  : 52\npaths_found    : 164\npaths_imported : 0\nmax_depth      : 3\ncur_path       : 42\npending_favs   : 43\npending_total  : 153\nvariable_paths : 0\nbitmap_cvg     : 1.54%\nunique_crashes : 0\nunique_hangs   : 2\nlast_path      : 1500092084\nlast_crash     : 0\nlast_hang      : 1500090567\nexec_timeout   : 20\nafl_banner     : fuzzer-master\nafl_version    : 1.85b\ncommand_line   : /home/skaramcheti/.virtualenvs/afl/bin/afl-unix/afl-fuzz -i /dev/shm/work/Checkmate/input -o /dev/shm/work/Checkmate/sync -m 4G -Q -M fuzzer-master -x /dev/shm/work/Checkmate/Checkmate.dict -- data/linux/processed-challenges/Checkmate/bin/Checkmate\n'
p33
I1
tp34
a(I2040
S'start_time     : 1500090207\nlast_update    : 1500092251\nfuzzer_pid     : 22880\ncycles_done    : 0\nexecs_done     : 951252\nexecs_per_sec  : 489.85\npaths_total    : 180\npaths_favored  : 54\npaths_found    : 179\npaths_imported : 0\nmax_depth      : 3\ncur_path       : 46\npending_favs   : 46\npending_total  : 167\nvariable_paths : 0\nbitmap_cvg     : 1.55%\nunique_crashes : 0\nunique_hangs   : 2\nlast_path      : 1500092241\nlast_crash     : 0\nlast_hang      : 1500090567\nexec_timeout   : 20\nafl_banner     : fuzzer-master\nafl_version    : 1.85b\ncommand_line   : /home/skaramcheti/.virtualenvs/afl/bin/afl-unix/afl-fuzz -i /dev/shm/work/Checkmate/input -o /dev/shm/work/Checkmate/sync -m 4G -Q -M fuzzer-master -x /dev/shm/work/Checkmate/Checkmate.dict -- data/linux/processed-challenges/Checkmate/bin/Checkmate\n'
p35
I15
tp36
a(I2160
S'start_time     : 1500090207\nlast_update    : 1500092371\nfuzzer_pid     : 22880\ncycles_done    : 0\nexecs_done     : 1008248\nexecs_per_sec  : 478.74\npaths_total    : 188\npaths_favored  : 54\npaths_found    : 187\npaths_imported : 0\nmax_depth      : 3\ncur_path       : 46\npending_favs   : 46\npending_total  : 175\nvariable_paths : 0\nbitmap_cvg     : 1.56%\nunique_crashes : 0\nunique_hangs   : 2\nlast_path      : 1500092361\nlast_crash     : 0\nlast_hang      : 1500090567\nexec_timeout   : 20\nafl_banner     : fuzzer-master\nafl_version    : 1.85b\ncommand_line   : /home/skaramcheti/.virtualenvs/afl/bin/afl-unix/afl-fuzz -i /dev/shm/work/Checkmate/input -o /dev/shm/work/Checkmate/sync -m 4G -Q -M fuzzer-master -x /dev/shm/work/Checkmate/Checkmate.dict -- data/linux/processed-challenges/Checkmate/bin/Checkmate\n'
p37
I8
tp38
a(I2280
S'start_time     : 1500090207\nlast_update    : 1500092491\nfuzzer_pid     : 22880\ncycles_done    : 0\nexecs_done     : 1065212\nexecs_per_sec  : 474.47\npaths_total    : 191\npaths_favored  : 58\npaths_found    : 190\npaths_imported : 0\nmax_depth      : 3\ncur_path       : 50\npending_favs   : 50\npending_total  : 177\nvariable_paths : 0\nbitmap_cvg     : 1.56%\nunique_crashes : 0\nunique_hangs   : 2\nlast_path      : 1500092475\nlast_crash     : 0\nlast_hang      : 1500090567\nexec_timeout   : 20\nafl_banner     : fuzzer-master\nafl_version    : 1.85b\ncommand_line   : /home/skaramcheti/.virtualenvs/afl/bin/afl-unix/afl-fuzz -i /dev/shm/work/Checkmate/input -o /dev/shm/work/Checkmate/sync -m 4G -Q -M fuzzer-master -x /dev/shm/work/Checkmate/Checkmate.dict -- data/linux/processed-challenges/Checkmate/bin/Checkmate\n'
p39
I3
tp40
a(I2400
S'start_time     : 1500090207\nlast_update    : 1500092612\nfuzzer_pid     : 22880\ncycles_done    : 0\nexecs_done     : 1123326\nexecs_per_sec  : 472.50\npaths_total    : 198\npaths_favored  : 60\npaths_found    : 197\npaths_imported : 0\nmax_depth      : 4\ncur_path       : 59\npending_favs   : 51\npending_total  : 182\nvariable_paths : 0\nbitmap_cvg     : 1.60%\nunique_crashes : 0\nunique_hangs   : 2\nlast_path      : 1500092610\nlast_crash     : 0\nlast_hang      : 1500090567\nexec_timeout   : 20\nafl_banner     : fuzzer-master\nafl_version    : 1.85b\ncommand_line   : /home/skaramcheti/.virtualenvs/afl/bin/afl-unix/afl-fuzz -i /dev/shm/work/Checkmate/input -o /dev/shm/work/Checkmate/sync -m 4G -Q -M fuzzer-master -x /dev/shm/work/Checkmate/Checkmate.dict -- data/linux/processed-challenges/Checkmate/bin/Checkmate\n'
p41
I7
tp42
a(I2520
S'start_time     : 1500090207\nlast_update    : 1500092732\nfuzzer_pid     : 22880\ncycles_done    : 0\nexecs_done     : 1180708\nexecs_per_sec  : 490.58\npaths_total    : 205\npaths_favored  : 60\npaths_found    : 204\npaths_imported : 0\nmax_depth      : 4\ncur_path       : 59\npending_favs   : 51\npending_total  : 189\nvariable_paths : 0\nbitmap_cvg     : 1.60%\nunique_crashes : 0\nunique_hangs   : 2\nlast_path      : 1500092716\nlast_crash     : 0\nlast_hang      : 1500090567\nexec_timeout   : 20\nafl_banner     : fuzzer-master\nafl_version    : 1.85b\ncommand_line   : /home/skaramcheti/.virtualenvs/afl/bin/afl-unix/afl-fuzz -i /dev/shm/work/Checkmate/input -o /dev/shm/work/Checkmate/sync -m 4G -Q -M fuzzer-master -x /dev/shm/work/Checkmate/Checkmate.dict -- data/linux/processed-challenges/Checkmate/bin/Checkmate\n'
p43
I7
tp44
a(I2640
S'start_time     : 1500090207\nlast_update    : 1500092852\nfuzzer_pid     : 22880\ncycles_done    : 0\nexecs_done     : 1237583\nexecs_per_sec  : 477.15\npaths_total    : 209\npaths_favored  : 60\npaths_found    : 208\npaths_imported : 0\nmax_depth      : 4\ncur_path       : 59\npending_favs   : 51\npending_total  : 193\nvariable_paths : 0\nbitmap_cvg     : 1.61%\nunique_crashes : 0\nunique_hangs   : 2\nlast_path      : 1500092827\nlast_crash     : 0\nlast_hang      : 1500090567\nexec_timeout   : 20\nafl_banner     : fuzzer-master\nafl_version    : 1.85b\ncommand_line   : /home/skaramcheti/.virtualenvs/afl/bin/afl-unix/afl-fuzz -i /dev/shm/work/Checkmate/input -o /dev/shm/work/Checkmate/sync -m 4G -Q -M fuzzer-master -x /dev/shm/work/Checkmate/Checkmate.dict -- data/linux/processed-challenges/Checkmate/bin/Checkmate\n'
p45
I4
tp46
a(I2760
S'start_time     : 1500090207\nlast_update    : 1500092972\nfuzzer_pid     : 22880\ncycles_done    : 0\nexecs_done     : 1292729\nexecs_per_sec  : 450.38\npaths_total    : 213\npaths_favored  : 65\npaths_found    : 212\npaths_imported : 0\nmax_depth      : 4\ncur_path       : 66\npending_favs   : 54\npending_total  : 195\nvariable_paths : 0\nbitmap_cvg     : 1.61%\nunique_crashes : 0\nunique_hangs   : 2\nlast_path      : 1500092951\nlast_crash     : 0\nlast_hang      : 1500090567\nexec_timeout   : 20\nafl_banner     : fuzzer-master\nafl_version    : 1.85b\ncommand_line   : /home/skaramcheti/.virtualenvs/afl/bin/afl-unix/afl-fuzz -i /dev/shm/work/Checkmate/input -o /dev/shm/work/Checkmate/sync -m 4G -Q -M fuzzer-master -x /dev/shm/work/Checkmate/Checkmate.dict -- data/linux/processed-challenges/Checkmate/bin/Checkmate\n'
p47
I4
tp48
a(I2880
S'start_time     : 1500090207\nlast_update    : 1500093093\nfuzzer_pid     : 22880\ncycles_done    : 0\nexecs_done     : 1346167\nexecs_per_sec  : 436.72\npaths_total    : 216\npaths_favored  : 65\npaths_found    : 215\npaths_imported : 0\nmax_depth      : 4\ncur_path       : 66\npending_favs   : 54\npending_total  : 198\nvariable_paths : 0\nbitmap_cvg     : 1.63%\nunique_crashes : 0\nunique_hangs   : 2\nlast_path      : 1500093072\nlast_crash     : 0\nlast_hang      : 1500090567\nexec_timeout   : 20\nafl_banner     : fuzzer-master\nafl_version    : 1.85b\ncommand_line   : /home/skaramcheti/.virtualenvs/afl/bin/afl-unix/afl-fuzz -i /dev/shm/work/Checkmate/input -o /dev/shm/work/Checkmate/sync -m 4G -Q -M fuzzer-master -x /dev/shm/work/Checkmate/Checkmate.dict -- data/linux/processed-challenges/Checkmate/bin/Checkmate\n'
p49
I3
tp50
a(I3000
S'start_time     : 1500090207\nlast_update    : 1500093213\nfuzzer_pid     : 22880\ncycles_done    : 0\nexecs_done     : 1399711\nexecs_per_sec  : 433.19\npaths_total    : 219\npaths_favored  : 65\npaths_found    : 217\npaths_imported : 0\nmax_depth      : 4\ncur_path       : 66\npending_favs   : 54\npending_total  : 201\nvariable_paths : 0\nbitmap_cvg     : 1.63%\nunique_crashes : 0\nunique_hangs   : 2\nlast_path      : 1500093213\nlast_crash     : 0\nlast_hang      : 1500090567\nexec_timeout   : 20\nafl_banner     : fuzzer-master\nafl_version    : 1.85b\ncommand_line   : /home/skaramcheti/.virtualenvs/afl/bin/afl-unix/afl-fuzz -i /dev/shm/work/Checkmate/input -o /dev/shm/work/Checkmate/sync -m 4G -Q -M fuzzer-master -x /dev/shm/work/Checkmate/Checkmate.dict -- data/linux/processed-challenges/Checkmate/bin/Checkmate\n'
p51
I3
tp52
a(I3120
S'start_time     : 1500090207\nlast_update    : 1500093333\nfuzzer_pid     : 22880\ncycles_done    : 0\nexecs_done     : 1453349\nexecs_per_sec  : 413.42\npaths_total    : 225\npaths_favored  : 69\npaths_found    : 224\npaths_imported : 0\nmax_depth      : 4\ncur_path       : 70\npending_favs   : 58\npending_total  : 205\nvariable_paths : 0\nbitmap_cvg     : 1.64%\nunique_crashes : 0\nunique_hangs   : 2\nlast_path      : 1500093313\nlast_crash     : 0\nlast_hang      : 1500090567\nexec_timeout   : 20\nafl_banner     : fuzzer-master\nafl_version    : 1.85b\ncommand_line   : /home/skaramcheti/.virtualenvs/afl/bin/afl-unix/afl-fuzz -i /dev/shm/work/Checkmate/input -o /dev/shm/work/Checkmate/sync -m 4G -Q -M fuzzer-master -x /dev/shm/work/Checkmate/Checkmate.dict -- data/linux/processed-challenges/Checkmate/bin/Checkmate\n'
p53
I7
tp54
a(I3240
S'start_time     : 1500090207\nlast_update    : 1500093453\nfuzzer_pid     : 22880\ncycles_done    : 0\nexecs_done     : 1509775\nexecs_per_sec  : 457.89\npaths_total    : 232\npaths_favored  : 69\npaths_found    : 231\npaths_imported : 0\nmax_depth      : 4\ncur_path       : 70\npending_favs   : 58\npending_total  : 212\nvariable_paths : 0\nbitmap_cvg     : 1.64%\nunique_crashes : 0\nunique_hangs   : 2\nlast_path      : 1500093453\nlast_crash     : 0\nlast_hang      : 1500090567\nexec_timeout   : 20\nafl_banner     : fuzzer-master\nafl_version    : 1.85b\ncommand_line   : /home/skaramcheti/.virtualenvs/afl/bin/afl-unix/afl-fuzz -i /dev/shm/work/Checkmate/input -o /dev/shm/work/Checkmate/sync -m 4G -Q -M fuzzer-master -x /dev/shm/work/Checkmate/Checkmate.dict -- data/linux/processed-challenges/Checkmate/bin/Checkmate\n'
p55
I6
tp56
a(I3360
S'start_time     : 1500090207\nlast_update    : 1500093574\nfuzzer_pid     : 22880\ncycles_done    : 0\nexecs_done     : 1565155\nexecs_per_sec  : 452.36\npaths_total    : 235\npaths_favored  : 69\npaths_found    : 234\npaths_imported : 0\nmax_depth      : 4\ncur_path       : 70\npending_favs   : 58\npending_total  : 215\nvariable_paths : 0\nbitmap_cvg     : 1.66%\nunique_crashes : 0\nunique_hangs   : 2\nlast_path      : 1500093523\nlast_crash     : 0\nlast_hang      : 1500090567\nexec_timeout   : 20\nafl_banner     : fuzzer-master\nafl_version    : 1.85b\ncommand_line   : /home/skaramcheti/.virtualenvs/afl/bin/afl-unix/afl-fuzz -i /dev/shm/work/Checkmate/input -o /dev/shm/work/Checkmate/sync -m 4G -Q -M fuzzer-master -x /dev/shm/work/Checkmate/Checkmate.dict -- data/linux/processed-challenges/Checkmate/bin/Checkmate\n'
p57
I3
tp58
a(I3480
S'start_time     : 1500090207\nlast_update    : 1500093694\nfuzzer_pid     : 22880\ncycles_done    : 0\nexecs_done     : 1618964\nexecs_per_sec  : 464.35\npaths_total    : 249\npaths_favored  : 73\npaths_found    : 248\npaths_imported : 0\nmax_depth      : 4\ncur_path       : 71\npending_favs   : 63\npending_total  : 228\nvariable_paths : 0\nbitmap_cvg     : 1.69%\nunique_crashes : 0\nunique_hangs   : 2\nlast_path      : 1500093692\nlast_crash     : 0\nlast_hang      : 1500090567\nexec_timeout   : 20\nafl_banner     : fuzzer-master\nafl_version    : 1.85b\ncommand_line   : /home/skaramcheti/.virtualenvs/afl/bin/afl-unix/afl-fuzz -i /dev/shm/work/Checkmate/input -o /dev/shm/work/Checkmate/sync -m 4G -Q -M fuzzer-master -x /dev/shm/work/Checkmate/Checkmate.dict -- data/linux/processed-challenges/Checkmate/bin/Checkmate\n'
p59
I14
tp60
a(I3600
S'start_time     : 1500090207\nlast_update    : 1500093814\nfuzzer_pid     : 22880\ncycles_done    : 0\nexecs_done     : 1676190\nexecs_per_sec  : 487.82\npaths_total    : 262\npaths_favored  : 73\npaths_found    : 261\npaths_imported : 0\nmax_depth      : 4\ncur_path       : 71\npending_favs   : 63\npending_total  : 241\nvariable_paths : 0\nbitmap_cvg     : 1.70%\nunique_crashes : 0\nunique_hangs   : 2\nlast_path      : 1500093809\nlast_crash     : 0\nlast_hang      : 1500090567\nexec_timeout   : 20\nafl_banner     : fuzzer-master\nafl_version    : 1.85b\ncommand_line   : /home/skaramcheti/.virtualenvs/afl/bin/afl-unix/afl-fuzz -i /dev/shm/work/Checkmate/input -o /dev/shm/work/Checkmate/sync -m 4G -Q -M fuzzer-master -x /dev/shm/work/Checkmate/Checkmate.dict -- data/linux/processed-challenges/Checkmate/bin/Checkmate\n'
p61
I13
tp62
a(I3720
S'start_time     : 1500090207\nlast_update    : 1500093874\nfuzzer_pid     : 22880\ncycles_done    : 0\nexecs_done     : 1704665\nexecs_per_sec  : 465.81\npaths_total    : 270\npaths_favored  : 73\npaths_found    : 269\npaths_imported : 0\nmax_depth      : 4\ncur_path       : 71\npending_favs   : 63\npending_total  : 249\nvariable_paths : 0\nbitmap_cvg     : 1.74%\nunique_crashes : 0\nunique_hangs   : 2\nlast_path      : 1500093871\nlast_crash     : 0\nlast_hang      : 1500090567\nexec_timeout   : 20\nafl_banner     : fuzzer-master\nafl_version    : 1.85b\ncommand_line   : /home/skaramcheti/.virtualenvs/afl/bin/afl-unix/afl-fuzz -i /dev/shm/work/Checkmate/input -o /dev/shm/work/Checkmate/sync -m 4G -Q -M fuzzer-master -x /dev/shm/work/Checkmate/Checkmate.dict -- data/linux/processed-challenges/Checkmate/bin/Checkmate\n'
p63
I12
tp64
a(I3840
S'start_time     : 1500090207\nlast_update    : 1500093994\nfuzzer_pid     : 22880\ncycles_done    : 0\nexecs_done     : 1761069\nexecs_per_sec  : 469.13\npaths_total    : 280\npaths_favored  : 73\npaths_found    : 279\npaths_imported : 0\nmax_depth      : 4\ncur_path       : 71\npending_favs   : 63\npending_total  : 259\nvariable_paths : 0\nbitmap_cvg     : 1.76%\nunique_crashes : 0\nunique_hangs   : 2\nlast_path      : 1500093988\nlast_crash     : 0\nlast_hang      : 1500090567\nexec_timeout   : 20\nafl_banner     : fuzzer-master\nafl_version    : 1.85b\ncommand_line   : /home/skaramcheti/.virtualenvs/afl/bin/afl-unix/afl-fuzz -i /dev/shm/work/Checkmate/input -o /dev/shm/work/Checkmate/sync -m 4G -Q -M fuzzer-master -x /dev/shm/work/Checkmate/Checkmate.dict -- data/linux/processed-challenges/Checkmate/bin/Checkmate\n'
p65
I12
tp66
a(I3960
S'start_time     : 1500090207\nlast_update    : 1500094115\nfuzzer_pid     : 22880\ncycles_done    : 0\nexecs_done     : 1816866\nexecs_per_sec  : 473.83\npaths_total    : 288\npaths_favored  : 94\npaths_found    : 287\npaths_imported : 0\nmax_depth      : 4\ncur_path       : 77\npending_favs   : 84\npending_total  : 265\nvariable_paths : 0\nbitmap_cvg     : 1.88%\nunique_crashes : 0\nunique_hangs   : 2\nlast_path      : 1500094105\nlast_crash     : 0\nlast_hang      : 1500090567\nexec_timeout   : 20\nafl_banner     : fuzzer-master\nafl_version    : 1.85b\ncommand_line   : /home/skaramcheti/.virtualenvs/afl/bin/afl-unix/afl-fuzz -i /dev/shm/work/Checkmate/input -o /dev/shm/work/Checkmate/sync -m 4G -Q -M fuzzer-master -x /dev/shm/work/Checkmate/Checkmate.dict -- data/linux/processed-challenges/Checkmate/bin/Checkmate\n'
p67
I4
tp68
a(I4080
S'start_time     : 1500090207\nlast_update    : 1500094235\nfuzzer_pid     : 22880\ncycles_done    : 0\nexecs_done     : 1873192\nexecs_per_sec  : 472.47\npaths_total    : 292\npaths_favored  : 94\npaths_found    : 291\npaths_imported : 0\nmax_depth      : 4\ncur_path       : 77\npending_favs   : 84\npending_total  : 269\nvariable_paths : 0\nbitmap_cvg     : 1.89%\nunique_crashes : 0\nunique_hangs   : 2\nlast_path      : 1500094201\nlast_crash     : 0\nlast_hang      : 1500090567\nexec_timeout   : 20\nafl_banner     : fuzzer-master\nafl_version    : 1.85b\ncommand_line   : /home/skaramcheti/.virtualenvs/afl/bin/afl-unix/afl-fuzz -i /dev/shm/work/Checkmate/input -o /dev/shm/work/Checkmate/sync -m 4G -Q -M fuzzer-master -x /dev/shm/work/Checkmate/Checkmate.dict -- data/linux/processed-challenges/Checkmate/bin/Checkmate\n'
p69
I4
tp70
a(I4200
S'start_time     : 1500090207\nlast_update    : 1500094355\nfuzzer_pid     : 22880\ncycles_done    : 0\nexecs_done     : 1929633\nexecs_per_sec  : 474.04\npaths_total    : 294\npaths_favored  : 94\npaths_found    : 293\npaths_imported : 0\nmax_depth      : 4\ncur_path       : 77\npending_favs   : 84\npending_total  : 271\nvariable_paths : 0\nbitmap_cvg     : 1.90%\nunique_crashes : 0\nunique_hangs   : 2\nlast_path      : 1500094268\nlast_crash     : 0\nlast_hang      : 1500090567\nexec_timeout   : 20\nafl_banner     : fuzzer-master\nafl_version    : 1.85b\ncommand_line   : /home/skaramcheti/.virtualenvs/afl/bin/afl-unix/afl-fuzz -i /dev/shm/work/Checkmate/input -o /dev/shm/work/Checkmate/sync -m 4G -Q -M fuzzer-master -x /dev/shm/work/Checkmate/Checkmate.dict -- data/linux/processed-challenges/Checkmate/bin/Checkmate\n'
p71
I2
tp72
a(I4320
S'start_time     : 1500090207\nlast_update    : 1500094475\nfuzzer_pid     : 22880\ncycles_done    : 0\nexecs_done     : 1986731\nexecs_per_sec  : 497.90\npaths_total    : 299\npaths_favored  : 98\npaths_found    : 298\npaths_imported : 0\nmax_depth      : 4\ncur_path       : 93\npending_favs   : 85\npending_total  : 273\nvariable_paths : 0\nbitmap_cvg     : 1.90%\nunique_crashes : 0\nunique_hangs   : 2\nlast_path      : 1500094438\nlast_crash     : 0\nlast_hang      : 1500090567\nexec_timeout   : 20\nafl_banner     : fuzzer-master\nafl_version    : 1.85b\ncommand_line   : /home/skaramcheti/.virtualenvs/afl/bin/afl-unix/afl-fuzz -i /dev/shm/work/Checkmate/input -o /dev/shm/work/Checkmate/sync -m 4G -Q -M fuzzer-master -x /dev/shm/work/Checkmate/Checkmate.dict -- data/linux/processed-challenges/Checkmate/bin/Checkmate\n'
p73
I5
tp74
a(I4440
S'start_time     : 1500090207\nlast_update    : 1500094596\nfuzzer_pid     : 22880\ncycles_done    : 0\nexecs_done     : 2046151\nexecs_per_sec  : 495.32\npaths_total    : 301\npaths_favored  : 98\npaths_found    : 300\npaths_imported : 0\nmax_depth      : 4\ncur_path       : 93\npending_favs   : 85\npending_total  : 275\nvariable_paths : 0\nbitmap_cvg     : 1.91%\nunique_crashes : 0\nunique_hangs   : 2\nlast_path      : 1500094509\nlast_crash     : 0\nlast_hang      : 1500090567\nexec_timeout   : 20\nafl_banner     : fuzzer-master\nafl_version    : 1.85b\ncommand_line   : /home/skaramcheti/.virtualenvs/afl/bin/afl-unix/afl-fuzz -i /dev/shm/work/Checkmate/input -o /dev/shm/work/Checkmate/sync -m 4G -Q -M fuzzer-master -x /dev/shm/work/Checkmate/Checkmate.dict -- data/linux/processed-challenges/Checkmate/bin/Checkmate\n'
p75
I0
tp76
a(I4560
S'start_time     : 1500090207\nlast_update    : 1500094716\nfuzzer_pid     : 22880\ncycles_done    : 0\nexecs_done     : 2103400\nexecs_per_sec  : 466.90\npaths_total    : 301\npaths_favored  : 98\npaths_found    : 300\npaths_imported : 0\nmax_depth      : 4\ncur_path       : 93\npending_favs   : 85\npending_total  : 275\nvariable_paths : 0\nbitmap_cvg     : 1.91%\nunique_crashes : 0\nunique_hangs   : 3\nlast_path      : 1500094509\nlast_crash     : 0\nlast_hang      : 1500094639\nexec_timeout   : 20\nafl_banner     : fuzzer-master\nafl_version    : 1.85b\ncommand_line   : /home/skaramcheti/.virtualenvs/afl/bin/afl-unix/afl-fuzz -i /dev/shm/work/Checkmate/input -o /dev/shm/work/Checkmate/sync -m 4G -Q -M fuzzer-master -x /dev/shm/work/Checkmate/Checkmate.dict -- data/linux/processed-challenges/Checkmate/bin/Checkmate\n'
p77
I1
tp78
a(I4680
S'start_time     : 1500090207\nlast_update    : 1500094836\nfuzzer_pid     : 22880\ncycles_done    : 0\nexecs_done     : 2158221\nexecs_per_sec  : 436.58\npaths_total    : 302\npaths_favored  : 103\npaths_found    : 301\npaths_imported : 0\nmax_depth      : 4\ncur_path       : 104\npending_favs   : 87\npending_total  : 273\nvariable_paths : 0\nbitmap_cvg     : 1.91%\nunique_crashes : 0\nunique_hangs   : 3\nlast_path      : 1500094766\nlast_crash     : 0\nlast_hang      : 1500094639\nexec_timeout   : 20\nafl_banner     : fuzzer-master\nafl_version    : 1.85b\ncommand_line   : /home/skaramcheti/.virtualenvs/afl/bin/afl-unix/afl-fuzz -i /dev/shm/work/Checkmate/input -o /dev/shm/work/Checkmate/sync -m 4G -Q -M fuzzer-master -x /dev/shm/work/Checkmate/Checkmate.dict -- data/linux/processed-challenges/Checkmate/bin/Checkmate\n'
p79
I0
tp80
a(I4800
S'start_time     : 1500090207\nlast_update    : 1500094956\nfuzzer_pid     : 22880\ncycles_done    : 0\nexecs_done     : 2211100\nexecs_per_sec  : 468.45\npaths_total    : 303\npaths_favored  : 103\npaths_found    : 302\npaths_imported : 0\nmax_depth      : 4\ncur_path       : 111\npending_favs   : 84\npending_total  : 271\nvariable_paths : 0\nbitmap_cvg     : 1.91%\nunique_crashes : 0\nunique_hangs   : 3\nlast_path      : 1500094946\nlast_crash     : 0\nlast_hang      : 1500094639\nexec_timeout   : 20\nafl_banner     : fuzzer-master\nafl_version    : 1.85b\ncommand_line   : /home/skaramcheti/.virtualenvs/afl/bin/afl-unix/afl-fuzz -i /dev/shm/work/Checkmate/input -o /dev/shm/work/Checkmate/sync -m 4G -Q -M fuzzer-master -x /dev/shm/work/Checkmate/Checkmate.dict -- data/linux/processed-challenges/Checkmate/bin/Checkmate\n'
p81
I1
tp82
a(I4920
S'start_time     : 1500090207\nlast_update    : 1500095077\nfuzzer_pid     : 22880\ncycles_done    : 0\nexecs_done     : 2262381\nexecs_per_sec  : 440.09\npaths_total    : 303\npaths_favored  : 103\npaths_found    : 302\npaths_imported : 0\nmax_depth      : 4\ncur_path       : 123\npending_favs   : 79\npending_total  : 266\nvariable_paths : 0\nbitmap_cvg     : 1.91%\nunique_crashes : 0\nunique_hangs   : 3\nlast_path      : 1500094946\nlast_crash     : 0\nlast_hang      : 1500094639\nexec_timeout   : 20\nafl_banner     : fuzzer-master\nafl_version    : 1.85b\ncommand_line   : /home/skaramcheti/.virtualenvs/afl/bin/afl-unix/afl-fuzz -i /dev/shm/work/Checkmate/input -o /dev/shm/work/Checkmate/sync -m 4G -Q -M fuzzer-master -x /dev/shm/work/Checkmate/Checkmate.dict -- data/linux/processed-challenges/Checkmate/bin/Checkmate\n'
p83
I1
tp84
a(I5040
S'start_time     : 1500090207\nlast_update    : 1500095197\nfuzzer_pid     : 22880\ncycles_done    : 0\nexecs_done     : 2303819\nexecs_per_sec  : 274.21\npaths_total    : 305\npaths_favored  : 103\npaths_found    : 304\npaths_imported : 0\nmax_depth      : 4\ncur_path       : 140\npending_favs   : 77\npending_total  : 266\nvariable_paths : 0\nbitmap_cvg     : 1.91%\nunique_crashes : 0\nunique_hangs   : 3\nlast_path      : 1500095196\nlast_crash     : 0\nlast_hang      : 1500094639\nexec_timeout   : 20\nafl_banner     : fuzzer-master\nafl_version    : 1.85b\ncommand_line   : /home/skaramcheti/.virtualenvs/afl/bin/afl-unix/afl-fuzz -i /dev/shm/work/Checkmate/input -o /dev/shm/work/Checkmate/sync -m 4G -Q -M fuzzer-master -x /dev/shm/work/Checkmate/Checkmate.dict -- data/linux/processed-challenges/Checkmate/bin/Checkmate\n'
p85
I4
tp86
a(I5160
S'start_time     : 1500090207\nlast_update    : 1500095317\nfuzzer_pid     : 22880\ncycles_done    : 0\nexecs_done     : 2347601\nexecs_per_sec  : 382.29\npaths_total    : 309\npaths_favored  : 103\npaths_found    : 308\npaths_imported : 0\nmax_depth      : 4\ncur_path       : 140\npending_favs   : 77\npending_total  : 270\nvariable_paths : 0\nbitmap_cvg     : 1.91%\nunique_crashes : 0\nunique_hangs   : 3\nlast_path      : 1500095314\nlast_crash     : 0\nlast_hang      : 1500094639\nexec_timeout   : 20\nafl_banner     : fuzzer-master\nafl_version    : 1.85b\ncommand_line   : /home/skaramcheti/.virtualenvs/afl/bin/afl-unix/afl-fuzz -i /dev/shm/work/Checkmate/input -o /dev/shm/work/Checkmate/sync -m 4G -Q -M fuzzer-master -x /dev/shm/work/Checkmate/Checkmate.dict -- data/linux/processed-challenges/Checkmate/bin/Checkmate\n'
p87
I3
tp88
a(I5280
S'start_time     : 1500090207\nlast_update    : 1500095437\nfuzzer_pid     : 22880\ncycles_done    : 0\nexecs_done     : 2393487\nexecs_per_sec  : 370.62\npaths_total    : 314\npaths_favored  : 103\npaths_found    : 313\npaths_imported : 0\nmax_depth      : 4\ncur_path       : 140\npending_favs   : 77\npending_total  : 275\nvariable_paths : 0\nbitmap_cvg     : 1.91%\nunique_crashes : 0\nunique_hangs   : 3\nlast_path      : 1500095412\nlast_crash     : 0\nlast_hang      : 1500094639\nexec_timeout   : 20\nafl_banner     : fuzzer-master\nafl_version    : 1.85b\ncommand_line   : /home/skaramcheti/.virtualenvs/afl/bin/afl-unix/afl-fuzz -i /dev/shm/work/Checkmate/input -o /dev/shm/work/Checkmate/sync -m 4G -Q -M fuzzer-master -x /dev/shm/work/Checkmate/Checkmate.dict -- data/linux/processed-challenges/Checkmate/bin/Checkmate\n'
p89
I5
tp90
a(I5400
S'start_time     : 1500090207\nlast_update    : 1500095557\nfuzzer_pid     : 22880\ncycles_done    : 0\nexecs_done     : 2439518\nexecs_per_sec  : 397.55\npaths_total    : 316\npaths_favored  : 103\npaths_found    : 315\npaths_imported : 0\nmax_depth      : 4\ncur_path       : 140\npending_favs   : 77\npending_total  : 277\nvariable_paths : 0\nbitmap_cvg     : 1.91%\nunique_crashes : 0\nunique_hangs   : 3\nlast_path      : 1500095488\nlast_crash     : 0\nlast_hang      : 1500094639\nexec_timeout   : 20\nafl_banner     : fuzzer-master\nafl_version    : 1.85b\ncommand_line   : /home/skaramcheti/.virtualenvs/afl/bin/afl-unix/afl-fuzz -i /dev/shm/work/Checkmate/input -o /dev/shm/work/Checkmate/sync -m 4G -Q -M fuzzer-master -x /dev/shm/work/Checkmate/Checkmate.dict -- data/linux/processed-challenges/Checkmate/bin/Checkmate\n'
p91
I0
tp92
a(I5520
S'start_time     : 1500090207\nlast_update    : 1500095678\nfuzzer_pid     : 22880\ncycles_done    : 0\nexecs_done     : 2481357\nexecs_per_sec  : 294.98\npaths_total    : 316\npaths_favored  : 105\npaths_found    : 315\npaths_imported : 0\nmax_depth      : 4\ncur_path       : 152\npending_favs   : 79\npending_total  : 276\nvariable_paths : 0\nbitmap_cvg     : 1.91%\nunique_crashes : 0\nunique_hangs   : 3\nlast_path      : 1500095488\nlast_crash     : 0\nlast_hang      : 1500094639\nexec_timeout   : 20\nafl_banner     : fuzzer-master\nafl_version    : 1.85b\ncommand_line   : /home/skaramcheti/.virtualenvs/afl/bin/afl-unix/afl-fuzz -i /dev/shm/work/Checkmate/input -o /dev/shm/work/Checkmate/sync -m 4G -Q -M fuzzer-master -x /dev/shm/work/Checkmate/Checkmate.dict -- data/linux/processed-challenges/Checkmate/bin/Checkmate\n'
p93
I3
tp94
a(I5640
S'start_time     : 1500090207\nlast_update    : 1500095798\nfuzzer_pid     : 22880\ncycles_done    : 0\nexecs_done     : 2531763\nexecs_per_sec  : 433.44\npaths_total    : 320\npaths_favored  : 105\npaths_found    : 319\npaths_imported : 0\nmax_depth      : 4\ncur_path       : 161\npending_favs   : 77\npending_total  : 278\nvariable_paths : 0\nbitmap_cvg     : 1.91%\nunique_crashes : 0\nunique_hangs   : 3\nlast_path      : 1500095738\nlast_crash     : 0\nlast_hang      : 1500094639\nexec_timeout   : 20\nafl_banner     : fuzzer-master\nafl_version    : 1.85b\ncommand_line   : /home/skaramcheti/.virtualenvs/afl/bin/afl-unix/afl-fuzz -i /dev/shm/work/Checkmate/input -o /dev/shm/work/Checkmate/sync -m 4G -Q -M fuzzer-master -x /dev/shm/work/Checkmate/Checkmate.dict -- data/linux/processed-challenges/Checkmate/bin/Checkmate\n'
p95
I6
tp96
a(I5760
S'start_time     : 1500090207\nlast_update    : 1500095918\nfuzzer_pid     : 22880\ncycles_done    : 0\nexecs_done     : 2586930\nexecs_per_sec  : 479.98\npaths_total    : 328\npaths_favored  : 105\npaths_found    : 327\npaths_imported : 0\nmax_depth      : 4\ncur_path       : 163\npending_favs   : 75\npending_total  : 284\nvariable_paths : 0\nbitmap_cvg     : 1.92%\nunique_crashes : 0\nunique_hangs   : 3\nlast_path      : 1500095906\nlast_crash     : 0\nlast_hang      : 1500094639\nexec_timeout   : 20\nafl_banner     : fuzzer-master\nafl_version    : 1.85b\ncommand_line   : /home/skaramcheti/.virtualenvs/afl/bin/afl-unix/afl-fuzz -i /dev/shm/work/Checkmate/input -o /dev/shm/work/Checkmate/sync -m 4G -Q -M fuzzer-master -x /dev/shm/work/Checkmate/Checkmate.dict -- data/linux/processed-challenges/Checkmate/bin/Checkmate\n'
p97
I4
tp98
a(I5880
S'start_time     : 1500090207\nlast_update    : 1500096038\nfuzzer_pid     : 22880\ncycles_done    : 0\nexecs_done     : 2643586\nexecs_per_sec  : 461.39\npaths_total    : 329\npaths_favored  : 105\npaths_found    : 328\npaths_imported : 0\nmax_depth      : 4\ncur_path       : 163\npending_favs   : 75\npending_total  : 285\nvariable_paths : 0\nbitmap_cvg     : 1.92%\nunique_crashes : 0\nunique_hangs   : 3\nlast_path      : 1500095972\nlast_crash     : 0\nlast_hang      : 1500094639\nexec_timeout   : 20\nafl_banner     : fuzzer-master\nafl_version    : 1.85b\ncommand_line   : /home/skaramcheti/.virtualenvs/afl/bin/afl-unix/afl-fuzz -i /dev/shm/work/Checkmate/input -o /dev/shm/work/Checkmate/sync -m 4G -Q -M fuzzer-master -x /dev/shm/work/Checkmate/Checkmate.dict -- data/linux/processed-challenges/Checkmate/bin/Checkmate\n'
p99
I0
tp100
a(I6000
S'start_time     : 1500090207\nlast_update    : 1500096159\nfuzzer_pid     : 22880\ncycles_done    : 0\nexecs_done     : 2700124\nexecs_per_sec  : 467.48\npaths_total    : 329\npaths_favored  : 105\npaths_found    : 328\npaths_imported : 0\nmax_depth      : 4\ncur_path       : 163\npending_favs   : 75\npending_total  : 285\nvariable_paths : 0\nbitmap_cvg     : 1.92%\nunique_crashes : 0\nunique_hangs   : 3\nlast_path      : 1500095972\nlast_crash     : 0\nlast_hang      : 1500094639\nexec_timeout   : 20\nafl_banner     : fuzzer-master\nafl_version    : 1.85b\ncommand_line   : /home/skaramcheti/.virtualenvs/afl/bin/afl-unix/afl-fuzz -i /dev/shm/work/Checkmate/input -o /dev/shm/work/Checkmate/sync -m 4G -Q -M fuzzer-master -x /dev/shm/work/Checkmate/Checkmate.dict -- data/linux/processed-challenges/Checkmate/bin/Checkmate\n'
p101
I2
tp102
a(I6120
S'start_time     : 1500090207\nlast_update    : 1500096279\nfuzzer_pid     : 22880\ncycles_done    : 0\nexecs_done     : 2750551\nexecs_per_sec  : 256.39\npaths_total    : 331\npaths_favored  : 107\npaths_found    : 330\npaths_imported : 0\nmax_depth      : 4\ncur_path       : 172\npending_favs   : 73\npending_total  : 283\nvariable_paths : 0\nbitmap_cvg     : 1.92%\nunique_crashes : 0\nunique_hangs   : 3\nlast_path      : 1500096205\nlast_crash     : 0\nlast_hang      : 1500094639\nexec_timeout   : 20\nafl_banner     : fuzzer-master\nafl_version    : 1.85b\ncommand_line   : /home/skaramcheti/.virtualenvs/afl/bin/afl-unix/afl-fuzz -i /dev/shm/work/Checkmate/input -o /dev/shm/work/Checkmate/sync -m 4G -Q -M fuzzer-master -x /dev/shm/work/Checkmate/Checkmate.dict -- data/linux/processed-challenges/Checkmate/bin/Checkmate\n'
p103
I1
tp104
a(I6240
S'start_time     : 1500090207\nlast_update    : 1500096399\nfuzzer_pid     : 22880\ncycles_done    : 0\nexecs_done     : 2799586\nexecs_per_sec  : 402.33\npaths_total    : 340\npaths_favored  : 107\npaths_found    : 339\npaths_imported : 0\nmax_depth      : 4\ncur_path       : 187\npending_favs   : 68\npending_total  : 287\nvariable_paths : 0\nbitmap_cvg     : 1.92%\nunique_crashes : 0\nunique_hangs   : 3\nlast_path      : 1500096397\nlast_crash     : 0\nlast_hang      : 1500094639\nexec_timeout   : 20\nafl_banner     : fuzzer-master\nafl_version    : 1.85b\ncommand_line   : /home/skaramcheti/.virtualenvs/afl/bin/afl-unix/afl-fuzz -i /dev/shm/work/Checkmate/input -o /dev/shm/work/Checkmate/sync -m 4G -Q -M fuzzer-master -x /dev/shm/work/Checkmate/Checkmate.dict -- data/linux/processed-challenges/Checkmate/bin/Checkmate\n'
p105
I9
tp106
a(I6360
S'start_time     : 1500090207\nlast_update    : 1500096519\nfuzzer_pid     : 22880\ncycles_done    : 0\nexecs_done     : 2849078\nexecs_per_sec  : 406.10\npaths_total    : 342\npaths_favored  : 107\npaths_found    : 341\npaths_imported : 0\nmax_depth      : 4\ncur_path       : 187\npending_favs   : 68\npending_total  : 289\nvariable_paths : 0\nbitmap_cvg     : 1.92%\nunique_crashes : 0\nunique_hangs   : 3\nlast_path      : 1500096487\nlast_crash     : 0\nlast_hang      : 1500094639\nexec_timeout   : 20\nafl_banner     : fuzzer-master\nafl_version    : 1.85b\ncommand_line   : /home/skaramcheti/.virtualenvs/afl/bin/afl-unix/afl-fuzz -i /dev/shm/work/Checkmate/input -o /dev/shm/work/Checkmate/sync -m 4G -Q -M fuzzer-master -x /dev/shm/work/Checkmate/Checkmate.dict -- data/linux/processed-challenges/Checkmate/bin/Checkmate\n'
p107
I2
tp108
a(I6480
S'start_time     : 1500090207\nlast_update    : 1500096639\nfuzzer_pid     : 22880\ncycles_done    : 0\nexecs_done     : 2898832\nexecs_per_sec  : 413.28\npaths_total    : 343\npaths_favored  : 107\npaths_found    : 342\npaths_imported : 0\nmax_depth      : 4\ncur_path       : 187\npending_favs   : 68\npending_total  : 290\nvariable_paths : 0\nbitmap_cvg     : 1.92%\nunique_crashes : 0\nunique_hangs   : 3\nlast_path      : 1500096557\nlast_crash     : 0\nlast_hang      : 1500094639\nexec_timeout   : 20\nafl_banner     : fuzzer-master\nafl_version    : 1.85b\ncommand_line   : /home/skaramcheti/.virtualenvs/afl/bin/afl-unix/afl-fuzz -i /dev/shm/work/Checkmate/input -o /dev/shm/work/Checkmate/sync -m 4G -Q -M fuzzer-master -x /dev/shm/work/Checkmate/Checkmate.dict -- data/linux/processed-challenges/Checkmate/bin/Checkmate\n'
p109
I1
tp110
a(I6600
S'start_time     : 1500090207\nlast_update    : 1500096760\nfuzzer_pid     : 22880\ncycles_done    : 0\nexecs_done     : 2948594\nexecs_per_sec  : 404.96\npaths_total    : 344\npaths_favored  : 107\npaths_found    : 343\npaths_imported : 0\nmax_depth      : 4\ncur_path       : 187\npending_favs   : 68\npending_total  : 291\nvariable_paths : 0\nbitmap_cvg     : 1.92%\nunique_crashes : 0\nunique_hangs   : 3\nlast_path      : 1500096653\nlast_crash     : 0\nlast_hang      : 1500094639\nexec_timeout   : 20\nafl_banner     : fuzzer-master\nafl_version    : 1.85b\ncommand_line   : /home/skaramcheti/.virtualenvs/afl/bin/afl-unix/afl-fuzz -i /dev/shm/work/Checkmate/input -o /dev/shm/work/Checkmate/sync -m 4G -Q -M fuzzer-master -x /dev/shm/work/Checkmate/Checkmate.dict -- data/linux/processed-challenges/Checkmate/bin/Checkmate\n'
p111
I0
tp112
a(I6720
S'start_time     : 1500090207\nlast_update    : 1500096880\nfuzzer_pid     : 22880\ncycles_done    : 0\nexecs_done     : 3003070\nexecs_per_sec  : 472.45\npaths_total    : 348\npaths_favored  : 109\npaths_found    : 347\npaths_imported : 0\nmax_depth      : 4\ncur_path       : 196\npending_favs   : 65\npending_total  : 290\nvariable_paths : 0\nbitmap_cvg     : 1.92%\nunique_crashes : 0\nunique_hangs   : 3\nlast_path      : 1500096838\nlast_crash     : 0\nlast_hang      : 1500094639\nexec_timeout   : 20\nafl_banner     : fuzzer-master\nafl_version    : 1.85b\ncommand_line   : /home/skaramcheti/.virtualenvs/afl/bin/afl-unix/afl-fuzz -i /dev/shm/work/Checkmate/input -o /dev/shm/work/Checkmate/sync -m 4G -Q -M fuzzer-master -x /dev/shm/work/Checkmate/Checkmate.dict -- data/linux/processed-challenges/Checkmate/bin/Checkmate\n'
p113
I5
tp114
a(I6840
S'start_time     : 1500090207\nlast_update    : 1500097000\nfuzzer_pid     : 22880\ncycles_done    : 0\nexecs_done     : 3060925\nexecs_per_sec  : 483.25\npaths_total    : 350\npaths_favored  : 110\npaths_found    : 349\npaths_imported : 0\nmax_depth      : 5\ncur_path       : 204\npending_favs   : 63\npending_total  : 289\nvariable_paths : 0\nbitmap_cvg     : 1.92%\nunique_crashes : 0\nunique_hangs   : 3\nlast_path      : 1500096944\nlast_crash     : 0\nlast_hang      : 1500094639\nexec_timeout   : 20\nafl_banner     : fuzzer-master\nafl_version    : 1.85b\ncommand_line   : /home/skaramcheti/.virtualenvs/afl/bin/afl-unix/afl-fuzz -i /dev/shm/work/Checkmate/input -o /dev/shm/work/Checkmate/sync -m 4G -Q -M fuzzer-master -x /dev/shm/work/Checkmate/Checkmate.dict -- data/linux/processed-challenges/Checkmate/bin/Checkmate\n'
p115
I5
tp116
a(I6960
S'start_time     : 1500090207\nlast_update    : 1500097120\nfuzzer_pid     : 22880\ncycles_done    : 0\nexecs_done     : 3117023\nexecs_per_sec  : 465.80\npaths_total    : 355\npaths_favored  : 110\npaths_found    : 354\npaths_imported : 0\nmax_depth      : 5\ncur_path       : 206\npending_favs   : 62\npending_total  : 293\nvariable_paths : 0\nbitmap_cvg     : 1.93%\nunique_crashes : 0\nunique_hangs   : 3\nlast_path      : 1500097107\nlast_crash     : 0\nlast_hang      : 1500094639\nexec_timeout   : 20\nafl_banner     : fuzzer-master\nafl_version    : 1.85b\ncommand_line   : /home/skaramcheti/.virtualenvs/afl/bin/afl-unix/afl-fuzz -i /dev/shm/work/Checkmate/input -o /dev/shm/work/Checkmate/sync -m 4G -Q -M fuzzer-master -x /dev/shm/work/Checkmate/Checkmate.dict -- data/linux/processed-challenges/Checkmate/bin/Checkmate\n'
p117
I2
tp118
a(I7080
S'start_time     : 1500090207\nlast_update    : 1500097240\nfuzzer_pid     : 22880\ncycles_done    : 0\nexecs_done     : 3172924\nexecs_per_sec  : 466.75\npaths_total    : 357\npaths_favored  : 110\npaths_found    : 356\npaths_imported : 0\nmax_depth      : 5\ncur_path       : 206\npending_favs   : 62\npending_total  : 295\nvariable_paths : 0\nbitmap_cvg     : 1.93%\nunique_crashes : 0\nunique_hangs   : 3\nlast_path      : 1500097188\nlast_crash     : 0\nlast_hang      : 1500094639\nexec_timeout   : 20\nafl_banner     : fuzzer-master\nafl_version    : 1.85b\ncommand_line   : /home/skaramcheti/.virtualenvs/afl/bin/afl-unix/afl-fuzz -i /dev/shm/work/Checkmate/input -o /dev/shm/work/Checkmate/sync -m 4G -Q -M fuzzer-master -x /dev/shm/work/Checkmate/Checkmate.dict -- data/linux/processed-challenges/Checkmate/bin/Checkmate\n'
p119
I1
tp120
a(I7200
S'start_time     : 1500090207\nlast_update    : 1500097361\nfuzzer_pid     : 22880\ncycles_done    : 0\nexecs_done     : 3229041\nexecs_per_sec  : 438.10\npaths_total    : 360\npaths_favored  : 112\npaths_found    : 359\npaths_imported : 0\nmax_depth      : 5\ncur_path       : 208\npending_favs   : 64\npending_total  : 297\nvariable_paths : 0\nbitmap_cvg     : 1.93%\nunique_crashes : 0\nunique_hangs   : 3\nlast_path      : 1500097359\nlast_crash     : 0\nlast_hang      : 1500094639\nexec_timeout   : 20\nafl_banner     : fuzzer-master\nafl_version    : 1.85b\ncommand_line   : /home/skaramcheti/.virtualenvs/afl/bin/afl-unix/afl-fuzz -i /dev/shm/work/Checkmate/input -o /dev/shm/work/Checkmate/sync -m 4G -Q -M fuzzer-master -x /dev/shm/work/Checkmate/Checkmate.dict -- data/linux/processed-challenges/Checkmate/bin/Checkmate\n'
p121
I6
tp122
a(I7320
S'start_time     : 1500090207\nlast_update    : 1500097481\nfuzzer_pid     : 22880\ncycles_done    : 0\nexecs_done     : 3286219\nexecs_per_sec  : 477.58\npaths_total    : 364\npaths_favored  : 112\npaths_found    : 363\npaths_imported : 0\nmax_depth      : 5\ncur_path       : 208\npending_favs   : 64\npending_total  : 301\nvariable_paths : 0\nbitmap_cvg     : 1.93%\nunique_crashes : 0\nunique_hangs   : 3\nlast_path      : 1500097445\nlast_crash     : 0\nlast_hang      : 1500094639\nexec_timeout   : 20\nafl_banner     : fuzzer-master\nafl_version    : 1.85b\ncommand_line   : /home/skaramcheti/.virtualenvs/afl/bin/afl-unix/afl-fuzz -i /dev/shm/work/Checkmate/input -o /dev/shm/work/Checkmate/sync -m 4G -Q -M fuzzer-master -x /dev/shm/work/Checkmate/Checkmate.dict -- data/linux/processed-challenges/Checkmate/bin/Checkmate\n'
p123
I1
tp124
a(I7440
S'start_time     : 1500090207\nlast_update    : 1500097601\nfuzzer_pid     : 22880\ncycles_done    : 0\nexecs_done     : 3343479\nexecs_per_sec  : 462.23\npaths_total    : 366\npaths_favored  : 112\npaths_found    : 365\npaths_imported : 0\nmax_depth      : 5\ncur_path       : 208\npending_favs   : 64\npending_total  : 303\nvariable_paths : 0\nbitmap_cvg     : 1.94%\nunique_crashes : 0\nunique_hangs   : 3\nlast_path      : 1500097553\nlast_crash     : 0\nlast_hang      : 1500094639\nexec_timeout   : 20\nafl_banner     : fuzzer-master\nafl_version    : 1.85b\ncommand_line   : /home/skaramcheti/.virtualenvs/afl/bin/afl-unix/afl-fuzz -i /dev/shm/work/Checkmate/input -o /dev/shm/work/Checkmate/sync -m 4G -Q -M fuzzer-master -x /dev/shm/work/Checkmate/Checkmate.dict -- data/linux/processed-challenges/Checkmate/bin/Checkmate\n'
p125
I5
tp126
a(I7560
S'start_time     : 1500090207\nlast_update    : 1500097721\nfuzzer_pid     : 22880\ncycles_done    : 0\nexecs_done     : 3384467\nexecs_per_sec  : 354.82\npaths_total    : 370\npaths_favored  : 113\npaths_found    : 369\npaths_imported : 0\nmax_depth      : 5\ncur_path       : 210\npending_favs   : 65\npending_total  : 306\nvariable_paths : 0\nbitmap_cvg     : 1.94%\nunique_crashes : 0\nunique_hangs   : 4\nlast_path      : 1500097676\nlast_crash     : 0\nlast_hang      : 1500097661\nexec_timeout   : 20\nafl_banner     : fuzzer-master\nafl_version    : 1.85b\ncommand_line   : /home/skaramcheti/.virtualenvs/afl/bin/afl-unix/afl-fuzz -i /dev/shm/work/Checkmate/input -o /dev/shm/work/Checkmate/sync -m 4G -Q -M fuzzer-master -x /dev/shm/work/Checkmate/Checkmate.dict -- data/linux/processed-challenges/Checkmate/bin/Checkmate\n'
p127
I3
tp128
a(I7680
S'start_time     : 1500090207\nlast_update    : 1500097841\nfuzzer_pid     : 22880\ncycles_done    : 0\nexecs_done     : 3427098\nexecs_per_sec  : 336.14\npaths_total    : 374\npaths_favored  : 113\npaths_found    : 373\npaths_imported : 0\nmax_depth      : 5\ncur_path       : 210\npending_favs   : 65\npending_total  : 310\nvariable_paths : 0\nbitmap_cvg     : 1.94%\nunique_crashes : 0\nunique_hangs   : 4\nlast_path      : 1500097835\nlast_crash     : 0\nlast_hang      : 1500097661\nexec_timeout   : 20\nafl_banner     : fuzzer-master\nafl_version    : 1.85b\ncommand_line   : /home/skaramcheti/.virtualenvs/afl/bin/afl-unix/afl-fuzz -i /dev/shm/work/Checkmate/input -o /dev/shm/work/Checkmate/sync -m 4G -Q -M fuzzer-master -x /dev/shm/work/Checkmate/Checkmate.dict -- data/linux/processed-challenges/Checkmate/bin/Checkmate\n'
p129
I3
tp130
a(I7800
S'start_time     : 1500090207\nlast_update    : 1500097962\nfuzzer_pid     : 22880\ncycles_done    : 0\nexecs_done     : 3469959\nexecs_per_sec  : 355.03\npaths_total    : 375\npaths_favored  : 113\npaths_found    : 374\npaths_imported : 0\nmax_depth      : 5\ncur_path       : 210\npending_favs   : 65\npending_total  : 311\nvariable_paths : 0\nbitmap_cvg     : 1.94%\nunique_crashes : 0\nunique_hangs   : 4\nlast_path      : 1500097855\nlast_crash     : 0\nlast_hang      : 1500097661\nexec_timeout   : 20\nafl_banner     : fuzzer-master\nafl_version    : 1.85b\ncommand_line   : /home/skaramcheti/.virtualenvs/afl/bin/afl-unix/afl-fuzz -i /dev/shm/work/Checkmate/input -o /dev/shm/work/Checkmate/sync -m 4G -Q -M fuzzer-master -x /dev/shm/work/Checkmate/Checkmate.dict -- data/linux/processed-challenges/Checkmate/bin/Checkmate\n'
p131
I0
tp132
a(I7920
S'start_time     : 1500090207\nlast_update    : 1500098082\nfuzzer_pid     : 22880\ncycles_done    : 0\nexecs_done     : 3513131\nexecs_per_sec  : 354.53\npaths_total    : 376\npaths_favored  : 113\npaths_found    : 375\npaths_imported : 0\nmax_depth      : 5\ncur_path       : 210\npending_favs   : 65\npending_total  : 312\nvariable_paths : 0\nbitmap_cvg     : 1.94%\nunique_crashes : 0\nunique_hangs   : 5\nlast_path      : 1500098022\nlast_crash     : 0\nlast_hang      : 1500097984\nexec_timeout   : 20\nafl_banner     : fuzzer-master\nafl_version    : 1.85b\ncommand_line   : /home/skaramcheti/.virtualenvs/afl/bin/afl-unix/afl-fuzz -i /dev/shm/work/Checkmate/input -o /dev/shm/work/Checkmate/sync -m 4G -Q -M fuzzer-master -x /dev/shm/work/Checkmate/Checkmate.dict -- data/linux/processed-challenges/Checkmate/bin/Checkmate\n'
p133
I4
tp134
a(I8040
S'start_time     : 1500090207\nlast_update    : 1500098202\nfuzzer_pid     : 22880\ncycles_done    : 0\nexecs_done     : 3563539\nexecs_per_sec  : 434.24\npaths_total    : 380\npaths_favored  : 114\npaths_found    : 379\npaths_imported : 0\nmax_depth      : 5\ncur_path       : 214\npending_favs   : 65\npending_total  : 315\nvariable_paths : 0\nbitmap_cvg     : 1.94%\nunique_crashes : 0\nunique_hangs   : 6\nlast_path      : 1500098148\nlast_crash     : 0\nlast_hang      : 1500098135\nexec_timeout   : 20\nafl_banner     : fuzzer-master\nafl_version    : 1.85b\ncommand_line   : /home/skaramcheti/.virtualenvs/afl/bin/afl-unix/afl-fuzz -i /dev/shm/work/Checkmate/input -o /dev/shm/work/Checkmate/sync -m 4G -Q -M fuzzer-master -x /dev/shm/work/Checkmate/Checkmate.dict -- data/linux/processed-challenges/Checkmate/bin/Checkmate\n'
p135
I1
tp136
a(I8160
S'start_time     : 1500090207\nlast_update    : 1500098322\nfuzzer_pid     : 22880\ncycles_done    : 0\nexecs_done     : 3615334\nexecs_per_sec  : 446.53\npaths_total    : 381\npaths_favored  : 114\npaths_found    : 380\npaths_imported : 0\nmax_depth      : 5\ncur_path       : 217\npending_favs   : 65\npending_total  : 315\nvariable_paths : 0\nbitmap_cvg     : 1.94%\nunique_crashes : 0\nunique_hangs   : 6\nlast_path      : 1500098298\nlast_crash     : 0\nlast_hang      : 1500098135\nexec_timeout   : 20\nafl_banner     : fuzzer-master\nafl_version    : 1.85b\ncommand_line   : /home/skaramcheti/.virtualenvs/afl/bin/afl-unix/afl-fuzz -i /dev/shm/work/Checkmate/input -o /dev/shm/work/Checkmate/sync -m 4G -Q -M fuzzer-master -x /dev/shm/work/Checkmate/Checkmate.dict -- data/linux/processed-challenges/Checkmate/bin/Checkmate\n'
p137
I1
tp138
a(I8280
S'start_time     : 1500090207\nlast_update    : 1500098442\nfuzzer_pid     : 22880\ncycles_done    : 0\nexecs_done     : 3666929\nexecs_per_sec  : 431.96\npaths_total    : 384\npaths_favored  : 114\npaths_found    : 383\npaths_imported : 0\nmax_depth      : 5\ncur_path       : 225\npending_favs   : 62\npending_total  : 315\nvariable_paths : 0\nbitmap_cvg     : 1.94%\nunique_crashes : 0\nunique_hangs   : 6\nlast_path      : 1500098421\nlast_crash     : 0\nlast_hang      : 1500098135\nexec_timeout   : 20\nafl_banner     : fuzzer-master\nafl_version    : 1.85b\ncommand_line   : /home/skaramcheti/.virtualenvs/afl/bin/afl-unix/afl-fuzz -i /dev/shm/work/Checkmate/input -o /dev/shm/work/Checkmate/sync -m 4G -Q -M fuzzer-master -x /dev/shm/work/Checkmate/Checkmate.dict -- data/linux/processed-challenges/Checkmate/bin/Checkmate\n'
p139
I4
tp140
a(I8400
S'start_time     : 1500090207\nlast_update    : 1500098563\nfuzzer_pid     : 22880\ncycles_done    : 0\nexecs_done     : 3719819\nexecs_per_sec  : 456.05\npaths_total    : 386\npaths_favored  : 114\npaths_found    : 385\npaths_imported : 0\nmax_depth      : 5\ncur_path       : 225\npending_favs   : 62\npending_total  : 317\nvariable_paths : 0\nbitmap_cvg     : 2.00%\nunique_crashes : 0\nunique_hangs   : 6\nlast_path      : 1500098554\nlast_crash     : 0\nlast_hang      : 1500098135\nexec_timeout   : 20\nafl_banner     : fuzzer-master\nafl_version    : 1.85b\ncommand_line   : /home/skaramcheti/.virtualenvs/afl/bin/afl-unix/afl-fuzz -i /dev/shm/work/Checkmate/input -o /dev/shm/work/Checkmate/sync -m 4G -Q -M fuzzer-master -x /dev/shm/work/Checkmate/Checkmate.dict -- data/linux/processed-challenges/Checkmate/bin/Checkmate\n'
p141
I1
tp142
a(I8520
S'start_time     : 1500090207\nlast_update    : 1500098683\nfuzzer_pid     : 22880\ncycles_done    : 0\nexecs_done     : 3772933\nexecs_per_sec  : 437.25\npaths_total    : 386\npaths_favored  : 114\npaths_found    : 385\npaths_imported : 0\nmax_depth      : 5\ncur_path       : 225\npending_favs   : 62\npending_total  : 317\nvariable_paths : 0\nbitmap_cvg     : 2.00%\nunique_crashes : 0\nunique_hangs   : 6\nlast_path      : 1500098554\nlast_crash     : 0\nlast_hang      : 1500098135\nexec_timeout   : 20\nafl_banner     : fuzzer-master\nafl_version    : 1.85b\ncommand_line   : /home/skaramcheti/.virtualenvs/afl/bin/afl-unix/afl-fuzz -i /dev/shm/work/Checkmate/input -o /dev/shm/work/Checkmate/sync -m 4G -Q -M fuzzer-master -x /dev/shm/work/Checkmate/Checkmate.dict -- data/linux/processed-challenges/Checkmate/bin/Checkmate\n'
p143
I0
tp144
a(I8640
S'start_time     : 1500090207\nlast_update    : 1500098803\nfuzzer_pid     : 22880\ncycles_done    : 0\nexecs_done     : 3824970\nexecs_per_sec  : 437.63\npaths_total    : 390\npaths_favored  : 113\npaths_found    : 389\npaths_imported : 0\nmax_depth      : 5\ncur_path       : 231\npending_favs   : 63\npending_total  : 320\nvariable_paths : 0\nbitmap_cvg     : 2.00%\nunique_crashes : 0\nunique_hangs   : 8\nlast_path      : 1500098787\nlast_crash     : 0\nlast_hang      : 1500098782\nexec_timeout   : 20\nafl_banner     : fuzzer-master\nafl_version    : 1.85b\ncommand_line   : /home/skaramcheti/.virtualenvs/afl/bin/afl-unix/afl-fuzz -i /dev/shm/work/Checkmate/input -o /dev/shm/work/Checkmate/sync -m 4G -Q -M fuzzer-master -x /dev/shm/work/Checkmate/Checkmate.dict -- data/linux/processed-challenges/Checkmate/bin/Checkmate\n'
p145
I6
tp146
a(I8760
S'start_time     : 1500090207\nlast_update    : 1500098923\nfuzzer_pid     : 22880\ncycles_done    : 0\nexecs_done     : 3877378\nexecs_per_sec  : 432.68\npaths_total    : 394\npaths_favored  : 113\npaths_found    : 393\npaths_imported : 0\nmax_depth      : 5\ncur_path       : 231\npending_favs   : 63\npending_total  : 324\nvariable_paths : 0\nbitmap_cvg     : 2.01%\nunique_crashes : 0\nunique_hangs   : 8\nlast_path      : 1500098891\nlast_crash     : 0\nlast_hang      : 1500098782\nexec_timeout   : 20\nafl_banner     : fuzzer-master\nafl_version    : 1.85b\ncommand_line   : /home/skaramcheti/.virtualenvs/afl/bin/afl-unix/afl-fuzz -i /dev/shm/work/Checkmate/input -o /dev/shm/work/Checkmate/sync -m 4G -Q -M fuzzer-master -x /dev/shm/work/Checkmate/Checkmate.dict -- data/linux/processed-challenges/Checkmate/bin/Checkmate\n'
p147
I2
tp148
a(I8880
S'start_time     : 1500090207\nlast_update    : 1500099043\nfuzzer_pid     : 22880\ncycles_done    : 0\nexecs_done     : 3930206\nexecs_per_sec  : 436.33\npaths_total    : 396\npaths_favored  : 113\npaths_found    : 395\npaths_imported : 0\nmax_depth      : 5\ncur_path       : 231\npending_favs   : 63\npending_total  : 326\nvariable_paths : 0\nbitmap_cvg     : 2.01%\nunique_crashes : 0\nunique_hangs   : 8\nlast_path      : 1500099037\nlast_crash     : 0\nlast_hang      : 1500098782\nexec_timeout   : 20\nafl_banner     : fuzzer-master\nafl_version    : 1.85b\ncommand_line   : /home/skaramcheti/.virtualenvs/afl/bin/afl-unix/afl-fuzz -i /dev/shm/work/Checkmate/input -o /dev/shm/work/Checkmate/sync -m 4G -Q -M fuzzer-master -x /dev/shm/work/Checkmate/Checkmate.dict -- data/linux/processed-challenges/Checkmate/bin/Checkmate\n'
p149
I2
tp150
a(I9000
S'start_time     : 1500090207\nlast_update    : 1500099164\nfuzzer_pid     : 22880\ncycles_done    : 0\nexecs_done     : 3983243\nexecs_per_sec  : 490.77\npaths_total    : 406\npaths_favored  : 115\npaths_found    : 405\npaths_imported : 0\nmax_depth      : 5\ncur_path       : 233\npending_favs   : 66\npending_total  : 335\nvariable_paths : 0\nbitmap_cvg     : 2.02%\nunique_crashes : 0\nunique_hangs   : 8\nlast_path      : 1500099143\nlast_crash     : 0\nlast_hang      : 1500098782\nexec_timeout   : 20\nafl_banner     : fuzzer-master\nafl_version    : 1.85b\ncommand_line   : /home/skaramcheti/.virtualenvs/afl/bin/afl-unix/afl-fuzz -i /dev/shm/work/Checkmate/input -o /dev/shm/work/Checkmate/sync -m 4G -Q -M fuzzer-master -x /dev/shm/work/Checkmate/Checkmate.dict -- data/linux/processed-challenges/Checkmate/bin/Checkmate\n'
p151
I12
tp152
a(I9120
S'start_time     : 1500090207\nlast_update    : 1500099284\nfuzzer_pid     : 22880\ncycles_done    : 0\nexecs_done     : 4039474\nexecs_per_sec  : 458.73\npaths_total    : 414\npaths_favored  : 115\npaths_found    : 413\npaths_imported : 0\nmax_depth      : 5\ncur_path       : 233\npending_favs   : 66\npending_total  : 343\nvariable_paths : 0\nbitmap_cvg     : 2.03%\nunique_crashes : 0\nunique_hangs   : 8\nlast_path      : 1500099284\nlast_crash     : 0\nlast_hang      : 1500098782\nexec_timeout   : 20\nafl_banner     : fuzzer-master\nafl_version    : 1.85b\ncommand_line   : /home/skaramcheti/.virtualenvs/afl/bin/afl-unix/afl-fuzz -i /dev/shm/work/Checkmate/input -o /dev/shm/work/Checkmate/sync -m 4G -Q -M fuzzer-master -x /dev/shm/work/Checkmate/Checkmate.dict -- data/linux/processed-challenges/Checkmate/bin/Checkmate\n'
p153
I7
tp154
a(I9240
S'start_time     : 1500090207\nlast_update    : 1500099404\nfuzzer_pid     : 22880\ncycles_done    : 0\nexecs_done     : 4095874\nexecs_per_sec  : 466.79\npaths_total    : 422\npaths_favored  : 127\npaths_found    : 421\npaths_imported : 0\nmax_depth      : 5\ncur_path       : 234\npending_favs   : 75\npending_total  : 350\nvariable_paths : 0\nbitmap_cvg     : 2.06%\nunique_crashes : 0\nunique_hangs   : 8\nlast_path      : 1500099401\nlast_crash     : 0\nlast_hang      : 1500098782\nexec_timeout   : 20\nafl_banner     : fuzzer-master\nafl_version    : 1.85b\ncommand_line   : /home/skaramcheti/.virtualenvs/afl/bin/afl-unix/afl-fuzz -i /dev/shm/work/Checkmate/input -o /dev/shm/work/Checkmate/sync -m 4G -Q -M fuzzer-master -x /dev/shm/work/Checkmate/Checkmate.dict -- data/linux/processed-challenges/Checkmate/bin/Checkmate\n'
p155
I11
tp156
a(I9360
S'start_time     : 1500090207\nlast_update    : 1500099524\nfuzzer_pid     : 22880\ncycles_done    : 0\nexecs_done     : 4152255\nexecs_per_sec  : 467.44\npaths_total    : 427\npaths_favored  : 127\npaths_found    : 426\npaths_imported : 0\nmax_depth      : 5\ncur_path       : 234\npending_favs   : 75\npending_total  : 355\nvariable_paths : 0\nbitmap_cvg     : 2.06%\nunique_crashes : 0\nunique_hangs   : 8\nlast_path      : 1500099465\nlast_crash     : 0\nlast_hang      : 1500098782\nexec_timeout   : 20\nafl_banner     : fuzzer-master\nafl_version    : 1.85b\ncommand_line   : /home/skaramcheti/.virtualenvs/afl/bin/afl-unix/afl-fuzz -i /dev/shm/work/Checkmate/input -o /dev/shm/work/Checkmate/sync -m 4G -Q -M fuzzer-master -x /dev/shm/work/Checkmate/Checkmate.dict -- data/linux/processed-challenges/Checkmate/bin/Checkmate\n'
p157
I5
tp158
a(I9480
S'start_time     : 1500090207\nlast_update    : 1500099644\nfuzzer_pid     : 22880\ncycles_done    : 0\nexecs_done     : 4208548\nexecs_per_sec  : 473.68\npaths_total    : 434\npaths_favored  : 127\npaths_found    : 433\npaths_imported : 0\nmax_depth      : 5\ncur_path       : 234\npending_favs   : 75\npending_total  : 362\nvariable_paths : 0\nbitmap_cvg     : 2.07%\nunique_crashes : 0\nunique_hangs   : 8\nlast_path      : 1500099644\nlast_crash     : 0\nlast_hang      : 1500098782\nexec_timeout   : 20\nafl_banner     : fuzzer-master\nafl_version    : 1.85b\ncommand_line   : /home/skaramcheti/.virtualenvs/afl/bin/afl-unix/afl-fuzz -i /dev/shm/work/Checkmate/input -o /dev/shm/work/Checkmate/sync -m 4G -Q -M fuzzer-master -x /dev/shm/work/Checkmate/Checkmate.dict -- data/linux/processed-challenges/Checkmate/bin/Checkmate\n'
p159
I3
tp160
a(I9600
S'start_time     : 1500090207\nlast_update    : 1500099765\nfuzzer_pid     : 22880\ncycles_done    : 0\nexecs_done     : 4263704\nexecs_per_sec  : 452.12\npaths_total    : 437\npaths_favored  : 133\npaths_found    : 436\npaths_imported : 0\nmax_depth      : 5\ncur_path       : 236\npending_favs   : 82\npending_total  : 364\nvariable_paths : 0\nbitmap_cvg     : 2.07%\nunique_crashes : 0\nunique_hangs   : 8\nlast_path      : 1500099757\nlast_crash     : 0\nlast_hang      : 1500098782\nexec_timeout   : 20\nafl_banner     : fuzzer-master\nafl_version    : 1.85b\ncommand_line   : /home/skaramcheti/.virtualenvs/afl/bin/afl-unix/afl-fuzz -i /dev/shm/work/Checkmate/input -o /dev/shm/work/Checkmate/sync -m 4G -Q -M fuzzer-master -x /dev/shm/work/Checkmate/Checkmate.dict -- data/linux/processed-challenges/Checkmate/bin/Checkmate\n'
p161
I5
tp162
a(I9720
S'start_time     : 1500090207\nlast_update    : 1500099885\nfuzzer_pid     : 22880\ncycles_done    : 0\nexecs_done     : 4321425\nexecs_per_sec  : 492.99\npaths_total    : 447\npaths_favored  : 137\npaths_found    : 446\npaths_imported : 0\nmax_depth      : 5\ncur_path       : 243\npending_favs   : 84\npending_total  : 372\nvariable_paths : 0\nbitmap_cvg     : 2.09%\nunique_crashes : 0\nunique_hangs   : 8\nlast_path      : 1500099882\nlast_crash     : 0\nlast_hang      : 1500098782\nexec_timeout   : 20\nafl_banner     : fuzzer-master\nafl_version    : 1.85b\ncommand_line   : /home/skaramcheti/.virtualenvs/afl/bin/afl-unix/afl-fuzz -i /dev/shm/work/Checkmate/input -o /dev/shm/work/Checkmate/sync -m 4G -Q -M fuzzer-master -x /dev/shm/work/Checkmate/Checkmate.dict -- data/linux/processed-challenges/Checkmate/bin/Checkmate\n'
p163
I10
tp164
a(I9840
S'start_time     : 1500090207\nlast_update    : 1500100005\nfuzzer_pid     : 22880\ncycles_done    : 0\nexecs_done     : 4380216\nexecs_per_sec  : 492.25\npaths_total    : 450\npaths_favored  : 137\npaths_found    : 449\npaths_imported : 0\nmax_depth      : 5\ncur_path       : 243\npending_favs   : 84\npending_total  : 375\nvariable_paths : 0\nbitmap_cvg     : 2.09%\nunique_crashes : 0\nunique_hangs   : 8\nlast_path      : 1500099951\nlast_crash     : 0\nlast_hang      : 1500098782\nexec_timeout   : 20\nafl_banner     : fuzzer-master\nafl_version    : 1.85b\ncommand_line   : /home/skaramcheti/.virtualenvs/afl/bin/afl-unix/afl-fuzz -i /dev/shm/work/Checkmate/input -o /dev/shm/work/Checkmate/sync -m 4G -Q -M fuzzer-master -x /dev/shm/work/Checkmate/Checkmate.dict -- data/linux/processed-challenges/Checkmate/bin/Checkmate\n'
p165
I2
tp166
a(I9960
S'start_time     : 1500090207\nlast_update    : 1500100125\nfuzzer_pid     : 22880\ncycles_done    : 0\nexecs_done     : 4437576\nexecs_per_sec  : 457.40\npaths_total    : 457\npaths_favored  : 145\npaths_found    : 456\npaths_imported : 0\nmax_depth      : 5\ncur_path       : 249\npending_favs   : 91\npending_total  : 380\nvariable_paths : 0\nbitmap_cvg     : 2.10%\nunique_crashes : 0\nunique_hangs   : 8\nlast_path      : 1500100116\nlast_crash     : 0\nlast_hang      : 1500098782\nexec_timeout   : 20\nafl_banner     : fuzzer-master\nafl_version    : 1.85b\ncommand_line   : /home/skaramcheti/.virtualenvs/afl/bin/afl-unix/afl-fuzz -i /dev/shm/work/Checkmate/input -o /dev/shm/work/Checkmate/sync -m 4G -Q -M fuzzer-master -x /dev/shm/work/Checkmate/Checkmate.dict -- data/linux/processed-challenges/Checkmate/bin/Checkmate\n'
p167
I9
tp168
a(I10080
S'start_time     : 1500090207\nlast_update    : 1500100246\nfuzzer_pid     : 22880\ncycles_done    : 0\nexecs_done     : 4492132\nexecs_per_sec  : 451.97\npaths_total    : 464\npaths_favored  : 145\npaths_found    : 463\npaths_imported : 0\nmax_depth      : 5\ncur_path       : 249\npending_favs   : 91\npending_total  : 387\nvariable_paths : 0\nbitmap_cvg     : 2.10%\nunique_crashes : 0\nunique_hangs   : 8\nlast_path      : 1500100228\nlast_crash     : 0\nlast_hang      : 1500098782\nexec_timeout   : 20\nafl_banner     : fuzzer-master\nafl_version    : 1.85b\ncommand_line   : /home/skaramcheti/.virtualenvs/afl/bin/afl-unix/afl-fuzz -i /dev/shm/work/Checkmate/input -o /dev/shm/work/Checkmate/sync -m 4G -Q -M fuzzer-master -x /dev/shm/work/Checkmate/Checkmate.dict -- data/linux/processed-challenges/Checkmate/bin/Checkmate\n'
p169
I7
tp170
a(I10200
S'start_time     : 1500090207\nlast_update    : 1500100366\nfuzzer_pid     : 22880\ncycles_done    : 0\nexecs_done     : 4546208\nexecs_per_sec  : 445.17\npaths_total    : 468\npaths_favored  : 145\npaths_found    : 467\npaths_imported : 0\nmax_depth      : 5\ncur_path       : 249\npending_favs   : 91\npending_total  : 391\nvariable_paths : 0\nbitmap_cvg     : 2.10%\nunique_crashes : 0\nunique_hangs   : 8\nlast_path      : 1500100346\nlast_crash     : 0\nlast_hang      : 1500098782\nexec_timeout   : 20\nafl_banner     : fuzzer-master\nafl_version    : 1.85b\ncommand_line   : /home/skaramcheti/.virtualenvs/afl/bin/afl-unix/afl-fuzz -i /dev/shm/work/Checkmate/input -o /dev/shm/work/Checkmate/sync -m 4G -Q -M fuzzer-master -x /dev/shm/work/Checkmate/Checkmate.dict -- data/linux/processed-challenges/Checkmate/bin/Checkmate\n'
p171
I3
tp172
a(I10320
S'start_time     : 1500090207\nlast_update    : 1500100486\nfuzzer_pid     : 22880\ncycles_done    : 0\nexecs_done     : 4600749\nexecs_per_sec  : 439.67\npaths_total    : 472\npaths_favored  : 150\npaths_found    : 471\npaths_imported : 0\nmax_depth      : 5\ncur_path       : 253\npending_favs   : 93\npending_total  : 392\nvariable_paths : 0\nbitmap_cvg     : 2.11%\nunique_crashes : 0\nunique_hangs   : 8\nlast_path      : 1500100482\nlast_crash     : 0\nlast_hang      : 1500098782\nexec_timeout   : 20\nafl_banner     : fuzzer-master\nafl_version    : 1.85b\ncommand_line   : /home/skaramcheti/.virtualenvs/afl/bin/afl-unix/afl-fuzz -i /dev/shm/work/Checkmate/input -o /dev/shm/work/Checkmate/sync -m 4G -Q -M fuzzer-master -x /dev/shm/work/Checkmate/Checkmate.dict -- data/linux/processed-challenges/Checkmate/bin/Checkmate\n'
p173
I4
tp174
a(I10440
S'start_time     : 1500090207\nlast_update    : 1500100607\nfuzzer_pid     : 22880\ncycles_done    : 0\nexecs_done     : 4654459\nexecs_per_sec  : 444.55\npaths_total    : 475\npaths_favored  : 150\npaths_found    : 474\npaths_imported : 0\nmax_depth      : 5\ncur_path       : 253\npending_favs   : 93\npending_total  : 395\nvariable_paths : 0\nbitmap_cvg     : 2.12%\nunique_crashes : 0\nunique_hangs   : 9\nlast_path      : 1500100604\nlast_crash     : 0\nlast_hang      : 1500100560\nexec_timeout   : 20\nafl_banner     : fuzzer-master\nafl_version    : 1.85b\ncommand_line   : /home/skaramcheti/.virtualenvs/afl/bin/afl-unix/afl-fuzz -i /dev/shm/work/Checkmate/input -o /dev/shm/work/Checkmate/sync -m 4G -Q -M fuzzer-master -x /dev/shm/work/Checkmate/Checkmate.dict -- data/linux/processed-challenges/Checkmate/bin/Checkmate\n'
p175
I1
tp176
a(I10560
S'start_time     : 1500090207\nlast_update    : 1500100727\nfuzzer_pid     : 22880\ncycles_done    : 0\nexecs_done     : 4708669\nexecs_per_sec  : 456.21\npaths_total    : 480\npaths_favored  : 153\npaths_found    : 479\npaths_imported : 0\nmax_depth      : 5\ncur_path       : 254\npending_favs   : 96\npending_total  : 399\nvariable_paths : 0\nbitmap_cvg     : 2.12%\nunique_crashes : 0\nunique_hangs   : 9\nlast_path      : 1500100725\nlast_crash     : 0\nlast_hang      : 1500100560\nexec_timeout   : 20\nafl_banner     : fuzzer-master\nafl_version    : 1.85b\ncommand_line   : /home/skaramcheti/.virtualenvs/afl/bin/afl-unix/afl-fuzz -i /dev/shm/work/Checkmate/input -o /dev/shm/work/Checkmate/sync -m 4G -Q -M fuzzer-master -x /dev/shm/work/Checkmate/Checkmate.dict -- data/linux/processed-challenges/Checkmate/bin/Checkmate\n'
p177
I5
tp178
a(I10680
S'start_time     : 1500090207\nlast_update    : 1500100847\nfuzzer_pid     : 22880\ncycles_done    : 0\nexecs_done     : 4765236\nexecs_per_sec  : 458.46\npaths_total    : 482\npaths_favored  : 156\npaths_found    : 481\npaths_imported : 0\nmax_depth      : 5\ncur_path       : 258\npending_favs   : 97\npending_total  : 399\nvariable_paths : 0\nbitmap_cvg     : 2.12%\nunique_crashes : 0\nunique_hangs   : 10\nlast_path      : 1500100820\nlast_crash     : 0\nlast_hang      : 1500100808\nexec_timeout   : 20\nafl_banner     : fuzzer-master\nafl_version    : 1.85b\ncommand_line   : /home/skaramcheti/.virtualenvs/afl/bin/afl-unix/afl-fuzz -i /dev/shm/work/Checkmate/input -o /dev/shm/work/Checkmate/sync -m 4G -Q -M fuzzer-master -x /dev/shm/work/Checkmate/Checkmate.dict -- data/linux/processed-challenges/Checkmate/bin/Checkmate\n'
p179
I2
tp180
a.