(lp0
(I0
S'start_time     : 1500198420\nlast_update    : 1500198420\nfuzzer_pid     : 11861\ncycles_done    : 0\nexecs_done     : 10\nexecs_per_sec  : 175.44\npaths_total    : 1\npaths_favored  : 1\npaths_found    : 0\npaths_imported : 0\nmax_depth      : 1\ncur_path       : 0\npending_favs   : 1\npending_total  : 1\nvariable_paths : 0\nbitmap_cvg     : 0.31%\nunique_crashes : 0\nunique_hangs   : 0\nlast_path      : 0\nlast_crash     : 0\nlast_hang      : 0\nexec_timeout   : 20\nafl_banner     : fuzzer-master\nafl_version    : 1.85b\ncommand_line   : /home/skaramcheti/.virtualenvs/afl/bin/afl-unix/afl-fuzz -i /dev/shm/work/Lazybox/input -o /dev/shm/work/Lazybox/sync -m 4G -Q -M fuzzer-master -x /dev/shm/work/Lazybox/Lazybox.dict -- data/linux/processed-challenges/Lazybox/bin/Lazybox\n'
p1
I46
tp2
a(I120
S'start_time     : 1500198420\nlast_update    : 1500198540\nfuzzer_pid     : 11861\ncycles_done    : 0\nexecs_done     : 94354\nexecs_per_sec  : 801.03\npaths_total    : 108\npaths_favored  : 1\npaths_found    : 107\npaths_imported : 0\nmax_depth      : 2\ncur_path       : 0\npending_favs   : 1\npending_total  : 108\nvariable_paths : 0\nbitmap_cvg     : 0.97%\nunique_crashes : 0\nunique_hangs   : 0\nlast_path      : 1500198539\nlast_crash     : 0\nlast_hang      : 0\nexec_timeout   : 20\nafl_banner     : fuzzer-master\nafl_version    : 1.85b\ncommand_line   : /home/skaramcheti/.virtualenvs/afl/bin/afl-unix/afl-fuzz -i /dev/shm/work/Lazybox/input -o /dev/shm/work/Lazybox/sync -m 4G -Q -M fuzzer-master -x /dev/shm/work/Lazybox/Lazybox.dict -- data/linux/processed-challenges/Lazybox/bin/Lazybox\n'
p3
I62
tp4
a(I240
S'start_time     : 1500198420\nlast_update    : 1500198660\nfuzzer_pid     : 11861\ncycles_done    : 0\nexecs_done     : 188683\nexecs_per_sec  : 767.52\npaths_total    : 122\npaths_favored  : 37\npaths_found    : 121\npaths_imported : 0\nmax_depth      : 3\ncur_path       : 28\npending_favs   : 35\npending_total  : 118\nvariable_paths : 0\nbitmap_cvg     : 1.00%\nunique_crashes : 0\nunique_hangs   : 0\nlast_path      : 1500198657\nlast_crash     : 0\nlast_hang      : 0\nexec_timeout   : 20\nafl_banner     : fuzzer-master\nafl_version    : 1.85b\ncommand_line   : /home/skaramcheti/.virtualenvs/afl/bin/afl-unix/afl-fuzz -i /dev/shm/work/Lazybox/input -o /dev/shm/work/Lazybox/sync -m 4G -Q -M fuzzer-master -x /dev/shm/work/Lazybox/Lazybox.dict -- data/linux/processed-challenges/Lazybox/bin/Lazybox\n'
p5
I14
tp6
a(I360
S'start_time     : 1500198420\nlast_update    : 1500198780\nfuzzer_pid     : 11861\ncycles_done    : 0\nexecs_done     : 280483\nexecs_per_sec  : 767.27\npaths_total    : 129\npaths_favored  : 37\npaths_found    : 128\npaths_imported : 0\nmax_depth      : 3\ncur_path       : 46\npending_favs   : 31\npending_total  : 121\nvariable_paths : 0\nbitmap_cvg     : 1.00%\nunique_crashes : 0\nunique_hangs   : 0\nlast_path      : 1500198745\nlast_crash     : 0\nlast_hang      : 0\nexec_timeout   : 20\nafl_banner     : fuzzer-master\nafl_version    : 1.85b\ncommand_line   : /home/skaramcheti/.virtualenvs/afl/bin/afl-unix/afl-fuzz -i /dev/shm/work/Lazybox/input -o /dev/shm/work/Lazybox/sync -m 4G -Q -M fuzzer-master -x /dev/shm/work/Lazybox/Lazybox.dict -- data/linux/processed-challenges/Lazybox/bin/Lazybox\n'
p7
I7
tp8
a(I480
S'start_time     : 1500198420\nlast_update    : 1500198901\nfuzzer_pid     : 11861\ncycles_done    : 0\nexecs_done     : 373344\nexecs_per_sec  : 795.44\npaths_total    : 138\npaths_favored  : 40\npaths_found    : 137\npaths_imported : 0\nmax_depth      : 3\ncur_path       : 54\npending_favs   : 33\npending_total  : 129\nvariable_paths : 0\nbitmap_cvg     : 1.03%\nunique_crashes : 0\nunique_hangs   : 0\nlast_path      : 1500198897\nlast_crash     : 0\nlast_hang      : 0\nexec_timeout   : 20\nafl_banner     : fuzzer-master\nafl_version    : 1.85b\ncommand_line   : /home/skaramcheti/.virtualenvs/afl/bin/afl-unix/afl-fuzz -i /dev/shm/work/Lazybox/input -o /dev/shm/work/Lazybox/sync -m 4G -Q -M fuzzer-master -x /dev/shm/work/Lazybox/Lazybox.dict -- data/linux/processed-challenges/Lazybox/bin/Lazybox\n'
p9
I15
tp10
a(I600
S'start_time     : 1500198420\nlast_update    : 1500199021\nfuzzer_pid     : 11861\ncycles_done    : 0\nexecs_done     : 464137\nexecs_per_sec  : 763.69\npaths_total    : 182\npaths_favored  : 46\npaths_found    : 181\npaths_imported : 0\nmax_depth      : 3\ncur_path       : 61\npending_favs   : 38\npending_total  : 172\nvariable_paths : 0\nbitmap_cvg     : 1.57%\nunique_crashes : 0\nunique_hangs   : 0\nlast_path      : 1500199000\nlast_crash     : 0\nlast_hang      : 0\nexec_timeout   : 20\nafl_banner     : fuzzer-master\nafl_version    : 1.85b\ncommand_line   : /home/skaramcheti/.virtualenvs/afl/bin/afl-unix/afl-fuzz -i /dev/shm/work/Lazybox/input -o /dev/shm/work/Lazybox/sync -m 4G -Q -M fuzzer-master -x /dev/shm/work/Lazybox/Lazybox.dict -- data/linux/processed-challenges/Lazybox/bin/Lazybox\n'
p11
I38
tp12
a(I720
S'start_time     : 1500198420\nlast_update    : 1500199141\nfuzzer_pid     : 11861\ncycles_done    : 0\nexecs_done     : 553900\nexecs_per_sec  : 734.85\npaths_total    : 195\npaths_favored  : 69\npaths_found    : 194\npaths_imported : 0\nmax_depth      : 3\ncur_path       : 62\npending_favs   : 61\npending_total  : 184\nvariable_paths : 0\nbitmap_cvg     : 1.58%\nunique_crashes : 0\nunique_hangs   : 0\nlast_path      : 1500199141\nlast_crash     : 0\nlast_hang      : 0\nexec_timeout   : 20\nafl_banner     : fuzzer-master\nafl_version    : 1.85b\ncommand_line   : /home/skaramcheti/.virtualenvs/afl/bin/afl-unix/afl-fuzz -i /dev/shm/work/Lazybox/input -o /dev/shm/work/Lazybox/sync -m 4G -Q -M fuzzer-master -x /dev/shm/work/Lazybox/Lazybox.dict -- data/linux/processed-challenges/Lazybox/bin/Lazybox\n'
p13
I15
tp14
a(I840
S'start_time     : 1500198420\nlast_update    : 1500199261\nfuzzer_pid     : 11861\ncycles_done    : 0\nexecs_done     : 642536\nexecs_per_sec  : 735.31\npaths_total    : 226\npaths_favored  : 69\npaths_found    : 225\npaths_imported : 0\nmax_depth      : 3\ncur_path       : 62\npending_favs   : 61\npending_total  : 215\nvariable_paths : 0\nbitmap_cvg     : 1.63%\nunique_crashes : 0\nunique_hangs   : 0\nlast_path      : 1500199248\nlast_crash     : 0\nlast_hang      : 0\nexec_timeout   : 20\nafl_banner     : fuzzer-master\nafl_version    : 1.85b\ncommand_line   : /home/skaramcheti/.virtualenvs/afl/bin/afl-unix/afl-fuzz -i /dev/shm/work/Lazybox/input -o /dev/shm/work/Lazybox/sync -m 4G -Q -M fuzzer-master -x /dev/shm/work/Lazybox/Lazybox.dict -- data/linux/processed-challenges/Lazybox/bin/Lazybox\n'
p15
I30
tp16
a(I960
S'start_time     : 1500198420\nlast_update    : 1500199381\nfuzzer_pid     : 11861\ncycles_done    : 0\nexecs_done     : 731665\nexecs_per_sec  : 743.17\npaths_total    : 237\npaths_favored  : 73\npaths_found    : 236\npaths_imported : 0\nmax_depth      : 3\ncur_path       : 76\npending_favs   : 62\npending_total  : 222\nvariable_paths : 0\nbitmap_cvg     : 1.70%\nunique_crashes : 0\nunique_hangs   : 0\nlast_path      : 1500199378\nlast_crash     : 0\nlast_hang      : 0\nexec_timeout   : 20\nafl_banner     : fuzzer-master\nafl_version    : 1.85b\ncommand_line   : /home/skaramcheti/.virtualenvs/afl/bin/afl-unix/afl-fuzz -i /dev/shm/work/Lazybox/input -o /dev/shm/work/Lazybox/sync -m 4G -Q -M fuzzer-master -x /dev/shm/work/Lazybox/Lazybox.dict -- data/linux/processed-challenges/Lazybox/bin/Lazybox\n'
p17
I10
tp18
a(I1080
S'start_time     : 1500198420\nlast_update    : 1500199502\nfuzzer_pid     : 11861\ncycles_done    : 0\nexecs_done     : 822654\nexecs_per_sec  : 740.66\npaths_total    : 247\npaths_favored  : 73\npaths_found    : 246\npaths_imported : 0\nmax_depth      : 3\ncur_path       : 92\npending_favs   : 59\npending_total  : 228\nvariable_paths : 0\nbitmap_cvg     : 1.71%\nunique_crashes : 0\nunique_hangs   : 0\nlast_path      : 1500199483\nlast_crash     : 0\nlast_hang      : 0\nexec_timeout   : 20\nafl_banner     : fuzzer-master\nafl_version    : 1.85b\ncommand_line   : /home/skaramcheti/.virtualenvs/afl/bin/afl-unix/afl-fuzz -i /dev/shm/work/Lazybox/input -o /dev/shm/work/Lazybox/sync -m 4G -Q -M fuzzer-master -x /dev/shm/work/Lazybox/Lazybox.dict -- data/linux/processed-challenges/Lazybox/bin/Lazybox\n'
p19
I11
tp20
a(I1200
S'start_time     : 1500198420\nlast_update    : 1500199622\nfuzzer_pid     : 11861\ncycles_done    : 0\nexecs_done     : 913708\nexecs_per_sec  : 747.59\npaths_total    : 251\npaths_favored  : 73\npaths_found    : 250\npaths_imported : 0\nmax_depth      : 3\ncur_path       : 92\npending_favs   : 59\npending_total  : 232\nvariable_paths : 0\nbitmap_cvg     : 1.72%\nunique_crashes : 0\nunique_hangs   : 0\nlast_path      : 1500199567\nlast_crash     : 0\nlast_hang      : 0\nexec_timeout   : 20\nafl_banner     : fuzzer-master\nafl_version    : 1.85b\ncommand_line   : /home/skaramcheti/.virtualenvs/afl/bin/afl-unix/afl-fuzz -i /dev/shm/work/Lazybox/input -o /dev/shm/work/Lazybox/sync -m 4G -Q -M fuzzer-master -x /dev/shm/work/Lazybox/Lazybox.dict -- data/linux/processed-challenges/Lazybox/bin/Lazybox\n'
p21
I3
tp22
a(I1320
S'start_time     : 1500198420\nlast_update    : 1500199742\nfuzzer_pid     : 11861\ncycles_done    : 0\nexecs_done     : 1003364\nexecs_per_sec  : 736.06\npaths_total    : 277\npaths_favored  : 87\npaths_found    : 276\npaths_imported : 0\nmax_depth      : 3\ncur_path       : 115\npending_favs   : 69\npending_total  : 253\nvariable_paths : 0\nbitmap_cvg     : 1.89%\nunique_crashes : 0\nunique_hangs   : 0\nlast_path      : 1500199735\nlast_crash     : 0\nlast_hang      : 0\nexec_timeout   : 20\nafl_banner     : fuzzer-master\nafl_version    : 1.85b\ncommand_line   : /home/skaramcheti/.virtualenvs/afl/bin/afl-unix/afl-fuzz -i /dev/shm/work/Lazybox/input -o /dev/shm/work/Lazybox/sync -m 4G -Q -M fuzzer-master -x /dev/shm/work/Lazybox/Lazybox.dict -- data/linux/processed-challenges/Lazybox/bin/Lazybox\n'
p23
I26
tp24
a(I1440
S'start_time     : 1500198420\nlast_update    : 1500199862\nfuzzer_pid     : 11861\ncycles_done    : 0\nexecs_done     : 1094405\nexecs_per_sec  : 775.79\npaths_total    : 279\npaths_favored  : 87\npaths_found    : 278\npaths_imported : 0\nmax_depth      : 3\ncur_path       : 115\npending_favs   : 69\npending_total  : 255\nvariable_paths : 0\nbitmap_cvg     : 1.89%\nunique_crashes : 0\nunique_hangs   : 0\nlast_path      : 1500199798\nlast_crash     : 0\nlast_hang      : 0\nexec_timeout   : 20\nafl_banner     : fuzzer-master\nafl_version    : 1.85b\ncommand_line   : /home/skaramcheti/.virtualenvs/afl/bin/afl-unix/afl-fuzz -i /dev/shm/work/Lazybox/input -o /dev/shm/work/Lazybox/sync -m 4G -Q -M fuzzer-master -x /dev/shm/work/Lazybox/Lazybox.dict -- data/linux/processed-challenges/Lazybox/bin/Lazybox\n'
p25
I2
tp26
a(I1560
S'start_time     : 1500198420\nlast_update    : 1500199982\nfuzzer_pid     : 11861\ncycles_done    : 0\nexecs_done     : 1184269\nexecs_per_sec  : 730.13\npaths_total    : 290\npaths_favored  : 92\npaths_found    : 289\npaths_imported : 0\nmax_depth      : 4\ncur_path       : 120\npending_favs   : 72\npending_total  : 264\nvariable_paths : 0\nbitmap_cvg     : 1.91%\nunique_crashes : 0\nunique_hangs   : 0\nlast_path      : 1500199978\nlast_crash     : 0\nlast_hang      : 0\nexec_timeout   : 20\nafl_banner     : fuzzer-master\nafl_version    : 1.85b\ncommand_line   : /home/skaramcheti/.virtualenvs/afl/bin/afl-unix/afl-fuzz -i /dev/shm/work/Lazybox/input -o /dev/shm/work/Lazybox/sync -m 4G -Q -M fuzzer-master -x /dev/shm/work/Lazybox/Lazybox.dict -- data/linux/processed-challenges/Lazybox/bin/Lazybox\n'
p27
I11
tp28
a(I1680
S'start_time     : 1500198420\nlast_update    : 1500200103\nfuzzer_pid     : 11861\ncycles_done    : 0\nexecs_done     : 1274529\nexecs_per_sec  : 740.98\npaths_total    : 293\npaths_favored  : 92\npaths_found    : 292\npaths_imported : 0\nmax_depth      : 4\ncur_path       : 120\npending_favs   : 72\npending_total  : 267\nvariable_paths : 0\nbitmap_cvg     : 1.91%\nunique_crashes : 0\nunique_hangs   : 0\nlast_path      : 1500200088\nlast_crash     : 0\nlast_hang      : 0\nexec_timeout   : 20\nafl_banner     : fuzzer-master\nafl_version    : 1.85b\ncommand_line   : /home/skaramcheti/.virtualenvs/afl/bin/afl-unix/afl-fuzz -i /dev/shm/work/Lazybox/input -o /dev/shm/work/Lazybox/sync -m 4G -Q -M fuzzer-master -x /dev/shm/work/Lazybox/Lazybox.dict -- data/linux/processed-challenges/Lazybox/bin/Lazybox\n'
p29
I3
tp30
a(I1800
S'start_time     : 1500198420\nlast_update    : 1500200223\nfuzzer_pid     : 11861\ncycles_done    : 0\nexecs_done     : 1366627\nexecs_per_sec  : 763.42\npaths_total    : 302\npaths_favored  : 96\npaths_found    : 301\npaths_imported : 0\nmax_depth      : 4\ncur_path       : 131\npending_favs   : 73\npending_total  : 273\nvariable_paths : 0\nbitmap_cvg     : 1.95%\nunique_crashes : 0\nunique_hangs   : 0\nlast_path      : 1500200220\nlast_crash     : 0\nlast_hang      : 0\nexec_timeout   : 20\nafl_banner     : fuzzer-master\nafl_version    : 1.85b\ncommand_line   : /home/skaramcheti/.virtualenvs/afl/bin/afl-unix/afl-fuzz -i /dev/shm/work/Lazybox/input -o /dev/shm/work/Lazybox/sync -m 4G -Q -M fuzzer-master -x /dev/shm/work/Lazybox/Lazybox.dict -- data/linux/processed-challenges/Lazybox/bin/Lazybox\n'
p31
I9
tp32
a(I1920
S'start_time     : 1500198420\nlast_update    : 1500200343\nfuzzer_pid     : 11861\ncycles_done    : 0\nexecs_done     : 1458765\nexecs_per_sec  : 755.60\npaths_total    : 307\npaths_favored  : 104\npaths_found    : 306\npaths_imported : 0\nmax_depth      : 4\ncur_path       : 135\npending_favs   : 79\npending_total  : 275\nvariable_paths : 0\nbitmap_cvg     : 1.97%\nunique_crashes : 0\nunique_hangs   : 0\nlast_path      : 1500200326\nlast_crash     : 0\nlast_hang      : 0\nexec_timeout   : 20\nafl_banner     : fuzzer-master\nafl_version    : 1.85b\ncommand_line   : /home/skaramcheti/.virtualenvs/afl/bin/afl-unix/afl-fuzz -i /dev/shm/work/Lazybox/input -o /dev/shm/work/Lazybox/sync -m 4G -Q -M fuzzer-master -x /dev/shm/work/Lazybox/Lazybox.dict -- data/linux/processed-challenges/Lazybox/bin/Lazybox\n'
p33
I5
tp34
a(I2040
S'start_time     : 1500198420\nlast_update    : 1500200464\nfuzzer_pid     : 11861\ncycles_done    : 0\nexecs_done     : 1548960\nexecs_per_sec  : 735.81\npaths_total    : 317\npaths_favored  : 105\npaths_found    : 316\npaths_imported : 0\nmax_depth      : 4\ncur_path       : 141\npending_favs   : 75\npending_total  : 280\nvariable_paths : 0\nbitmap_cvg     : 1.97%\nunique_crashes : 0\nunique_hangs   : 0\nlast_path      : 1500200426\nlast_crash     : 0\nlast_hang      : 0\nexec_timeout   : 20\nafl_banner     : fuzzer-master\nafl_version    : 1.85b\ncommand_line   : /home/skaramcheti/.virtualenvs/afl/bin/afl-unix/afl-fuzz -i /dev/shm/work/Lazybox/input -o /dev/shm/work/Lazybox/sync -m 4G -Q -M fuzzer-master -x /dev/shm/work/Lazybox/Lazybox.dict -- data/linux/processed-challenges/Lazybox/bin/Lazybox\n'
p35
I11
tp36
a(I2160
S'start_time     : 1500198420\nlast_update    : 1500200584\nfuzzer_pid     : 11861\ncycles_done    : 0\nexecs_done     : 1638920\nexecs_per_sec  : 762.35\npaths_total    : 320\npaths_favored  : 105\npaths_found    : 319\npaths_imported : 0\nmax_depth      : 4\ncur_path       : 141\npending_favs   : 75\npending_total  : 283\nvariable_paths : 0\nbitmap_cvg     : 1.98%\nunique_crashes : 0\nunique_hangs   : 0\nlast_path      : 1500200555\nlast_crash     : 0\nlast_hang      : 0\nexec_timeout   : 20\nafl_banner     : fuzzer-master\nafl_version    : 1.85b\ncommand_line   : /home/skaramcheti/.virtualenvs/afl/bin/afl-unix/afl-fuzz -i /dev/shm/work/Lazybox/input -o /dev/shm/work/Lazybox/sync -m 4G -Q -M fuzzer-master -x /dev/shm/work/Lazybox/Lazybox.dict -- data/linux/processed-challenges/Lazybox/bin/Lazybox\n'
p37
I2
tp38
a(I2280
S'start_time     : 1500198420\nlast_update    : 1500200704\nfuzzer_pid     : 11861\ncycles_done    : 0\nexecs_done     : 1727638\nexecs_per_sec  : 724.22\npaths_total    : 331\npaths_favored  : 109\npaths_found    : 330\npaths_imported : 0\nmax_depth      : 4\ncur_path       : 157\npending_favs   : 74\npending_total  : 287\nvariable_paths : 0\nbitmap_cvg     : 2.02%\nunique_crashes : 0\nunique_hangs   : 0\nlast_path      : 1500200691\nlast_crash     : 0\nlast_hang      : 0\nexec_timeout   : 20\nafl_banner     : fuzzer-master\nafl_version    : 1.85b\ncommand_line   : /home/skaramcheti/.virtualenvs/afl/bin/afl-unix/afl-fuzz -i /dev/shm/work/Lazybox/input -o /dev/shm/work/Lazybox/sync -m 4G -Q -M fuzzer-master -x /dev/shm/work/Lazybox/Lazybox.dict -- data/linux/processed-challenges/Lazybox/bin/Lazybox\n'
p39
I11
tp40
a(I2400
S'start_time     : 1500198420\nlast_update    : 1500200824\nfuzzer_pid     : 11861\ncycles_done    : 0\nexecs_done     : 1816345\nexecs_per_sec  : 751.33\npaths_total    : 340\npaths_favored  : 110\npaths_found    : 339\npaths_imported : 0\nmax_depth      : 4\ncur_path       : 170\npending_favs   : 71\npending_total  : 290\nvariable_paths : 0\nbitmap_cvg     : 2.03%\nunique_crashes : 0\nunique_hangs   : 0\nlast_path      : 1500200815\nlast_crash     : 0\nlast_hang      : 0\nexec_timeout   : 20\nafl_banner     : fuzzer-master\nafl_version    : 1.85b\ncommand_line   : /home/skaramcheti/.virtualenvs/afl/bin/afl-unix/afl-fuzz -i /dev/shm/work/Lazybox/input -o /dev/shm/work/Lazybox/sync -m 4G -Q -M fuzzer-master -x /dev/shm/work/Lazybox/Lazybox.dict -- data/linux/processed-challenges/Lazybox/bin/Lazybox\n'
p41
I9
tp42
a(I2520
S'start_time     : 1500198420\nlast_update    : 1500200945\nfuzzer_pid     : 11861\ncycles_done    : 0\nexecs_done     : 1907081\nexecs_per_sec  : 750.00\npaths_total    : 346\npaths_favored  : 110\npaths_found    : 345\npaths_imported : 0\nmax_depth      : 4\ncur_path       : 170\npending_favs   : 71\npending_total  : 296\nvariable_paths : 0\nbitmap_cvg     : 2.04%\nunique_crashes : 0\nunique_hangs   : 0\nlast_path      : 1500200897\nlast_crash     : 0\nlast_hang      : 0\nexec_timeout   : 20\nafl_banner     : fuzzer-master\nafl_version    : 1.85b\ncommand_line   : /home/skaramcheti/.virtualenvs/afl/bin/afl-unix/afl-fuzz -i /dev/shm/work/Lazybox/input -o /dev/shm/work/Lazybox/sync -m 4G -Q -M fuzzer-master -x /dev/shm/work/Lazybox/Lazybox.dict -- data/linux/processed-challenges/Lazybox/bin/Lazybox\n'
p43
I6
tp44
a(I2640
S'start_time     : 1500198420\nlast_update    : 1500201065\nfuzzer_pid     : 11861\ncycles_done    : 0\nexecs_done     : 1996639\nexecs_per_sec  : 723.16\npaths_total    : 359\npaths_favored  : 111\npaths_found    : 358\npaths_imported : 0\nmax_depth      : 4\ncur_path       : 185\npending_favs   : 69\npending_total  : 306\nvariable_paths : 0\nbitmap_cvg     : 2.09%\nunique_crashes : 0\nunique_hangs   : 0\nlast_path      : 1500201064\nlast_crash     : 0\nlast_hang      : 0\nexec_timeout   : 20\nafl_banner     : fuzzer-master\nafl_version    : 1.85b\ncommand_line   : /home/skaramcheti/.virtualenvs/afl/bin/afl-unix/afl-fuzz -i /dev/shm/work/Lazybox/input -o /dev/shm/work/Lazybox/sync -m 4G -Q -M fuzzer-master -x /dev/shm/work/Lazybox/Lazybox.dict -- data/linux/processed-challenges/Lazybox/bin/Lazybox\n'
p45
I13
tp46
a(I2760
S'start_time     : 1500198420\nlast_update    : 1500201185\nfuzzer_pid     : 11861\ncycles_done    : 0\nexecs_done     : 2086949\nexecs_per_sec  : 752.26\npaths_total    : 368\npaths_favored  : 111\npaths_found    : 367\npaths_imported : 0\nmax_depth      : 4\ncur_path       : 185\npending_favs   : 69\npending_total  : 315\nvariable_paths : 0\nbitmap_cvg     : 2.10%\nunique_crashes : 0\nunique_hangs   : 0\nlast_path      : 1500201181\nlast_crash     : 0\nlast_hang      : 0\nexec_timeout   : 20\nafl_banner     : fuzzer-master\nafl_version    : 1.85b\ncommand_line   : /home/skaramcheti/.virtualenvs/afl/bin/afl-unix/afl-fuzz -i /dev/shm/work/Lazybox/input -o /dev/shm/work/Lazybox/sync -m 4G -Q -M fuzzer-master -x /dev/shm/work/Lazybox/Lazybox.dict -- data/linux/processed-challenges/Lazybox/bin/Lazybox\n'
p47
I9
tp48
a(I2880
S'start_time     : 1500198420\nlast_update    : 1500201305\nfuzzer_pid     : 11861\ncycles_done    : 0\nexecs_done     : 2171744\nexecs_per_sec  : 647.38\npaths_total    : 374\npaths_favored  : 120\npaths_found    : 373\npaths_imported : 0\nmax_depth      : 4\ncur_path       : 201\npending_favs   : 77\npending_total  : 318\nvariable_paths : 0\nbitmap_cvg     : 2.11%\nunique_crashes : 0\nunique_hangs   : 0\nlast_path      : 1500201295\nlast_crash     : 0\nlast_hang      : 0\nexec_timeout   : 20\nafl_banner     : fuzzer-master\nafl_version    : 1.85b\ncommand_line   : /home/skaramcheti/.virtualenvs/afl/bin/afl-unix/afl-fuzz -i /dev/shm/work/Lazybox/input -o /dev/shm/work/Lazybox/sync -m 4G -Q -M fuzzer-master -x /dev/shm/work/Lazybox/Lazybox.dict -- data/linux/processed-challenges/Lazybox/bin/Lazybox\n'
p49
I6
tp50
a(I3000
S'start_time     : 1500198420\nlast_update    : 1500201426\nfuzzer_pid     : 11861\ncycles_done    : 0\nexecs_done     : 2250598\nexecs_per_sec  : 678.30\npaths_total    : 390\npaths_favored  : 120\npaths_found    : 389\npaths_imported : 0\nmax_depth      : 4\ncur_path       : 215\npending_favs   : 76\npending_total  : 333\nvariable_paths : 0\nbitmap_cvg     : 2.15%\nunique_crashes : 0\nunique_hangs   : 0\nlast_path      : 1500201406\nlast_crash     : 0\nlast_hang      : 0\nexec_timeout   : 20\nafl_banner     : fuzzer-master\nafl_version    : 1.85b\ncommand_line   : /home/skaramcheti/.virtualenvs/afl/bin/afl-unix/afl-fuzz -i /dev/shm/work/Lazybox/input -o /dev/shm/work/Lazybox/sync -m 4G -Q -M fuzzer-master -x /dev/shm/work/Lazybox/Lazybox.dict -- data/linux/processed-challenges/Lazybox/bin/Lazybox\n'
p51
I16
tp52
a(I3120
S'start_time     : 1500198420\nlast_update    : 1500201546\nfuzzer_pid     : 11861\ncycles_done    : 0\nexecs_done     : 2334639\nexecs_per_sec  : 683.29\npaths_total    : 394\npaths_favored  : 119\npaths_found    : 393\npaths_imported : 0\nmax_depth      : 4\ncur_path       : 216\npending_favs   : 76\npending_total  : 336\nvariable_paths : 0\nbitmap_cvg     : 2.15%\nunique_crashes : 0\nunique_hangs   : 0\nlast_path      : 1500201521\nlast_crash     : 0\nlast_hang      : 0\nexec_timeout   : 20\nafl_banner     : fuzzer-master\nafl_version    : 1.85b\ncommand_line   : /home/skaramcheti/.virtualenvs/afl/bin/afl-unix/afl-fuzz -i /dev/shm/work/Lazybox/input -o /dev/shm/work/Lazybox/sync -m 4G -Q -M fuzzer-master -x /dev/shm/work/Lazybox/Lazybox.dict -- data/linux/processed-challenges/Lazybox/bin/Lazybox\n'
p53
I4
tp54
a(I3240
S'start_time     : 1500198420\nlast_update    : 1500201666\nfuzzer_pid     : 11861\ncycles_done    : 0\nexecs_done     : 2416511\nexecs_per_sec  : 693.16\npaths_total    : 422\npaths_favored  : 120\npaths_found    : 421\npaths_imported : 0\nmax_depth      : 4\ncur_path       : 218\npending_favs   : 76\npending_total  : 363\nvariable_paths : 0\nbitmap_cvg     : 2.16%\nunique_crashes : 0\nunique_hangs   : 0\nlast_path      : 1500201648\nlast_crash     : 0\nlast_hang      : 0\nexec_timeout   : 20\nafl_banner     : fuzzer-master\nafl_version    : 1.85b\ncommand_line   : /home/skaramcheti/.virtualenvs/afl/bin/afl-unix/afl-fuzz -i /dev/shm/work/Lazybox/input -o /dev/shm/work/Lazybox/sync -m 4G -Q -M fuzzer-master -x /dev/shm/work/Lazybox/Lazybox.dict -- data/linux/processed-challenges/Lazybox/bin/Lazybox\n'
p55
I28
tp56
a(I3360
S'start_time     : 1500198420\nlast_update    : 1500201787\nfuzzer_pid     : 11861\ncycles_done    : 0\nexecs_done     : 2501080\nexecs_per_sec  : 696.63\npaths_total    : 425\npaths_favored  : 120\npaths_found    : 424\npaths_imported : 0\nmax_depth      : 4\ncur_path       : 218\npending_favs   : 76\npending_total  : 366\nvariable_paths : 0\nbitmap_cvg     : 2.16%\nunique_crashes : 0\nunique_hangs   : 0\nlast_path      : 1500201711\nlast_crash     : 0\nlast_hang      : 0\nexec_timeout   : 20\nafl_banner     : fuzzer-master\nafl_version    : 1.85b\ncommand_line   : /home/skaramcheti/.virtualenvs/afl/bin/afl-unix/afl-fuzz -i /dev/shm/work/Lazybox/input -o /dev/shm/work/Lazybox/sync -m 4G -Q -M fuzzer-master -x /dev/shm/work/Lazybox/Lazybox.dict -- data/linux/processed-challenges/Lazybox/bin/Lazybox\n'
p57
I3
tp58
a(I3480
S'start_time     : 1500198420\nlast_update    : 1500201907\nfuzzer_pid     : 11861\ncycles_done    : 0\nexecs_done     : 2585749\nexecs_per_sec  : 726.57\npaths_total    : 425\npaths_favored  : 120\npaths_found    : 424\npaths_imported : 0\nmax_depth      : 4\ncur_path       : 238\npending_favs   : 73\npending_total  : 362\nvariable_paths : 0\nbitmap_cvg     : 2.16%\nunique_crashes : 0\nunique_hangs   : 0\nlast_path      : 1500201711\nlast_crash     : 0\nlast_hang      : 0\nexec_timeout   : 20\nafl_banner     : fuzzer-master\nafl_version    : 1.85b\ncommand_line   : /home/skaramcheti/.virtualenvs/afl/bin/afl-unix/afl-fuzz -i /dev/shm/work/Lazybox/input -o /dev/shm/work/Lazybox/sync -m 4G -Q -M fuzzer-master -x /dev/shm/work/Lazybox/Lazybox.dict -- data/linux/processed-challenges/Lazybox/bin/Lazybox\n'
p59
I0
tp60
a(I3600
S'start_time     : 1500198420\nlast_update    : 1500202027\nfuzzer_pid     : 11861\ncycles_done    : 0\nexecs_done     : 2674900\nexecs_per_sec  : 766.47\npaths_total    : 443\npaths_favored  : 130\npaths_found    : 442\npaths_imported : 0\nmax_depth      : 4\ncur_path       : 251\npending_favs   : 77\npending_total  : 373\nvariable_paths : 0\nbitmap_cvg     : 2.23%\nunique_crashes : 0\nunique_hangs   : 0\nlast_path      : 1500202013\nlast_crash     : 0\nlast_hang      : 0\nexec_timeout   : 20\nafl_banner     : fuzzer-master\nafl_version    : 1.85b\ncommand_line   : /home/skaramcheti/.virtualenvs/afl/bin/afl-unix/afl-fuzz -i /dev/shm/work/Lazybox/input -o /dev/shm/work/Lazybox/sync -m 4G -Q -M fuzzer-master -x /dev/shm/work/Lazybox/Lazybox.dict -- data/linux/processed-challenges/Lazybox/bin/Lazybox\n'
p61
I18
tp62
a(I3720
S'start_time     : 1500198420\nlast_update    : 1500202147\nfuzzer_pid     : 11861\ncycles_done    : 0\nexecs_done     : 2761903\nexecs_per_sec  : 694.78\npaths_total    : 448\npaths_favored  : 136\npaths_found    : 447\npaths_imported : 0\nmax_depth      : 4\ncur_path       : 266\npending_favs   : 77\npending_total  : 369\nvariable_paths : 0\nbitmap_cvg     : 2.24%\nunique_crashes : 0\nunique_hangs   : 0\nlast_path      : 1500202083\nlast_crash     : 0\nlast_hang      : 0\nexec_timeout   : 20\nafl_banner     : fuzzer-master\nafl_version    : 1.85b\ncommand_line   : /home/skaramcheti/.virtualenvs/afl/bin/afl-unix/afl-fuzz -i /dev/shm/work/Lazybox/input -o /dev/shm/work/Lazybox/sync -m 4G -Q -M fuzzer-master -x /dev/shm/work/Lazybox/Lazybox.dict -- data/linux/processed-challenges/Lazybox/bin/Lazybox\n'
p63
I5
tp64
a(I3840
S'start_time     : 1500198420\nlast_update    : 1500202267\nfuzzer_pid     : 11861\ncycles_done    : 0\nexecs_done     : 2848336\nexecs_per_sec  : 731.95\npaths_total    : 461\npaths_favored  : 138\npaths_found    : 460\npaths_imported : 0\nmax_depth      : 4\ncur_path       : 269\npending_favs   : 79\npending_total  : 381\nvariable_paths : 0\nbitmap_cvg     : 2.26%\nunique_crashes : 0\nunique_hangs   : 0\nlast_path      : 1500202247\nlast_crash     : 0\nlast_hang      : 0\nexec_timeout   : 20\nafl_banner     : fuzzer-master\nafl_version    : 1.85b\ncommand_line   : /home/skaramcheti/.virtualenvs/afl/bin/afl-unix/afl-fuzz -i /dev/shm/work/Lazybox/input -o /dev/shm/work/Lazybox/sync -m 4G -Q -M fuzzer-master -x /dev/shm/work/Lazybox/Lazybox.dict -- data/linux/processed-challenges/Lazybox/bin/Lazybox\n'
p65
I13
tp66
a(I3960
S'start_time     : 1500198420\nlast_update    : 1500202387\nfuzzer_pid     : 11861\ncycles_done    : 0\nexecs_done     : 2936278\nexecs_per_sec  : 733.06\npaths_total    : 466\npaths_favored  : 138\npaths_found    : 465\npaths_imported : 0\nmax_depth      : 4\ncur_path       : 269\npending_favs   : 79\npending_total  : 386\nvariable_paths : 0\nbitmap_cvg     : 2.27%\nunique_crashes : 0\nunique_hangs   : 0\nlast_path      : 1500202384\nlast_crash     : 0\nlast_hang      : 0\nexec_timeout   : 20\nafl_banner     : fuzzer-master\nafl_version    : 1.85b\ncommand_line   : /home/skaramcheti/.virtualenvs/afl/bin/afl-unix/afl-fuzz -i /dev/shm/work/Lazybox/input -o /dev/shm/work/Lazybox/sync -m 4G -Q -M fuzzer-master -x /dev/shm/work/Lazybox/Lazybox.dict -- data/linux/processed-challenges/Lazybox/bin/Lazybox\n'
p67
I5
tp68
a(I4080
S'start_time     : 1500198420\nlast_update    : 1500202447\nfuzzer_pid     : 11861\ncycles_done    : 0\nexecs_done     : 2979981\nexecs_per_sec  : 702.95\npaths_total    : 467\npaths_favored  : 142\npaths_found    : 466\npaths_imported : 0\nmax_depth      : 4\ncur_path       : 280\npending_favs   : 82\npending_total  : 384\nvariable_paths : 0\nbitmap_cvg     : 2.27%\nunique_crashes : 0\nunique_hangs   : 0\nlast_path      : 1500202418\nlast_crash     : 0\nlast_hang      : 0\nexec_timeout   : 20\nafl_banner     : fuzzer-master\nafl_version    : 1.85b\ncommand_line   : /home/skaramcheti/.virtualenvs/afl/bin/afl-unix/afl-fuzz -i /dev/shm/work/Lazybox/input -o /dev/shm/work/Lazybox/sync -m 4G -Q -M fuzzer-master -x /dev/shm/work/Lazybox/Lazybox.dict -- data/linux/processed-challenges/Lazybox/bin/Lazybox\n'
p69
I4
tp70
a(I4200
S'start_time     : 1500198420\nlast_update    : 1500202568\nfuzzer_pid     : 11861\ncycles_done    : 0\nexecs_done     : 3065746\nexecs_per_sec  : 653.50\npaths_total    : 470\npaths_favored  : 141\npaths_found    : 469\npaths_imported : 0\nmax_depth      : 5\ncur_path       : 286\npending_favs   : 80\npending_total  : 385\nvariable_paths : 0\nbitmap_cvg     : 2.27%\nunique_crashes : 0\nunique_hangs   : 0\nlast_path      : 1500202503\nlast_crash     : 0\nlast_hang      : 0\nexec_timeout   : 20\nafl_banner     : fuzzer-master\nafl_version    : 1.85b\ncommand_line   : /home/skaramcheti/.virtualenvs/afl/bin/afl-unix/afl-fuzz -i /dev/shm/work/Lazybox/input -o /dev/shm/work/Lazybox/sync -m 4G -Q -M fuzzer-master -x /dev/shm/work/Lazybox/Lazybox.dict -- data/linux/processed-challenges/Lazybox/bin/Lazybox\n'
p71
I9
tp72
a(I4320
S'start_time     : 1500198420\nlast_update    : 1500202688\nfuzzer_pid     : 11861\ncycles_done    : 0\nexecs_done     : 3156433\nexecs_per_sec  : 770.16\npaths_total    : 484\npaths_favored  : 143\npaths_found    : 483\npaths_imported : 0\nmax_depth      : 5\ncur_path       : 295\npending_favs   : 80\npending_total  : 397\nvariable_paths : 0\nbitmap_cvg     : 2.33%\nunique_crashes : 0\nunique_hangs   : 0\nlast_path      : 1500202674\nlast_crash     : 0\nlast_hang      : 0\nexec_timeout   : 20\nafl_banner     : fuzzer-master\nafl_version    : 1.85b\ncommand_line   : /home/skaramcheti/.virtualenvs/afl/bin/afl-unix/afl-fuzz -i /dev/shm/work/Lazybox/input -o /dev/shm/work/Lazybox/sync -m 4G -Q -M fuzzer-master -x /dev/shm/work/Lazybox/Lazybox.dict -- data/linux/processed-challenges/Lazybox/bin/Lazybox\n'
p73
I5
tp74
a(I4440
S'start_time     : 1500198420\nlast_update    : 1500202808\nfuzzer_pid     : 11861\ncycles_done    : 0\nexecs_done     : 3248130\nexecs_per_sec  : 742.87\npaths_total    : 485\npaths_favored  : 143\npaths_found    : 484\npaths_imported : 0\nmax_depth      : 5\ncur_path       : 295\npending_favs   : 80\npending_total  : 398\nvariable_paths : 0\nbitmap_cvg     : 2.33%\nunique_crashes : 0\nunique_hangs   : 0\nlast_path      : 1500202755\nlast_crash     : 0\nlast_hang      : 0\nexec_timeout   : 20\nafl_banner     : fuzzer-master\nafl_version    : 1.85b\ncommand_line   : /home/skaramcheti/.virtualenvs/afl/bin/afl-unix/afl-fuzz -i /dev/shm/work/Lazybox/input -o /dev/shm/work/Lazybox/sync -m 4G -Q -M fuzzer-master -x /dev/shm/work/Lazybox/Lazybox.dict -- data/linux/processed-challenges/Lazybox/bin/Lazybox\n'
p75
I8
tp76
a(I4560
S'start_time     : 1500198420\nlast_update    : 1500202928\nfuzzer_pid     : 11861\ncycles_done    : 0\nexecs_done     : 3339803\nexecs_per_sec  : 787.07\npaths_total    : 495\npaths_favored  : 148\npaths_found    : 494\npaths_imported : 0\nmax_depth      : 5\ncur_path       : 296\npending_favs   : 87\npending_total  : 407\nvariable_paths : 0\nbitmap_cvg     : 2.35%\nunique_crashes : 0\nunique_hangs   : 0\nlast_path      : 1500202907\nlast_crash     : 0\nlast_hang      : 0\nexec_timeout   : 20\nafl_banner     : fuzzer-master\nafl_version    : 1.85b\ncommand_line   : /home/skaramcheti/.virtualenvs/afl/bin/afl-unix/afl-fuzz -i /dev/shm/work/Lazybox/input -o /dev/shm/work/Lazybox/sync -m 4G -Q -M fuzzer-master -x /dev/shm/work/Lazybox/Lazybox.dict -- data/linux/processed-challenges/Lazybox/bin/Lazybox\n'
p77
I5
tp78
a(I4680
S'start_time     : 1500198420\nlast_update    : 1500203048\nfuzzer_pid     : 11861\ncycles_done    : 0\nexecs_done     : 3432802\nexecs_per_sec  : 783.07\npaths_total    : 502\npaths_favored  : 156\npaths_found    : 501\npaths_imported : 0\nmax_depth      : 5\ncur_path       : 297\npending_favs   : 94\npending_total  : 413\nvariable_paths : 0\nbitmap_cvg     : 2.37%\nunique_crashes : 0\nunique_hangs   : 0\nlast_path      : 1500203041\nlast_crash     : 0\nlast_hang      : 0\nexec_timeout   : 20\nafl_banner     : fuzzer-master\nafl_version    : 1.85b\ncommand_line   : /home/skaramcheti/.virtualenvs/afl/bin/afl-unix/afl-fuzz -i /dev/shm/work/Lazybox/input -o /dev/shm/work/Lazybox/sync -m 4G -Q -M fuzzer-master -x /dev/shm/work/Lazybox/Lazybox.dict -- data/linux/processed-challenges/Lazybox/bin/Lazybox\n'
p79
I8
tp80
a(I4800
S'start_time     : 1500198420\nlast_update    : 1500203169\nfuzzer_pid     : 11861\ncycles_done    : 0\nexecs_done     : 3523075\nexecs_per_sec  : 756.26\npaths_total    : 507\npaths_favored  : 158\npaths_found    : 506\npaths_imported : 0\nmax_depth      : 5\ncur_path       : 299\npending_favs   : 95\npending_total  : 417\nvariable_paths : 0\nbitmap_cvg     : 2.37%\nunique_crashes : 0\nunique_hangs   : 0\nlast_path      : 1500203149\nlast_crash     : 0\nlast_hang      : 0\nexec_timeout   : 20\nafl_banner     : fuzzer-master\nafl_version    : 1.85b\ncommand_line   : /home/skaramcheti/.virtualenvs/afl/bin/afl-unix/afl-fuzz -i /dev/shm/work/Lazybox/input -o /dev/shm/work/Lazybox/sync -m 4G -Q -M fuzzer-master -x /dev/shm/work/Lazybox/Lazybox.dict -- data/linux/processed-challenges/Lazybox/bin/Lazybox\n'
p81
I2
tp82
a(I4920
S'start_time     : 1500198420\nlast_update    : 1500203289\nfuzzer_pid     : 11861\ncycles_done    : 0\nexecs_done     : 3613176\nexecs_per_sec  : 787.14\npaths_total    : 508\npaths_favored  : 158\npaths_found    : 507\npaths_imported : 0\nmax_depth      : 5\ncur_path       : 300\npending_favs   : 96\npending_total  : 417\nvariable_paths : 0\nbitmap_cvg     : 2.37%\nunique_crashes : 0\nunique_hangs   : 0\nlast_path      : 1500203283\nlast_crash     : 0\nlast_hang      : 0\nexec_timeout   : 20\nafl_banner     : fuzzer-master\nafl_version    : 1.85b\ncommand_line   : /home/skaramcheti/.virtualenvs/afl/bin/afl-unix/afl-fuzz -i /dev/shm/work/Lazybox/input -o /dev/shm/work/Lazybox/sync -m 4G -Q -M fuzzer-master -x /dev/shm/work/Lazybox/Lazybox.dict -- data/linux/processed-challenges/Lazybox/bin/Lazybox\n'
p83
I1
tp84
a(I5040
S'start_time     : 1500198420\nlast_update    : 1500203409\nfuzzer_pid     : 11861\ncycles_done    : 0\nexecs_done     : 3703806\nexecs_per_sec  : 749.80\npaths_total    : 511\npaths_favored  : 158\npaths_found    : 510\npaths_imported : 0\nmax_depth      : 5\ncur_path       : 306\npending_favs   : 91\npending_total  : 415\nvariable_paths : 0\nbitmap_cvg     : 2.37%\nunique_crashes : 0\nunique_hangs   : 0\nlast_path      : 1500203400\nlast_crash     : 0\nlast_hang      : 0\nexec_timeout   : 20\nafl_banner     : fuzzer-master\nafl_version    : 1.85b\ncommand_line   : /home/skaramcheti/.virtualenvs/afl/bin/afl-unix/afl-fuzz -i /dev/shm/work/Lazybox/input -o /dev/shm/work/Lazybox/sync -m 4G -Q -M fuzzer-master -x /dev/shm/work/Lazybox/Lazybox.dict -- data/linux/processed-challenges/Lazybox/bin/Lazybox\n'
p85
I4
tp86
a(I5160
S'start_time     : 1500198420\nlast_update    : 1500203529\nfuzzer_pid     : 11861\ncycles_done    : 0\nexecs_done     : 3793454\nexecs_per_sec  : 710.89\npaths_total    : 515\npaths_favored  : 158\npaths_found    : 514\npaths_imported : 0\nmax_depth      : 5\ncur_path       : 311\npending_favs   : 89\npending_total  : 417\nvariable_paths : 0\nbitmap_cvg     : 2.37%\nunique_crashes : 0\nunique_hangs   : 0\nlast_path      : 1500203528\nlast_crash     : 0\nlast_hang      : 0\nexec_timeout   : 20\nafl_banner     : fuzzer-master\nafl_version    : 1.85b\ncommand_line   : /home/skaramcheti/.virtualenvs/afl/bin/afl-unix/afl-fuzz -i /dev/shm/work/Lazybox/input -o /dev/shm/work/Lazybox/sync -m 4G -Q -M fuzzer-master -x /dev/shm/work/Lazybox/Lazybox.dict -- data/linux/processed-challenges/Lazybox/bin/Lazybox\n'
p87
I8
tp88
a(I5280
S'start_time     : 1500198420\nlast_update    : 1500203649\nfuzzer_pid     : 11861\ncycles_done    : 0\nexecs_done     : 3880714\nexecs_per_sec  : 740.18\npaths_total    : 521\npaths_favored  : 158\npaths_found    : 520\npaths_imported : 0\nmax_depth      : 5\ncur_path       : 324\npending_favs   : 87\npending_total  : 419\nvariable_paths : 0\nbitmap_cvg     : 2.40%\nunique_crashes : 0\nunique_hangs   : 0\nlast_path      : 1500203615\nlast_crash     : 0\nlast_hang      : 0\nexec_timeout   : 20\nafl_banner     : fuzzer-master\nafl_version    : 1.85b\ncommand_line   : /home/skaramcheti/.virtualenvs/afl/bin/afl-unix/afl-fuzz -i /dev/shm/work/Lazybox/input -o /dev/shm/work/Lazybox/sync -m 4G -Q -M fuzzer-master -x /dev/shm/work/Lazybox/Lazybox.dict -- data/linux/processed-challenges/Lazybox/bin/Lazybox\n'
p89
I3
tp90
a(I5400
S'start_time     : 1500198420\nlast_update    : 1500203769\nfuzzer_pid     : 11861\ncycles_done    : 0\nexecs_done     : 3967465\nexecs_per_sec  : 722.58\npaths_total    : 523\npaths_favored  : 158\npaths_found    : 522\npaths_imported : 0\nmax_depth      : 5\ncur_path       : 333\npending_favs   : 82\npending_total  : 416\nvariable_paths : 0\nbitmap_cvg     : 2.40%\nunique_crashes : 0\nunique_hangs   : 0\nlast_path      : 1500203705\nlast_crash     : 0\nlast_hang      : 0\nexec_timeout   : 20\nafl_banner     : fuzzer-master\nafl_version    : 1.85b\ncommand_line   : /home/skaramcheti/.virtualenvs/afl/bin/afl-unix/afl-fuzz -i /dev/shm/work/Lazybox/input -o /dev/shm/work/Lazybox/sync -m 4G -Q -M fuzzer-master -x /dev/shm/work/Lazybox/Lazybox.dict -- data/linux/processed-challenges/Lazybox/bin/Lazybox\n'
p91
I7
tp92
a(I5520
S'start_time     : 1500198420\nlast_update    : 1500203890\nfuzzer_pid     : 11861\ncycles_done    : 0\nexecs_done     : 4055612\nexecs_per_sec  : 741.59\npaths_total    : 530\npaths_favored  : 158\npaths_found    : 529\npaths_imported : 0\nmax_depth      : 5\ncur_path       : 334\npending_favs   : 81\npending_total  : 422\nvariable_paths : 0\nbitmap_cvg     : 2.42%\nunique_crashes : 0\nunique_hangs   : 0\nlast_path      : 1500203802\nlast_crash     : 0\nlast_hang      : 0\nexec_timeout   : 20\nafl_banner     : fuzzer-master\nafl_version    : 1.85b\ncommand_line   : /home/skaramcheti/.virtualenvs/afl/bin/afl-unix/afl-fuzz -i /dev/shm/work/Lazybox/input -o /dev/shm/work/Lazybox/sync -m 4G -Q -M fuzzer-master -x /dev/shm/work/Lazybox/Lazybox.dict -- data/linux/processed-challenges/Lazybox/bin/Lazybox\n'
p93
I1
tp94
a(I5640
S'start_time     : 1500198420\nlast_update    : 1500204010\nfuzzer_pid     : 11861\ncycles_done    : 0\nexecs_done     : 4143861\nexecs_per_sec  : 702.66\npaths_total    : 534\npaths_favored  : 162\npaths_found    : 533\npaths_imported : 0\nmax_depth      : 5\ncur_path       : 343\npending_favs   : 81\npending_total  : 422\nvariable_paths : 0\nbitmap_cvg     : 2.43%\nunique_crashes : 0\nunique_hangs   : 0\nlast_path      : 1500203970\nlast_crash     : 0\nlast_hang      : 0\nexec_timeout   : 20\nafl_banner     : fuzzer-master\nafl_version    : 1.85b\ncommand_line   : /home/skaramcheti/.virtualenvs/afl/bin/afl-unix/afl-fuzz -i /dev/shm/work/Lazybox/input -o /dev/shm/work/Lazybox/sync -m 4G -Q -M fuzzer-master -x /dev/shm/work/Lazybox/Lazybox.dict -- data/linux/processed-challenges/Lazybox/bin/Lazybox\n'
p95
I5
tp96
a(I5760
S'start_time     : 1500198420\nlast_update    : 1500204130\nfuzzer_pid     : 11861\ncycles_done    : 0\nexecs_done     : 4232380\nexecs_per_sec  : 742.46\npaths_total    : 538\npaths_favored  : 162\npaths_found    : 537\npaths_imported : 0\nmax_depth      : 5\ncur_path       : 346\npending_favs   : 80\npending_total  : 425\nvariable_paths : 0\nbitmap_cvg     : 2.43%\nunique_crashes : 0\nunique_hangs   : 0\nlast_path      : 1500204077\nlast_crash     : 0\nlast_hang      : 0\nexec_timeout   : 20\nafl_banner     : fuzzer-master\nafl_version    : 1.85b\ncommand_line   : /home/skaramcheti/.virtualenvs/afl/bin/afl-unix/afl-fuzz -i /dev/shm/work/Lazybox/input -o /dev/shm/work/Lazybox/sync -m 4G -Q -M fuzzer-master -x /dev/shm/work/Lazybox/Lazybox.dict -- data/linux/processed-challenges/Lazybox/bin/Lazybox\n'
p97
I3
tp98
a(I5880
S'start_time     : 1500198420\nlast_update    : 1500204250\nfuzzer_pid     : 11861\ncycles_done    : 0\nexecs_done     : 4319386\nexecs_per_sec  : 707.01\npaths_total    : 541\npaths_favored  : 162\npaths_found    : 540\npaths_imported : 0\nmax_depth      : 5\ncur_path       : 348\npending_favs   : 80\npending_total  : 427\nvariable_paths : 0\nbitmap_cvg     : 2.44%\nunique_crashes : 0\nunique_hangs   : 0\nlast_path      : 1500204228\nlast_crash     : 0\nlast_hang      : 0\nexec_timeout   : 20\nafl_banner     : fuzzer-master\nafl_version    : 1.85b\ncommand_line   : /home/skaramcheti/.virtualenvs/afl/bin/afl-unix/afl-fuzz -i /dev/shm/work/Lazybox/input -o /dev/shm/work/Lazybox/sync -m 4G -Q -M fuzzer-master -x /dev/shm/work/Lazybox/Lazybox.dict -- data/linux/processed-challenges/Lazybox/bin/Lazybox\n'
p99
I7
tp100
a(I6000
S'start_time     : 1500198420\nlast_update    : 1500204370\nfuzzer_pid     : 11861\ncycles_done    : 0\nexecs_done     : 4400953\nexecs_per_sec  : 707.12\npaths_total    : 565\npaths_favored  : 162\npaths_found    : 564\npaths_imported : 0\nmax_depth      : 5\ncur_path       : 351\npending_favs   : 80\npending_total  : 450\nvariable_paths : 0\nbitmap_cvg     : 2.44%\nunique_crashes : 0\nunique_hangs   : 0\nlast_path      : 1500204361\nlast_crash     : 0\nlast_hang      : 0\nexec_timeout   : 20\nafl_banner     : fuzzer-master\nafl_version    : 1.85b\ncommand_line   : /home/skaramcheti/.virtualenvs/afl/bin/afl-unix/afl-fuzz -i /dev/shm/work/Lazybox/input -o /dev/shm/work/Lazybox/sync -m 4G -Q -M fuzzer-master -x /dev/shm/work/Lazybox/Lazybox.dict -- data/linux/processed-challenges/Lazybox/bin/Lazybox\n'
p101
I20
tp102
a(I6120
S'start_time     : 1500198420\nlast_update    : 1500204490\nfuzzer_pid     : 11861\ncycles_done    : 0\nexecs_done     : 4484547\nexecs_per_sec  : 711.25\npaths_total    : 568\npaths_favored  : 163\npaths_found    : 567\npaths_imported : 0\nmax_depth      : 5\ncur_path       : 352\npending_favs   : 80\npending_total  : 452\nvariable_paths : 0\nbitmap_cvg     : 2.44%\nunique_crashes : 0\nunique_hangs   : 0\nlast_path      : 1500204480\nlast_crash     : 0\nlast_hang      : 0\nexec_timeout   : 20\nafl_banner     : fuzzer-master\nafl_version    : 1.85b\ncommand_line   : /home/skaramcheti/.virtualenvs/afl/bin/afl-unix/afl-fuzz -i /dev/shm/work/Lazybox/input -o /dev/shm/work/Lazybox/sync -m 4G -Q -M fuzzer-master -x /dev/shm/work/Lazybox/Lazybox.dict -- data/linux/processed-challenges/Lazybox/bin/Lazybox\n'
p103
I5
tp104
a(I6240
S'start_time     : 1500198420\nlast_update    : 1500204611\nfuzzer_pid     : 11861\ncycles_done    : 0\nexecs_done     : 4570936\nexecs_per_sec  : 730.49\npaths_total    : 571\npaths_favored  : 163\npaths_found    : 570\npaths_imported : 0\nmax_depth      : 5\ncur_path       : 354\npending_favs   : 79\npending_total  : 454\nvariable_paths : 0\nbitmap_cvg     : 2.44%\nunique_crashes : 0\nunique_hangs   : 0\nlast_path      : 1500204536\nlast_crash     : 0\nlast_hang      : 0\nexec_timeout   : 20\nafl_banner     : fuzzer-master\nafl_version    : 1.85b\ncommand_line   : /home/skaramcheti/.virtualenvs/afl/bin/afl-unix/afl-fuzz -i /dev/shm/work/Lazybox/input -o /dev/shm/work/Lazybox/sync -m 4G -Q -M fuzzer-master -x /dev/shm/work/Lazybox/Lazybox.dict -- data/linux/processed-challenges/Lazybox/bin/Lazybox\n'
p105
I0
tp106
a(I6360
S'start_time     : 1500198420\nlast_update    : 1500204731\nfuzzer_pid     : 11861\ncycles_done    : 0\nexecs_done     : 4654455\nexecs_per_sec  : 687.90\npaths_total    : 571\npaths_favored  : 164\npaths_found    : 570\npaths_imported : 0\nmax_depth      : 5\ncur_path       : 358\npending_favs   : 78\npending_total  : 452\nvariable_paths : 0\nbitmap_cvg     : 2.44%\nunique_crashes : 0\nunique_hangs   : 0\nlast_path      : 1500204536\nlast_crash     : 0\nlast_hang      : 0\nexec_timeout   : 20\nafl_banner     : fuzzer-master\nafl_version    : 1.85b\ncommand_line   : /home/skaramcheti/.virtualenvs/afl/bin/afl-unix/afl-fuzz -i /dev/shm/work/Lazybox/input -o /dev/shm/work/Lazybox/sync -m 4G -Q -M fuzzer-master -x /dev/shm/work/Lazybox/Lazybox.dict -- data/linux/processed-challenges/Lazybox/bin/Lazybox\n'
p107
I3
tp108
a(I6480
S'start_time     : 1500198420\nlast_update    : 1500204851\nfuzzer_pid     : 11861\ncycles_done    : 0\nexecs_done     : 4738426\nexecs_per_sec  : 689.47\npaths_total    : 574\npaths_favored  : 164\npaths_found    : 573\npaths_imported : 0\nmax_depth      : 5\ncur_path       : 358\npending_favs   : 78\npending_total  : 455\nvariable_paths : 0\nbitmap_cvg     : 2.44%\nunique_crashes : 0\nunique_hangs   : 0\nlast_path      : 1500204751\nlast_crash     : 0\nlast_hang      : 0\nexec_timeout   : 20\nafl_banner     : fuzzer-master\nafl_version    : 1.85b\ncommand_line   : /home/skaramcheti/.virtualenvs/afl/bin/afl-unix/afl-fuzz -i /dev/shm/work/Lazybox/input -o /dev/shm/work/Lazybox/sync -m 4G -Q -M fuzzer-master -x /dev/shm/work/Lazybox/Lazybox.dict -- data/linux/processed-challenges/Lazybox/bin/Lazybox\n'
p109
I0
tp110
a(I6600
S'start_time     : 1500198420\nlast_update    : 1500204971\nfuzzer_pid     : 11861\ncycles_done    : 0\nexecs_done     : 4819489\nexecs_per_sec  : 642.81\npaths_total    : 574\npaths_favored  : 164\npaths_found    : 573\npaths_imported : 0\nmax_depth      : 5\ncur_path       : 375\npending_favs   : 75\npending_total  : 452\nvariable_paths : 0\nbitmap_cvg     : 2.44%\nunique_crashes : 0\nunique_hangs   : 0\nlast_path      : 1500204751\nlast_crash     : 0\nlast_hang      : 0\nexec_timeout   : 20\nafl_banner     : fuzzer-master\nafl_version    : 1.85b\ncommand_line   : /home/skaramcheti/.virtualenvs/afl/bin/afl-unix/afl-fuzz -i /dev/shm/work/Lazybox/input -o /dev/shm/work/Lazybox/sync -m 4G -Q -M fuzzer-master -x /dev/shm/work/Lazybox/Lazybox.dict -- data/linux/processed-challenges/Lazybox/bin/Lazybox\n'
p111
I1
tp112
a(I6720
S'start_time     : 1500198420\nlast_update    : 1500205091\nfuzzer_pid     : 11861\ncycles_done    : 0\nexecs_done     : 4899949\nexecs_per_sec  : 682.00\npaths_total    : 575\npaths_favored  : 164\npaths_found    : 574\npaths_imported : 0\nmax_depth      : 5\ncur_path       : 394\npending_favs   : 73\npending_total  : 451\nvariable_paths : 0\nbitmap_cvg     : 2.44%\nunique_crashes : 0\nunique_hangs   : 0\nlast_path      : 1500204995\nlast_crash     : 0\nlast_hang      : 0\nexec_timeout   : 20\nafl_banner     : fuzzer-master\nafl_version    : 1.85b\ncommand_line   : /home/skaramcheti/.virtualenvs/afl/bin/afl-unix/afl-fuzz -i /dev/shm/work/Lazybox/input -o /dev/shm/work/Lazybox/sync -m 4G -Q -M fuzzer-master -x /dev/shm/work/Lazybox/Lazybox.dict -- data/linux/processed-challenges/Lazybox/bin/Lazybox\n'
p113
I0
tp114
a(I6840
S'start_time     : 1500198420\nlast_update    : 1500205212\nfuzzer_pid     : 11861\ncycles_done    : 0\nexecs_done     : 4979317\nexecs_per_sec  : 625.03\npaths_total    : 575\npaths_favored  : 164\npaths_found    : 574\npaths_imported : 0\nmax_depth      : 5\ncur_path       : 413\npending_favs   : 71\npending_total  : 449\nvariable_paths : 0\nbitmap_cvg     : 2.44%\nunique_crashes : 0\nunique_hangs   : 0\nlast_path      : 1500204995\nlast_crash     : 0\nlast_hang      : 0\nexec_timeout   : 20\nafl_banner     : fuzzer-master\nafl_version    : 1.85b\ncommand_line   : /home/skaramcheti/.virtualenvs/afl/bin/afl-unix/afl-fuzz -i /dev/shm/work/Lazybox/input -o /dev/shm/work/Lazybox/sync -m 4G -Q -M fuzzer-master -x /dev/shm/work/Lazybox/Lazybox.dict -- data/linux/processed-challenges/Lazybox/bin/Lazybox\n'
p115
I2
tp116
a(I6960
S'start_time     : 1500198420\nlast_update    : 1500205332\nfuzzer_pid     : 11861\ncycles_done    : 0\nexecs_done     : 5066741\nexecs_per_sec  : 744.90\npaths_total    : 580\npaths_favored  : 165\npaths_found    : 579\npaths_imported : 0\nmax_depth      : 5\ncur_path       : 426\npending_favs   : 71\npending_total  : 452\nvariable_paths : 0\nbitmap_cvg     : 2.44%\nunique_crashes : 0\nunique_hangs   : 0\nlast_path      : 1500205281\nlast_crash     : 0\nlast_hang      : 0\nexec_timeout   : 20\nafl_banner     : fuzzer-master\nafl_version    : 1.85b\ncommand_line   : /home/skaramcheti/.virtualenvs/afl/bin/afl-unix/afl-fuzz -i /dev/shm/work/Lazybox/input -o /dev/shm/work/Lazybox/sync -m 4G -Q -M fuzzer-master -x /dev/shm/work/Lazybox/Lazybox.dict -- data/linux/processed-challenges/Lazybox/bin/Lazybox\n'
p117
I8
tp118
a(I7080
S'start_time     : 1500198420\nlast_update    : 1500205452\nfuzzer_pid     : 11861\ncycles_done    : 0\nexecs_done     : 5157620\nexecs_per_sec  : 765.33\npaths_total    : 587\npaths_favored  : 165\npaths_found    : 586\npaths_imported : 0\nmax_depth      : 5\ncur_path       : 428\npending_favs   : 69\npending_total  : 457\nvariable_paths : 0\nbitmap_cvg     : 2.44%\nunique_crashes : 0\nunique_hangs   : 0\nlast_path      : 1500205406\nlast_crash     : 0\nlast_hang      : 0\nexec_timeout   : 20\nafl_banner     : fuzzer-master\nafl_version    : 1.85b\ncommand_line   : /home/skaramcheti/.virtualenvs/afl/bin/afl-unix/afl-fuzz -i /dev/shm/work/Lazybox/input -o /dev/shm/work/Lazybox/sync -m 4G -Q -M fuzzer-master -x /dev/shm/work/Lazybox/Lazybox.dict -- data/linux/processed-challenges/Lazybox/bin/Lazybox\n'
p119
I3
tp120
a(I7200
S'start_time     : 1500198420\nlast_update    : 1500205572\nfuzzer_pid     : 11861\ncycles_done    : 0\nexecs_done     : 5249380\nexecs_per_sec  : 767.51\npaths_total    : 589\npaths_favored  : 165\npaths_found    : 588\npaths_imported : 0\nmax_depth      : 5\ncur_path       : 428\npending_favs   : 69\npending_total  : 459\nvariable_paths : 0\nbitmap_cvg     : 2.44%\nunique_crashes : 0\nunique_hangs   : 0\nlast_path      : 1500205524\nlast_crash     : 0\nlast_hang      : 0\nexec_timeout   : 20\nafl_banner     : fuzzer-master\nafl_version    : 1.85b\ncommand_line   : /home/skaramcheti/.virtualenvs/afl/bin/afl-unix/afl-fuzz -i /dev/shm/work/Lazybox/input -o /dev/shm/work/Lazybox/sync -m 4G -Q -M fuzzer-master -x /dev/shm/work/Lazybox/Lazybox.dict -- data/linux/processed-challenges/Lazybox/bin/Lazybox\n'
p121
I3
tp122
a(I7320
S'start_time     : 1500198420\nlast_update    : 1500205692\nfuzzer_pid     : 11861\ncycles_done    : 0\nexecs_done     : 5339339\nexecs_per_sec  : 757.78\npaths_total    : 593\npaths_favored  : 169\npaths_found    : 592\npaths_imported : 0\nmax_depth      : 5\ncur_path       : 430\npending_favs   : 71\npending_total  : 461\nvariable_paths : 0\nbitmap_cvg     : 2.45%\nunique_crashes : 0\nunique_hangs   : 1\nlast_path      : 1500205663\nlast_crash     : 0\nlast_hang      : 1500205650\nexec_timeout   : 20\nafl_banner     : fuzzer-master\nafl_version    : 1.85b\ncommand_line   : /home/skaramcheti/.virtualenvs/afl/bin/afl-unix/afl-fuzz -i /dev/shm/work/Lazybox/input -o /dev/shm/work/Lazybox/sync -m 4G -Q -M fuzzer-master -x /dev/shm/work/Lazybox/Lazybox.dict -- data/linux/processed-challenges/Lazybox/bin/Lazybox\n'
p123
I5
tp124
a(I7440
S'start_time     : 1500198420\nlast_update    : 1500205813\nfuzzer_pid     : 11861\ncycles_done    : 0\nexecs_done     : 5429981\nexecs_per_sec  : 760.34\npaths_total    : 597\npaths_favored  : 173\npaths_found    : 596\npaths_imported : 0\nmax_depth      : 5\ncur_path       : 433\npending_favs   : 72\npending_total  : 462\nvariable_paths : 0\nbitmap_cvg     : 2.46%\nunique_crashes : 0\nunique_hangs   : 1\nlast_path      : 1500205806\nlast_crash     : 0\nlast_hang      : 1500205650\nexec_timeout   : 20\nafl_banner     : fuzzer-master\nafl_version    : 1.85b\ncommand_line   : /home/skaramcheti/.virtualenvs/afl/bin/afl-unix/afl-fuzz -i /dev/shm/work/Lazybox/input -o /dev/shm/work/Lazybox/sync -m 4G -Q -M fuzzer-master -x /dev/shm/work/Lazybox/Lazybox.dict -- data/linux/processed-challenges/Lazybox/bin/Lazybox\n'
p125
I3
tp126
a(I7560
S'start_time     : 1500198420\nlast_update    : 1500205933\nfuzzer_pid     : 11861\ncycles_done    : 0\nexecs_done     : 5520804\nexecs_per_sec  : 758.25\npaths_total    : 602\npaths_favored  : 175\npaths_found    : 601\npaths_imported : 0\nmax_depth      : 5\ncur_path       : 435\npending_favs   : 72\npending_total  : 465\nvariable_paths : 0\nbitmap_cvg     : 2.46%\nunique_crashes : 0\nunique_hangs   : 1\nlast_path      : 1500205928\nlast_crash     : 0\nlast_hang      : 1500205650\nexec_timeout   : 20\nafl_banner     : fuzzer-master\nafl_version    : 1.85b\ncommand_line   : /home/skaramcheti/.virtualenvs/afl/bin/afl-unix/afl-fuzz -i /dev/shm/work/Lazybox/input -o /dev/shm/work/Lazybox/sync -m 4G -Q -M fuzzer-master -x /dev/shm/work/Lazybox/Lazybox.dict -- data/linux/processed-challenges/Lazybox/bin/Lazybox\n'
p127
I4
tp128
a(I7680
S'start_time     : 1500198420\nlast_update    : 1500206053\nfuzzer_pid     : 11861\ncycles_done    : 0\nexecs_done     : 5610099\nexecs_per_sec  : 701.75\npaths_total    : 606\npaths_favored  : 177\npaths_found    : 605\npaths_imported : 0\nmax_depth      : 5\ncur_path       : 436\npending_favs   : 73\npending_total  : 468\nvariable_paths : 0\nbitmap_cvg     : 2.47%\nunique_crashes : 0\nunique_hangs   : 1\nlast_path      : 1500206047\nlast_crash     : 0\nlast_hang      : 1500205650\nexec_timeout   : 20\nafl_banner     : fuzzer-master\nafl_version    : 1.85b\ncommand_line   : /home/skaramcheti/.virtualenvs/afl/bin/afl-unix/afl-fuzz -i /dev/shm/work/Lazybox/input -o /dev/shm/work/Lazybox/sync -m 4G -Q -M fuzzer-master -x /dev/shm/work/Lazybox/Lazybox.dict -- data/linux/processed-challenges/Lazybox/bin/Lazybox\n'
p129
I9
tp130
a(I7800
S'start_time     : 1500198420\nlast_update    : 1500206173\nfuzzer_pid     : 11861\ncycles_done    : 0\nexecs_done     : 5699151\nexecs_per_sec  : 743.48\npaths_total    : 612\npaths_favored  : 180\npaths_found    : 611\npaths_imported : 0\nmax_depth      : 5\ncur_path       : 438\npending_favs   : 75\npending_total  : 473\nvariable_paths : 0\nbitmap_cvg     : 2.47%\nunique_crashes : 0\nunique_hangs   : 2\nlast_path      : 1500206098\nlast_crash     : 0\nlast_hang      : 1500206060\nexec_timeout   : 20\nafl_banner     : fuzzer-master\nafl_version    : 1.85b\ncommand_line   : /home/skaramcheti/.virtualenvs/afl/bin/afl-unix/afl-fuzz -i /dev/shm/work/Lazybox/input -o /dev/shm/work/Lazybox/sync -m 4G -Q -M fuzzer-master -x /dev/shm/work/Lazybox/Lazybox.dict -- data/linux/processed-challenges/Lazybox/bin/Lazybox\n'
p131
I0
tp132
a(I7920
S'start_time     : 1500198420\nlast_update    : 1500206293\nfuzzer_pid     : 11861\ncycles_done    : 0\nexecs_done     : 5789938\nexecs_per_sec  : 753.02\npaths_total    : 612\npaths_favored  : 180\npaths_found    : 611\npaths_imported : 0\nmax_depth      : 5\ncur_path       : 438\npending_favs   : 75\npending_total  : 473\nvariable_paths : 0\nbitmap_cvg     : 2.47%\nunique_crashes : 0\nunique_hangs   : 2\nlast_path      : 1500206098\nlast_crash     : 0\nlast_hang      : 1500206060\nexec_timeout   : 20\nafl_banner     : fuzzer-master\nafl_version    : 1.85b\ncommand_line   : /home/skaramcheti/.virtualenvs/afl/bin/afl-unix/afl-fuzz -i /dev/shm/work/Lazybox/input -o /dev/shm/work/Lazybox/sync -m 4G -Q -M fuzzer-master -x /dev/shm/work/Lazybox/Lazybox.dict -- data/linux/processed-challenges/Lazybox/bin/Lazybox\n'
p133
I1
tp134
a(I8040
S'start_time     : 1500198420\nlast_update    : 1500206414\nfuzzer_pid     : 11861\ncycles_done    : 0\nexecs_done     : 5877940\nexecs_per_sec  : 714.00\npaths_total    : 616\npaths_favored  : 180\npaths_found    : 615\npaths_imported : 0\nmax_depth      : 5\ncur_path       : 447\npending_favs   : 69\npending_total  : 471\nvariable_paths : 0\nbitmap_cvg     : 2.47%\nunique_crashes : 0\nunique_hangs   : 2\nlast_path      : 1500206413\nlast_crash     : 0\nlast_hang      : 1500206060\nexec_timeout   : 20\nafl_banner     : fuzzer-master\nafl_version    : 1.85b\ncommand_line   : /home/skaramcheti/.virtualenvs/afl/bin/afl-unix/afl-fuzz -i /dev/shm/work/Lazybox/input -o /dev/shm/work/Lazybox/sync -m 4G -Q -M fuzzer-master -x /dev/shm/work/Lazybox/Lazybox.dict -- data/linux/processed-challenges/Lazybox/bin/Lazybox\n'
p135
I6
tp136
a(I8160
S'start_time     : 1500198420\nlast_update    : 1500206534\nfuzzer_pid     : 11861\ncycles_done    : 0\nexecs_done     : 5967370\nexecs_per_sec  : 744.68\npaths_total    : 620\npaths_favored  : 180\npaths_found    : 619\npaths_imported : 0\nmax_depth      : 5\ncur_path       : 447\npending_favs   : 69\npending_total  : 475\nvariable_paths : 0\nbitmap_cvg     : 2.47%\nunique_crashes : 0\nunique_hangs   : 2\nlast_path      : 1500206529\nlast_crash     : 0\nlast_hang      : 1500206060\nexec_timeout   : 20\nafl_banner     : fuzzer-master\nafl_version    : 1.85b\ncommand_line   : /home/skaramcheti/.virtualenvs/afl/bin/afl-unix/afl-fuzz -i /dev/shm/work/Lazybox/input -o /dev/shm/work/Lazybox/sync -m 4G -Q -M fuzzer-master -x /dev/shm/work/Lazybox/Lazybox.dict -- data/linux/processed-challenges/Lazybox/bin/Lazybox\n'
p137
I1
tp138
a(I8280
S'start_time     : 1500198420\nlast_update    : 1500206654\nfuzzer_pid     : 11861\ncycles_done    : 0\nexecs_done     : 6054656\nexecs_per_sec  : 647.70\npaths_total    : 620\npaths_favored  : 180\npaths_found    : 619\npaths_imported : 0\nmax_depth      : 5\ncur_path       : 449\npending_favs   : 68\npending_total  : 474\nvariable_paths : 0\nbitmap_cvg     : 2.47%\nunique_crashes : 0\nunique_hangs   : 2\nlast_path      : 1500206529\nlast_crash     : 0\nlast_hang      : 1500206060\nexec_timeout   : 20\nafl_banner     : fuzzer-master\nafl_version    : 1.85b\ncommand_line   : /home/skaramcheti/.virtualenvs/afl/bin/afl-unix/afl-fuzz -i /dev/shm/work/Lazybox/input -o /dev/shm/work/Lazybox/sync -m 4G -Q -M fuzzer-master -x /dev/shm/work/Lazybox/Lazybox.dict -- data/linux/processed-challenges/Lazybox/bin/Lazybox\n'
p139
I1
tp140
a(I8400
S'start_time     : 1500198420\nlast_update    : 1500206774\nfuzzer_pid     : 11861\ncycles_done    : 0\nexecs_done     : 6134344\nexecs_per_sec  : 660.43\npaths_total    : 621\npaths_favored  : 180\npaths_found    : 620\npaths_imported : 0\nmax_depth      : 5\ncur_path       : 451\npending_favs   : 66\npending_total  : 473\nvariable_paths : 0\nbitmap_cvg     : 2.47%\nunique_crashes : 0\nunique_hangs   : 2\nlast_path      : 1500206694\nlast_crash     : 0\nlast_hang      : 1500206060\nexec_timeout   : 20\nafl_banner     : fuzzer-master\nafl_version    : 1.85b\ncommand_line   : /home/skaramcheti/.virtualenvs/afl/bin/afl-unix/afl-fuzz -i /dev/shm/work/Lazybox/input -o /dev/shm/work/Lazybox/sync -m 4G -Q -M fuzzer-master -x /dev/shm/work/Lazybox/Lazybox.dict -- data/linux/processed-challenges/Lazybox/bin/Lazybox\n'
p141
I0
tp142
a(I8520
S'start_time     : 1500198420\nlast_update    : 1500206894\nfuzzer_pid     : 11861\ncycles_done    : 0\nexecs_done     : 6216877\nexecs_per_sec  : 739.72\npaths_total    : 624\npaths_favored  : 180\npaths_found    : 623\npaths_imported : 0\nmax_depth      : 5\ncur_path       : 455\npending_favs   : 64\npending_total  : 474\nvariable_paths : 0\nbitmap_cvg     : 2.47%\nunique_crashes : 0\nunique_hangs   : 2\nlast_path      : 1500206893\nlast_crash     : 0\nlast_hang      : 1500206060\nexec_timeout   : 20\nafl_banner     : fuzzer-master\nafl_version    : 1.85b\ncommand_line   : /home/skaramcheti/.virtualenvs/afl/bin/afl-unix/afl-fuzz -i /dev/shm/work/Lazybox/input -o /dev/shm/work/Lazybox/sync -m 4G -Q -M fuzzer-master -x /dev/shm/work/Lazybox/Lazybox.dict -- data/linux/processed-challenges/Lazybox/bin/Lazybox\n'
p143
I4
tp144
a(I8640
S'start_time     : 1500198420\nlast_update    : 1500207015\nfuzzer_pid     : 11861\ncycles_done    : 0\nexecs_done     : 6303280\nexecs_per_sec  : 673.41\npaths_total    : 627\npaths_favored  : 181\npaths_found    : 626\npaths_imported : 0\nmax_depth      : 5\ncur_path       : 456\npending_favs   : 64\npending_total  : 476\nvariable_paths : 0\nbitmap_cvg     : 2.52%\nunique_crashes : 0\nunique_hangs   : 2\nlast_path      : 1500206994\nlast_crash     : 0\nlast_hang      : 1500206060\nexec_timeout   : 20\nafl_banner     : fuzzer-master\nafl_version    : 1.85b\ncommand_line   : /home/skaramcheti/.virtualenvs/afl/bin/afl-unix/afl-fuzz -i /dev/shm/work/Lazybox/input -o /dev/shm/work/Lazybox/sync -m 4G -Q -M fuzzer-master -x /dev/shm/work/Lazybox/Lazybox.dict -- data/linux/processed-challenges/Lazybox/bin/Lazybox\n'
p145
I3
tp146
a(I8760
S'start_time     : 1500198420\nlast_update    : 1500207135\nfuzzer_pid     : 11861\ncycles_done    : 0\nexecs_done     : 6386889\nexecs_per_sec  : 699.05\npaths_total    : 633\npaths_favored  : 182\npaths_found    : 632\npaths_imported : 0\nmax_depth      : 5\ncur_path       : 465\npending_favs   : 65\npending_total  : 481\nvariable_paths : 0\nbitmap_cvg     : 2.53%\nunique_crashes : 0\nunique_hangs   : 2\nlast_path      : 1500207106\nlast_crash     : 0\nlast_hang      : 1500206060\nexec_timeout   : 20\nafl_banner     : fuzzer-master\nafl_version    : 1.85b\ncommand_line   : /home/skaramcheti/.virtualenvs/afl/bin/afl-unix/afl-fuzz -i /dev/shm/work/Lazybox/input -o /dev/shm/work/Lazybox/sync -m 4G -Q -M fuzzer-master -x /dev/shm/work/Lazybox/Lazybox.dict -- data/linux/processed-challenges/Lazybox/bin/Lazybox\n'
p147
I6
tp148
a(I8880
S'start_time     : 1500198420\nlast_update    : 1500207255\nfuzzer_pid     : 11861\ncycles_done    : 0\nexecs_done     : 6472865\nexecs_per_sec  : 711.22\npaths_total    : 636\npaths_favored  : 182\npaths_found    : 635\npaths_imported : 0\nmax_depth      : 5\ncur_path       : 465\npending_favs   : 65\npending_total  : 484\nvariable_paths : 0\nbitmap_cvg     : 2.54%\nunique_crashes : 0\nunique_hangs   : 2\nlast_path      : 1500207254\nlast_crash     : 0\nlast_hang      : 1500206060\nexec_timeout   : 20\nafl_banner     : fuzzer-master\nafl_version    : 1.85b\ncommand_line   : /home/skaramcheti/.virtualenvs/afl/bin/afl-unix/afl-fuzz -i /dev/shm/work/Lazybox/input -o /dev/shm/work/Lazybox/sync -m 4G -Q -M fuzzer-master -x /dev/shm/work/Lazybox/Lazybox.dict -- data/linux/processed-challenges/Lazybox/bin/Lazybox\n'
p149
I4
tp150
a(I9000
S'start_time     : 1500198420\nlast_update    : 1500207376\nfuzzer_pid     : 11861\ncycles_done    : 0\nexecs_done     : 6558073\nexecs_per_sec  : 730.09\npaths_total    : 642\npaths_favored  : 184\npaths_found    : 641\npaths_imported : 0\nmax_depth      : 6\ncur_path       : 468\npending_favs   : 71\npending_total  : 489\nvariable_paths : 0\nbitmap_cvg     : 2.54%\nunique_crashes : 0\nunique_hangs   : 2\nlast_path      : 1500207335\nlast_crash     : 0\nlast_hang      : 1500206060\nexec_timeout   : 20\nafl_banner     : fuzzer-master\nafl_version    : 1.85b\ncommand_line   : /home/skaramcheti/.virtualenvs/afl/bin/afl-unix/afl-fuzz -i /dev/shm/work/Lazybox/input -o /dev/shm/work/Lazybox/sync -m 4G -Q -M fuzzer-master -x /dev/shm/work/Lazybox/Lazybox.dict -- data/linux/processed-challenges/Lazybox/bin/Lazybox\n'
p151
I4
tp152
a(I9120
S'start_time     : 1500198420\nlast_update    : 1500207496\nfuzzer_pid     : 11861\ncycles_done    : 0\nexecs_done     : 6645341\nexecs_per_sec  : 722.71\npaths_total    : 644\npaths_favored  : 184\npaths_found    : 643\npaths_imported : 0\nmax_depth      : 6\ncur_path       : 468\npending_favs   : 71\npending_total  : 491\nvariable_paths : 0\nbitmap_cvg     : 2.54%\nunique_crashes : 0\nunique_hangs   : 2\nlast_path      : 1500207457\nlast_crash     : 0\nlast_hang      : 1500206060\nexec_timeout   : 20\nafl_banner     : fuzzer-master\nafl_version    : 1.85b\ncommand_line   : /home/skaramcheti/.virtualenvs/afl/bin/afl-unix/afl-fuzz -i /dev/shm/work/Lazybox/input -o /dev/shm/work/Lazybox/sync -m 4G -Q -M fuzzer-master -x /dev/shm/work/Lazybox/Lazybox.dict -- data/linux/processed-challenges/Lazybox/bin/Lazybox\n'
p153
I2
tp154
a(I9240
S'start_time     : 1500198420\nlast_update    : 1500207616\nfuzzer_pid     : 11861\ncycles_done    : 0\nexecs_done     : 6733903\nexecs_per_sec  : 750.50\npaths_total    : 655\npaths_favored  : 184\npaths_found    : 654\npaths_imported : 0\nmax_depth      : 6\ncur_path       : 473\npending_favs   : 68\npending_total  : 499\nvariable_paths : 0\nbitmap_cvg     : 2.55%\nunique_crashes : 0\nunique_hangs   : 2\nlast_path      : 1500207604\nlast_crash     : 0\nlast_hang      : 1500206060\nexec_timeout   : 20\nafl_banner     : fuzzer-master\nafl_version    : 1.85b\ncommand_line   : /home/skaramcheti/.virtualenvs/afl/bin/afl-unix/afl-fuzz -i /dev/shm/work/Lazybox/input -o /dev/shm/work/Lazybox/sync -m 4G -Q -M fuzzer-master -x /dev/shm/work/Lazybox/Lazybox.dict -- data/linux/processed-challenges/Lazybox/bin/Lazybox\n'
p155
I13
tp156
a(I9360
S'start_time     : 1500198420\nlast_update    : 1500207736\nfuzzer_pid     : 11861\ncycles_done    : 0\nexecs_done     : 6823458\nexecs_per_sec  : 757.08\npaths_total    : 657\npaths_favored  : 184\npaths_found    : 656\npaths_imported : 0\nmax_depth      : 6\ncur_path       : 473\npending_favs   : 68\npending_total  : 501\nvariable_paths : 0\nbitmap_cvg     : 2.55%\nunique_crashes : 0\nunique_hangs   : 2\nlast_path      : 1500207641\nlast_crash     : 0\nlast_hang      : 1500206060\nexec_timeout   : 20\nafl_banner     : fuzzer-master\nafl_version    : 1.85b\ncommand_line   : /home/skaramcheti/.virtualenvs/afl/bin/afl-unix/afl-fuzz -i /dev/shm/work/Lazybox/input -o /dev/shm/work/Lazybox/sync -m 4G -Q -M fuzzer-master -x /dev/shm/work/Lazybox/Lazybox.dict -- data/linux/processed-challenges/Lazybox/bin/Lazybox\n'
p157
I1
tp158
a(I9480
S'start_time     : 1500198420\nlast_update    : 1500207856\nfuzzer_pid     : 11861\ncycles_done    : 0\nexecs_done     : 6909299\nexecs_per_sec  : 719.16\npaths_total    : 663\npaths_favored  : 186\npaths_found    : 662\npaths_imported : 0\nmax_depth      : 6\ncur_path       : 476\npending_favs   : 70\npending_total  : 506\nvariable_paths : 0\nbitmap_cvg     : 2.57%\nunique_crashes : 0\nunique_hangs   : 2\nlast_path      : 1500207841\nlast_crash     : 0\nlast_hang      : 1500206060\nexec_timeout   : 20\nafl_banner     : fuzzer-master\nafl_version    : 1.85b\ncommand_line   : /home/skaramcheti/.virtualenvs/afl/bin/afl-unix/afl-fuzz -i /dev/shm/work/Lazybox/input -o /dev/shm/work/Lazybox/sync -m 4G -Q -M fuzzer-master -x /dev/shm/work/Lazybox/Lazybox.dict -- data/linux/processed-challenges/Lazybox/bin/Lazybox\n'
p159
I7
tp160
a(I9600
S'start_time     : 1500198420\nlast_update    : 1500207977\nfuzzer_pid     : 11861\ncycles_done    : 0\nexecs_done     : 6993538\nexecs_per_sec  : 697.00\npaths_total    : 667\npaths_favored  : 186\npaths_found    : 666\npaths_imported : 0\nmax_depth      : 6\ncur_path       : 476\npending_favs   : 70\npending_total  : 510\nvariable_paths : 0\nbitmap_cvg     : 2.57%\nunique_crashes : 0\nunique_hangs   : 2\nlast_path      : 1500207924\nlast_crash     : 0\nlast_hang      : 1500206060\nexec_timeout   : 20\nafl_banner     : fuzzer-master\nafl_version    : 1.85b\ncommand_line   : /home/skaramcheti/.virtualenvs/afl/bin/afl-unix/afl-fuzz -i /dev/shm/work/Lazybox/input -o /dev/shm/work/Lazybox/sync -m 4G -Q -M fuzzer-master -x /dev/shm/work/Lazybox/Lazybox.dict -- data/linux/processed-challenges/Lazybox/bin/Lazybox\n'
p161
I2
tp162
a(I9720
S'start_time     : 1500198420\nlast_update    : 1500208097\nfuzzer_pid     : 11861\ncycles_done    : 0\nexecs_done     : 7079471\nexecs_per_sec  : 742.46\npaths_total    : 668\npaths_favored  : 189\npaths_found    : 667\npaths_imported : 0\nmax_depth      : 6\ncur_path       : 480\npending_favs   : 70\npending_total  : 509\nvariable_paths : 0\nbitmap_cvg     : 2.57%\nunique_crashes : 0\nunique_hangs   : 2\nlast_path      : 1500208070\nlast_crash     : 0\nlast_hang      : 1500206060\nexec_timeout   : 20\nafl_banner     : fuzzer-master\nafl_version    : 1.85b\ncommand_line   : /home/skaramcheti/.virtualenvs/afl/bin/afl-unix/afl-fuzz -i /dev/shm/work/Lazybox/input -o /dev/shm/work/Lazybox/sync -m 4G -Q -M fuzzer-master -x /dev/shm/work/Lazybox/Lazybox.dict -- data/linux/processed-challenges/Lazybox/bin/Lazybox\n'
p163
I3
tp164
a(I9840
S'start_time     : 1500198420\nlast_update    : 1500208217\nfuzzer_pid     : 11861\ncycles_done    : 0\nexecs_done     : 7167420\nexecs_per_sec  : 738.80\npaths_total    : 673\npaths_favored  : 189\npaths_found    : 672\npaths_imported : 0\nmax_depth      : 6\ncur_path       : 484\npending_favs   : 69\npending_total  : 513\nvariable_paths : 0\nbitmap_cvg     : 2.57%\nunique_crashes : 0\nunique_hangs   : 2\nlast_path      : 1500208181\nlast_crash     : 0\nlast_hang      : 1500206060\nexec_timeout   : 20\nafl_banner     : fuzzer-master\nafl_version    : 1.85b\ncommand_line   : /home/skaramcheti/.virtualenvs/afl/bin/afl-unix/afl-fuzz -i /dev/shm/work/Lazybox/input -o /dev/shm/work/Lazybox/sync -m 4G -Q -M fuzzer-master -x /dev/shm/work/Lazybox/Lazybox.dict -- data/linux/processed-challenges/Lazybox/bin/Lazybox\n'
p165
I5
tp166
a(I9960
S'start_time     : 1500198420\nlast_update    : 1500208338\nfuzzer_pid     : 11861\ncycles_done    : 0\nexecs_done     : 7256634\nexecs_per_sec  : 724.73\npaths_total    : 675\npaths_favored  : 189\npaths_found    : 674\npaths_imported : 0\nmax_depth      : 6\ncur_path       : 484\npending_favs   : 69\npending_total  : 515\nvariable_paths : 0\nbitmap_cvg     : 2.57%\nunique_crashes : 0\nunique_hangs   : 3\nlast_path      : 1500208228\nlast_crash     : 0\nlast_hang      : 1500208253\nexec_timeout   : 20\nafl_banner     : fuzzer-master\nafl_version    : 1.85b\ncommand_line   : /home/skaramcheti/.virtualenvs/afl/bin/afl-unix/afl-fuzz -i /dev/shm/work/Lazybox/input -o /dev/shm/work/Lazybox/sync -m 4G -Q -M fuzzer-master -x /dev/shm/work/Lazybox/Lazybox.dict -- data/linux/processed-challenges/Lazybox/bin/Lazybox\n'
p167
I1
tp168
a(I10080
S'start_time     : 1500198420\nlast_update    : 1500208458\nfuzzer_pid     : 11861\ncycles_done    : 0\nexecs_done     : 7344045\nexecs_per_sec  : 717.49\npaths_total    : 676\npaths_favored  : 190\npaths_found    : 675\npaths_imported : 0\nmax_depth      : 6\ncur_path       : 488\npending_favs   : 69\npending_total  : 513\nvariable_paths : 0\nbitmap_cvg     : 2.57%\nunique_crashes : 0\nunique_hangs   : 3\nlast_path      : 1500208373\nlast_crash     : 0\nlast_hang      : 1500208253\nexec_timeout   : 20\nafl_banner     : fuzzer-master\nafl_version    : 1.85b\ncommand_line   : /home/skaramcheti/.virtualenvs/afl/bin/afl-unix/afl-fuzz -i /dev/shm/work/Lazybox/input -o /dev/shm/work/Lazybox/sync -m 4G -Q -M fuzzer-master -x /dev/shm/work/Lazybox/Lazybox.dict -- data/linux/processed-challenges/Lazybox/bin/Lazybox\n'
p169
I1
tp170
a(I10200
S'start_time     : 1500198420\nlast_update    : 1500208578\nfuzzer_pid     : 11861\ncycles_done    : 0\nexecs_done     : 7431847\nexecs_per_sec  : 784.18\npaths_total    : 678\npaths_favored  : 190\npaths_found    : 677\npaths_imported : 0\nmax_depth      : 6\ncur_path       : 496\npending_favs   : 66\npending_total  : 511\nvariable_paths : 0\nbitmap_cvg     : 2.58%\nunique_crashes : 0\nunique_hangs   : 3\nlast_path      : 1500208552\nlast_crash     : 0\nlast_hang      : 1500208253\nexec_timeout   : 20\nafl_banner     : fuzzer-master\nafl_version    : 1.85b\ncommand_line   : /home/skaramcheti/.virtualenvs/afl/bin/afl-unix/afl-fuzz -i /dev/shm/work/Lazybox/input -o /dev/shm/work/Lazybox/sync -m 4G -Q -M fuzzer-master -x /dev/shm/work/Lazybox/Lazybox.dict -- data/linux/processed-challenges/Lazybox/bin/Lazybox\n'
p171
I1
tp172
a(I10320
S'start_time     : 1500198420\nlast_update    : 1500208698\nfuzzer_pid     : 11861\ncycles_done    : 0\nexecs_done     : 7522287\nexecs_per_sec  : 763.00\npaths_total    : 679\npaths_favored  : 190\npaths_found    : 678\npaths_imported : 0\nmax_depth      : 6\ncur_path       : 507\npending_favs   : 60\npending_total  : 506\nvariable_paths : 0\nbitmap_cvg     : 2.58%\nunique_crashes : 0\nunique_hangs   : 3\nlast_path      : 1500208686\nlast_crash     : 0\nlast_hang      : 1500208253\nexec_timeout   : 20\nafl_banner     : fuzzer-master\nafl_version    : 1.85b\ncommand_line   : /home/skaramcheti/.virtualenvs/afl/bin/afl-unix/afl-fuzz -i /dev/shm/work/Lazybox/input -o /dev/shm/work/Lazybox/sync -m 4G -Q -M fuzzer-master -x /dev/shm/work/Lazybox/Lazybox.dict -- data/linux/processed-challenges/Lazybox/bin/Lazybox\n'
p173
I3
tp174
a(I10440
S'start_time     : 1500198420\nlast_update    : 1500208818\nfuzzer_pid     : 11861\ncycles_done    : 0\nexecs_done     : 7611499\nexecs_per_sec  : 643.98\npaths_total    : 681\npaths_favored  : 190\npaths_found    : 680\npaths_imported : 0\nmax_depth      : 6\ncur_path       : 516\npending_favs   : 57\npending_total  : 505\nvariable_paths : 0\nbitmap_cvg     : 2.58%\nunique_crashes : 0\nunique_hangs   : 4\nlast_path      : 1500208723\nlast_crash     : 0\nlast_hang      : 1500208709\nexec_timeout   : 20\nafl_banner     : fuzzer-master\nafl_version    : 1.85b\ncommand_line   : /home/skaramcheti/.virtualenvs/afl/bin/afl-unix/afl-fuzz -i /dev/shm/work/Lazybox/input -o /dev/shm/work/Lazybox/sync -m 4G -Q -M fuzzer-master -x /dev/shm/work/Lazybox/Lazybox.dict -- data/linux/processed-challenges/Lazybox/bin/Lazybox\n'
p175
I3
tp176
a(I10560
S'start_time     : 1500198420\nlast_update    : 1500208938\nfuzzer_pid     : 11861\ncycles_done    : 0\nexecs_done     : 7698765\nexecs_per_sec  : 742.93\npaths_total    : 686\npaths_favored  : 190\npaths_found    : 685\npaths_imported : 0\nmax_depth      : 6\ncur_path       : 518\npending_favs   : 56\npending_total  : 509\nvariable_paths : 0\nbitmap_cvg     : 2.59%\nunique_crashes : 0\nunique_hangs   : 4\nlast_path      : 1500208928\nlast_crash     : 0\nlast_hang      : 1500208709\nexec_timeout   : 20\nafl_banner     : fuzzer-master\nafl_version    : 1.85b\ncommand_line   : /home/skaramcheti/.virtualenvs/afl/bin/afl-unix/afl-fuzz -i /dev/shm/work/Lazybox/input -o /dev/shm/work/Lazybox/sync -m 4G -Q -M fuzzer-master -x /dev/shm/work/Lazybox/Lazybox.dict -- data/linux/processed-challenges/Lazybox/bin/Lazybox\n'
p177
I3
tp178
a(I10680
S'start_time     : 1500198420\nlast_update    : 1500209059\nfuzzer_pid     : 11861\ncycles_done    : 0\nexecs_done     : 7788403\nexecs_per_sec  : 730.72\npaths_total    : 687\npaths_favored  : 190\npaths_found    : 686\npaths_imported : 0\nmax_depth      : 6\ncur_path       : 518\npending_favs   : 56\npending_total  : 510\nvariable_paths : 0\nbitmap_cvg     : 2.59%\nunique_crashes : 0\nunique_hangs   : 4\nlast_path      : 1500208969\nlast_crash     : 0\nlast_hang      : 1500208709\nexec_timeout   : 20\nafl_banner     : fuzzer-master\nafl_version    : 1.85b\ncommand_line   : /home/skaramcheti/.virtualenvs/afl/bin/afl-unix/afl-fuzz -i /dev/shm/work/Lazybox/input -o /dev/shm/work/Lazybox/sync -m 4G -Q -M fuzzer-master -x /dev/shm/work/Lazybox/Lazybox.dict -- data/linux/processed-challenges/Lazybox/bin/Lazybox\n'
p179
I5
tp180
a.