(lp0
(I0
S'start_time     : 1500339061\nlast_update    : 1500339061\nfuzzer_pid     : 2523\ncycles_done    : 0\nexecs_done     : 10\nexecs_per_sec  : 172.41\npaths_total    : 1\npaths_favored  : 1\npaths_found    : 0\npaths_imported : 0\nmax_depth      : 1\ncur_path       : 0\npending_favs   : 1\npending_total  : 1\nvariable_paths : 0\nbitmap_cvg     : 0.07%\nunique_crashes : 0\nunique_hangs   : 0\nlast_path      : 0\nlast_crash     : 0\nlast_hang      : 0\nexec_timeout   : 20\nafl_banner     : fuzzer-master\nafl_version    : 1.85b\ncommand_line   : /home/skaramcheti/.virtualenvs/afl/bin/afl-unix/afl-fuzz -i /dev/shm/work/Estadio/input -o /dev/shm/work/Estadio/sync -m 4G -Q -M fuzzer-master -x /dev/shm/work/Estadio/Estadio.dict -- data/linux/processed-challenges/Estadio/bin/Estadio\n'
p1
I4
tp2
a(I120
S'start_time     : 1500339061\nlast_update    : 1500339181\nfuzzer_pid     : 2523\ncycles_done    : 0\nexecs_done     : 97443\nexecs_per_sec  : 782.69\npaths_total    : 7\npaths_favored  : 5\npaths_found    : 6\npaths_imported : 0\nmax_depth      : 3\ncur_path       : 4\npending_favs   : 2\npending_total  : 4\nvariable_paths : 0\nbitmap_cvg     : 0.14%\nunique_crashes : 0\nunique_hangs   : 0\nlast_path      : 1500339178\nlast_crash     : 0\nlast_hang      : 0\nexec_timeout   : 20\nafl_banner     : fuzzer-master\nafl_version    : 1.85b\ncommand_line   : /home/skaramcheti/.virtualenvs/afl/bin/afl-unix/afl-fuzz -i /dev/shm/work/Estadio/input -o /dev/shm/work/Estadio/sync -m 4G -Q -M fuzzer-master -x /dev/shm/work/Estadio/Estadio.dict -- data/linux/processed-challenges/Estadio/bin/Estadio\n'
p3
I3
tp4
a(I240
S'start_time     : 1500339061\nlast_update    : 1500339301\nfuzzer_pid     : 2523\ncycles_done    : 0\nexecs_done     : 194281\nexecs_per_sec  : 800.08\npaths_total    : 14\npaths_favored  : 10\npaths_found    : 13\npaths_imported : 0\nmax_depth      : 4\ncur_path       : 9\npending_favs   : 5\npending_total  : 6\nvariable_paths : 0\nbitmap_cvg     : 0.16%\nunique_crashes : 0\nunique_hangs   : 0\nlast_path      : 1500339275\nlast_crash     : 0\nlast_hang      : 0\nexec_timeout   : 20\nafl_banner     : fuzzer-master\nafl_version    : 1.85b\ncommand_line   : /home/skaramcheti/.virtualenvs/afl/bin/afl-unix/afl-fuzz -i /dev/shm/work/Estadio/input -o /dev/shm/work/Estadio/sync -m 4G -Q -M fuzzer-master -x /dev/shm/work/Estadio/Estadio.dict -- data/linux/processed-challenges/Estadio/bin/Estadio\n'
p5
I7
tp6
a(I360
S'start_time     : 1500339061\nlast_update    : 1500339421\nfuzzer_pid     : 2523\ncycles_done    : 1\nexecs_done     : 291538\nexecs_per_sec  : 822.21\npaths_total    : 14\npaths_favored  : 10\npaths_found    : 13\npaths_imported : 0\nmax_depth      : 4\ncur_path       : 10\npending_favs   : 0\npending_total  : 1\nvariable_paths : 0\nbitmap_cvg     : 0.16%\nunique_crashes : 0\nunique_hangs   : 0\nlast_path      : 1500339275\nlast_crash     : 0\nlast_hang      : 0\nexec_timeout   : 20\nafl_banner     : fuzzer-master\nafl_version    : 1.85b\ncommand_line   : /home/skaramcheti/.virtualenvs/afl/bin/afl-unix/afl-fuzz -i /dev/shm/work/Estadio/input -o /dev/shm/work/Estadio/sync -m 4G -Q -M fuzzer-master -x /dev/shm/work/Estadio/Estadio.dict -- data/linux/processed-challenges/Estadio/bin/Estadio\n'
p7
I0
tp8
a(I480
S'start_time     : 1500339061\nlast_update    : 1500339541\nfuzzer_pid     : 2523\ncycles_done    : 2\nexecs_done     : 389674\nexecs_per_sec  : 788.03\npaths_total    : 14\npaths_favored  : 10\npaths_found    : 13\npaths_imported : 0\nmax_depth      : 4\ncur_path       : 4\npending_favs   : 0\npending_total  : 0\nvariable_paths : 0\nbitmap_cvg     : 0.16%\nunique_crashes : 0\nunique_hangs   : 0\nlast_path      : 1500339275\nlast_crash     : 0\nlast_hang      : 0\nexec_timeout   : 20\nafl_banner     : fuzzer-master\nafl_version    : 1.85b\ncommand_line   : /home/skaramcheti/.virtualenvs/afl/bin/afl-unix/afl-fuzz -i /dev/shm/work/Estadio/input -o /dev/shm/work/Estadio/sync -m 4G -Q -M fuzzer-master -x /dev/shm/work/Estadio/Estadio.dict -- data/linux/processed-challenges/Estadio/bin/Estadio\n'
p9
I0
tp10
a(I600
S'start_time     : 1500339061\nlast_update    : 1500339662\nfuzzer_pid     : 2523\ncycles_done    : 2\nexecs_done     : 485879\nexecs_per_sec  : 768.25\npaths_total    : 14\npaths_favored  : 10\npaths_found    : 13\npaths_imported : 0\nmax_depth      : 4\ncur_path       : 10\npending_favs   : 0\npending_total  : 0\nvariable_paths : 0\nbitmap_cvg     : 0.16%\nunique_crashes : 0\nunique_hangs   : 0\nlast_path      : 1500339275\nlast_crash     : 0\nlast_hang      : 0\nexec_timeout   : 20\nafl_banner     : fuzzer-master\nafl_version    : 1.85b\ncommand_line   : /home/skaramcheti/.virtualenvs/afl/bin/afl-unix/afl-fuzz -i /dev/shm/work/Estadio/input -o /dev/shm/work/Estadio/sync -m 4G -Q -M fuzzer-master -x /dev/shm/work/Estadio/Estadio.dict -- data/linux/processed-challenges/Estadio/bin/Estadio\n'
p11
I0
tp12
a(I720
S'start_time     : 1500339061\nlast_update    : 1500339782\nfuzzer_pid     : 2523\ncycles_done    : 3\nexecs_done     : 582806\nexecs_per_sec  : 806.25\npaths_total    : 14\npaths_favored  : 10\npaths_found    : 13\npaths_imported : 0\nmax_depth      : 4\ncur_path       : 0\npending_favs   : 0\npending_total  : 0\nvariable_paths : 0\nbitmap_cvg     : 0.16%\nunique_crashes : 0\nunique_hangs   : 0\nlast_path      : 1500339275\nlast_crash     : 0\nlast_hang      : 0\nexec_timeout   : 20\nafl_banner     : fuzzer-master\nafl_version    : 1.85b\ncommand_line   : /home/skaramcheti/.virtualenvs/afl/bin/afl-unix/afl-fuzz -i /dev/shm/work/Estadio/input -o /dev/shm/work/Estadio/sync -m 4G -Q -M fuzzer-master -x /dev/shm/work/Estadio/Estadio.dict -- data/linux/processed-challenges/Estadio/bin/Estadio\n'
p13
I0
tp14
a(I840
S'start_time     : 1500339061\nlast_update    : 1500339902\nfuzzer_pid     : 2523\ncycles_done    : 3\nexecs_done     : 678554\nexecs_per_sec  : 781.83\npaths_total    : 14\npaths_favored  : 10\npaths_found    : 13\npaths_imported : 0\nmax_depth      : 4\ncur_path       : 10\npending_favs   : 0\npending_total  : 0\nvariable_paths : 0\nbitmap_cvg     : 0.16%\nunique_crashes : 0\nunique_hangs   : 0\nlast_path      : 1500339275\nlast_crash     : 0\nlast_hang      : 0\nexec_timeout   : 20\nafl_banner     : fuzzer-master\nafl_version    : 1.85b\ncommand_line   : /home/skaramcheti/.virtualenvs/afl/bin/afl-unix/afl-fuzz -i /dev/shm/work/Estadio/input -o /dev/shm/work/Estadio/sync -m 4G -Q -M fuzzer-master -x /dev/shm/work/Estadio/Estadio.dict -- data/linux/processed-challenges/Estadio/bin/Estadio\n'
p15
I0
tp16
a(I960
S'start_time     : 1500339061\nlast_update    : 1500340022\nfuzzer_pid     : 2523\ncycles_done    : 3\nexecs_done     : 773239\nexecs_per_sec  : 775.78\npaths_total    : 14\npaths_favored  : 10\npaths_found    : 13\npaths_imported : 0\nmax_depth      : 4\ncur_path       : 13\npending_favs   : 0\npending_total  : 0\nvariable_paths : 0\nbitmap_cvg     : 0.16%\nunique_crashes : 0\nunique_hangs   : 0\nlast_path      : 1500339275\nlast_crash     : 0\nlast_hang      : 0\nexec_timeout   : 20\nafl_banner     : fuzzer-master\nafl_version    : 1.85b\ncommand_line   : /home/skaramcheti/.virtualenvs/afl/bin/afl-unix/afl-fuzz -i /dev/shm/work/Estadio/input -o /dev/shm/work/Estadio/sync -m 4G -Q -M fuzzer-master -x /dev/shm/work/Estadio/Estadio.dict -- data/linux/processed-challenges/Estadio/bin/Estadio\n'
p17
I0
tp18
a(I1080
S'start_time     : 1500339061\nlast_update    : 1500340142\nfuzzer_pid     : 2523\ncycles_done    : 4\nexecs_done     : 870289\nexecs_per_sec  : 795.31\npaths_total    : 14\npaths_favored  : 10\npaths_found    : 13\npaths_imported : 0\nmax_depth      : 4\ncur_path       : 9\npending_favs   : 0\npending_total  : 0\nvariable_paths : 0\nbitmap_cvg     : 0.16%\nunique_crashes : 0\nunique_hangs   : 0\nlast_path      : 1500339275\nlast_crash     : 0\nlast_hang      : 0\nexec_timeout   : 20\nafl_banner     : fuzzer-master\nafl_version    : 1.85b\ncommand_line   : /home/skaramcheti/.virtualenvs/afl/bin/afl-unix/afl-fuzz -i /dev/shm/work/Estadio/input -o /dev/shm/work/Estadio/sync -m 4G -Q -M fuzzer-master -x /dev/shm/work/Estadio/Estadio.dict -- data/linux/processed-challenges/Estadio/bin/Estadio\n'
p19
I0
tp20
a(I1200
S'start_time     : 1500339061\nlast_update    : 1500340263\nfuzzer_pid     : 2523\ncycles_done    : 4\nexecs_done     : 966794\nexecs_per_sec  : 795.54\npaths_total    : 14\npaths_favored  : 10\npaths_found    : 13\npaths_imported : 0\nmax_depth      : 4\ncur_path       : 12\npending_favs   : 0\npending_total  : 0\nvariable_paths : 0\nbitmap_cvg     : 0.16%\nunique_crashes : 0\nunique_hangs   : 1\nlast_path      : 1500339275\nlast_crash     : 0\nlast_hang      : 1500340252\nexec_timeout   : 20\nafl_banner     : fuzzer-master\nafl_version    : 1.85b\ncommand_line   : /home/skaramcheti/.virtualenvs/afl/bin/afl-unix/afl-fuzz -i /dev/shm/work/Estadio/input -o /dev/shm/work/Estadio/sync -m 4G -Q -M fuzzer-master -x /dev/shm/work/Estadio/Estadio.dict -- data/linux/processed-challenges/Estadio/bin/Estadio\n'
p21
I0
tp22
a(I1320
S'start_time     : 1500339061\nlast_update    : 1500340383\nfuzzer_pid     : 2523\ncycles_done    : 5\nexecs_done     : 1060014\nexecs_per_sec  : 794.94\npaths_total    : 14\npaths_favored  : 10\npaths_found    : 13\npaths_imported : 0\nmax_depth      : 4\ncur_path       : 7\npending_favs   : 0\npending_total  : 0\nvariable_paths : 0\nbitmap_cvg     : 0.16%\nunique_crashes : 0\nunique_hangs   : 1\nlast_path      : 1500339275\nlast_crash     : 0\nlast_hang      : 1500340252\nexec_timeout   : 20\nafl_banner     : fuzzer-master\nafl_version    : 1.85b\ncommand_line   : /home/skaramcheti/.virtualenvs/afl/bin/afl-unix/afl-fuzz -i /dev/shm/work/Estadio/input -o /dev/shm/work/Estadio/sync -m 4G -Q -M fuzzer-master -x /dev/shm/work/Estadio/Estadio.dict -- data/linux/processed-challenges/Estadio/bin/Estadio\n'
p23
I0
tp24
a(I1440
S'start_time     : 1500339061\nlast_update    : 1500340503\nfuzzer_pid     : 2523\ncycles_done    : 5\nexecs_done     : 1153729\nexecs_per_sec  : 809.94\npaths_total    : 14\npaths_favored  : 10\npaths_found    : 13\npaths_imported : 0\nmax_depth      : 4\ncur_path       : 11\npending_favs   : 0\npending_total  : 0\nvariable_paths : 0\nbitmap_cvg     : 0.16%\nunique_crashes : 0\nunique_hangs   : 1\nlast_path      : 1500339275\nlast_crash     : 0\nlast_hang      : 1500340252\nexec_timeout   : 20\nafl_banner     : fuzzer-master\nafl_version    : 1.85b\ncommand_line   : /home/skaramcheti/.virtualenvs/afl/bin/afl-unix/afl-fuzz -i /dev/shm/work/Estadio/input -o /dev/shm/work/Estadio/sync -m 4G -Q -M fuzzer-master -x /dev/shm/work/Estadio/Estadio.dict -- data/linux/processed-challenges/Estadio/bin/Estadio\n'
p25
I0
tp26
a(I1560
S'start_time     : 1500339061\nlast_update    : 1500340623\nfuzzer_pid     : 2523\ncycles_done    : 6\nexecs_done     : 1249611\nexecs_per_sec  : 835.56\npaths_total    : 14\npaths_favored  : 10\npaths_found    : 13\npaths_imported : 0\nmax_depth      : 4\ncur_path       : 2\npending_favs   : 0\npending_total  : 0\nvariable_paths : 0\nbitmap_cvg     : 0.16%\nunique_crashes : 0\nunique_hangs   : 1\nlast_path      : 1500339275\nlast_crash     : 0\nlast_hang      : 1500340252\nexec_timeout   : 20\nafl_banner     : fuzzer-master\nafl_version    : 1.85b\ncommand_line   : /home/skaramcheti/.virtualenvs/afl/bin/afl-unix/afl-fuzz -i /dev/shm/work/Estadio/input -o /dev/shm/work/Estadio/sync -m 4G -Q -M fuzzer-master -x /dev/shm/work/Estadio/Estadio.dict -- data/linux/processed-challenges/Estadio/bin/Estadio\n'
p27
I0
tp28
a(I1680
S'start_time     : 1500339061\nlast_update    : 1500340743\nfuzzer_pid     : 2523\ncycles_done    : 6\nexecs_done     : 1345169\nexecs_per_sec  : 791.51\npaths_total    : 14\npaths_favored  : 10\npaths_found    : 13\npaths_imported : 0\nmax_depth      : 4\ncur_path       : 11\npending_favs   : 0\npending_total  : 0\nvariable_paths : 0\nbitmap_cvg     : 0.16%\nunique_crashes : 0\nunique_hangs   : 1\nlast_path      : 1500339275\nlast_crash     : 0\nlast_hang      : 1500340252\nexec_timeout   : 20\nafl_banner     : fuzzer-master\nafl_version    : 1.85b\ncommand_line   : /home/skaramcheti/.virtualenvs/afl/bin/afl-unix/afl-fuzz -i /dev/shm/work/Estadio/input -o /dev/shm/work/Estadio/sync -m 4G -Q -M fuzzer-master -x /dev/shm/work/Estadio/Estadio.dict -- data/linux/processed-challenges/Estadio/bin/Estadio\n'
p29
I0
tp30
a(I1800
S'start_time     : 1500339061\nlast_update    : 1500340864\nfuzzer_pid     : 2523\ncycles_done    : 7\nexecs_done     : 1440873\nexecs_per_sec  : 835.08\npaths_total    : 14\npaths_favored  : 10\npaths_found    : 13\npaths_imported : 0\nmax_depth      : 4\ncur_path       : 1\npending_favs   : 0\npending_total  : 0\nvariable_paths : 0\nbitmap_cvg     : 0.16%\nunique_crashes : 0\nunique_hangs   : 1\nlast_path      : 1500339275\nlast_crash     : 0\nlast_hang      : 1500340252\nexec_timeout   : 20\nafl_banner     : fuzzer-master\nafl_version    : 1.85b\ncommand_line   : /home/skaramcheti/.virtualenvs/afl/bin/afl-unix/afl-fuzz -i /dev/shm/work/Estadio/input -o /dev/shm/work/Estadio/sync -m 4G -Q -M fuzzer-master -x /dev/shm/work/Estadio/Estadio.dict -- data/linux/processed-challenges/Estadio/bin/Estadio\n'
p31
I0
tp32
a(I1920
S'start_time     : 1500339061\nlast_update    : 1500340984\nfuzzer_pid     : 2523\ncycles_done    : 7\nexecs_done     : 1537709\nexecs_per_sec  : 787.31\npaths_total    : 14\npaths_favored  : 10\npaths_found    : 13\npaths_imported : 0\nmax_depth      : 4\ncur_path       : 11\npending_favs   : 0\npending_total  : 0\nvariable_paths : 0\nbitmap_cvg     : 0.16%\nunique_crashes : 0\nunique_hangs   : 1\nlast_path      : 1500339275\nlast_crash     : 0\nlast_hang      : 1500340252\nexec_timeout   : 20\nafl_banner     : fuzzer-master\nafl_version    : 1.85b\ncommand_line   : /home/skaramcheti/.virtualenvs/afl/bin/afl-unix/afl-fuzz -i /dev/shm/work/Estadio/input -o /dev/shm/work/Estadio/sync -m 4G -Q -M fuzzer-master -x /dev/shm/work/Estadio/Estadio.dict -- data/linux/processed-challenges/Estadio/bin/Estadio\n'
p33
I0
tp34
a(I2040
S'start_time     : 1500339061\nlast_update    : 1500341104\nfuzzer_pid     : 2523\ncycles_done    : 8\nexecs_done     : 1632214\nexecs_per_sec  : 791.64\npaths_total    : 14\npaths_favored  : 10\npaths_found    : 13\npaths_imported : 0\nmax_depth      : 4\ncur_path       : 1\npending_favs   : 0\npending_total  : 0\nvariable_paths : 0\nbitmap_cvg     : 0.16%\nunique_crashes : 0\nunique_hangs   : 1\nlast_path      : 1500339275\nlast_crash     : 0\nlast_hang      : 1500340252\nexec_timeout   : 20\nafl_banner     : fuzzer-master\nafl_version    : 1.85b\ncommand_line   : /home/skaramcheti/.virtualenvs/afl/bin/afl-unix/afl-fuzz -i /dev/shm/work/Estadio/input -o /dev/shm/work/Estadio/sync -m 4G -Q -M fuzzer-master -x /dev/shm/work/Estadio/Estadio.dict -- data/linux/processed-challenges/Estadio/bin/Estadio\n'
p35
I0
tp36
a(I2160
S'start_time     : 1500339061\nlast_update    : 1500341224\nfuzzer_pid     : 2523\ncycles_done    : 8\nexecs_done     : 1727259\nexecs_per_sec  : 807.70\npaths_total    : 14\npaths_favored  : 10\npaths_found    : 13\npaths_imported : 0\nmax_depth      : 4\ncur_path       : 10\npending_favs   : 0\npending_total  : 0\nvariable_paths : 0\nbitmap_cvg     : 0.16%\nunique_crashes : 0\nunique_hangs   : 1\nlast_path      : 1500339275\nlast_crash     : 0\nlast_hang      : 1500340252\nexec_timeout   : 20\nafl_banner     : fuzzer-master\nafl_version    : 1.85b\ncommand_line   : /home/skaramcheti/.virtualenvs/afl/bin/afl-unix/afl-fuzz -i /dev/shm/work/Estadio/input -o /dev/shm/work/Estadio/sync -m 4G -Q -M fuzzer-master -x /dev/shm/work/Estadio/Estadio.dict -- data/linux/processed-challenges/Estadio/bin/Estadio\n'
p37
I0
tp38
a(I2280
S'start_time     : 1500339061\nlast_update    : 1500341344\nfuzzer_pid     : 2523\ncycles_done    : 8\nexecs_done     : 1823734\nexecs_per_sec  : 800.78\npaths_total    : 14\npaths_favored  : 10\npaths_found    : 13\npaths_imported : 0\nmax_depth      : 4\ncur_path       : 13\npending_favs   : 0\npending_total  : 0\nvariable_paths : 0\nbitmap_cvg     : 0.16%\nunique_crashes : 0\nunique_hangs   : 1\nlast_path      : 1500339275\nlast_crash     : 0\nlast_hang      : 1500340252\nexec_timeout   : 20\nafl_banner     : fuzzer-master\nafl_version    : 1.85b\ncommand_line   : /home/skaramcheti/.virtualenvs/afl/bin/afl-unix/afl-fuzz -i /dev/shm/work/Estadio/input -o /dev/shm/work/Estadio/sync -m 4G -Q -M fuzzer-master -x /dev/shm/work/Estadio/Estadio.dict -- data/linux/processed-challenges/Estadio/bin/Estadio\n'
p39
I0
tp40
a(I2400
S'start_time     : 1500339061\nlast_update    : 1500341464\nfuzzer_pid     : 2523\ncycles_done    : 9\nexecs_done     : 1920509\nexecs_per_sec  : 800.85\npaths_total    : 14\npaths_favored  : 10\npaths_found    : 13\npaths_imported : 0\nmax_depth      : 4\ncur_path       : 9\npending_favs   : 0\npending_total  : 0\nvariable_paths : 0\nbitmap_cvg     : 0.16%\nunique_crashes : 0\nunique_hangs   : 1\nlast_path      : 1500339275\nlast_crash     : 0\nlast_hang      : 1500340252\nexec_timeout   : 20\nafl_banner     : fuzzer-master\nafl_version    : 1.85b\ncommand_line   : /home/skaramcheti/.virtualenvs/afl/bin/afl-unix/afl-fuzz -i /dev/shm/work/Estadio/input -o /dev/shm/work/Estadio/sync -m 4G -Q -M fuzzer-master -x /dev/shm/work/Estadio/Estadio.dict -- data/linux/processed-challenges/Estadio/bin/Estadio\n'
p41
I0
tp42
a(I2520
S'start_time     : 1500339061\nlast_update    : 1500341585\nfuzzer_pid     : 2523\ncycles_done    : 9\nexecs_done     : 2017221\nexecs_per_sec  : 802.25\npaths_total    : 14\npaths_favored  : 10\npaths_found    : 13\npaths_imported : 0\nmax_depth      : 4\ncur_path       : 13\npending_favs   : 0\npending_total  : 0\nvariable_paths : 0\nbitmap_cvg     : 0.16%\nunique_crashes : 0\nunique_hangs   : 1\nlast_path      : 1500339275\nlast_crash     : 0\nlast_hang      : 1500340252\nexec_timeout   : 20\nafl_banner     : fuzzer-master\nafl_version    : 1.85b\ncommand_line   : /home/skaramcheti/.virtualenvs/afl/bin/afl-unix/afl-fuzz -i /dev/shm/work/Estadio/input -o /dev/shm/work/Estadio/sync -m 4G -Q -M fuzzer-master -x /dev/shm/work/Estadio/Estadio.dict -- data/linux/processed-challenges/Estadio/bin/Estadio\n'
p43
I0
tp44
a(I2640
S'start_time     : 1500339061\nlast_update    : 1500341705\nfuzzer_pid     : 2523\ncycles_done    : 10\nexecs_done     : 2115959\nexecs_per_sec  : 828.48\npaths_total    : 14\npaths_favored  : 10\npaths_found    : 13\npaths_imported : 0\nmax_depth      : 4\ncur_path       : 9\npending_favs   : 0\npending_total  : 0\nvariable_paths : 0\nbitmap_cvg     : 0.16%\nunique_crashes : 0\nunique_hangs   : 1\nlast_path      : 1500339275\nlast_crash     : 0\nlast_hang      : 1500340252\nexec_timeout   : 20\nafl_banner     : fuzzer-master\nafl_version    : 1.85b\ncommand_line   : /home/skaramcheti/.virtualenvs/afl/bin/afl-unix/afl-fuzz -i /dev/shm/work/Estadio/input -o /dev/shm/work/Estadio/sync -m 4G -Q -M fuzzer-master -x /dev/shm/work/Estadio/Estadio.dict -- data/linux/processed-challenges/Estadio/bin/Estadio\n'
p45
I0
tp46
a(I2760
S'start_time     : 1500339061\nlast_update    : 1500341825\nfuzzer_pid     : 2523\ncycles_done    : 10\nexecs_done     : 2214559\nexecs_per_sec  : 852.06\npaths_total    : 14\npaths_favored  : 10\npaths_found    : 13\npaths_imported : 0\nmax_depth      : 4\ncur_path       : 13\npending_favs   : 0\npending_total  : 0\nvariable_paths : 0\nbitmap_cvg     : 0.16%\nunique_crashes : 0\nunique_hangs   : 1\nlast_path      : 1500339275\nlast_crash     : 0\nlast_hang      : 1500340252\nexec_timeout   : 20\nafl_banner     : fuzzer-master\nafl_version    : 1.85b\ncommand_line   : /home/skaramcheti/.virtualenvs/afl/bin/afl-unix/afl-fuzz -i /dev/shm/work/Estadio/input -o /dev/shm/work/Estadio/sync -m 4G -Q -M fuzzer-master -x /dev/shm/work/Estadio/Estadio.dict -- data/linux/processed-challenges/Estadio/bin/Estadio\n'
p47
I0
tp48
a(I2880
S'start_time     : 1500339061\nlast_update    : 1500341945\nfuzzer_pid     : 2523\ncycles_done    : 11\nexecs_done     : 2311949\nexecs_per_sec  : 782.28\npaths_total    : 14\npaths_favored  : 10\npaths_found    : 13\npaths_imported : 0\nmax_depth      : 4\ncur_path       : 9\npending_favs   : 0\npending_total  : 0\nvariable_paths : 0\nbitmap_cvg     : 0.16%\nunique_crashes : 0\nunique_hangs   : 1\nlast_path      : 1500339275\nlast_crash     : 0\nlast_hang      : 1500340252\nexec_timeout   : 20\nafl_banner     : fuzzer-master\nafl_version    : 1.85b\ncommand_line   : /home/skaramcheti/.virtualenvs/afl/bin/afl-unix/afl-fuzz -i /dev/shm/work/Estadio/input -o /dev/shm/work/Estadio/sync -m 4G -Q -M fuzzer-master -x /dev/shm/work/Estadio/Estadio.dict -- data/linux/processed-challenges/Estadio/bin/Estadio\n'
p49
I0
tp50
a(I3000
S'start_time     : 1500339061\nlast_update    : 1500342066\nfuzzer_pid     : 2523\ncycles_done    : 11\nexecs_done     : 2408354\nexecs_per_sec  : 794.60\npaths_total    : 14\npaths_favored  : 10\npaths_found    : 13\npaths_imported : 0\nmax_depth      : 4\ncur_path       : 12\npending_favs   : 0\npending_total  : 0\nvariable_paths : 0\nbitmap_cvg     : 0.16%\nunique_crashes : 0\nunique_hangs   : 1\nlast_path      : 1500339275\nlast_crash     : 0\nlast_hang      : 1500340252\nexec_timeout   : 20\nafl_banner     : fuzzer-master\nafl_version    : 1.85b\ncommand_line   : /home/skaramcheti/.virtualenvs/afl/bin/afl-unix/afl-fuzz -i /dev/shm/work/Estadio/input -o /dev/shm/work/Estadio/sync -m 4G -Q -M fuzzer-master -x /dev/shm/work/Estadio/Estadio.dict -- data/linux/processed-challenges/Estadio/bin/Estadio\n'
p51
I0
tp52
a(I3120
S'start_time     : 1500339061\nlast_update    : 1500342186\nfuzzer_pid     : 2523\ncycles_done    : 12\nexecs_done     : 2503189\nexecs_per_sec  : 785.64\npaths_total    : 14\npaths_favored  : 10\npaths_found    : 13\npaths_imported : 0\nmax_depth      : 4\ncur_path       : 7\npending_favs   : 0\npending_total  : 0\nvariable_paths : 0\nbitmap_cvg     : 0.16%\nunique_crashes : 0\nunique_hangs   : 1\nlast_path      : 1500339275\nlast_crash     : 0\nlast_hang      : 1500340252\nexec_timeout   : 20\nafl_banner     : fuzzer-master\nafl_version    : 1.85b\ncommand_line   : /home/skaramcheti/.virtualenvs/afl/bin/afl-unix/afl-fuzz -i /dev/shm/work/Estadio/input -o /dev/shm/work/Estadio/sync -m 4G -Q -M fuzzer-master -x /dev/shm/work/Estadio/Estadio.dict -- data/linux/processed-challenges/Estadio/bin/Estadio\n'
p53
I0
tp54
a(I3240
S'start_time     : 1500339061\nlast_update    : 1500342306\nfuzzer_pid     : 2523\ncycles_done    : 12\nexecs_done     : 2597114\nexecs_per_sec  : 783.88\npaths_total    : 14\npaths_favored  : 10\npaths_found    : 13\npaths_imported : 0\nmax_depth      : 4\ncur_path       : 12\npending_favs   : 0\npending_total  : 0\nvariable_paths : 0\nbitmap_cvg     : 0.16%\nunique_crashes : 0\nunique_hangs   : 1\nlast_path      : 1500339275\nlast_crash     : 0\nlast_hang      : 1500340252\nexec_timeout   : 20\nafl_banner     : fuzzer-master\nafl_version    : 1.85b\ncommand_line   : /home/skaramcheti/.virtualenvs/afl/bin/afl-unix/afl-fuzz -i /dev/shm/work/Estadio/input -o /dev/shm/work/Estadio/sync -m 4G -Q -M fuzzer-master -x /dev/shm/work/Estadio/Estadio.dict -- data/linux/processed-challenges/Estadio/bin/Estadio\n'
p55
I0
tp56
a(I3360
S'start_time     : 1500339061\nlast_update    : 1500342426\nfuzzer_pid     : 2523\ncycles_done    : 13\nexecs_done     : 2691449\nexecs_per_sec  : 773.59\npaths_total    : 14\npaths_favored  : 10\npaths_found    : 13\npaths_imported : 0\nmax_depth      : 4\ncur_path       : 5\npending_favs   : 0\npending_total  : 0\nvariable_paths : 0\nbitmap_cvg     : 0.16%\nunique_crashes : 0\nunique_hangs   : 1\nlast_path      : 1500339275\nlast_crash     : 0\nlast_hang      : 1500340252\nexec_timeout   : 20\nafl_banner     : fuzzer-master\nafl_version    : 1.85b\ncommand_line   : /home/skaramcheti/.virtualenvs/afl/bin/afl-unix/afl-fuzz -i /dev/shm/work/Estadio/input -o /dev/shm/work/Estadio/sync -m 4G -Q -M fuzzer-master -x /dev/shm/work/Estadio/Estadio.dict -- data/linux/processed-challenges/Estadio/bin/Estadio\n'
p57
I0
tp58
a(I3480
S'start_time     : 1500339061\nlast_update    : 1500342546\nfuzzer_pid     : 2523\ncycles_done    : 13\nexecs_done     : 2783979\nexecs_per_sec  : 783.38\npaths_total    : 14\npaths_favored  : 10\npaths_found    : 13\npaths_imported : 0\nmax_depth      : 4\ncur_path       : 11\npending_favs   : 0\npending_total  : 0\nvariable_paths : 0\nbitmap_cvg     : 0.16%\nunique_crashes : 0\nunique_hangs   : 1\nlast_path      : 1500339275\nlast_crash     : 0\nlast_hang      : 1500340252\nexec_timeout   : 20\nafl_banner     : fuzzer-master\nafl_version    : 1.85b\ncommand_line   : /home/skaramcheti/.virtualenvs/afl/bin/afl-unix/afl-fuzz -i /dev/shm/work/Estadio/input -o /dev/shm/work/Estadio/sync -m 4G -Q -M fuzzer-master -x /dev/shm/work/Estadio/Estadio.dict -- data/linux/processed-challenges/Estadio/bin/Estadio\n'
p59
I0
tp60
a(I3600
S'start_time     : 1500339061\nlast_update    : 1500342667\nfuzzer_pid     : 2523\ncycles_done    : 14\nexecs_done     : 2877279\nexecs_per_sec  : 794.41\npaths_total    : 14\npaths_favored  : 10\npaths_found    : 13\npaths_imported : 0\nmax_depth      : 4\ncur_path       : 1\npending_favs   : 0\npending_total  : 0\nvariable_paths : 0\nbitmap_cvg     : 0.16%\nunique_crashes : 0\nunique_hangs   : 1\nlast_path      : 1500339275\nlast_crash     : 0\nlast_hang      : 1500340252\nexec_timeout   : 20\nafl_banner     : fuzzer-master\nafl_version    : 1.85b\ncommand_line   : /home/skaramcheti/.virtualenvs/afl/bin/afl-unix/afl-fuzz -i /dev/shm/work/Estadio/input -o /dev/shm/work/Estadio/sync -m 4G -Q -M fuzzer-master -x /dev/shm/work/Estadio/Estadio.dict -- data/linux/processed-challenges/Estadio/bin/Estadio\n'
p61
I0
tp62
a(I3720
S'start_time     : 1500339061\nlast_update    : 1500342787\nfuzzer_pid     : 2523\ncycles_done    : 14\nexecs_done     : 2972229\nexecs_per_sec  : 799.73\npaths_total    : 14\npaths_favored  : 10\npaths_found    : 13\npaths_imported : 0\nmax_depth      : 4\ncur_path       : 10\npending_favs   : 0\npending_total  : 0\nvariable_paths : 0\nbitmap_cvg     : 0.16%\nunique_crashes : 0\nunique_hangs   : 1\nlast_path      : 1500339275\nlast_crash     : 0\nlast_hang      : 1500340252\nexec_timeout   : 20\nafl_banner     : fuzzer-master\nafl_version    : 1.85b\ncommand_line   : /home/skaramcheti/.virtualenvs/afl/bin/afl-unix/afl-fuzz -i /dev/shm/work/Estadio/input -o /dev/shm/work/Estadio/sync -m 4G -Q -M fuzzer-master -x /dev/shm/work/Estadio/Estadio.dict -- data/linux/processed-challenges/Estadio/bin/Estadio\n'
p63
I0
tp64
a(I3840
S'start_time     : 1500339061\nlast_update    : 1500342907\nfuzzer_pid     : 2523\ncycles_done    : 15\nexecs_done     : 3067021\nexecs_per_sec  : 807.69\npaths_total    : 14\npaths_favored  : 10\npaths_found    : 13\npaths_imported : 0\nmax_depth      : 4\ncur_path       : 0\npending_favs   : 0\npending_total  : 0\nvariable_paths : 0\nbitmap_cvg     : 0.16%\nunique_crashes : 0\nunique_hangs   : 1\nlast_path      : 1500339275\nlast_crash     : 0\nlast_hang      : 1500340252\nexec_timeout   : 20\nafl_banner     : fuzzer-master\nafl_version    : 1.85b\ncommand_line   : /home/skaramcheti/.virtualenvs/afl/bin/afl-unix/afl-fuzz -i /dev/shm/work/Estadio/input -o /dev/shm/work/Estadio/sync -m 4G -Q -M fuzzer-master -x /dev/shm/work/Estadio/Estadio.dict -- data/linux/processed-challenges/Estadio/bin/Estadio\n'
p65
I0
tp66
a(I3960
S'start_time     : 1500339061\nlast_update    : 1500343027\nfuzzer_pid     : 2523\ncycles_done    : 15\nexecs_done     : 3163261\nexecs_per_sec  : 799.15\npaths_total    : 14\npaths_favored  : 10\npaths_found    : 13\npaths_imported : 0\nmax_depth      : 4\ncur_path       : 10\npending_favs   : 0\npending_total  : 0\nvariable_paths : 0\nbitmap_cvg     : 0.16%\nunique_crashes : 0\nunique_hangs   : 1\nlast_path      : 1500339275\nlast_crash     : 0\nlast_hang      : 1500340252\nexec_timeout   : 20\nafl_banner     : fuzzer-master\nafl_version    : 1.85b\ncommand_line   : /home/skaramcheti/.virtualenvs/afl/bin/afl-unix/afl-fuzz -i /dev/shm/work/Estadio/input -o /dev/shm/work/Estadio/sync -m 4G -Q -M fuzzer-master -x /dev/shm/work/Estadio/Estadio.dict -- data/linux/processed-challenges/Estadio/bin/Estadio\n'
p67
I0
tp68
a(I4080
S'start_time     : 1500339061\nlast_update    : 1500343148\nfuzzer_pid     : 2523\ncycles_done    : 15\nexecs_done     : 3260357\nexecs_per_sec  : 805.91\npaths_total    : 14\npaths_favored  : 10\npaths_found    : 13\npaths_imported : 0\nmax_depth      : 4\ncur_path       : 13\npending_favs   : 0\npending_total  : 0\nvariable_paths : 0\nbitmap_cvg     : 0.16%\nunique_crashes : 0\nunique_hangs   : 1\nlast_path      : 1500339275\nlast_crash     : 0\nlast_hang      : 1500340252\nexec_timeout   : 20\nafl_banner     : fuzzer-master\nafl_version    : 1.85b\ncommand_line   : /home/skaramcheti/.virtualenvs/afl/bin/afl-unix/afl-fuzz -i /dev/shm/work/Estadio/input -o /dev/shm/work/Estadio/sync -m 4G -Q -M fuzzer-master -x /dev/shm/work/Estadio/Estadio.dict -- data/linux/processed-challenges/Estadio/bin/Estadio\n'
p69
I0
tp70
a(I4200
S'start_time     : 1500339061\nlast_update    : 1500343268\nfuzzer_pid     : 2523\ncycles_done    : 16\nexecs_done     : 3357743\nexecs_per_sec  : 804.78\npaths_total    : 14\npaths_favored  : 10\npaths_found    : 13\npaths_imported : 0\nmax_depth      : 4\ncur_path       : 10\npending_favs   : 0\npending_total  : 0\nvariable_paths : 0\nbitmap_cvg     : 0.16%\nunique_crashes : 0\nunique_hangs   : 1\nlast_path      : 1500339275\nlast_crash     : 0\nlast_hang      : 1500340252\nexec_timeout   : 20\nafl_banner     : fuzzer-master\nafl_version    : 1.85b\ncommand_line   : /home/skaramcheti/.virtualenvs/afl/bin/afl-unix/afl-fuzz -i /dev/shm/work/Estadio/input -o /dev/shm/work/Estadio/sync -m 4G -Q -M fuzzer-master -x /dev/shm/work/Estadio/Estadio.dict -- data/linux/processed-challenges/Estadio/bin/Estadio\n'
p71
I0
tp72
a(I4320
S'start_time     : 1500339061\nlast_update    : 1500343388\nfuzzer_pid     : 2523\ncycles_done    : 16\nexecs_done     : 3452834\nexecs_per_sec  : 787.07\npaths_total    : 14\npaths_favored  : 10\npaths_found    : 13\npaths_imported : 0\nmax_depth      : 4\ncur_path       : 13\npending_favs   : 0\npending_total  : 0\nvariable_paths : 0\nbitmap_cvg     : 0.16%\nunique_crashes : 0\nunique_hangs   : 1\nlast_path      : 1500339275\nlast_crash     : 0\nlast_hang      : 1500340252\nexec_timeout   : 20\nafl_banner     : fuzzer-master\nafl_version    : 1.85b\ncommand_line   : /home/skaramcheti/.virtualenvs/afl/bin/afl-unix/afl-fuzz -i /dev/shm/work/Estadio/input -o /dev/shm/work/Estadio/sync -m 4G -Q -M fuzzer-master -x /dev/shm/work/Estadio/Estadio.dict -- data/linux/processed-challenges/Estadio/bin/Estadio\n'
p73
I0
tp74
a(I4440
S'start_time     : 1500339061\nlast_update    : 1500343508\nfuzzer_pid     : 2523\ncycles_done    : 17\nexecs_done     : 3548759\nexecs_per_sec  : 778.06\npaths_total    : 14\npaths_favored  : 10\npaths_found    : 13\npaths_imported : 0\nmax_depth      : 4\ncur_path       : 9\npending_favs   : 0\npending_total  : 0\nvariable_paths : 0\nbitmap_cvg     : 0.16%\nunique_crashes : 0\nunique_hangs   : 1\nlast_path      : 1500339275\nlast_crash     : 0\nlast_hang      : 1500340252\nexec_timeout   : 20\nafl_banner     : fuzzer-master\nafl_version    : 1.85b\ncommand_line   : /home/skaramcheti/.virtualenvs/afl/bin/afl-unix/afl-fuzz -i /dev/shm/work/Estadio/input -o /dev/shm/work/Estadio/sync -m 4G -Q -M fuzzer-master -x /dev/shm/work/Estadio/Estadio.dict -- data/linux/processed-challenges/Estadio/bin/Estadio\n'
p75
I0
tp76
a(I4560
S'start_time     : 1500339061\nlast_update    : 1500343629\nfuzzer_pid     : 2523\ncycles_done    : 17\nexecs_done     : 3643925\nexecs_per_sec  : 805.13\npaths_total    : 14\npaths_favored  : 10\npaths_found    : 13\npaths_imported : 0\nmax_depth      : 4\ncur_path       : 12\npending_favs   : 0\npending_total  : 0\nvariable_paths : 0\nbitmap_cvg     : 0.16%\nunique_crashes : 0\nunique_hangs   : 1\nlast_path      : 1500339275\nlast_crash     : 0\nlast_hang      : 1500340252\nexec_timeout   : 20\nafl_banner     : fuzzer-master\nafl_version    : 1.85b\ncommand_line   : /home/skaramcheti/.virtualenvs/afl/bin/afl-unix/afl-fuzz -i /dev/shm/work/Estadio/input -o /dev/shm/work/Estadio/sync -m 4G -Q -M fuzzer-master -x /dev/shm/work/Estadio/Estadio.dict -- data/linux/processed-challenges/Estadio/bin/Estadio\n'
p77
I0
tp78
a(I4680
S'start_time     : 1500339061\nlast_update    : 1500343749\nfuzzer_pid     : 2523\ncycles_done    : 18\nexecs_done     : 3740064\nexecs_per_sec  : 791.66\npaths_total    : 14\npaths_favored  : 10\npaths_found    : 13\npaths_imported : 0\nmax_depth      : 4\ncur_path       : 7\npending_favs   : 0\npending_total  : 0\nvariable_paths : 0\nbitmap_cvg     : 0.16%\nunique_crashes : 0\nunique_hangs   : 1\nlast_path      : 1500339275\nlast_crash     : 0\nlast_hang      : 1500340252\nexec_timeout   : 20\nafl_banner     : fuzzer-master\nafl_version    : 1.85b\ncommand_line   : /home/skaramcheti/.virtualenvs/afl/bin/afl-unix/afl-fuzz -i /dev/shm/work/Estadio/input -o /dev/shm/work/Estadio/sync -m 4G -Q -M fuzzer-master -x /dev/shm/work/Estadio/Estadio.dict -- data/linux/processed-challenges/Estadio/bin/Estadio\n'
p79
I0
tp80
a(I4800
S'start_time     : 1500339061\nlast_update    : 1500343869\nfuzzer_pid     : 2523\ncycles_done    : 18\nexecs_done     : 3837151\nexecs_per_sec  : 824.44\npaths_total    : 14\npaths_favored  : 10\npaths_found    : 13\npaths_imported : 0\nmax_depth      : 4\ncur_path       : 11\npending_favs   : 0\npending_total  : 0\nvariable_paths : 0\nbitmap_cvg     : 0.16%\nunique_crashes : 0\nunique_hangs   : 1\nlast_path      : 1500339275\nlast_crash     : 0\nlast_hang      : 1500340252\nexec_timeout   : 20\nafl_banner     : fuzzer-master\nafl_version    : 1.85b\ncommand_line   : /home/skaramcheti/.virtualenvs/afl/bin/afl-unix/afl-fuzz -i /dev/shm/work/Estadio/input -o /dev/shm/work/Estadio/sync -m 4G -Q -M fuzzer-master -x /dev/shm/work/Estadio/Estadio.dict -- data/linux/processed-challenges/Estadio/bin/Estadio\n'
p81
I0
tp82
a(I4920
S'start_time     : 1500339061\nlast_update    : 1500343989\nfuzzer_pid     : 2523\ncycles_done    : 19\nexecs_done     : 3937165\nexecs_per_sec  : 849.86\npaths_total    : 14\npaths_favored  : 10\npaths_found    : 13\npaths_imported : 0\nmax_depth      : 4\ncur_path       : 2\npending_favs   : 0\npending_total  : 0\nvariable_paths : 0\nbitmap_cvg     : 0.16%\nunique_crashes : 0\nunique_hangs   : 1\nlast_path      : 1500339275\nlast_crash     : 0\nlast_hang      : 1500340252\nexec_timeout   : 20\nafl_banner     : fuzzer-master\nafl_version    : 1.85b\ncommand_line   : /home/skaramcheti/.virtualenvs/afl/bin/afl-unix/afl-fuzz -i /dev/shm/work/Estadio/input -o /dev/shm/work/Estadio/sync -m 4G -Q -M fuzzer-master -x /dev/shm/work/Estadio/Estadio.dict -- data/linux/processed-challenges/Estadio/bin/Estadio\n'
p83
I0
tp84
a(I5040
S'start_time     : 1500339061\nlast_update    : 1500344109\nfuzzer_pid     : 2523\ncycles_done    : 19\nexecs_done     : 4034739\nexecs_per_sec  : 798.98\npaths_total    : 14\npaths_favored  : 10\npaths_found    : 13\npaths_imported : 0\nmax_depth      : 4\ncur_path       : 11\npending_favs   : 0\npending_total  : 0\nvariable_paths : 0\nbitmap_cvg     : 0.16%\nunique_crashes : 0\nunique_hangs   : 1\nlast_path      : 1500339275\nlast_crash     : 0\nlast_hang      : 1500340252\nexec_timeout   : 20\nafl_banner     : fuzzer-master\nafl_version    : 1.85b\ncommand_line   : /home/skaramcheti/.virtualenvs/afl/bin/afl-unix/afl-fuzz -i /dev/shm/work/Estadio/input -o /dev/shm/work/Estadio/sync -m 4G -Q -M fuzzer-master -x /dev/shm/work/Estadio/Estadio.dict -- data/linux/processed-challenges/Estadio/bin/Estadio\n'
p85
I0
tp86
a(I5160
S'start_time     : 1500339061\nlast_update    : 1500344230\nfuzzer_pid     : 2523\ncycles_done    : 20\nexecs_done     : 4131979\nexecs_per_sec  : 813.10\npaths_total    : 14\npaths_favored  : 10\npaths_found    : 13\npaths_imported : 0\nmax_depth      : 4\ncur_path       : 2\npending_favs   : 0\npending_total  : 0\nvariable_paths : 0\nbitmap_cvg     : 0.16%\nunique_crashes : 0\nunique_hangs   : 1\nlast_path      : 1500339275\nlast_crash     : 0\nlast_hang      : 1500340252\nexec_timeout   : 20\nafl_banner     : fuzzer-master\nafl_version    : 1.85b\ncommand_line   : /home/skaramcheti/.virtualenvs/afl/bin/afl-unix/afl-fuzz -i /dev/shm/work/Estadio/input -o /dev/shm/work/Estadio/sync -m 4G -Q -M fuzzer-master -x /dev/shm/work/Estadio/Estadio.dict -- data/linux/processed-challenges/Estadio/bin/Estadio\n'
p87
I0
tp88
a(I5280
S'start_time     : 1500339061\nlast_update    : 1500344350\nfuzzer_pid     : 2523\ncycles_done    : 20\nexecs_done     : 4228279\nexecs_per_sec  : 772.65\npaths_total    : 14\npaths_favored  : 10\npaths_found    : 13\npaths_imported : 0\nmax_depth      : 4\ncur_path       : 11\npending_favs   : 0\npending_total  : 0\nvariable_paths : 0\nbitmap_cvg     : 0.16%\nunique_crashes : 0\nunique_hangs   : 1\nlast_path      : 1500339275\nlast_crash     : 0\nlast_hang      : 1500340252\nexec_timeout   : 20\nafl_banner     : fuzzer-master\nafl_version    : 1.85b\ncommand_line   : /home/skaramcheti/.virtualenvs/afl/bin/afl-unix/afl-fuzz -i /dev/shm/work/Estadio/input -o /dev/shm/work/Estadio/sync -m 4G -Q -M fuzzer-master -x /dev/shm/work/Estadio/Estadio.dict -- data/linux/processed-challenges/Estadio/bin/Estadio\n'
p89
I0
tp90
a(I5400
S'start_time     : 1500339061\nlast_update    : 1500344470\nfuzzer_pid     : 2523\ncycles_done    : 21\nexecs_done     : 4324064\nexecs_per_sec  : 780.62\npaths_total    : 14\npaths_favored  : 10\npaths_found    : 13\npaths_imported : 0\nmax_depth      : 4\ncur_path       : 0\npending_favs   : 0\npending_total  : 0\nvariable_paths : 0\nbitmap_cvg     : 0.16%\nunique_crashes : 0\nunique_hangs   : 1\nlast_path      : 1500339275\nlast_crash     : 0\nlast_hang      : 1500340252\nexec_timeout   : 20\nafl_banner     : fuzzer-master\nafl_version    : 1.85b\ncommand_line   : /home/skaramcheti/.virtualenvs/afl/bin/afl-unix/afl-fuzz -i /dev/shm/work/Estadio/input -o /dev/shm/work/Estadio/sync -m 4G -Q -M fuzzer-master -x /dev/shm/work/Estadio/Estadio.dict -- data/linux/processed-challenges/Estadio/bin/Estadio\n'
p91
I0
tp92
a(I5520
S'start_time     : 1500339061\nlast_update    : 1500344591\nfuzzer_pid     : 2523\ncycles_done    : 21\nexecs_done     : 4421133\nexecs_per_sec  : 818.40\npaths_total    : 14\npaths_favored  : 10\npaths_found    : 13\npaths_imported : 0\nmax_depth      : 4\ncur_path       : 10\npending_favs   : 0\npending_total  : 0\nvariable_paths : 0\nbitmap_cvg     : 0.16%\nunique_crashes : 0\nunique_hangs   : 1\nlast_path      : 1500339275\nlast_crash     : 0\nlast_hang      : 1500340252\nexec_timeout   : 20\nafl_banner     : fuzzer-master\nafl_version    : 1.85b\ncommand_line   : /home/skaramcheti/.virtualenvs/afl/bin/afl-unix/afl-fuzz -i /dev/shm/work/Estadio/input -o /dev/shm/work/Estadio/sync -m 4G -Q -M fuzzer-master -x /dev/shm/work/Estadio/Estadio.dict -- data/linux/processed-challenges/Estadio/bin/Estadio\n'
p93
I0
tp94
a(I5640
S'start_time     : 1500339061\nlast_update    : 1500344711\nfuzzer_pid     : 2523\ncycles_done    : 22\nexecs_done     : 4519082\nexecs_per_sec  : 822.64\npaths_total    : 14\npaths_favored  : 10\npaths_found    : 13\npaths_imported : 0\nmax_depth      : 4\ncur_path       : 0\npending_favs   : 0\npending_total  : 0\nvariable_paths : 0\nbitmap_cvg     : 0.16%\nunique_crashes : 0\nunique_hangs   : 1\nlast_path      : 1500339275\nlast_crash     : 0\nlast_hang      : 1500340252\nexec_timeout   : 20\nafl_banner     : fuzzer-master\nafl_version    : 1.85b\ncommand_line   : /home/skaramcheti/.virtualenvs/afl/bin/afl-unix/afl-fuzz -i /dev/shm/work/Estadio/input -o /dev/shm/work/Estadio/sync -m 4G -Q -M fuzzer-master -x /dev/shm/work/Estadio/Estadio.dict -- data/linux/processed-challenges/Estadio/bin/Estadio\n'
p95
I0
tp96
a(I5760
S'start_time     : 1500339061\nlast_update    : 1500344831\nfuzzer_pid     : 2523\ncycles_done    : 22\nexecs_done     : 4616007\nexecs_per_sec  : 832.77\npaths_total    : 14\npaths_favored  : 10\npaths_found    : 13\npaths_imported : 0\nmax_depth      : 4\ncur_path       : 10\npending_favs   : 0\npending_total  : 0\nvariable_paths : 0\nbitmap_cvg     : 0.16%\nunique_crashes : 0\nunique_hangs   : 1\nlast_path      : 1500339275\nlast_crash     : 0\nlast_hang      : 1500340252\nexec_timeout   : 20\nafl_banner     : fuzzer-master\nafl_version    : 1.85b\ncommand_line   : /home/skaramcheti/.virtualenvs/afl/bin/afl-unix/afl-fuzz -i /dev/shm/work/Estadio/input -o /dev/shm/work/Estadio/sync -m 4G -Q -M fuzzer-master -x /dev/shm/work/Estadio/Estadio.dict -- data/linux/processed-challenges/Estadio/bin/Estadio\n'
p97
I0
tp98
a(I5880
S'start_time     : 1500339061\nlast_update    : 1500344951\nfuzzer_pid     : 2523\ncycles_done    : 23\nexecs_done     : 4713646\nexecs_per_sec  : 822.96\npaths_total    : 14\npaths_favored  : 10\npaths_found    : 13\npaths_imported : 0\nmax_depth      : 4\ncur_path       : 0\npending_favs   : 0\npending_total  : 0\nvariable_paths : 0\nbitmap_cvg     : 0.16%\nunique_crashes : 0\nunique_hangs   : 1\nlast_path      : 1500339275\nlast_crash     : 0\nlast_hang      : 1500340252\nexec_timeout   : 20\nafl_banner     : fuzzer-master\nafl_version    : 1.85b\ncommand_line   : /home/skaramcheti/.virtualenvs/afl/bin/afl-unix/afl-fuzz -i /dev/shm/work/Estadio/input -o /dev/shm/work/Estadio/sync -m 4G -Q -M fuzzer-master -x /dev/shm/work/Estadio/Estadio.dict -- data/linux/processed-challenges/Estadio/bin/Estadio\n'
p99
I0
tp100
a(I6000
S'start_time     : 1500339061\nlast_update    : 1500345071\nfuzzer_pid     : 2523\ncycles_done    : 23\nexecs_done     : 4810524\nexecs_per_sec  : 797.86\npaths_total    : 14\npaths_favored  : 10\npaths_found    : 13\npaths_imported : 0\nmax_depth      : 4\ncur_path       : 10\npending_favs   : 0\npending_total  : 0\nvariable_paths : 0\nbitmap_cvg     : 0.16%\nunique_crashes : 0\nunique_hangs   : 1\nlast_path      : 1500339275\nlast_crash     : 0\nlast_hang      : 1500340252\nexec_timeout   : 20\nafl_banner     : fuzzer-master\nafl_version    : 1.85b\ncommand_line   : /home/skaramcheti/.virtualenvs/afl/bin/afl-unix/afl-fuzz -i /dev/shm/work/Estadio/input -o /dev/shm/work/Estadio/sync -m 4G -Q -M fuzzer-master -x /dev/shm/work/Estadio/Estadio.dict -- data/linux/processed-challenges/Estadio/bin/Estadio\n'
p101
I0
tp102
a(I6120
S'start_time     : 1500339061\nlast_update    : 1500345192\nfuzzer_pid     : 2523\ncycles_done    : 23\nexecs_done     : 4908389\nexecs_per_sec  : 827.91\npaths_total    : 14\npaths_favored  : 10\npaths_found    : 13\npaths_imported : 0\nmax_depth      : 4\ncur_path       : 13\npending_favs   : 0\npending_total  : 0\nvariable_paths : 0\nbitmap_cvg     : 0.16%\nunique_crashes : 0\nunique_hangs   : 1\nlast_path      : 1500339275\nlast_crash     : 0\nlast_hang      : 1500340252\nexec_timeout   : 20\nafl_banner     : fuzzer-master\nafl_version    : 1.85b\ncommand_line   : /home/skaramcheti/.virtualenvs/afl/bin/afl-unix/afl-fuzz -i /dev/shm/work/Estadio/input -o /dev/shm/work/Estadio/sync -m 4G -Q -M fuzzer-master -x /dev/shm/work/Estadio/Estadio.dict -- data/linux/processed-challenges/Estadio/bin/Estadio\n'
p103
I0
tp104
a(I6240
S'start_time     : 1500339061\nlast_update    : 1500345312\nfuzzer_pid     : 2523\ncycles_done    : 24\nexecs_done     : 5007223\nexecs_per_sec  : 824.13\npaths_total    : 14\npaths_favored  : 10\npaths_found    : 13\npaths_imported : 0\nmax_depth      : 4\ncur_path       : 9\npending_favs   : 0\npending_total  : 0\nvariable_paths : 0\nbitmap_cvg     : 0.16%\nunique_crashes : 0\nunique_hangs   : 1\nlast_path      : 1500339275\nlast_crash     : 0\nlast_hang      : 1500340252\nexec_timeout   : 20\nafl_banner     : fuzzer-master\nafl_version    : 1.85b\ncommand_line   : /home/skaramcheti/.virtualenvs/afl/bin/afl-unix/afl-fuzz -i /dev/shm/work/Estadio/input -o /dev/shm/work/Estadio/sync -m 4G -Q -M fuzzer-master -x /dev/shm/work/Estadio/Estadio.dict -- data/linux/processed-challenges/Estadio/bin/Estadio\n'
p105
I0
tp106
a(I6360
S'start_time     : 1500339061\nlast_update    : 1500345432\nfuzzer_pid     : 2523\ncycles_done    : 24\nexecs_done     : 5106900\nexecs_per_sec  : 856.66\npaths_total    : 14\npaths_favored  : 10\npaths_found    : 13\npaths_imported : 0\nmax_depth      : 4\ncur_path       : 13\npending_favs   : 0\npending_total  : 0\nvariable_paths : 0\nbitmap_cvg     : 0.16%\nunique_crashes : 0\nunique_hangs   : 1\nlast_path      : 1500339275\nlast_crash     : 0\nlast_hang      : 1500340252\nexec_timeout   : 20\nafl_banner     : fuzzer-master\nafl_version    : 1.85b\ncommand_line   : /home/skaramcheti/.virtualenvs/afl/bin/afl-unix/afl-fuzz -i /dev/shm/work/Estadio/input -o /dev/shm/work/Estadio/sync -m 4G -Q -M fuzzer-master -x /dev/shm/work/Estadio/Estadio.dict -- data/linux/processed-challenges/Estadio/bin/Estadio\n'
p107
I0
tp108
a(I6480
S'start_time     : 1500339061\nlast_update    : 1500345552\nfuzzer_pid     : 2523\ncycles_done    : 25\nexecs_done     : 5206969\nexecs_per_sec  : 842.17\npaths_total    : 14\npaths_favored  : 10\npaths_found    : 13\npaths_imported : 0\nmax_depth      : 4\ncur_path       : 9\npending_favs   : 0\npending_total  : 0\nvariable_paths : 0\nbitmap_cvg     : 0.16%\nunique_crashes : 0\nunique_hangs   : 1\nlast_path      : 1500339275\nlast_crash     : 0\nlast_hang      : 1500340252\nexec_timeout   : 20\nafl_banner     : fuzzer-master\nafl_version    : 1.85b\ncommand_line   : /home/skaramcheti/.virtualenvs/afl/bin/afl-unix/afl-fuzz -i /dev/shm/work/Estadio/input -o /dev/shm/work/Estadio/sync -m 4G -Q -M fuzzer-master -x /dev/shm/work/Estadio/Estadio.dict -- data/linux/processed-challenges/Estadio/bin/Estadio\n'
p109
I0
tp110
a(I6600
S'start_time     : 1500339061\nlast_update    : 1500345672\nfuzzer_pid     : 2523\ncycles_done    : 25\nexecs_done     : 5305441\nexecs_per_sec  : 810.95\npaths_total    : 14\npaths_favored  : 10\npaths_found    : 13\npaths_imported : 0\nmax_depth      : 4\ncur_path       : 13\npending_favs   : 0\npending_total  : 0\nvariable_paths : 0\nbitmap_cvg     : 0.16%\nunique_crashes : 0\nunique_hangs   : 1\nlast_path      : 1500339275\nlast_crash     : 0\nlast_hang      : 1500340252\nexec_timeout   : 20\nafl_banner     : fuzzer-master\nafl_version    : 1.85b\ncommand_line   : /home/skaramcheti/.virtualenvs/afl/bin/afl-unix/afl-fuzz -i /dev/shm/work/Estadio/input -o /dev/shm/work/Estadio/sync -m 4G -Q -M fuzzer-master -x /dev/shm/work/Estadio/Estadio.dict -- data/linux/processed-challenges/Estadio/bin/Estadio\n'
p111
I0
tp112
a(I6720
S'start_time     : 1500339061\nlast_update    : 1500345793\nfuzzer_pid     : 2523\ncycles_done    : 26\nexecs_done     : 5404652\nexecs_per_sec  : 844.99\npaths_total    : 14\npaths_favored  : 10\npaths_found    : 13\npaths_imported : 0\nmax_depth      : 4\ncur_path       : 9\npending_favs   : 0\npending_total  : 0\nvariable_paths : 0\nbitmap_cvg     : 0.16%\nunique_crashes : 0\nunique_hangs   : 1\nlast_path      : 1500339275\nlast_crash     : 0\nlast_hang      : 1500340252\nexec_timeout   : 20\nafl_banner     : fuzzer-master\nafl_version    : 1.85b\ncommand_line   : /home/skaramcheti/.virtualenvs/afl/bin/afl-unix/afl-fuzz -i /dev/shm/work/Estadio/input -o /dev/shm/work/Estadio/sync -m 4G -Q -M fuzzer-master -x /dev/shm/work/Estadio/Estadio.dict -- data/linux/processed-challenges/Estadio/bin/Estadio\n'
p113
I0
tp114
a(I6840
S'start_time     : 1500339061\nlast_update    : 1500345913\nfuzzer_pid     : 2523\ncycles_done    : 26\nexecs_done     : 5503687\nexecs_per_sec  : 822.89\npaths_total    : 14\npaths_favored  : 10\npaths_found    : 13\npaths_imported : 0\nmax_depth      : 4\ncur_path       : 12\npending_favs   : 0\npending_total  : 0\nvariable_paths : 0\nbitmap_cvg     : 0.16%\nunique_crashes : 0\nunique_hangs   : 1\nlast_path      : 1500339275\nlast_crash     : 0\nlast_hang      : 1500340252\nexec_timeout   : 20\nafl_banner     : fuzzer-master\nafl_version    : 1.85b\ncommand_line   : /home/skaramcheti/.virtualenvs/afl/bin/afl-unix/afl-fuzz -i /dev/shm/work/Estadio/input -o /dev/shm/work/Estadio/sync -m 4G -Q -M fuzzer-master -x /dev/shm/work/Estadio/Estadio.dict -- data/linux/processed-challenges/Estadio/bin/Estadio\n'
p115
I0
tp116
a(I6960
S'start_time     : 1500339061\nlast_update    : 1500346033\nfuzzer_pid     : 2523\ncycles_done    : 27\nexecs_done     : 5602857\nexecs_per_sec  : 806.70\npaths_total    : 14\npaths_favored  : 10\npaths_found    : 13\npaths_imported : 0\nmax_depth      : 4\ncur_path       : 9\npending_favs   : 0\npending_total  : 0\nvariable_paths : 0\nbitmap_cvg     : 0.16%\nunique_crashes : 0\nunique_hangs   : 1\nlast_path      : 1500339275\nlast_crash     : 0\nlast_hang      : 1500340252\nexec_timeout   : 20\nafl_banner     : fuzzer-master\nafl_version    : 1.85b\ncommand_line   : /home/skaramcheti/.virtualenvs/afl/bin/afl-unix/afl-fuzz -i /dev/shm/work/Estadio/input -o /dev/shm/work/Estadio/sync -m 4G -Q -M fuzzer-master -x /dev/shm/work/Estadio/Estadio.dict -- data/linux/processed-challenges/Estadio/bin/Estadio\n'
p117
I0
tp118
a(I7080
S'start_time     : 1500339061\nlast_update    : 1500346093\nfuzzer_pid     : 2523\ncycles_done    : 27\nexecs_done     : 5651601\nexecs_per_sec  : 810.80\npaths_total    : 14\npaths_favored  : 10\npaths_found    : 13\npaths_imported : 0\nmax_depth      : 4\ncur_path       : 11\npending_favs   : 0\npending_total  : 0\nvariable_paths : 0\nbitmap_cvg     : 0.16%\nunique_crashes : 0\nunique_hangs   : 1\nlast_path      : 1500339275\nlast_crash     : 0\nlast_hang      : 1500340252\nexec_timeout   : 20\nafl_banner     : fuzzer-master\nafl_version    : 1.85b\ncommand_line   : /home/skaramcheti/.virtualenvs/afl/bin/afl-unix/afl-fuzz -i /dev/shm/work/Estadio/input -o /dev/shm/work/Estadio/sync -m 4G -Q -M fuzzer-master -x /dev/shm/work/Estadio/Estadio.dict -- data/linux/processed-challenges/Estadio/bin/Estadio\n'
p119
I0
tp120
a(I7200
S'start_time     : 1500339061\nlast_update    : 1500346214\nfuzzer_pid     : 2523\ncycles_done    : 28\nexecs_done     : 5749809\nexecs_per_sec  : 796.15\npaths_total    : 14\npaths_favored  : 10\npaths_found    : 13\npaths_imported : 0\nmax_depth      : 4\ncur_path       : 1\npending_favs   : 0\npending_total  : 0\nvariable_paths : 0\nbitmap_cvg     : 0.16%\nunique_crashes : 0\nunique_hangs   : 1\nlast_path      : 1500339275\nlast_crash     : 0\nlast_hang      : 1500340252\nexec_timeout   : 20\nafl_banner     : fuzzer-master\nafl_version    : 1.85b\ncommand_line   : /home/skaramcheti/.virtualenvs/afl/bin/afl-unix/afl-fuzz -i /dev/shm/work/Estadio/input -o /dev/shm/work/Estadio/sync -m 4G -Q -M fuzzer-master -x /dev/shm/work/Estadio/Estadio.dict -- data/linux/processed-challenges/Estadio/bin/Estadio\n'
p121
I0
tp122
a(I7320
S'start_time     : 1500339061\nlast_update    : 1500346334\nfuzzer_pid     : 2523\ncycles_done    : 28\nexecs_done     : 5848543\nexecs_per_sec  : 812.68\npaths_total    : 14\npaths_favored  : 10\npaths_found    : 13\npaths_imported : 0\nmax_depth      : 4\ncur_path       : 11\npending_favs   : 0\npending_total  : 0\nvariable_paths : 0\nbitmap_cvg     : 0.16%\nunique_crashes : 0\nunique_hangs   : 1\nlast_path      : 1500339275\nlast_crash     : 0\nlast_hang      : 1500340252\nexec_timeout   : 20\nafl_banner     : fuzzer-master\nafl_version    : 1.85b\ncommand_line   : /home/skaramcheti/.virtualenvs/afl/bin/afl-unix/afl-fuzz -i /dev/shm/work/Estadio/input -o /dev/shm/work/Estadio/sync -m 4G -Q -M fuzzer-master -x /dev/shm/work/Estadio/Estadio.dict -- data/linux/processed-challenges/Estadio/bin/Estadio\n'
p123
I0
tp124
a(I7440
S'start_time     : 1500339061\nlast_update    : 1500346454\nfuzzer_pid     : 2523\ncycles_done    : 29\nexecs_done     : 5946989\nexecs_per_sec  : 828.85\npaths_total    : 14\npaths_favored  : 10\npaths_found    : 13\npaths_imported : 0\nmax_depth      : 4\ncur_path       : 1\npending_favs   : 0\npending_total  : 0\nvariable_paths : 0\nbitmap_cvg     : 0.16%\nunique_crashes : 0\nunique_hangs   : 1\nlast_path      : 1500339275\nlast_crash     : 0\nlast_hang      : 1500340252\nexec_timeout   : 20\nafl_banner     : fuzzer-master\nafl_version    : 1.85b\ncommand_line   : /home/skaramcheti/.virtualenvs/afl/bin/afl-unix/afl-fuzz -i /dev/shm/work/Estadio/input -o /dev/shm/work/Estadio/sync -m 4G -Q -M fuzzer-master -x /dev/shm/work/Estadio/Estadio.dict -- data/linux/processed-challenges/Estadio/bin/Estadio\n'
p125
I0
tp126
a(I7560
S'start_time     : 1500339061\nlast_update    : 1500346574\nfuzzer_pid     : 2523\ncycles_done    : 29\nexecs_done     : 6047441\nexecs_per_sec  : 837.74\npaths_total    : 14\npaths_favored  : 10\npaths_found    : 13\npaths_imported : 0\nmax_depth      : 4\ncur_path       : 11\npending_favs   : 0\npending_total  : 0\nvariable_paths : 0\nbitmap_cvg     : 0.16%\nunique_crashes : 0\nunique_hangs   : 1\nlast_path      : 1500339275\nlast_crash     : 0\nlast_hang      : 1500340252\nexec_timeout   : 20\nafl_banner     : fuzzer-master\nafl_version    : 1.85b\ncommand_line   : /home/skaramcheti/.virtualenvs/afl/bin/afl-unix/afl-fuzz -i /dev/shm/work/Estadio/input -o /dev/shm/work/Estadio/sync -m 4G -Q -M fuzzer-master -x /dev/shm/work/Estadio/Estadio.dict -- data/linux/processed-challenges/Estadio/bin/Estadio\n'
p127
I0
tp128
a(I7680
S'start_time     : 1500339061\nlast_update    : 1500346694\nfuzzer_pid     : 2523\ncycles_done    : 30\nexecs_done     : 6147271\nexecs_per_sec  : 826.16\npaths_total    : 14\npaths_favored  : 10\npaths_found    : 13\npaths_imported : 0\nmax_depth      : 4\ncur_path       : 1\npending_favs   : 0\npending_total  : 0\nvariable_paths : 0\nbitmap_cvg     : 0.16%\nunique_crashes : 0\nunique_hangs   : 1\nlast_path      : 1500339275\nlast_crash     : 0\nlast_hang      : 1500340252\nexec_timeout   : 20\nafl_banner     : fuzzer-master\nafl_version    : 1.85b\ncommand_line   : /home/skaramcheti/.virtualenvs/afl/bin/afl-unix/afl-fuzz -i /dev/shm/work/Estadio/input -o /dev/shm/work/Estadio/sync -m 4G -Q -M fuzzer-master -x /dev/shm/work/Estadio/Estadio.dict -- data/linux/processed-challenges/Estadio/bin/Estadio\n'
p129
I0
tp130
a(I7800
S'start_time     : 1500339061\nlast_update    : 1500346814\nfuzzer_pid     : 2523\ncycles_done    : 30\nexecs_done     : 6246691\nexecs_per_sec  : 817.01\npaths_total    : 14\npaths_favored  : 10\npaths_found    : 13\npaths_imported : 0\nmax_depth      : 4\ncur_path       : 10\npending_favs   : 0\npending_total  : 0\nvariable_paths : 0\nbitmap_cvg     : 0.16%\nunique_crashes : 0\nunique_hangs   : 1\nlast_path      : 1500339275\nlast_crash     : 0\nlast_hang      : 1500340252\nexec_timeout   : 20\nafl_banner     : fuzzer-master\nafl_version    : 1.85b\ncommand_line   : /home/skaramcheti/.virtualenvs/afl/bin/afl-unix/afl-fuzz -i /dev/shm/work/Estadio/input -o /dev/shm/work/Estadio/sync -m 4G -Q -M fuzzer-master -x /dev/shm/work/Estadio/Estadio.dict -- data/linux/processed-challenges/Estadio/bin/Estadio\n'
p131
I0
tp132
a(I7920
S'start_time     : 1500339061\nlast_update    : 1500346935\nfuzzer_pid     : 2523\ncycles_done    : 31\nexecs_done     : 6346096\nexecs_per_sec  : 864.13\npaths_total    : 14\npaths_favored  : 10\npaths_found    : 13\npaths_imported : 0\nmax_depth      : 4\ncur_path       : 1\npending_favs   : 0\npending_total  : 0\nvariable_paths : 0\nbitmap_cvg     : 0.16%\nunique_crashes : 0\nunique_hangs   : 1\nlast_path      : 1500339275\nlast_crash     : 0\nlast_hang      : 1500340252\nexec_timeout   : 20\nafl_banner     : fuzzer-master\nafl_version    : 1.85b\ncommand_line   : /home/skaramcheti/.virtualenvs/afl/bin/afl-unix/afl-fuzz -i /dev/shm/work/Estadio/input -o /dev/shm/work/Estadio/sync -m 4G -Q -M fuzzer-master -x /dev/shm/work/Estadio/Estadio.dict -- data/linux/processed-challenges/Estadio/bin/Estadio\n'
p133
I0
tp134
a(I8040
S'start_time     : 1500339061\nlast_update    : 1500347055\nfuzzer_pid     : 2523\ncycles_done    : 31\nexecs_done     : 6446517\nexecs_per_sec  : 829.69\npaths_total    : 14\npaths_favored  : 10\npaths_found    : 13\npaths_imported : 0\nmax_depth      : 4\ncur_path       : 10\npending_favs   : 0\npending_total  : 0\nvariable_paths : 0\nbitmap_cvg     : 0.16%\nunique_crashes : 0\nunique_hangs   : 1\nlast_path      : 1500339275\nlast_crash     : 0\nlast_hang      : 1500340252\nexec_timeout   : 20\nafl_banner     : fuzzer-master\nafl_version    : 1.85b\ncommand_line   : /home/skaramcheti/.virtualenvs/afl/bin/afl-unix/afl-fuzz -i /dev/shm/work/Estadio/input -o /dev/shm/work/Estadio/sync -m 4G -Q -M fuzzer-master -x /dev/shm/work/Estadio/Estadio.dict -- data/linux/processed-challenges/Estadio/bin/Estadio\n'
p135
I0
tp136
a(I8160
S'start_time     : 1500339061\nlast_update    : 1500347175\nfuzzer_pid     : 2523\ncycles_done    : 32\nexecs_done     : 6545941\nexecs_per_sec  : 831.38\npaths_total    : 14\npaths_favored  : 10\npaths_found    : 13\npaths_imported : 0\nmax_depth      : 4\ncur_path       : 0\npending_favs   : 0\npending_total  : 0\nvariable_paths : 0\nbitmap_cvg     : 0.16%\nunique_crashes : 0\nunique_hangs   : 1\nlast_path      : 1500339275\nlast_crash     : 0\nlast_hang      : 1500340252\nexec_timeout   : 20\nafl_banner     : fuzzer-master\nafl_version    : 1.85b\ncommand_line   : /home/skaramcheti/.virtualenvs/afl/bin/afl-unix/afl-fuzz -i /dev/shm/work/Estadio/input -o /dev/shm/work/Estadio/sync -m 4G -Q -M fuzzer-master -x /dev/shm/work/Estadio/Estadio.dict -- data/linux/processed-challenges/Estadio/bin/Estadio\n'
p137
I0
tp138
a(I8280
S'start_time     : 1500339061\nlast_update    : 1500347295\nfuzzer_pid     : 2523\ncycles_done    : 32\nexecs_done     : 6646395\nexecs_per_sec  : 843.79\npaths_total    : 14\npaths_favored  : 10\npaths_found    : 13\npaths_imported : 0\nmax_depth      : 4\ncur_path       : 10\npending_favs   : 0\npending_total  : 0\nvariable_paths : 0\nbitmap_cvg     : 0.16%\nunique_crashes : 0\nunique_hangs   : 1\nlast_path      : 1500339275\nlast_crash     : 0\nlast_hang      : 1500340252\nexec_timeout   : 20\nafl_banner     : fuzzer-master\nafl_version    : 1.85b\ncommand_line   : /home/skaramcheti/.virtualenvs/afl/bin/afl-unix/afl-fuzz -i /dev/shm/work/Estadio/input -o /dev/shm/work/Estadio/sync -m 4G -Q -M fuzzer-master -x /dev/shm/work/Estadio/Estadio.dict -- data/linux/processed-challenges/Estadio/bin/Estadio\n'
p139
I0
tp140
a(I8400
S'start_time     : 1500339061\nlast_update    : 1500347416\nfuzzer_pid     : 2523\ncycles_done    : 33\nexecs_done     : 6745043\nexecs_per_sec  : 839.86\npaths_total    : 14\npaths_favored  : 10\npaths_found    : 13\npaths_imported : 0\nmax_depth      : 4\ncur_path       : 0\npending_favs   : 0\npending_total  : 0\nvariable_paths : 0\nbitmap_cvg     : 0.16%\nunique_crashes : 0\nunique_hangs   : 1\nlast_path      : 1500339275\nlast_crash     : 0\nlast_hang      : 1500340252\nexec_timeout   : 20\nafl_banner     : fuzzer-master\nafl_version    : 1.85b\ncommand_line   : /home/skaramcheti/.virtualenvs/afl/bin/afl-unix/afl-fuzz -i /dev/shm/work/Estadio/input -o /dev/shm/work/Estadio/sync -m 4G -Q -M fuzzer-master -x /dev/shm/work/Estadio/Estadio.dict -- data/linux/processed-challenges/Estadio/bin/Estadio\n'
p141
I0
tp142
a(I8520
S'start_time     : 1500339061\nlast_update    : 1500347536\nfuzzer_pid     : 2523\ncycles_done    : 33\nexecs_done     : 6843949\nexecs_per_sec  : 827.49\npaths_total    : 14\npaths_favored  : 10\npaths_found    : 13\npaths_imported : 0\nmax_depth      : 4\ncur_path       : 10\npending_favs   : 0\npending_total  : 0\nvariable_paths : 0\nbitmap_cvg     : 0.16%\nunique_crashes : 0\nunique_hangs   : 1\nlast_path      : 1500339275\nlast_crash     : 0\nlast_hang      : 1500340252\nexec_timeout   : 20\nafl_banner     : fuzzer-master\nafl_version    : 1.85b\ncommand_line   : /home/skaramcheti/.virtualenvs/afl/bin/afl-unix/afl-fuzz -i /dev/shm/work/Estadio/input -o /dev/shm/work/Estadio/sync -m 4G -Q -M fuzzer-master -x /dev/shm/work/Estadio/Estadio.dict -- data/linux/processed-challenges/Estadio/bin/Estadio\n'
p143
I0
tp144
a(I8640
S'start_time     : 1500339061\nlast_update    : 1500347656\nfuzzer_pid     : 2523\ncycles_done    : 33\nexecs_done     : 6942421\nexecs_per_sec  : 838.71\npaths_total    : 14\npaths_favored  : 10\npaths_found    : 13\npaths_imported : 0\nmax_depth      : 4\ncur_path       : 13\npending_favs   : 0\npending_total  : 0\nvariable_paths : 0\nbitmap_cvg     : 0.16%\nunique_crashes : 0\nunique_hangs   : 1\nlast_path      : 1500339275\nlast_crash     : 0\nlast_hang      : 1500340252\nexec_timeout   : 20\nafl_banner     : fuzzer-master\nafl_version    : 1.85b\ncommand_line   : /home/skaramcheti/.virtualenvs/afl/bin/afl-unix/afl-fuzz -i /dev/shm/work/Estadio/input -o /dev/shm/work/Estadio/sync -m 4G -Q -M fuzzer-master -x /dev/shm/work/Estadio/Estadio.dict -- data/linux/processed-challenges/Estadio/bin/Estadio\n'
p145
I0
tp146
a(I8760
S'start_time     : 1500339061\nlast_update    : 1500347776\nfuzzer_pid     : 2523\ncycles_done    : 34\nexecs_done     : 7040175\nexecs_per_sec  : 825.96\npaths_total    : 14\npaths_favored  : 10\npaths_found    : 13\npaths_imported : 0\nmax_depth      : 4\ncur_path       : 10\npending_favs   : 0\npending_total  : 0\nvariable_paths : 0\nbitmap_cvg     : 0.16%\nunique_crashes : 0\nunique_hangs   : 1\nlast_path      : 1500339275\nlast_crash     : 0\nlast_hang      : 1500340252\nexec_timeout   : 20\nafl_banner     : fuzzer-master\nafl_version    : 1.85b\ncommand_line   : /home/skaramcheti/.virtualenvs/afl/bin/afl-unix/afl-fuzz -i /dev/shm/work/Estadio/input -o /dev/shm/work/Estadio/sync -m 4G -Q -M fuzzer-master -x /dev/shm/work/Estadio/Estadio.dict -- data/linux/processed-challenges/Estadio/bin/Estadio\n'
p147
I0
tp148
a(I8880
S'start_time     : 1500339061\nlast_update    : 1500347896\nfuzzer_pid     : 2523\ncycles_done    : 34\nexecs_done     : 7141863\nexecs_per_sec  : 845.69\npaths_total    : 14\npaths_favored  : 10\npaths_found    : 13\npaths_imported : 0\nmax_depth      : 4\ncur_path       : 13\npending_favs   : 0\npending_total  : 0\nvariable_paths : 0\nbitmap_cvg     : 0.16%\nunique_crashes : 0\nunique_hangs   : 1\nlast_path      : 1500339275\nlast_crash     : 0\nlast_hang      : 1500340252\nexec_timeout   : 20\nafl_banner     : fuzzer-master\nafl_version    : 1.85b\ncommand_line   : /home/skaramcheti/.virtualenvs/afl/bin/afl-unix/afl-fuzz -i /dev/shm/work/Estadio/input -o /dev/shm/work/Estadio/sync -m 4G -Q -M fuzzer-master -x /dev/shm/work/Estadio/Estadio.dict -- data/linux/processed-challenges/Estadio/bin/Estadio\n'
p149
I0
tp150
a(I9000
S'start_time     : 1500339061\nlast_update    : 1500348016\nfuzzer_pid     : 2523\ncycles_done    : 35\nexecs_done     : 7241945\nexecs_per_sec  : 807.10\npaths_total    : 14\npaths_favored  : 10\npaths_found    : 13\npaths_imported : 0\nmax_depth      : 4\ncur_path       : 10\npending_favs   : 0\npending_total  : 0\nvariable_paths : 0\nbitmap_cvg     : 0.16%\nunique_crashes : 0\nunique_hangs   : 1\nlast_path      : 1500339275\nlast_crash     : 0\nlast_hang      : 1500340252\nexec_timeout   : 20\nafl_banner     : fuzzer-master\nafl_version    : 1.85b\ncommand_line   : /home/skaramcheti/.virtualenvs/afl/bin/afl-unix/afl-fuzz -i /dev/shm/work/Estadio/input -o /dev/shm/work/Estadio/sync -m 4G -Q -M fuzzer-master -x /dev/shm/work/Estadio/Estadio.dict -- data/linux/processed-challenges/Estadio/bin/Estadio\n'
p151
I0
tp152
a(I9120
S'start_time     : 1500339061\nlast_update    : 1500348137\nfuzzer_pid     : 2523\ncycles_done    : 35\nexecs_done     : 7340553\nexecs_per_sec  : 812.30\npaths_total    : 14\npaths_favored  : 10\npaths_found    : 13\npaths_imported : 0\nmax_depth      : 4\ncur_path       : 13\npending_favs   : 0\npending_total  : 0\nvariable_paths : 0\nbitmap_cvg     : 0.16%\nunique_crashes : 0\nunique_hangs   : 1\nlast_path      : 1500339275\nlast_crash     : 0\nlast_hang      : 1500340252\nexec_timeout   : 20\nafl_banner     : fuzzer-master\nafl_version    : 1.85b\ncommand_line   : /home/skaramcheti/.virtualenvs/afl/bin/afl-unix/afl-fuzz -i /dev/shm/work/Estadio/input -o /dev/shm/work/Estadio/sync -m 4G -Q -M fuzzer-master -x /dev/shm/work/Estadio/Estadio.dict -- data/linux/processed-challenges/Estadio/bin/Estadio\n'
p153
I0
tp154
a(I9240
S'start_time     : 1500339061\nlast_update    : 1500348257\nfuzzer_pid     : 2523\ncycles_done    : 36\nexecs_done     : 7439367\nexecs_per_sec  : 848.04\npaths_total    : 14\npaths_favored  : 10\npaths_found    : 13\npaths_imported : 0\nmax_depth      : 4\ncur_path       : 9\npending_favs   : 0\npending_total  : 0\nvariable_paths : 0\nbitmap_cvg     : 0.16%\nunique_crashes : 0\nunique_hangs   : 1\nlast_path      : 1500339275\nlast_crash     : 0\nlast_hang      : 1500340252\nexec_timeout   : 20\nafl_banner     : fuzzer-master\nafl_version    : 1.85b\ncommand_line   : /home/skaramcheti/.virtualenvs/afl/bin/afl-unix/afl-fuzz -i /dev/shm/work/Estadio/input -o /dev/shm/work/Estadio/sync -m 4G -Q -M fuzzer-master -x /dev/shm/work/Estadio/Estadio.dict -- data/linux/processed-challenges/Estadio/bin/Estadio\n'
p155
I0
tp156
a(I9360
S'start_time     : 1500339061\nlast_update    : 1500348377\nfuzzer_pid     : 2523\ncycles_done    : 36\nexecs_done     : 7537279\nexecs_per_sec  : 816.75\npaths_total    : 14\npaths_favored  : 10\npaths_found    : 13\npaths_imported : 0\nmax_depth      : 4\ncur_path       : 13\npending_favs   : 0\npending_total  : 0\nvariable_paths : 0\nbitmap_cvg     : 0.16%\nunique_crashes : 0\nunique_hangs   : 1\nlast_path      : 1500339275\nlast_crash     : 0\nlast_hang      : 1500340252\nexec_timeout   : 20\nafl_banner     : fuzzer-master\nafl_version    : 1.85b\ncommand_line   : /home/skaramcheti/.virtualenvs/afl/bin/afl-unix/afl-fuzz -i /dev/shm/work/Estadio/input -o /dev/shm/work/Estadio/sync -m 4G -Q -M fuzzer-master -x /dev/shm/work/Estadio/Estadio.dict -- data/linux/processed-challenges/Estadio/bin/Estadio\n'
p157
I0
tp158
a(I9480
S'start_time     : 1500339061\nlast_update    : 1500348497\nfuzzer_pid     : 2523\ncycles_done    : 37\nexecs_done     : 7636277\nexecs_per_sec  : 835.96\npaths_total    : 14\npaths_favored  : 10\npaths_found    : 13\npaths_imported : 0\nmax_depth      : 4\ncur_path       : 9\npending_favs   : 0\npending_total  : 0\nvariable_paths : 0\nbitmap_cvg     : 0.16%\nunique_crashes : 0\nunique_hangs   : 1\nlast_path      : 1500339275\nlast_crash     : 0\nlast_hang      : 1500340252\nexec_timeout   : 20\nafl_banner     : fuzzer-master\nafl_version    : 1.85b\ncommand_line   : /home/skaramcheti/.virtualenvs/afl/bin/afl-unix/afl-fuzz -i /dev/shm/work/Estadio/input -o /dev/shm/work/Estadio/sync -m 4G -Q -M fuzzer-master -x /dev/shm/work/Estadio/Estadio.dict -- data/linux/processed-challenges/Estadio/bin/Estadio\n'
p159
I0
tp160
a(I9600
S'start_time     : 1500339061\nlast_update    : 1500348618\nfuzzer_pid     : 2523\ncycles_done    : 37\nexecs_done     : 7734117\nexecs_per_sec  : 815.58\npaths_total    : 14\npaths_favored  : 10\npaths_found    : 13\npaths_imported : 0\nmax_depth      : 4\ncur_path       : 12\npending_favs   : 0\npending_total  : 0\nvariable_paths : 0\nbitmap_cvg     : 0.16%\nunique_crashes : 0\nunique_hangs   : 1\nlast_path      : 1500339275\nlast_crash     : 0\nlast_hang      : 1500340252\nexec_timeout   : 20\nafl_banner     : fuzzer-master\nafl_version    : 1.85b\ncommand_line   : /home/skaramcheti/.virtualenvs/afl/bin/afl-unix/afl-fuzz -i /dev/shm/work/Estadio/input -o /dev/shm/work/Estadio/sync -m 4G -Q -M fuzzer-master -x /dev/shm/work/Estadio/Estadio.dict -- data/linux/processed-challenges/Estadio/bin/Estadio\n'
p161
I0
tp162
a(I9720
S'start_time     : 1500339061\nlast_update    : 1500348738\nfuzzer_pid     : 2523\ncycles_done    : 38\nexecs_done     : 7836927\nexecs_per_sec  : 831.36\npaths_total    : 14\npaths_favored  : 10\npaths_found    : 13\npaths_imported : 0\nmax_depth      : 4\ncur_path       : 9\npending_favs   : 0\npending_total  : 0\nvariable_paths : 0\nbitmap_cvg     : 0.16%\nunique_crashes : 0\nunique_hangs   : 1\nlast_path      : 1500339275\nlast_crash     : 0\nlast_hang      : 1500340252\nexec_timeout   : 20\nafl_banner     : fuzzer-master\nafl_version    : 1.85b\ncommand_line   : /home/skaramcheti/.virtualenvs/afl/bin/afl-unix/afl-fuzz -i /dev/shm/work/Estadio/input -o /dev/shm/work/Estadio/sync -m 4G -Q -M fuzzer-master -x /dev/shm/work/Estadio/Estadio.dict -- data/linux/processed-challenges/Estadio/bin/Estadio\n'
p163
I0
tp164
a(I9840
S'start_time     : 1500339061\nlast_update    : 1500348858\nfuzzer_pid     : 2523\ncycles_done    : 38\nexecs_done     : 7938026\nexecs_per_sec  : 858.55\npaths_total    : 14\npaths_favored  : 10\npaths_found    : 13\npaths_imported : 0\nmax_depth      : 4\ncur_path       : 12\npending_favs   : 0\npending_total  : 0\nvariable_paths : 0\nbitmap_cvg     : 0.16%\nunique_crashes : 0\nunique_hangs   : 1\nlast_path      : 1500339275\nlast_crash     : 0\nlast_hang      : 1500340252\nexec_timeout   : 20\nafl_banner     : fuzzer-master\nafl_version    : 1.85b\ncommand_line   : /home/skaramcheti/.virtualenvs/afl/bin/afl-unix/afl-fuzz -i /dev/shm/work/Estadio/input -o /dev/shm/work/Estadio/sync -m 4G -Q -M fuzzer-master -x /dev/shm/work/Estadio/Estadio.dict -- data/linux/processed-challenges/Estadio/bin/Estadio\n'
p165
I0
tp166
a(I9960
S'start_time     : 1500339061\nlast_update    : 1500348978\nfuzzer_pid     : 2523\ncycles_done    : 39\nexecs_done     : 8040713\nexecs_per_sec  : 827.92\npaths_total    : 14\npaths_favored  : 10\npaths_found    : 13\npaths_imported : 0\nmax_depth      : 4\ncur_path       : 9\npending_favs   : 0\npending_total  : 0\nvariable_paths : 0\nbitmap_cvg     : 0.16%\nunique_crashes : 0\nunique_hangs   : 1\nlast_path      : 1500339275\nlast_crash     : 0\nlast_hang      : 1500340252\nexec_timeout   : 20\nafl_banner     : fuzzer-master\nafl_version    : 1.85b\ncommand_line   : /home/skaramcheti/.virtualenvs/afl/bin/afl-unix/afl-fuzz -i /dev/shm/work/Estadio/input -o /dev/shm/work/Estadio/sync -m 4G -Q -M fuzzer-master -x /dev/shm/work/Estadio/Estadio.dict -- data/linux/processed-challenges/Estadio/bin/Estadio\n'
p167
I0
tp168
a(I10080
S'start_time     : 1500339061\nlast_update    : 1500349099\nfuzzer_pid     : 2523\ncycles_done    : 39\nexecs_done     : 8141310\nexecs_per_sec  : 854.79\npaths_total    : 14\npaths_favored  : 10\npaths_found    : 13\npaths_imported : 0\nmax_depth      : 4\ncur_path       : 12\npending_favs   : 0\npending_total  : 0\nvariable_paths : 0\nbitmap_cvg     : 0.16%\nunique_crashes : 0\nunique_hangs   : 1\nlast_path      : 1500339275\nlast_crash     : 0\nlast_hang      : 1500340252\nexec_timeout   : 20\nafl_banner     : fuzzer-master\nafl_version    : 1.85b\ncommand_line   : /home/skaramcheti/.virtualenvs/afl/bin/afl-unix/afl-fuzz -i /dev/shm/work/Estadio/input -o /dev/shm/work/Estadio/sync -m 4G -Q -M fuzzer-master -x /dev/shm/work/Estadio/Estadio.dict -- data/linux/processed-challenges/Estadio/bin/Estadio\n'
p169
I0
tp170
a(I10200
S'start_time     : 1500339061\nlast_update    : 1500349219\nfuzzer_pid     : 2523\ncycles_done    : 40\nexecs_done     : 8243475\nexecs_per_sec  : 876.77\npaths_total    : 14\npaths_favored  : 10\npaths_found    : 13\npaths_imported : 0\nmax_depth      : 4\ncur_path       : 9\npending_favs   : 0\npending_total  : 0\nvariable_paths : 0\nbitmap_cvg     : 0.16%\nunique_crashes : 0\nunique_hangs   : 1\nlast_path      : 1500339275\nlast_crash     : 0\nlast_hang      : 1500340252\nexec_timeout   : 20\nafl_banner     : fuzzer-master\nafl_version    : 1.85b\ncommand_line   : /home/skaramcheti/.virtualenvs/afl/bin/afl-unix/afl-fuzz -i /dev/shm/work/Estadio/input -o /dev/shm/work/Estadio/sync -m 4G -Q -M fuzzer-master -x /dev/shm/work/Estadio/Estadio.dict -- data/linux/processed-challenges/Estadio/bin/Estadio\n'
p171
I0
tp172
a(I10320
S'start_time     : 1500339061\nlast_update    : 1500349339\nfuzzer_pid     : 2523\ncycles_done    : 40\nexecs_done     : 8346490\nexecs_per_sec  : 874.59\npaths_total    : 14\npaths_favored  : 10\npaths_found    : 13\npaths_imported : 0\nmax_depth      : 4\ncur_path       : 13\npending_favs   : 0\npending_total  : 0\nvariable_paths : 0\nbitmap_cvg     : 0.16%\nunique_crashes : 0\nunique_hangs   : 1\nlast_path      : 1500339275\nlast_crash     : 0\nlast_hang      : 1500340252\nexec_timeout   : 20\nafl_banner     : fuzzer-master\nafl_version    : 1.85b\ncommand_line   : /home/skaramcheti/.virtualenvs/afl/bin/afl-unix/afl-fuzz -i /dev/shm/work/Estadio/input -o /dev/shm/work/Estadio/sync -m 4G -Q -M fuzzer-master -x /dev/shm/work/Estadio/Estadio.dict -- data/linux/processed-challenges/Estadio/bin/Estadio\n'
p173
I0
tp174
a(I10440
S'start_time     : 1500339061\nlast_update    : 1500349459\nfuzzer_pid     : 2523\ncycles_done    : 41\nexecs_done     : 8447293\nexecs_per_sec  : 813.03\npaths_total    : 14\npaths_favored  : 10\npaths_found    : 13\npaths_imported : 0\nmax_depth      : 4\ncur_path       : 9\npending_favs   : 0\npending_total  : 0\nvariable_paths : 0\nbitmap_cvg     : 0.16%\nunique_crashes : 0\nunique_hangs   : 1\nlast_path      : 1500339275\nlast_crash     : 0\nlast_hang      : 1500340252\nexec_timeout   : 20\nafl_banner     : fuzzer-master\nafl_version    : 1.85b\ncommand_line   : /home/skaramcheti/.virtualenvs/afl/bin/afl-unix/afl-fuzz -i /dev/shm/work/Estadio/input -o /dev/shm/work/Estadio/sync -m 4G -Q -M fuzzer-master -x /dev/shm/work/Estadio/Estadio.dict -- data/linux/processed-challenges/Estadio/bin/Estadio\n'
p175
I0
tp176
a(I10560
S'start_time     : 1500339061\nlast_update    : 1500349579\nfuzzer_pid     : 2523\ncycles_done    : 41\nexecs_done     : 8544917\nexecs_per_sec  : 811.91\npaths_total    : 14\npaths_favored  : 10\npaths_found    : 13\npaths_imported : 0\nmax_depth      : 4\ncur_path       : 13\npending_favs   : 0\npending_total  : 0\nvariable_paths : 0\nbitmap_cvg     : 0.16%\nunique_crashes : 0\nunique_hangs   : 1\nlast_path      : 1500339275\nlast_crash     : 0\nlast_hang      : 1500340252\nexec_timeout   : 20\nafl_banner     : fuzzer-master\nafl_version    : 1.85b\ncommand_line   : /home/skaramcheti/.virtualenvs/afl/bin/afl-unix/afl-fuzz -i /dev/shm/work/Estadio/input -o /dev/shm/work/Estadio/sync -m 4G -Q -M fuzzer-master -x /dev/shm/work/Estadio/Estadio.dict -- data/linux/processed-challenges/Estadio/bin/Estadio\n'
p177
I0
tp178
a(I10680
S'start_time     : 1500339061\nlast_update    : 1500349699\nfuzzer_pid     : 2523\ncycles_done    : 42\nexecs_done     : 8642023\nexecs_per_sec  : 816.89\npaths_total    : 14\npaths_favored  : 10\npaths_found    : 13\npaths_imported : 0\nmax_depth      : 4\ncur_path       : 9\npending_favs   : 0\npending_total  : 0\nvariable_paths : 0\nbitmap_cvg     : 0.16%\nunique_crashes : 0\nunique_hangs   : 1\nlast_path      : 1500339275\nlast_crash     : 0\nlast_hang      : 1500340252\nexec_timeout   : 20\nafl_banner     : fuzzer-master\nafl_version    : 1.85b\ncommand_line   : /home/skaramcheti/.virtualenvs/afl/bin/afl-unix/afl-fuzz -i /dev/shm/work/Estadio/input -o /dev/shm/work/Estadio/sync -m 4G -Q -M fuzzer-master -x /dev/shm/work/Estadio/Estadio.dict -- data/linux/processed-challenges/Estadio/bin/Estadio\n'
p179
I0
tp180
a.