(lp0
(I0
S'start_time     : 1500241704\nlast_update    : 1500241704\nfuzzer_pid     : 8104\ncycles_done    : 0\nexecs_done     : 10\nexecs_per_sec  : 178.57\npaths_total    : 1\npaths_favored  : 1\npaths_found    : 0\npaths_imported : 0\nmax_depth      : 1\ncur_path       : 0\npending_favs   : 1\npending_total  : 1\nvariable_paths : 0\nbitmap_cvg     : 0.13%\nunique_crashes : 0\nunique_hangs   : 0\nlast_path      : 0\nlast_crash     : 0\nlast_hang      : 0\nexec_timeout   : 20\nafl_banner     : fuzzer-master\nafl_version    : 1.85b\ncommand_line   : /home/skaramcheti/.virtualenvs/afl/bin/afl-unix/afl-fuzz -i /dev/shm/work/Matchmaker/input -o /dev/shm/work/Matchmaker/sync -m 4G -Q -M fuzzer-master -x /dev/shm/work/Matchmaker/Matchmaker.dict -- data/linux/processed-challenges/Matchmaker/bin/Matchmaker\n'
p1
I11
tp2
a(I120
S'start_time     : 1500241704\nlast_update    : 1500241824\nfuzzer_pid     : 8104\ncycles_done    : 0\nexecs_done     : 75011\nexecs_per_sec  : 617.15\npaths_total    : 28\npaths_favored  : 1\npaths_found    : 27\npaths_imported : 0\nmax_depth      : 2\ncur_path       : 0\npending_favs   : 1\npending_total  : 28\nvariable_paths : 0\nbitmap_cvg     : 0.42%\nunique_crashes : 0\nunique_hangs   : 0\nlast_path      : 1500241823\nlast_crash     : 0\nlast_hang      : 0\nexec_timeout   : 20\nafl_banner     : fuzzer-master\nafl_version    : 1.85b\ncommand_line   : /home/skaramcheti/.virtualenvs/afl/bin/afl-unix/afl-fuzz -i /dev/shm/work/Matchmaker/input -o /dev/shm/work/Matchmaker/sync -m 4G -Q -M fuzzer-master -x /dev/shm/work/Matchmaker/Matchmaker.dict -- data/linux/processed-challenges/Matchmaker/bin/Matchmaker\n'
p3
I17
tp4
a(I240
S'start_time     : 1500241704\nlast_update    : 1500241944\nfuzzer_pid     : 8104\ncycles_done    : 0\nexecs_done     : 150067\nexecs_per_sec  : 654.42\npaths_total    : 32\npaths_favored  : 1\npaths_found    : 31\npaths_imported : 0\nmax_depth      : 2\ncur_path       : 0\npending_favs   : 1\npending_total  : 32\nvariable_paths : 0\nbitmap_cvg     : 0.43%\nunique_crashes : 0\nunique_hangs   : 1\nlast_path      : 1500241936\nlast_crash     : 0\nlast_hang      : 1500241943\nexec_timeout   : 20\nafl_banner     : fuzzer-master\nafl_version    : 1.85b\ncommand_line   : /home/skaramcheti/.virtualenvs/afl/bin/afl-unix/afl-fuzz -i /dev/shm/work/Matchmaker/input -o /dev/shm/work/Matchmaker/sync -m 4G -Q -M fuzzer-master -x /dev/shm/work/Matchmaker/Matchmaker.dict -- data/linux/processed-challenges/Matchmaker/bin/Matchmaker\n'
p5
I4
tp6
a(I360
S'start_time     : 1500241704\nlast_update    : 1500242064\nfuzzer_pid     : 8104\ncycles_done    : 0\nexecs_done     : 223829\nexecs_per_sec  : 646.45\npaths_total    : 55\npaths_favored  : 23\npaths_found    : 54\npaths_imported : 0\nmax_depth      : 3\ncur_path       : 8\npending_favs   : 21\npending_total  : 53\nvariable_paths : 0\nbitmap_cvg     : 0.49%\nunique_crashes : 4\nunique_hangs   : 1\nlast_path      : 1500242041\nlast_crash     : 1500241969\nlast_hang      : 1500241943\nexec_timeout   : 20\nafl_banner     : fuzzer-master\nafl_version    : 1.85b\ncommand_line   : /home/skaramcheti/.virtualenvs/afl/bin/afl-unix/afl-fuzz -i /dev/shm/work/Matchmaker/input -o /dev/shm/work/Matchmaker/sync -m 4G -Q -M fuzzer-master -x /dev/shm/work/Matchmaker/Matchmaker.dict -- data/linux/processed-challenges/Matchmaker/bin/Matchmaker\n'
p7
I23
tp8
a(I480
S'start_time     : 1500241704\nlast_update    : 1500242184\nfuzzer_pid     : 8104\ncycles_done    : 0\nexecs_done     : 298471\nexecs_per_sec  : 611.58\npaths_total    : 60\npaths_favored  : 23\npaths_found    : 59\npaths_imported : 0\nmax_depth      : 3\ncur_path       : 8\npending_favs   : 21\npending_total  : 58\nvariable_paths : 0\nbitmap_cvg     : 0.49%\nunique_crashes : 4\nunique_hangs   : 1\nlast_path      : 1500242169\nlast_crash     : 1500241969\nlast_hang      : 1500241943\nexec_timeout   : 20\nafl_banner     : fuzzer-master\nafl_version    : 1.85b\ncommand_line   : /home/skaramcheti/.virtualenvs/afl/bin/afl-unix/afl-fuzz -i /dev/shm/work/Matchmaker/input -o /dev/shm/work/Matchmaker/sync -m 4G -Q -M fuzzer-master -x /dev/shm/work/Matchmaker/Matchmaker.dict -- data/linux/processed-challenges/Matchmaker/bin/Matchmaker\n'
p9
I5
tp10
a(I600
S'start_time     : 1500241704\nlast_update    : 1500242305\nfuzzer_pid     : 8104\ncycles_done    : 0\nexecs_done     : 372509\nexecs_per_sec  : 614.60\npaths_total    : 67\npaths_favored  : 36\npaths_found    : 66\npaths_imported : 0\nmax_depth      : 3\ncur_path       : 15\npending_favs   : 32\npending_total  : 61\nvariable_paths : 0\nbitmap_cvg     : 0.61%\nunique_crashes : 4\nunique_hangs   : 1\nlast_path      : 1500242296\nlast_crash     : 1500241969\nlast_hang      : 1500241943\nexec_timeout   : 20\nafl_banner     : fuzzer-master\nafl_version    : 1.85b\ncommand_line   : /home/skaramcheti/.virtualenvs/afl/bin/afl-unix/afl-fuzz -i /dev/shm/work/Matchmaker/input -o /dev/shm/work/Matchmaker/sync -m 4G -Q -M fuzzer-master -x /dev/shm/work/Matchmaker/Matchmaker.dict -- data/linux/processed-challenges/Matchmaker/bin/Matchmaker\n'
p11
I7
tp12
a(I720
S'start_time     : 1500241704\nlast_update    : 1500242425\nfuzzer_pid     : 8104\ncycles_done    : 0\nexecs_done     : 445369\nexecs_per_sec  : 613.81\npaths_total    : 75\npaths_favored  : 38\npaths_found    : 74\npaths_imported : 0\nmax_depth      : 3\ncur_path       : 26\npending_favs   : 32\npending_total  : 66\nvariable_paths : 0\nbitmap_cvg     : 0.65%\nunique_crashes : 4\nunique_hangs   : 1\nlast_path      : 1500242411\nlast_crash     : 1500241969\nlast_hang      : 1500241943\nexec_timeout   : 20\nafl_banner     : fuzzer-master\nafl_version    : 1.85b\ncommand_line   : /home/skaramcheti/.virtualenvs/afl/bin/afl-unix/afl-fuzz -i /dev/shm/work/Matchmaker/input -o /dev/shm/work/Matchmaker/sync -m 4G -Q -M fuzzer-master -x /dev/shm/work/Matchmaker/Matchmaker.dict -- data/linux/processed-challenges/Matchmaker/bin/Matchmaker\n'
p13
I8
tp14
a(I840
S'start_time     : 1500241704\nlast_update    : 1500242545\nfuzzer_pid     : 8104\ncycles_done    : 0\nexecs_done     : 519571\nexecs_per_sec  : 621.92\npaths_total    : 83\npaths_favored  : 42\npaths_found    : 82\npaths_imported : 0\nmax_depth      : 4\ncur_path       : 35\npending_favs   : 35\npending_total  : 68\nvariable_paths : 0\nbitmap_cvg     : 0.67%\nunique_crashes : 5\nunique_hangs   : 1\nlast_path      : 1500242523\nlast_crash     : 1500242524\nlast_hang      : 1500241943\nexec_timeout   : 20\nafl_banner     : fuzzer-master\nafl_version    : 1.85b\ncommand_line   : /home/skaramcheti/.virtualenvs/afl/bin/afl-unix/afl-fuzz -i /dev/shm/work/Matchmaker/input -o /dev/shm/work/Matchmaker/sync -m 4G -Q -M fuzzer-master -x /dev/shm/work/Matchmaker/Matchmaker.dict -- data/linux/processed-challenges/Matchmaker/bin/Matchmaker\n'
p15
I8
tp16
a(I960
S'start_time     : 1500241704\nlast_update    : 1500242665\nfuzzer_pid     : 8104\ncycles_done    : 0\nexecs_done     : 593715\nexecs_per_sec  : 612.06\npaths_total    : 85\npaths_favored  : 43\npaths_found    : 84\npaths_imported : 0\nmax_depth      : 4\ncur_path       : 45\npending_favs   : 30\npending_total  : 63\nvariable_paths : 0\nbitmap_cvg     : 0.69%\nunique_crashes : 6\nunique_hangs   : 1\nlast_path      : 1500242648\nlast_crash     : 1500242601\nlast_hang      : 1500241943\nexec_timeout   : 20\nafl_banner     : fuzzer-master\nafl_version    : 1.85b\ncommand_line   : /home/skaramcheti/.virtualenvs/afl/bin/afl-unix/afl-fuzz -i /dev/shm/work/Matchmaker/input -o /dev/shm/work/Matchmaker/sync -m 4G -Q -M fuzzer-master -x /dev/shm/work/Matchmaker/Matchmaker.dict -- data/linux/processed-challenges/Matchmaker/bin/Matchmaker\n'
p17
I2
tp18
a(I1080
S'start_time     : 1500241704\nlast_update    : 1500242786\nfuzzer_pid     : 8104\ncycles_done    : 0\nexecs_done     : 666878\nexecs_per_sec  : 611.33\npaths_total    : 92\npaths_favored  : 46\npaths_found    : 91\npaths_imported : 0\nmax_depth      : 4\ncur_path       : 54\npending_favs   : 28\npending_total  : 64\nvariable_paths : 0\nbitmap_cvg     : 0.70%\nunique_crashes : 6\nunique_hangs   : 1\nlast_path      : 1500242775\nlast_crash     : 1500242601\nlast_hang      : 1500241943\nexec_timeout   : 20\nafl_banner     : fuzzer-master\nafl_version    : 1.85b\ncommand_line   : /home/skaramcheti/.virtualenvs/afl/bin/afl-unix/afl-fuzz -i /dev/shm/work/Matchmaker/input -o /dev/shm/work/Matchmaker/sync -m 4G -Q -M fuzzer-master -x /dev/shm/work/Matchmaker/Matchmaker.dict -- data/linux/processed-challenges/Matchmaker/bin/Matchmaker\n'
p19
I7
tp20
a(I1200
S'start_time     : 1500241704\nlast_update    : 1500242906\nfuzzer_pid     : 8104\ncycles_done    : 0\nexecs_done     : 740331\nexecs_per_sec  : 632.31\npaths_total    : 113\npaths_favored  : 45\npaths_found    : 112\npaths_imported : 0\nmax_depth      : 4\ncur_path       : 63\npending_favs   : 26\npending_total  : 81\nvariable_paths : 0\nbitmap_cvg     : 0.75%\nunique_crashes : 6\nunique_hangs   : 1\nlast_path      : 1500242898\nlast_crash     : 1500242601\nlast_hang      : 1500241943\nexec_timeout   : 20\nafl_banner     : fuzzer-master\nafl_version    : 1.85b\ncommand_line   : /home/skaramcheti/.virtualenvs/afl/bin/afl-unix/afl-fuzz -i /dev/shm/work/Matchmaker/input -o /dev/shm/work/Matchmaker/sync -m 4G -Q -M fuzzer-master -x /dev/shm/work/Matchmaker/Matchmaker.dict -- data/linux/processed-challenges/Matchmaker/bin/Matchmaker\n'
p21
I21
tp22
a(I1320
S'start_time     : 1500241704\nlast_update    : 1500243026\nfuzzer_pid     : 8104\ncycles_done    : 0\nexecs_done     : 814383\nexecs_per_sec  : 630.89\npaths_total    : 119\npaths_favored  : 45\npaths_found    : 118\npaths_imported : 0\nmax_depth      : 4\ncur_path       : 63\npending_favs   : 26\npending_total  : 87\nvariable_paths : 0\nbitmap_cvg     : 0.75%\nunique_crashes : 6\nunique_hangs   : 1\nlast_path      : 1500243011\nlast_crash     : 1500242601\nlast_hang      : 1500241943\nexec_timeout   : 20\nafl_banner     : fuzzer-master\nafl_version    : 1.85b\ncommand_line   : /home/skaramcheti/.virtualenvs/afl/bin/afl-unix/afl-fuzz -i /dev/shm/work/Matchmaker/input -o /dev/shm/work/Matchmaker/sync -m 4G -Q -M fuzzer-master -x /dev/shm/work/Matchmaker/Matchmaker.dict -- data/linux/processed-challenges/Matchmaker/bin/Matchmaker\n'
p23
I7
tp24
a(I1440
S'start_time     : 1500241704\nlast_update    : 1500243146\nfuzzer_pid     : 8104\ncycles_done    : 0\nexecs_done     : 887976\nexecs_per_sec  : 598.76\npaths_total    : 126\npaths_favored  : 49\npaths_found    : 125\npaths_imported : 0\nmax_depth      : 4\ncur_path       : 70\npending_favs   : 28\npending_total  : 89\nvariable_paths : 0\nbitmap_cvg     : 0.75%\nunique_crashes : 6\nunique_hangs   : 1\nlast_path      : 1500243109\nlast_crash     : 1500242601\nlast_hang      : 1500241943\nexec_timeout   : 20\nafl_banner     : fuzzer-master\nafl_version    : 1.85b\ncommand_line   : /home/skaramcheti/.virtualenvs/afl/bin/afl-unix/afl-fuzz -i /dev/shm/work/Matchmaker/input -o /dev/shm/work/Matchmaker/sync -m 4G -Q -M fuzzer-master -x /dev/shm/work/Matchmaker/Matchmaker.dict -- data/linux/processed-challenges/Matchmaker/bin/Matchmaker\n'
p25
I6
tp26
a(I1560
S'start_time     : 1500241704\nlast_update    : 1500243266\nfuzzer_pid     : 8104\ncycles_done    : 0\nexecs_done     : 961071\nexecs_per_sec  : 592.01\npaths_total    : 126\npaths_favored  : 49\npaths_found    : 125\npaths_imported : 0\nmax_depth      : 4\ncur_path       : 76\npending_favs   : 25\npending_total  : 86\nvariable_paths : 0\nbitmap_cvg     : 0.75%\nunique_crashes : 6\nunique_hangs   : 1\nlast_path      : 1500243109\nlast_crash     : 1500242601\nlast_hang      : 1500241943\nexec_timeout   : 20\nafl_banner     : fuzzer-master\nafl_version    : 1.85b\ncommand_line   : /home/skaramcheti/.virtualenvs/afl/bin/afl-unix/afl-fuzz -i /dev/shm/work/Matchmaker/input -o /dev/shm/work/Matchmaker/sync -m 4G -Q -M fuzzer-master -x /dev/shm/work/Matchmaker/Matchmaker.dict -- data/linux/processed-challenges/Matchmaker/bin/Matchmaker\n'
p27
I1
tp28
a(I1680
S'start_time     : 1500241704\nlast_update    : 1500243387\nfuzzer_pid     : 8104\ncycles_done    : 0\nexecs_done     : 1034611\nexecs_per_sec  : 616.80\npaths_total    : 136\npaths_favored  : 51\npaths_found    : 135\npaths_imported : 0\nmax_depth      : 5\ncur_path       : 82\npending_favs   : 23\npending_total  : 91\nvariable_paths : 0\nbitmap_cvg     : 0.77%\nunique_crashes : 6\nunique_hangs   : 1\nlast_path      : 1500243385\nlast_crash     : 1500242601\nlast_hang      : 1500241943\nexec_timeout   : 20\nafl_banner     : fuzzer-master\nafl_version    : 1.85b\ncommand_line   : /home/skaramcheti/.virtualenvs/afl/bin/afl-unix/afl-fuzz -i /dev/shm/work/Matchmaker/input -o /dev/shm/work/Matchmaker/sync -m 4G -Q -M fuzzer-master -x /dev/shm/work/Matchmaker/Matchmaker.dict -- data/linux/processed-challenges/Matchmaker/bin/Matchmaker\n'
p29
I9
tp30
a(I1800
S'start_time     : 1500241704\nlast_update    : 1500243507\nfuzzer_pid     : 8104\ncycles_done    : 0\nexecs_done     : 1109231\nexecs_per_sec  : 606.15\npaths_total    : 137\npaths_favored  : 53\npaths_found    : 136\npaths_imported : 0\nmax_depth      : 5\ncur_path       : 88\npending_favs   : 22\npending_total  : 88\nvariable_paths : 0\nbitmap_cvg     : 0.77%\nunique_crashes : 7\nunique_hangs   : 2\nlast_path      : 1500243416\nlast_crash     : 1500243400\nlast_hang      : 1500243427\nexec_timeout   : 20\nafl_banner     : fuzzer-master\nafl_version    : 1.85b\ncommand_line   : /home/skaramcheti/.virtualenvs/afl/bin/afl-unix/afl-fuzz -i /dev/shm/work/Matchmaker/input -o /dev/shm/work/Matchmaker/sync -m 4G -Q -M fuzzer-master -x /dev/shm/work/Matchmaker/Matchmaker.dict -- data/linux/processed-challenges/Matchmaker/bin/Matchmaker\n'
p31
I1
tp32
a(I1920
S'start_time     : 1500241704\nlast_update    : 1500243627\nfuzzer_pid     : 8104\ncycles_done    : 0\nexecs_done     : 1183808\nexecs_per_sec  : 601.08\npaths_total    : 138\npaths_favored  : 54\npaths_found    : 137\npaths_imported : 0\nmax_depth      : 5\ncur_path       : 93\npending_favs   : 19\npending_total  : 85\nvariable_paths : 0\nbitmap_cvg     : 0.79%\nunique_crashes : 7\nunique_hangs   : 2\nlast_path      : 1500243587\nlast_crash     : 1500243400\nlast_hang      : 1500243427\nexec_timeout   : 20\nafl_banner     : fuzzer-master\nafl_version    : 1.85b\ncommand_line   : /home/skaramcheti/.virtualenvs/afl/bin/afl-unix/afl-fuzz -i /dev/shm/work/Matchmaker/input -o /dev/shm/work/Matchmaker/sync -m 4G -Q -M fuzzer-master -x /dev/shm/work/Matchmaker/Matchmaker.dict -- data/linux/processed-challenges/Matchmaker/bin/Matchmaker\n'
p33
I1
tp34
a(I2040
S'start_time     : 1500241704\nlast_update    : 1500243748\nfuzzer_pid     : 8104\ncycles_done    : 0\nexecs_done     : 1257974\nexecs_per_sec  : 599.86\npaths_total    : 144\npaths_favored  : 53\npaths_found    : 143\npaths_imported : 0\nmax_depth      : 5\ncur_path       : 104\npending_favs   : 16\npending_total  : 88\nvariable_paths : 0\nbitmap_cvg     : 0.79%\nunique_crashes : 7\nunique_hangs   : 2\nlast_path      : 1500243729\nlast_crash     : 1500243400\nlast_hang      : 1500243427\nexec_timeout   : 20\nafl_banner     : fuzzer-master\nafl_version    : 1.85b\ncommand_line   : /home/skaramcheti/.virtualenvs/afl/bin/afl-unix/afl-fuzz -i /dev/shm/work/Matchmaker/input -o /dev/shm/work/Matchmaker/sync -m 4G -Q -M fuzzer-master -x /dev/shm/work/Matchmaker/Matchmaker.dict -- data/linux/processed-challenges/Matchmaker/bin/Matchmaker\n'
p35
I6
tp36
a(I2160
S'start_time     : 1500241704\nlast_update    : 1500243868\nfuzzer_pid     : 8104\ncycles_done    : 0\nexecs_done     : 1330968\nexecs_per_sec  : 587.74\npaths_total    : 146\npaths_favored  : 53\npaths_found    : 145\npaths_imported : 0\nmax_depth      : 5\ncur_path       : 104\npending_favs   : 16\npending_total  : 90\nvariable_paths : 0\nbitmap_cvg     : 0.81%\nunique_crashes : 7\nunique_hangs   : 2\nlast_path      : 1500243841\nlast_crash     : 1500243400\nlast_hang      : 1500243427\nexec_timeout   : 20\nafl_banner     : fuzzer-master\nafl_version    : 1.85b\ncommand_line   : /home/skaramcheti/.virtualenvs/afl/bin/afl-unix/afl-fuzz -i /dev/shm/work/Matchmaker/input -o /dev/shm/work/Matchmaker/sync -m 4G -Q -M fuzzer-master -x /dev/shm/work/Matchmaker/Matchmaker.dict -- data/linux/processed-challenges/Matchmaker/bin/Matchmaker\n'
p37
I2
tp38
a(I2280
S'start_time     : 1500241704\nlast_update    : 1500243988\nfuzzer_pid     : 8104\ncycles_done    : 0\nexecs_done     : 1404281\nexecs_per_sec  : 624.32\npaths_total    : 150\npaths_favored  : 54\npaths_found    : 149\npaths_imported : 0\nmax_depth      : 5\ncur_path       : 115\npending_favs   : 15\npending_total  : 91\nvariable_paths : 0\nbitmap_cvg     : 0.81%\nunique_crashes : 7\nunique_hangs   : 2\nlast_path      : 1500243979\nlast_crash     : 1500243400\nlast_hang      : 1500243427\nexec_timeout   : 20\nafl_banner     : fuzzer-master\nafl_version    : 1.85b\ncommand_line   : /home/skaramcheti/.virtualenvs/afl/bin/afl-unix/afl-fuzz -i /dev/shm/work/Matchmaker/input -o /dev/shm/work/Matchmaker/sync -m 4G -Q -M fuzzer-master -x /dev/shm/work/Matchmaker/Matchmaker.dict -- data/linux/processed-challenges/Matchmaker/bin/Matchmaker\n'
p39
I4
tp40
a(I2400
S'start_time     : 1500241704\nlast_update    : 1500244108\nfuzzer_pid     : 8104\ncycles_done    : 0\nexecs_done     : 1477883\nexecs_per_sec  : 598.72\npaths_total    : 156\npaths_favored  : 54\npaths_found    : 155\npaths_imported : 0\nmax_depth      : 5\ncur_path       : 127\npending_favs   : 12\npending_total  : 94\nvariable_paths : 0\nbitmap_cvg     : 0.81%\nunique_crashes : 7\nunique_hangs   : 2\nlast_path      : 1500244087\nlast_crash     : 1500243400\nlast_hang      : 1500243427\nexec_timeout   : 20\nafl_banner     : fuzzer-master\nafl_version    : 1.85b\ncommand_line   : /home/skaramcheti/.virtualenvs/afl/bin/afl-unix/afl-fuzz -i /dev/shm/work/Matchmaker/input -o /dev/shm/work/Matchmaker/sync -m 4G -Q -M fuzzer-master -x /dev/shm/work/Matchmaker/Matchmaker.dict -- data/linux/processed-challenges/Matchmaker/bin/Matchmaker\n'
p41
I6
tp42
a(I2520
S'start_time     : 1500241704\nlast_update    : 1500244229\nfuzzer_pid     : 8104\ncycles_done    : 0\nexecs_done     : 1551489\nexecs_per_sec  : 637.66\npaths_total    : 160\npaths_favored  : 56\npaths_found    : 159\npaths_imported : 0\nmax_depth      : 6\ncur_path       : 135\npending_favs   : 10\npending_total  : 93\nvariable_paths : 0\nbitmap_cvg     : 0.82%\nunique_crashes : 10\nunique_hangs   : 2\nlast_path      : 1500244210\nlast_crash     : 1500244220\nlast_hang      : 1500243427\nexec_timeout   : 20\nafl_banner     : fuzzer-master\nafl_version    : 1.85b\ncommand_line   : /home/skaramcheti/.virtualenvs/afl/bin/afl-unix/afl-fuzz -i /dev/shm/work/Matchmaker/input -o /dev/shm/work/Matchmaker/sync -m 4G -Q -M fuzzer-master -x /dev/shm/work/Matchmaker/Matchmaker.dict -- data/linux/processed-challenges/Matchmaker/bin/Matchmaker\n'
p43
I4
tp44
a(I2640
S'start_time     : 1500241704\nlast_update    : 1500244349\nfuzzer_pid     : 8104\ncycles_done    : 0\nexecs_done     : 1626682\nexecs_per_sec  : 619.01\npaths_total    : 167\npaths_favored  : 56\npaths_found    : 166\npaths_imported : 0\nmax_depth      : 6\ncur_path       : 137\npending_favs   : 9\npending_total  : 98\nvariable_paths : 0\nbitmap_cvg     : 0.83%\nunique_crashes : 10\nunique_hangs   : 2\nlast_path      : 1500244298\nlast_crash     : 1500244220\nlast_hang      : 1500243427\nexec_timeout   : 20\nafl_banner     : fuzzer-master\nafl_version    : 1.85b\ncommand_line   : /home/skaramcheti/.virtualenvs/afl/bin/afl-unix/afl-fuzz -i /dev/shm/work/Matchmaker/input -o /dev/shm/work/Matchmaker/sync -m 4G -Q -M fuzzer-master -x /dev/shm/work/Matchmaker/Matchmaker.dict -- data/linux/processed-challenges/Matchmaker/bin/Matchmaker\n'
p45
I7
tp46
a(I2760
S'start_time     : 1500241704\nlast_update    : 1500244469\nfuzzer_pid     : 8104\ncycles_done    : 0\nexecs_done     : 1699247\nexecs_per_sec  : 620.36\npaths_total    : 171\npaths_favored  : 61\npaths_found    : 170\npaths_imported : 0\nmax_depth      : 6\ncur_path       : 145\npending_favs   : 12\npending_total  : 99\nvariable_paths : 0\nbitmap_cvg     : 0.84%\nunique_crashes : 10\nunique_hangs   : 2\nlast_path      : 1500244455\nlast_crash     : 1500244220\nlast_hang      : 1500243427\nexec_timeout   : 20\nafl_banner     : fuzzer-master\nafl_version    : 1.85b\ncommand_line   : /home/skaramcheti/.virtualenvs/afl/bin/afl-unix/afl-fuzz -i /dev/shm/work/Matchmaker/input -o /dev/shm/work/Matchmaker/sync -m 4G -Q -M fuzzer-master -x /dev/shm/work/Matchmaker/Matchmaker.dict -- data/linux/processed-challenges/Matchmaker/bin/Matchmaker\n'
p47
I4
tp48
a(I2880
S'start_time     : 1500241704\nlast_update    : 1500244589\nfuzzer_pid     : 8104\ncycles_done    : 0\nexecs_done     : 1774551\nexecs_per_sec  : 637.04\npaths_total    : 175\npaths_favored  : 61\npaths_found    : 174\npaths_imported : 0\nmax_depth      : 6\ncur_path       : 145\npending_favs   : 12\npending_total  : 103\nvariable_paths : 0\nbitmap_cvg     : 0.84%\nunique_crashes : 10\nunique_hangs   : 2\nlast_path      : 1500244575\nlast_crash     : 1500244220\nlast_hang      : 1500243427\nexec_timeout   : 20\nafl_banner     : fuzzer-master\nafl_version    : 1.85b\ncommand_line   : /home/skaramcheti/.virtualenvs/afl/bin/afl-unix/afl-fuzz -i /dev/shm/work/Matchmaker/input -o /dev/shm/work/Matchmaker/sync -m 4G -Q -M fuzzer-master -x /dev/shm/work/Matchmaker/Matchmaker.dict -- data/linux/processed-challenges/Matchmaker/bin/Matchmaker\n'
p49
I4
tp50
a(I3000
S'start_time     : 1500241704\nlast_update    : 1500244709\nfuzzer_pid     : 8104\ncycles_done    : 0\nexecs_done     : 1852155\nexecs_per_sec  : 661.11\npaths_total    : 176\npaths_favored  : 62\npaths_found    : 175\npaths_imported : 0\nmax_depth      : 7\ncur_path       : 159\npending_favs   : 10\npending_total  : 100\nvariable_paths : 0\nbitmap_cvg     : 0.84%\nunique_crashes : 10\nunique_hangs   : 2\nlast_path      : 1500244646\nlast_crash     : 1500244220\nlast_hang      : 1500243427\nexec_timeout   : 20\nafl_banner     : fuzzer-master\nafl_version    : 1.85b\ncommand_line   : /home/skaramcheti/.virtualenvs/afl/bin/afl-unix/afl-fuzz -i /dev/shm/work/Matchmaker/input -o /dev/shm/work/Matchmaker/sync -m 4G -Q -M fuzzer-master -x /dev/shm/work/Matchmaker/Matchmaker.dict -- data/linux/processed-challenges/Matchmaker/bin/Matchmaker\n'
p51
I1
tp52
a(I3120
S'start_time     : 1500241704\nlast_update    : 1500244830\nfuzzer_pid     : 8104\ncycles_done    : 0\nexecs_done     : 1931926\nexecs_per_sec  : 647.50\npaths_total    : 180\npaths_favored  : 65\npaths_found    : 179\npaths_imported : 0\nmax_depth      : 7\ncur_path       : 163\npending_favs   : 10\npending_total  : 101\nvariable_paths : 0\nbitmap_cvg     : 0.86%\nunique_crashes : 10\nunique_hangs   : 2\nlast_path      : 1500244767\nlast_crash     : 1500244220\nlast_hang      : 1500243427\nexec_timeout   : 20\nafl_banner     : fuzzer-master\nafl_version    : 1.85b\ncommand_line   : /home/skaramcheti/.virtualenvs/afl/bin/afl-unix/afl-fuzz -i /dev/shm/work/Matchmaker/input -o /dev/shm/work/Matchmaker/sync -m 4G -Q -M fuzzer-master -x /dev/shm/work/Matchmaker/Matchmaker.dict -- data/linux/processed-challenges/Matchmaker/bin/Matchmaker\n'
p53
I4
tp54
a(I3240
S'start_time     : 1500241704\nlast_update    : 1500244950\nfuzzer_pid     : 8104\ncycles_done    : 0\nexecs_done     : 2008472\nexecs_per_sec  : 638.31\npaths_total    : 184\npaths_favored  : 67\npaths_found    : 183\npaths_imported : 0\nmax_depth      : 7\ncur_path       : 166\npending_favs   : 9\npending_total  : 102\nvariable_paths : 0\nbitmap_cvg     : 0.86%\nunique_crashes : 10\nunique_hangs   : 2\nlast_path      : 1500244933\nlast_crash     : 1500244220\nlast_hang      : 1500243427\nexec_timeout   : 20\nafl_banner     : fuzzer-master\nafl_version    : 1.85b\ncommand_line   : /home/skaramcheti/.virtualenvs/afl/bin/afl-unix/afl-fuzz -i /dev/shm/work/Matchmaker/input -o /dev/shm/work/Matchmaker/sync -m 4G -Q -M fuzzer-master -x /dev/shm/work/Matchmaker/Matchmaker.dict -- data/linux/processed-challenges/Matchmaker/bin/Matchmaker\n'
p55
I4
tp56
a(I3360
S'start_time     : 1500241704\nlast_update    : 1500245070\nfuzzer_pid     : 8104\ncycles_done    : 0\nexecs_done     : 2080698\nexecs_per_sec  : 612.12\npaths_total    : 192\npaths_favored  : 67\npaths_found    : 191\npaths_imported : 0\nmax_depth      : 7\ncur_path       : 167\npending_favs   : 8\npending_total  : 109\nvariable_paths : 0\nbitmap_cvg     : 0.86%\nunique_crashes : 10\nunique_hangs   : 2\nlast_path      : 1500245026\nlast_crash     : 1500244220\nlast_hang      : 1500243427\nexec_timeout   : 20\nafl_banner     : fuzzer-master\nafl_version    : 1.85b\ncommand_line   : /home/skaramcheti/.virtualenvs/afl/bin/afl-unix/afl-fuzz -i /dev/shm/work/Matchmaker/input -o /dev/shm/work/Matchmaker/sync -m 4G -Q -M fuzzer-master -x /dev/shm/work/Matchmaker/Matchmaker.dict -- data/linux/processed-challenges/Matchmaker/bin/Matchmaker\n'
p57
I8
tp58
a(I3480
S'start_time     : 1500241704\nlast_update    : 1500245190\nfuzzer_pid     : 8104\ncycles_done    : 0\nexecs_done     : 2153456\nexecs_per_sec  : 597.49\npaths_total    : 194\npaths_favored  : 67\npaths_found    : 193\npaths_imported : 0\nmax_depth      : 7\ncur_path       : 167\npending_favs   : 8\npending_total  : 111\nvariable_paths : 0\nbitmap_cvg     : 0.86%\nunique_crashes : 10\nunique_hangs   : 2\nlast_path      : 1500245098\nlast_crash     : 1500244220\nlast_hang      : 1500243427\nexec_timeout   : 20\nafl_banner     : fuzzer-master\nafl_version    : 1.85b\ncommand_line   : /home/skaramcheti/.virtualenvs/afl/bin/afl-unix/afl-fuzz -i /dev/shm/work/Matchmaker/input -o /dev/shm/work/Matchmaker/sync -m 4G -Q -M fuzzer-master -x /dev/shm/work/Matchmaker/Matchmaker.dict -- data/linux/processed-challenges/Matchmaker/bin/Matchmaker\n'
p59
I2
tp60
a(I3600
S'start_time     : 1500241704\nlast_update    : 1500245310\nfuzzer_pid     : 8104\ncycles_done    : 0\nexecs_done     : 2228051\nexecs_per_sec  : 635.56\npaths_total    : 209\npaths_favored  : 67\npaths_found    : 208\npaths_imported : 0\nmax_depth      : 8\ncur_path       : 175\npending_favs   : 7\npending_total  : 125\nvariable_paths : 0\nbitmap_cvg     : 0.88%\nunique_crashes : 23\nunique_hangs   : 2\nlast_path      : 1500245298\nlast_crash     : 1500245309\nlast_hang      : 1500243427\nexec_timeout   : 20\nafl_banner     : fuzzer-master\nafl_version    : 1.85b\ncommand_line   : /home/skaramcheti/.virtualenvs/afl/bin/afl-unix/afl-fuzz -i /dev/shm/work/Matchmaker/input -o /dev/shm/work/Matchmaker/sync -m 4G -Q -M fuzzer-master -x /dev/shm/work/Matchmaker/Matchmaker.dict -- data/linux/processed-challenges/Matchmaker/bin/Matchmaker\n'
p61
I15
tp62
a(I3720
S'start_time     : 1500241704\nlast_update    : 1500245431\nfuzzer_pid     : 8104\ncycles_done    : 0\nexecs_done     : 2304819\nexecs_per_sec  : 625.20\npaths_total    : 219\npaths_favored  : 67\npaths_found    : 218\npaths_imported : 0\nmax_depth      : 8\ncur_path       : 175\npending_favs   : 7\npending_total  : 135\nvariable_paths : 0\nbitmap_cvg     : 0.90%\nunique_crashes : 35\nunique_hangs   : 2\nlast_path      : 1500245428\nlast_crash     : 1500245427\nlast_hang      : 1500243427\nexec_timeout   : 20\nafl_banner     : fuzzer-master\nafl_version    : 1.85b\ncommand_line   : /home/skaramcheti/.virtualenvs/afl/bin/afl-unix/afl-fuzz -i /dev/shm/work/Matchmaker/input -o /dev/shm/work/Matchmaker/sync -m 4G -Q -M fuzzer-master -x /dev/shm/work/Matchmaker/Matchmaker.dict -- data/linux/processed-challenges/Matchmaker/bin/Matchmaker\n'
p63
I10
tp64
a(I3840
S'start_time     : 1500241704\nlast_update    : 1500245551\nfuzzer_pid     : 8104\ncycles_done    : 0\nexecs_done     : 2381566\nexecs_per_sec  : 653.55\npaths_total    : 219\npaths_favored  : 79\npaths_found    : 218\npaths_imported : 0\nmax_depth      : 8\ncur_path       : 176\npending_favs   : 23\npending_total  : 134\nvariable_paths : 0\nbitmap_cvg     : 0.90%\nunique_crashes : 40\nunique_hangs   : 2\nlast_path      : 1500245428\nlast_crash     : 1500245508\nlast_hang      : 1500243427\nexec_timeout   : 20\nafl_banner     : fuzzer-master\nafl_version    : 1.85b\ncommand_line   : /home/skaramcheti/.virtualenvs/afl/bin/afl-unix/afl-fuzz -i /dev/shm/work/Matchmaker/input -o /dev/shm/work/Matchmaker/sync -m 4G -Q -M fuzzer-master -x /dev/shm/work/Matchmaker/Matchmaker.dict -- data/linux/processed-challenges/Matchmaker/bin/Matchmaker\n'
p65
I0
tp66
a(I3960
S'start_time     : 1500241704\nlast_update    : 1500245671\nfuzzer_pid     : 8104\ncycles_done    : 0\nexecs_done     : 2457338\nexecs_per_sec  : 527.53\npaths_total    : 221\npaths_favored  : 81\npaths_found    : 220\npaths_imported : 0\nmax_depth      : 8\ncur_path       : 194\npending_favs   : 20\npending_total  : 131\nvariable_paths : 0\nbitmap_cvg     : 0.90%\nunique_crashes : 40\nunique_hangs   : 2\nlast_path      : 1500245641\nlast_crash     : 1500245508\nlast_hang      : 1500243427\nexec_timeout   : 20\nafl_banner     : fuzzer-master\nafl_version    : 1.85b\ncommand_line   : /home/skaramcheti/.virtualenvs/afl/bin/afl-unix/afl-fuzz -i /dev/shm/work/Matchmaker/input -o /dev/shm/work/Matchmaker/sync -m 4G -Q -M fuzzer-master -x /dev/shm/work/Matchmaker/Matchmaker.dict -- data/linux/processed-challenges/Matchmaker/bin/Matchmaker\n'
p67
I2
tp68
a(I4080
S'start_time     : 1500241704\nlast_update    : 1500245791\nfuzzer_pid     : 8104\ncycles_done    : 0\nexecs_done     : 2524954\nexecs_per_sec  : 574.52\npaths_total    : 225\npaths_favored  : 81\npaths_found    : 224\npaths_imported : 0\nmax_depth      : 8\ncur_path       : 194\npending_favs   : 20\npending_total  : 135\nvariable_paths : 0\nbitmap_cvg     : 0.90%\nunique_crashes : 41\nunique_hangs   : 2\nlast_path      : 1500245723\nlast_crash     : 1500245759\nlast_hang      : 1500243427\nexec_timeout   : 20\nafl_banner     : fuzzer-master\nafl_version    : 1.85b\ncommand_line   : /home/skaramcheti/.virtualenvs/afl/bin/afl-unix/afl-fuzz -i /dev/shm/work/Matchmaker/input -o /dev/shm/work/Matchmaker/sync -m 4G -Q -M fuzzer-master -x /dev/shm/work/Matchmaker/Matchmaker.dict -- data/linux/processed-challenges/Matchmaker/bin/Matchmaker\n'
p69
I4
tp70
a(I4200
S'start_time     : 1500241704\nlast_update    : 1500245912\nfuzzer_pid     : 8104\ncycles_done    : 0\nexecs_done     : 2595717\nexecs_per_sec  : 593.37\npaths_total    : 225\npaths_favored  : 81\npaths_found    : 224\npaths_imported : 0\nmax_depth      : 8\ncur_path       : 194\npending_favs   : 20\npending_total  : 135\nvariable_paths : 0\nbitmap_cvg     : 0.90%\nunique_crashes : 41\nunique_hangs   : 2\nlast_path      : 1500245723\nlast_crash     : 1500245759\nlast_hang      : 1500243427\nexec_timeout   : 20\nafl_banner     : fuzzer-master\nafl_version    : 1.85b\ncommand_line   : /home/skaramcheti/.virtualenvs/afl/bin/afl-unix/afl-fuzz -i /dev/shm/work/Matchmaker/input -o /dev/shm/work/Matchmaker/sync -m 4G -Q -M fuzzer-master -x /dev/shm/work/Matchmaker/Matchmaker.dict -- data/linux/processed-challenges/Matchmaker/bin/Matchmaker\n'
p71
I0
tp72
a(I4320
S'start_time     : 1500241704\nlast_update    : 1500246032\nfuzzer_pid     : 8104\ncycles_done    : 0\nexecs_done     : 2667677\nexecs_per_sec  : 652.25\npaths_total    : 226\npaths_favored  : 81\npaths_found    : 225\npaths_imported : 0\nmax_depth      : 9\ncur_path       : 195\npending_favs   : 20\npending_total  : 135\nvariable_paths : 0\nbitmap_cvg     : 0.90%\nunique_crashes : 43\nunique_hangs   : 2\nlast_path      : 1500246018\nlast_crash     : 1500246025\nlast_hang      : 1500243427\nexec_timeout   : 20\nafl_banner     : fuzzer-master\nafl_version    : 1.85b\ncommand_line   : /home/skaramcheti/.virtualenvs/afl/bin/afl-unix/afl-fuzz -i /dev/shm/work/Matchmaker/input -o /dev/shm/work/Matchmaker/sync -m 4G -Q -M fuzzer-master -x /dev/shm/work/Matchmaker/Matchmaker.dict -- data/linux/processed-challenges/Matchmaker/bin/Matchmaker\n'
p73
I1
tp74
a(I4440
S'start_time     : 1500241704\nlast_update    : 1500246152\nfuzzer_pid     : 8104\ncycles_done    : 0\nexecs_done     : 2742643\nexecs_per_sec  : 611.13\npaths_total    : 228\npaths_favored  : 81\npaths_found    : 227\npaths_imported : 0\nmax_depth      : 9\ncur_path       : 197\npending_favs   : 19\npending_total  : 136\nvariable_paths : 0\nbitmap_cvg     : 0.90%\nunique_crashes : 45\nunique_hangs   : 2\nlast_path      : 1500246103\nlast_crash     : 1500246123\nlast_hang      : 1500243427\nexec_timeout   : 20\nafl_banner     : fuzzer-master\nafl_version    : 1.85b\ncommand_line   : /home/skaramcheti/.virtualenvs/afl/bin/afl-unix/afl-fuzz -i /dev/shm/work/Matchmaker/input -o /dev/shm/work/Matchmaker/sync -m 4G -Q -M fuzzer-master -x /dev/shm/work/Matchmaker/Matchmaker.dict -- data/linux/processed-challenges/Matchmaker/bin/Matchmaker\n'
p75
I2
tp76
a(I4560
S'start_time     : 1500241704\nlast_update    : 1500246272\nfuzzer_pid     : 8104\ncycles_done    : 0\nexecs_done     : 2815395\nexecs_per_sec  : 594.14\npaths_total    : 229\npaths_favored  : 82\npaths_found    : 228\npaths_imported : 0\nmax_depth      : 9\ncur_path       : 200\npending_favs   : 18\npending_total  : 134\nvariable_paths : 0\nbitmap_cvg     : 0.90%\nunique_crashes : 46\nunique_hangs   : 2\nlast_path      : 1500246174\nlast_crash     : 1500246251\nlast_hang      : 1500243427\nexec_timeout   : 20\nafl_banner     : fuzzer-master\nafl_version    : 1.85b\ncommand_line   : /home/skaramcheti/.virtualenvs/afl/bin/afl-unix/afl-fuzz -i /dev/shm/work/Matchmaker/input -o /dev/shm/work/Matchmaker/sync -m 4G -Q -M fuzzer-master -x /dev/shm/work/Matchmaker/Matchmaker.dict -- data/linux/processed-challenges/Matchmaker/bin/Matchmaker\n'
p77
I1
tp78
a(I4680
S'start_time     : 1500241704\nlast_update    : 1500246392\nfuzzer_pid     : 8104\ncycles_done    : 0\nexecs_done     : 2889767\nexecs_per_sec  : 597.89\npaths_total    : 230\npaths_favored  : 82\npaths_found    : 229\npaths_imported : 0\nmax_depth      : 9\ncur_path       : 202\npending_favs   : 16\npending_total  : 133\nvariable_paths : 0\nbitmap_cvg     : 0.90%\nunique_crashes : 50\nunique_hangs   : 2\nlast_path      : 1500246336\nlast_crash     : 1500246370\nlast_hang      : 1500243427\nexec_timeout   : 20\nafl_banner     : fuzzer-master\nafl_version    : 1.85b\ncommand_line   : /home/skaramcheti/.virtualenvs/afl/bin/afl-unix/afl-fuzz -i /dev/shm/work/Matchmaker/input -o /dev/shm/work/Matchmaker/sync -m 4G -Q -M fuzzer-master -x /dev/shm/work/Matchmaker/Matchmaker.dict -- data/linux/processed-challenges/Matchmaker/bin/Matchmaker\n'
p79
I1
tp80
a(I4800
S'start_time     : 1500241704\nlast_update    : 1500246512\nfuzzer_pid     : 8104\ncycles_done    : 0\nexecs_done     : 2962309\nexecs_per_sec  : 593.77\npaths_total    : 230\npaths_favored  : 82\npaths_found    : 229\npaths_imported : 0\nmax_depth      : 9\ncur_path       : 204\npending_favs   : 14\npending_total  : 131\nvariable_paths : 0\nbitmap_cvg     : 0.90%\nunique_crashes : 51\nunique_hangs   : 2\nlast_path      : 1500246336\nlast_crash     : 1500246429\nlast_hang      : 1500243427\nexec_timeout   : 20\nafl_banner     : fuzzer-master\nafl_version    : 1.85b\ncommand_line   : /home/skaramcheti/.virtualenvs/afl/bin/afl-unix/afl-fuzz -i /dev/shm/work/Matchmaker/input -o /dev/shm/work/Matchmaker/sync -m 4G -Q -M fuzzer-master -x /dev/shm/work/Matchmaker/Matchmaker.dict -- data/linux/processed-challenges/Matchmaker/bin/Matchmaker\n'
p81
I0
tp82
a(I4920
S'start_time     : 1500241704\nlast_update    : 1500246633\nfuzzer_pid     : 8104\ncycles_done    : 0\nexecs_done     : 3036620\nexecs_per_sec  : 609.07\npaths_total    : 233\npaths_favored  : 82\npaths_found    : 232\npaths_imported : 0\nmax_depth      : 9\ncur_path       : 205\npending_favs   : 13\npending_total  : 133\nvariable_paths : 0\nbitmap_cvg     : 0.91%\nunique_crashes : 51\nunique_hangs   : 2\nlast_path      : 1500246610\nlast_crash     : 1500246429\nlast_hang      : 1500243427\nexec_timeout   : 20\nafl_banner     : fuzzer-master\nafl_version    : 1.85b\ncommand_line   : /home/skaramcheti/.virtualenvs/afl/bin/afl-unix/afl-fuzz -i /dev/shm/work/Matchmaker/input -o /dev/shm/work/Matchmaker/sync -m 4G -Q -M fuzzer-master -x /dev/shm/work/Matchmaker/Matchmaker.dict -- data/linux/processed-challenges/Matchmaker/bin/Matchmaker\n'
p83
I3
tp84
a(I5040
S'start_time     : 1500241704\nlast_update    : 1500246753\nfuzzer_pid     : 8104\ncycles_done    : 0\nexecs_done     : 3110803\nexecs_per_sec  : 607.62\npaths_total    : 233\npaths_favored  : 83\npaths_found    : 232\npaths_imported : 0\nmax_depth      : 9\ncur_path       : 210\npending_favs   : 13\npending_total  : 132\nvariable_paths : 0\nbitmap_cvg     : 0.91%\nunique_crashes : 54\nunique_hangs   : 2\nlast_path      : 1500246610\nlast_crash     : 1500246725\nlast_hang      : 1500243427\nexec_timeout   : 20\nafl_banner     : fuzzer-master\nafl_version    : 1.85b\ncommand_line   : /home/skaramcheti/.virtualenvs/afl/bin/afl-unix/afl-fuzz -i /dev/shm/work/Matchmaker/input -o /dev/shm/work/Matchmaker/sync -m 4G -Q -M fuzzer-master -x /dev/shm/work/Matchmaker/Matchmaker.dict -- data/linux/processed-challenges/Matchmaker/bin/Matchmaker\n'
p85
I0
tp86
a(I5160
S'start_time     : 1500241704\nlast_update    : 1500246873\nfuzzer_pid     : 8104\ncycles_done    : 0\nexecs_done     : 3184200\nexecs_per_sec  : 612.87\npaths_total    : 233\npaths_favored  : 83\npaths_found    : 232\npaths_imported : 0\nmax_depth      : 9\ncur_path       : 212\npending_favs   : 11\npending_total  : 130\nvariable_paths : 0\nbitmap_cvg     : 0.91%\nunique_crashes : 55\nunique_hangs   : 2\nlast_path      : 1500246610\nlast_crash     : 1500246845\nlast_hang      : 1500243427\nexec_timeout   : 20\nafl_banner     : fuzzer-master\nafl_version    : 1.85b\ncommand_line   : /home/skaramcheti/.virtualenvs/afl/bin/afl-unix/afl-fuzz -i /dev/shm/work/Matchmaker/input -o /dev/shm/work/Matchmaker/sync -m 4G -Q -M fuzzer-master -x /dev/shm/work/Matchmaker/Matchmaker.dict -- data/linux/processed-challenges/Matchmaker/bin/Matchmaker\n'
p87
I0
tp88
a(I5280
S'start_time     : 1500241704\nlast_update    : 1500246933\nfuzzer_pid     : 8104\ncycles_done    : 0\nexecs_done     : 3221819\nexecs_per_sec  : 649.21\npaths_total    : 233\npaths_favored  : 83\npaths_found    : 232\npaths_imported : 0\nmax_depth      : 9\ncur_path       : 214\npending_favs   : 10\npending_total  : 129\nvariable_paths : 0\nbitmap_cvg     : 0.91%\nunique_crashes : 56\nunique_hangs   : 2\nlast_path      : 1500246610\nlast_crash     : 1500246905\nlast_hang      : 1500243427\nexec_timeout   : 20\nafl_banner     : fuzzer-master\nafl_version    : 1.85b\ncommand_line   : /home/skaramcheti/.virtualenvs/afl/bin/afl-unix/afl-fuzz -i /dev/shm/work/Matchmaker/input -o /dev/shm/work/Matchmaker/sync -m 4G -Q -M fuzzer-master -x /dev/shm/work/Matchmaker/Matchmaker.dict -- data/linux/processed-challenges/Matchmaker/bin/Matchmaker\n'
p89
I0
tp90
a(I5400
S'start_time     : 1500241704\nlast_update    : 1500247054\nfuzzer_pid     : 8104\ncycles_done    : 0\nexecs_done     : 3297366\nexecs_per_sec  : 603.07\npaths_total    : 234\npaths_favored  : 84\npaths_found    : 233\npaths_imported : 0\nmax_depth      : 9\ncur_path       : 220\npending_favs   : 8\npending_total  : 127\nvariable_paths : 0\nbitmap_cvg     : 0.91%\nunique_crashes : 56\nunique_hangs   : 2\nlast_path      : 1500247004\nlast_crash     : 1500246905\nlast_hang      : 1500243427\nexec_timeout   : 20\nafl_banner     : fuzzer-master\nafl_version    : 1.85b\ncommand_line   : /home/skaramcheti/.virtualenvs/afl/bin/afl-unix/afl-fuzz -i /dev/shm/work/Matchmaker/input -o /dev/shm/work/Matchmaker/sync -m 4G -Q -M fuzzer-master -x /dev/shm/work/Matchmaker/Matchmaker.dict -- data/linux/processed-challenges/Matchmaker/bin/Matchmaker\n'
p91
I5
tp92
a(I5520
S'start_time     : 1500241704\nlast_update    : 1500247174\nfuzzer_pid     : 8104\ncycles_done    : 0\nexecs_done     : 3372911\nexecs_per_sec  : 628.35\npaths_total    : 239\npaths_favored  : 84\npaths_found    : 238\npaths_imported : 0\nmax_depth      : 9\ncur_path       : 220\npending_favs   : 8\npending_total  : 132\nvariable_paths : 0\nbitmap_cvg     : 0.91%\nunique_crashes : 56\nunique_hangs   : 2\nlast_path      : 1500247114\nlast_crash     : 1500246905\nlast_hang      : 1500243427\nexec_timeout   : 20\nafl_banner     : fuzzer-master\nafl_version    : 1.85b\ncommand_line   : /home/skaramcheti/.virtualenvs/afl/bin/afl-unix/afl-fuzz -i /dev/shm/work/Matchmaker/input -o /dev/shm/work/Matchmaker/sync -m 4G -Q -M fuzzer-master -x /dev/shm/work/Matchmaker/Matchmaker.dict -- data/linux/processed-challenges/Matchmaker/bin/Matchmaker\n'
p93
I1
tp94
a(I5640
S'start_time     : 1500241704\nlast_update    : 1500247294\nfuzzer_pid     : 8104\ncycles_done    : 0\nexecs_done     : 3447491\nexecs_per_sec  : 623.45\npaths_total    : 239\npaths_favored  : 84\npaths_found    : 238\npaths_imported : 0\nmax_depth      : 9\ncur_path       : 220\npending_favs   : 8\npending_total  : 132\nvariable_paths : 0\nbitmap_cvg     : 0.91%\nunique_crashes : 56\nunique_hangs   : 2\nlast_path      : 1500247114\nlast_crash     : 1500246905\nlast_hang      : 1500243427\nexec_timeout   : 20\nafl_banner     : fuzzer-master\nafl_version    : 1.85b\ncommand_line   : /home/skaramcheti/.virtualenvs/afl/bin/afl-unix/afl-fuzz -i /dev/shm/work/Matchmaker/input -o /dev/shm/work/Matchmaker/sync -m 4G -Q -M fuzzer-master -x /dev/shm/work/Matchmaker/Matchmaker.dict -- data/linux/processed-challenges/Matchmaker/bin/Matchmaker\n'
p95
I0
tp96
a(I5760
S'start_time     : 1500241704\nlast_update    : 1500247414\nfuzzer_pid     : 8104\ncycles_done    : 0\nexecs_done     : 3522993\nexecs_per_sec  : 631.85\npaths_total    : 240\npaths_favored  : 85\npaths_found    : 239\npaths_imported : 0\nmax_depth      : 10\ncur_path       : 228\npending_favs   : 7\npending_total  : 131\nvariable_paths : 0\nbitmap_cvg     : 0.91%\nunique_crashes : 56\nunique_hangs   : 2\nlast_path      : 1500247410\nlast_crash     : 1500246905\nlast_hang      : 1500243427\nexec_timeout   : 20\nafl_banner     : fuzzer-master\nafl_version    : 1.85b\ncommand_line   : /home/skaramcheti/.virtualenvs/afl/bin/afl-unix/afl-fuzz -i /dev/shm/work/Matchmaker/input -o /dev/shm/work/Matchmaker/sync -m 4G -Q -M fuzzer-master -x /dev/shm/work/Matchmaker/Matchmaker.dict -- data/linux/processed-challenges/Matchmaker/bin/Matchmaker\n'
p97
I3
tp98
a(I5880
S'start_time     : 1500241704\nlast_update    : 1500247535\nfuzzer_pid     : 8104\ncycles_done    : 0\nexecs_done     : 3599873\nexecs_per_sec  : 650.22\npaths_total    : 242\npaths_favored  : 85\npaths_found    : 241\npaths_imported : 0\nmax_depth      : 10\ncur_path       : 228\npending_favs   : 7\npending_total  : 133\nvariable_paths : 0\nbitmap_cvg     : 0.91%\nunique_crashes : 56\nunique_hangs   : 2\nlast_path      : 1500247454\nlast_crash     : 1500246905\nlast_hang      : 1500243427\nexec_timeout   : 20\nafl_banner     : fuzzer-master\nafl_version    : 1.85b\ncommand_line   : /home/skaramcheti/.virtualenvs/afl/bin/afl-unix/afl-fuzz -i /dev/shm/work/Matchmaker/input -o /dev/shm/work/Matchmaker/sync -m 4G -Q -M fuzzer-master -x /dev/shm/work/Matchmaker/Matchmaker.dict -- data/linux/processed-challenges/Matchmaker/bin/Matchmaker\n'
p99
I0
tp100
a(I6000
S'start_time     : 1500241704\nlast_update    : 1500247655\nfuzzer_pid     : 8104\ncycles_done    : 0\nexecs_done     : 3677249\nexecs_per_sec  : 648.05\npaths_total    : 242\npaths_favored  : 85\npaths_found    : 241\npaths_imported : 0\nmax_depth      : 10\ncur_path       : 228\npending_favs   : 7\npending_total  : 133\nvariable_paths : 0\nbitmap_cvg     : 0.91%\nunique_crashes : 57\nunique_hangs   : 2\nlast_path      : 1500247454\nlast_crash     : 1500247607\nlast_hang      : 1500243427\nexec_timeout   : 20\nafl_banner     : fuzzer-master\nafl_version    : 1.85b\ncommand_line   : /home/skaramcheti/.virtualenvs/afl/bin/afl-unix/afl-fuzz -i /dev/shm/work/Matchmaker/input -o /dev/shm/work/Matchmaker/sync -m 4G -Q -M fuzzer-master -x /dev/shm/work/Matchmaker/Matchmaker.dict -- data/linux/processed-challenges/Matchmaker/bin/Matchmaker\n'
p101
I0
tp102
a(I6120
S'start_time     : 1500241704\nlast_update    : 1500247775\nfuzzer_pid     : 8104\ncycles_done    : 0\nexecs_done     : 3752078\nexecs_per_sec  : 629.09\npaths_total    : 242\npaths_favored  : 85\npaths_found    : 241\npaths_imported : 0\nmax_depth      : 10\ncur_path       : 232\npending_favs   : 4\npending_total  : 130\nvariable_paths : 0\nbitmap_cvg     : 0.91%\nunique_crashes : 58\nunique_hangs   : 2\nlast_path      : 1500247454\nlast_crash     : 1500247677\nlast_hang      : 1500243427\nexec_timeout   : 20\nafl_banner     : fuzzer-master\nafl_version    : 1.85b\ncommand_line   : /home/skaramcheti/.virtualenvs/afl/bin/afl-unix/afl-fuzz -i /dev/shm/work/Matchmaker/input -o /dev/shm/work/Matchmaker/sync -m 4G -Q -M fuzzer-master -x /dev/shm/work/Matchmaker/Matchmaker.dict -- data/linux/processed-challenges/Matchmaker/bin/Matchmaker\n'
p103
I0
tp104
a(I6240
S'start_time     : 1500241704\nlast_update    : 1500247895\nfuzzer_pid     : 8104\ncycles_done    : 0\nexecs_done     : 3828376\nexecs_per_sec  : 610.41\npaths_total    : 243\npaths_favored  : 84\npaths_found    : 242\npaths_imported : 0\nmax_depth      : 10\ncur_path       : 234\npending_favs   : 2\npending_total  : 129\nvariable_paths : 0\nbitmap_cvg     : 0.91%\nunique_crashes : 58\nunique_hangs   : 2\nlast_path      : 1500247895\nlast_crash     : 1500247677\nlast_hang      : 1500243427\nexec_timeout   : 20\nafl_banner     : fuzzer-master\nafl_version    : 1.85b\ncommand_line   : /home/skaramcheti/.virtualenvs/afl/bin/afl-unix/afl-fuzz -i /dev/shm/work/Matchmaker/input -o /dev/shm/work/Matchmaker/sync -m 4G -Q -M fuzzer-master -x /dev/shm/work/Matchmaker/Matchmaker.dict -- data/linux/processed-challenges/Matchmaker/bin/Matchmaker\n'
p105
I1
tp106
a(I6360
S'start_time     : 1500241704\nlast_update    : 1500248016\nfuzzer_pid     : 8104\ncycles_done    : 1\nexecs_done     : 3902960\nexecs_per_sec  : 640.01\npaths_total    : 243\npaths_favored  : 82\npaths_found    : 242\npaths_imported : 0\nmax_depth      : 10\ncur_path       : 22\npending_favs   : 0\npending_total  : 125\nvariable_paths : 0\nbitmap_cvg     : 0.91%\nunique_crashes : 58\nunique_hangs   : 2\nlast_path      : 1500247895\nlast_crash     : 1500247677\nlast_hang      : 1500243427\nexec_timeout   : 20\nafl_banner     : fuzzer-master\nafl_version    : 1.85b\ncommand_line   : /home/skaramcheti/.virtualenvs/afl/bin/afl-unix/afl-fuzz -i /dev/shm/work/Matchmaker/input -o /dev/shm/work/Matchmaker/sync -m 4G -Q -M fuzzer-master -x /dev/shm/work/Matchmaker/Matchmaker.dict -- data/linux/processed-challenges/Matchmaker/bin/Matchmaker\n'
p107
I0
tp108
a(I6480
S'start_time     : 1500241704\nlast_update    : 1500248136\nfuzzer_pid     : 8104\ncycles_done    : 1\nexecs_done     : 3978132\nexecs_per_sec  : 624.87\npaths_total    : 243\npaths_favored  : 82\npaths_found    : 242\npaths_imported : 0\nmax_depth      : 10\ncur_path       : 49\npending_favs   : 0\npending_total  : 120\nvariable_paths : 0\nbitmap_cvg     : 0.91%\nunique_crashes : 58\nunique_hangs   : 2\nlast_path      : 1500247895\nlast_crash     : 1500247677\nlast_hang      : 1500243427\nexec_timeout   : 20\nafl_banner     : fuzzer-master\nafl_version    : 1.85b\ncommand_line   : /home/skaramcheti/.virtualenvs/afl/bin/afl-unix/afl-fuzz -i /dev/shm/work/Matchmaker/input -o /dev/shm/work/Matchmaker/sync -m 4G -Q -M fuzzer-master -x /dev/shm/work/Matchmaker/Matchmaker.dict -- data/linux/processed-challenges/Matchmaker/bin/Matchmaker\n'
p109
I0
tp110
a(I6600
S'start_time     : 1500241704\nlast_update    : 1500248256\nfuzzer_pid     : 8104\ncycles_done    : 1\nexecs_done     : 4044868\nexecs_per_sec  : 576.14\npaths_total    : 245\npaths_favored  : 82\npaths_found    : 244\npaths_imported : 0\nmax_depth      : 10\ncur_path       : 62\npending_favs   : 0\npending_total  : 121\nvariable_paths : 0\nbitmap_cvg     : 0.91%\nunique_crashes : 58\nunique_hangs   : 2\nlast_path      : 1500248215\nlast_crash     : 1500247677\nlast_hang      : 1500243427\nexec_timeout   : 20\nafl_banner     : fuzzer-master\nafl_version    : 1.85b\ncommand_line   : /home/skaramcheti/.virtualenvs/afl/bin/afl-unix/afl-fuzz -i /dev/shm/work/Matchmaker/input -o /dev/shm/work/Matchmaker/sync -m 4G -Q -M fuzzer-master -x /dev/shm/work/Matchmaker/Matchmaker.dict -- data/linux/processed-challenges/Matchmaker/bin/Matchmaker\n'
p111
I2
tp112
a(I6720
S'start_time     : 1500241704\nlast_update    : 1500248376\nfuzzer_pid     : 8104\ncycles_done    : 1\nexecs_done     : 4118987\nexecs_per_sec  : 449.33\npaths_total    : 245\npaths_favored  : 82\npaths_found    : 244\npaths_imported : 0\nmax_depth      : 10\ncur_path       : 72\npending_favs   : 0\npending_total  : 119\nvariable_paths : 0\nbitmap_cvg     : 0.91%\nunique_crashes : 58\nunique_hangs   : 2\nlast_path      : 1500248215\nlast_crash     : 1500247677\nlast_hang      : 1500243427\nexec_timeout   : 20\nafl_banner     : fuzzer-master\nafl_version    : 1.85b\ncommand_line   : /home/skaramcheti/.virtualenvs/afl/bin/afl-unix/afl-fuzz -i /dev/shm/work/Matchmaker/input -o /dev/shm/work/Matchmaker/sync -m 4G -Q -M fuzzer-master -x /dev/shm/work/Matchmaker/Matchmaker.dict -- data/linux/processed-challenges/Matchmaker/bin/Matchmaker\n'
p113
I2
tp114
a(I6840
S'start_time     : 1500241704\nlast_update    : 1500248496\nfuzzer_pid     : 8104\ncycles_done    : 1\nexecs_done     : 4189110\nexecs_per_sec  : 647.51\npaths_total    : 247\npaths_favored  : 82\npaths_found    : 246\npaths_imported : 0\nmax_depth      : 10\ncur_path       : 87\npending_favs   : 0\npending_total  : 119\nvariable_paths : 0\nbitmap_cvg     : 0.91%\nunique_crashes : 58\nunique_hangs   : 3\nlast_path      : 1500248388\nlast_crash     : 1500247677\nlast_hang      : 1500248450\nexec_timeout   : 20\nafl_banner     : fuzzer-master\nafl_version    : 1.85b\ncommand_line   : /home/skaramcheti/.virtualenvs/afl/bin/afl-unix/afl-fuzz -i /dev/shm/work/Matchmaker/input -o /dev/shm/work/Matchmaker/sync -m 4G -Q -M fuzzer-master -x /dev/shm/work/Matchmaker/Matchmaker.dict -- data/linux/processed-challenges/Matchmaker/bin/Matchmaker\n'
p115
I0
tp116
a(I6960
S'start_time     : 1500241704\nlast_update    : 1500248617\nfuzzer_pid     : 8104\ncycles_done    : 1\nexecs_done     : 4263438\nexecs_per_sec  : 563.29\npaths_total    : 247\npaths_favored  : 82\npaths_found    : 246\npaths_imported : 0\nmax_depth      : 10\ncur_path       : 99\npending_favs   : 0\npending_total  : 118\nvariable_paths : 0\nbitmap_cvg     : 0.91%\nunique_crashes : 58\nunique_hangs   : 3\nlast_path      : 1500248388\nlast_crash     : 1500247677\nlast_hang      : 1500248450\nexec_timeout   : 20\nafl_banner     : fuzzer-master\nafl_version    : 1.85b\ncommand_line   : /home/skaramcheti/.virtualenvs/afl/bin/afl-unix/afl-fuzz -i /dev/shm/work/Matchmaker/input -o /dev/shm/work/Matchmaker/sync -m 4G -Q -M fuzzer-master -x /dev/shm/work/Matchmaker/Matchmaker.dict -- data/linux/processed-challenges/Matchmaker/bin/Matchmaker\n'
p117
I0
tp118
a(I7080
S'start_time     : 1500241704\nlast_update    : 1500248737\nfuzzer_pid     : 8104\ncycles_done    : 1\nexecs_done     : 4336364\nexecs_per_sec  : 572.80\npaths_total    : 247\npaths_favored  : 82\npaths_found    : 246\npaths_imported : 0\nmax_depth      : 10\ncur_path       : 117\npending_favs   : 0\npending_total  : 117\nvariable_paths : 0\nbitmap_cvg     : 0.91%\nunique_crashes : 58\nunique_hangs   : 3\nlast_path      : 1500248388\nlast_crash     : 1500247677\nlast_hang      : 1500248450\nexec_timeout   : 20\nafl_banner     : fuzzer-master\nafl_version    : 1.85b\ncommand_line   : /home/skaramcheti/.virtualenvs/afl/bin/afl-unix/afl-fuzz -i /dev/shm/work/Matchmaker/input -o /dev/shm/work/Matchmaker/sync -m 4G -Q -M fuzzer-master -x /dev/shm/work/Matchmaker/Matchmaker.dict -- data/linux/processed-challenges/Matchmaker/bin/Matchmaker\n'
p119
I0
tp120
a(I7200
S'start_time     : 1500241704\nlast_update    : 1500248857\nfuzzer_pid     : 8104\ncycles_done    : 1\nexecs_done     : 4410172\nexecs_per_sec  : 619.76\npaths_total    : 248\npaths_favored  : 82\npaths_found    : 247\npaths_imported : 0\nmax_depth      : 10\ncur_path       : 127\npending_favs   : 0\npending_total  : 115\nvariable_paths : 0\nbitmap_cvg     : 0.91%\nunique_crashes : 58\nunique_hangs   : 3\nlast_path      : 1500248853\nlast_crash     : 1500247677\nlast_hang      : 1500248450\nexec_timeout   : 20\nafl_banner     : fuzzer-master\nafl_version    : 1.85b\ncommand_line   : /home/skaramcheti/.virtualenvs/afl/bin/afl-unix/afl-fuzz -i /dev/shm/work/Matchmaker/input -o /dev/shm/work/Matchmaker/sync -m 4G -Q -M fuzzer-master -x /dev/shm/work/Matchmaker/Matchmaker.dict -- data/linux/processed-challenges/Matchmaker/bin/Matchmaker\n'
p121
I1
tp122
a(I7320
S'start_time     : 1500241704\nlast_update    : 1500248977\nfuzzer_pid     : 8104\ncycles_done    : 1\nexecs_done     : 4486274\nexecs_per_sec  : 583.29\npaths_total    : 248\npaths_favored  : 82\npaths_found    : 247\npaths_imported : 0\nmax_depth      : 10\ncur_path       : 144\npending_favs   : 0\npending_total  : 115\nvariable_paths : 0\nbitmap_cvg     : 0.91%\nunique_crashes : 58\nunique_hangs   : 3\nlast_path      : 1500248853\nlast_crash     : 1500247677\nlast_hang      : 1500248450\nexec_timeout   : 20\nafl_banner     : fuzzer-master\nafl_version    : 1.85b\ncommand_line   : /home/skaramcheti/.virtualenvs/afl/bin/afl-unix/afl-fuzz -i /dev/shm/work/Matchmaker/input -o /dev/shm/work/Matchmaker/sync -m 4G -Q -M fuzzer-master -x /dev/shm/work/Matchmaker/Matchmaker.dict -- data/linux/processed-challenges/Matchmaker/bin/Matchmaker\n'
p123
I0
tp124
a(I7440
S'start_time     : 1500241704\nlast_update    : 1500249097\nfuzzer_pid     : 8104\ncycles_done    : 1\nexecs_done     : 4551814\nexecs_per_sec  : 431.49\npaths_total    : 249\npaths_favored  : 82\npaths_found    : 248\npaths_imported : 0\nmax_depth      : 10\ncur_path       : 147\npending_favs   : 0\npending_total  : 114\nvariable_paths : 0\nbitmap_cvg     : 0.91%\nunique_crashes : 58\nunique_hangs   : 3\nlast_path      : 1500249064\nlast_crash     : 1500247677\nlast_hang      : 1500248450\nexec_timeout   : 20\nafl_banner     : fuzzer-master\nafl_version    : 1.85b\ncommand_line   : /home/skaramcheti/.virtualenvs/afl/bin/afl-unix/afl-fuzz -i /dev/shm/work/Matchmaker/input -o /dev/shm/work/Matchmaker/sync -m 4G -Q -M fuzzer-master -x /dev/shm/work/Matchmaker/Matchmaker.dict -- data/linux/processed-challenges/Matchmaker/bin/Matchmaker\n'
p125
I2
tp126
a(I7560
S'start_time     : 1500241704\nlast_update    : 1500249218\nfuzzer_pid     : 8104\ncycles_done    : 1\nexecs_done     : 4610421\nexecs_per_sec  : 561.78\npaths_total    : 250\npaths_favored  : 80\npaths_found    : 249\npaths_imported : 0\nmax_depth      : 10\ncur_path       : 249\npending_favs   : 1\npending_total  : 114\nvariable_paths : 0\nbitmap_cvg     : 0.91%\nunique_crashes : 58\nunique_hangs   : 3\nlast_path      : 1500249107\nlast_crash     : 1500247677\nlast_hang      : 1500248450\nexec_timeout   : 20\nafl_banner     : fuzzer-master\nafl_version    : 1.85b\ncommand_line   : /home/skaramcheti/.virtualenvs/afl/bin/afl-unix/afl-fuzz -i /dev/shm/work/Matchmaker/input -o /dev/shm/work/Matchmaker/sync -m 4G -Q -M fuzzer-master -x /dev/shm/work/Matchmaker/Matchmaker.dict -- data/linux/processed-challenges/Matchmaker/bin/Matchmaker\n'
p127
I0
tp128
a(I7680
S'start_time     : 1500241704\nlast_update    : 1500249338\nfuzzer_pid     : 8104\ncycles_done    : 2\nexecs_done     : 4683144\nexecs_per_sec  : 640.53\npaths_total    : 250\npaths_favored  : 80\npaths_found    : 249\npaths_imported : 0\nmax_depth      : 10\ncur_path       : 47\npending_favs   : 0\npending_total  : 111\nvariable_paths : 0\nbitmap_cvg     : 0.91%\nunique_crashes : 58\nunique_hangs   : 3\nlast_path      : 1500249107\nlast_crash     : 1500247677\nlast_hang      : 1500248450\nexec_timeout   : 20\nafl_banner     : fuzzer-master\nafl_version    : 1.85b\ncommand_line   : /home/skaramcheti/.virtualenvs/afl/bin/afl-unix/afl-fuzz -i /dev/shm/work/Matchmaker/input -o /dev/shm/work/Matchmaker/sync -m 4G -Q -M fuzzer-master -x /dev/shm/work/Matchmaker/Matchmaker.dict -- data/linux/processed-challenges/Matchmaker/bin/Matchmaker\n'
p129
I0
tp130
a(I7800
S'start_time     : 1500241704\nlast_update    : 1500249458\nfuzzer_pid     : 8104\ncycles_done    : 2\nexecs_done     : 4758597\nexecs_per_sec  : 640.05\npaths_total    : 250\npaths_favored  : 80\npaths_found    : 249\npaths_imported : 0\nmax_depth      : 10\ncur_path       : 81\npending_favs   : 0\npending_total  : 110\nvariable_paths : 0\nbitmap_cvg     : 0.91%\nunique_crashes : 58\nunique_hangs   : 3\nlast_path      : 1500249107\nlast_crash     : 1500247677\nlast_hang      : 1500248450\nexec_timeout   : 20\nafl_banner     : fuzzer-master\nafl_version    : 1.85b\ncommand_line   : /home/skaramcheti/.virtualenvs/afl/bin/afl-unix/afl-fuzz -i /dev/shm/work/Matchmaker/input -o /dev/shm/work/Matchmaker/sync -m 4G -Q -M fuzzer-master -x /dev/shm/work/Matchmaker/Matchmaker.dict -- data/linux/processed-challenges/Matchmaker/bin/Matchmaker\n'
p131
I0
tp132
a(I7920
S'start_time     : 1500241704\nlast_update    : 1500249579\nfuzzer_pid     : 8104\ncycles_done    : 2\nexecs_done     : 4835121\nexecs_per_sec  : 631.37\npaths_total    : 250\npaths_favored  : 80\npaths_found    : 249\npaths_imported : 0\nmax_depth      : 10\ncur_path       : 93\npending_favs   : 0\npending_total  : 109\nvariable_paths : 0\nbitmap_cvg     : 0.91%\nunique_crashes : 58\nunique_hangs   : 3\nlast_path      : 1500249107\nlast_crash     : 1500247677\nlast_hang      : 1500248450\nexec_timeout   : 20\nafl_banner     : fuzzer-master\nafl_version    : 1.85b\ncommand_line   : /home/skaramcheti/.virtualenvs/afl/bin/afl-unix/afl-fuzz -i /dev/shm/work/Matchmaker/input -o /dev/shm/work/Matchmaker/sync -m 4G -Q -M fuzzer-master -x /dev/shm/work/Matchmaker/Matchmaker.dict -- data/linux/processed-challenges/Matchmaker/bin/Matchmaker\n'
p133
I0
tp134
a(I8040
S'start_time     : 1500241704\nlast_update    : 1500249699\nfuzzer_pid     : 8104\ncycles_done    : 2\nexecs_done     : 4911106\nexecs_per_sec  : 645.83\npaths_total    : 250\npaths_favored  : 80\npaths_found    : 249\npaths_imported : 0\nmax_depth      : 10\ncur_path       : 114\npending_favs   : 0\npending_total  : 106\nvariable_paths : 0\nbitmap_cvg     : 0.91%\nunique_crashes : 58\nunique_hangs   : 3\nlast_path      : 1500249107\nlast_crash     : 1500247677\nlast_hang      : 1500248450\nexec_timeout   : 20\nafl_banner     : fuzzer-master\nafl_version    : 1.85b\ncommand_line   : /home/skaramcheti/.virtualenvs/afl/bin/afl-unix/afl-fuzz -i /dev/shm/work/Matchmaker/input -o /dev/shm/work/Matchmaker/sync -m 4G -Q -M fuzzer-master -x /dev/shm/work/Matchmaker/Matchmaker.dict -- data/linux/processed-challenges/Matchmaker/bin/Matchmaker\n'
p135
I0
tp136
a(I8160
S'start_time     : 1500241704\nlast_update    : 1500249819\nfuzzer_pid     : 8104\ncycles_done    : 2\nexecs_done     : 4984524\nexecs_per_sec  : 619.19\npaths_total    : 250\npaths_favored  : 80\npaths_found    : 249\npaths_imported : 0\nmax_depth      : 10\ncur_path       : 127\npending_favs   : 0\npending_total  : 104\nvariable_paths : 0\nbitmap_cvg     : 0.91%\nunique_crashes : 58\nunique_hangs   : 3\nlast_path      : 1500249107\nlast_crash     : 1500247677\nlast_hang      : 1500248450\nexec_timeout   : 20\nafl_banner     : fuzzer-master\nafl_version    : 1.85b\ncommand_line   : /home/skaramcheti/.virtualenvs/afl/bin/afl-unix/afl-fuzz -i /dev/shm/work/Matchmaker/input -o /dev/shm/work/Matchmaker/sync -m 4G -Q -M fuzzer-master -x /dev/shm/work/Matchmaker/Matchmaker.dict -- data/linux/processed-challenges/Matchmaker/bin/Matchmaker\n'
p137
I0
tp138
a(I8280
S'start_time     : 1500241704\nlast_update    : 1500249940\nfuzzer_pid     : 8104\ncycles_done    : 2\nexecs_done     : 5060826\nexecs_per_sec  : 639.01\npaths_total    : 250\npaths_favored  : 80\npaths_found    : 249\npaths_imported : 0\nmax_depth      : 10\ncur_path       : 140\npending_favs   : 0\npending_total  : 102\nvariable_paths : 0\nbitmap_cvg     : 0.91%\nunique_crashes : 58\nunique_hangs   : 3\nlast_path      : 1500249107\nlast_crash     : 1500247677\nlast_hang      : 1500248450\nexec_timeout   : 20\nafl_banner     : fuzzer-master\nafl_version    : 1.85b\ncommand_line   : /home/skaramcheti/.virtualenvs/afl/bin/afl-unix/afl-fuzz -i /dev/shm/work/Matchmaker/input -o /dev/shm/work/Matchmaker/sync -m 4G -Q -M fuzzer-master -x /dev/shm/work/Matchmaker/Matchmaker.dict -- data/linux/processed-challenges/Matchmaker/bin/Matchmaker\n'
p139
I0
tp140
a(I8400
S'start_time     : 1500241704\nlast_update    : 1500250060\nfuzzer_pid     : 8104\ncycles_done    : 2\nexecs_done     : 5133378\nexecs_per_sec  : 632.36\npaths_total    : 250\npaths_favored  : 80\npaths_found    : 249\npaths_imported : 0\nmax_depth      : 10\ncur_path       : 153\npending_favs   : 0\npending_total  : 100\nvariable_paths : 0\nbitmap_cvg     : 0.91%\nunique_crashes : 58\nunique_hangs   : 3\nlast_path      : 1500249107\nlast_crash     : 1500247677\nlast_hang      : 1500248450\nexec_timeout   : 20\nafl_banner     : fuzzer-master\nafl_version    : 1.85b\ncommand_line   : /home/skaramcheti/.virtualenvs/afl/bin/afl-unix/afl-fuzz -i /dev/shm/work/Matchmaker/input -o /dev/shm/work/Matchmaker/sync -m 4G -Q -M fuzzer-master -x /dev/shm/work/Matchmaker/Matchmaker.dict -- data/linux/processed-challenges/Matchmaker/bin/Matchmaker\n'
p141
I1
tp142
a(I8520
S'start_time     : 1500241704\nlast_update    : 1500250180\nfuzzer_pid     : 8104\ncycles_done    : 2\nexecs_done     : 5211260\nexecs_per_sec  : 645.85\npaths_total    : 251\npaths_favored  : 80\npaths_found    : 250\npaths_imported : 0\nmax_depth      : 10\ncur_path       : 163\npending_favs   : 0\npending_total  : 100\nvariable_paths : 0\nbitmap_cvg     : 0.91%\nunique_crashes : 58\nunique_hangs   : 3\nlast_path      : 1500250062\nlast_crash     : 1500247677\nlast_hang      : 1500248450\nexec_timeout   : 20\nafl_banner     : fuzzer-master\nafl_version    : 1.85b\ncommand_line   : /home/skaramcheti/.virtualenvs/afl/bin/afl-unix/afl-fuzz -i /dev/shm/work/Matchmaker/input -o /dev/shm/work/Matchmaker/sync -m 4G -Q -M fuzzer-master -x /dev/shm/work/Matchmaker/Matchmaker.dict -- data/linux/processed-challenges/Matchmaker/bin/Matchmaker\n'
p143
I0
tp144
a(I8640
S'start_time     : 1500241704\nlast_update    : 1500250300\nfuzzer_pid     : 8104\ncycles_done    : 2\nexecs_done     : 5285858\nexecs_per_sec  : 663.74\npaths_total    : 251\npaths_favored  : 80\npaths_found    : 250\npaths_imported : 0\nmax_depth      : 10\ncur_path       : 177\npending_favs   : 0\npending_total  : 99\nvariable_paths : 0\nbitmap_cvg     : 0.91%\nunique_crashes : 58\nunique_hangs   : 3\nlast_path      : 1500250062\nlast_crash     : 1500247677\nlast_hang      : 1500248450\nexec_timeout   : 20\nafl_banner     : fuzzer-master\nafl_version    : 1.85b\ncommand_line   : /home/skaramcheti/.virtualenvs/afl/bin/afl-unix/afl-fuzz -i /dev/shm/work/Matchmaker/input -o /dev/shm/work/Matchmaker/sync -m 4G -Q -M fuzzer-master -x /dev/shm/work/Matchmaker/Matchmaker.dict -- data/linux/processed-challenges/Matchmaker/bin/Matchmaker\n'
p145
I0
tp146
a(I8760
S'start_time     : 1500241704\nlast_update    : 1500250420\nfuzzer_pid     : 8104\ncycles_done    : 2\nexecs_done     : 5362172\nexecs_per_sec  : 635.86\npaths_total    : 253\npaths_favored  : 80\npaths_found    : 252\npaths_imported : 0\nmax_depth      : 10\ncur_path       : 182\npending_favs   : 0\npending_total  : 101\nvariable_paths : 0\nbitmap_cvg     : 0.91%\nunique_crashes : 59\nunique_hangs   : 3\nlast_path      : 1500250393\nlast_crash     : 1500250372\nlast_hang      : 1500248450\nexec_timeout   : 20\nafl_banner     : fuzzer-master\nafl_version    : 1.85b\ncommand_line   : /home/skaramcheti/.virtualenvs/afl/bin/afl-unix/afl-fuzz -i /dev/shm/work/Matchmaker/input -o /dev/shm/work/Matchmaker/sync -m 4G -Q -M fuzzer-master -x /dev/shm/work/Matchmaker/Matchmaker.dict -- data/linux/processed-challenges/Matchmaker/bin/Matchmaker\n'
p147
I2
tp148
a(I8880
S'start_time     : 1500241704\nlast_update    : 1500250541\nfuzzer_pid     : 8104\ncycles_done    : 2\nexecs_done     : 5429108\nexecs_per_sec  : 580.07\npaths_total    : 256\npaths_favored  : 80\npaths_found    : 255\npaths_imported : 0\nmax_depth      : 10\ncur_path       : 186\npending_favs   : 0\npending_total  : 103\nvariable_paths : 0\nbitmap_cvg     : 0.91%\nunique_crashes : 59\nunique_hangs   : 3\nlast_path      : 1500250482\nlast_crash     : 1500250372\nlast_hang      : 1500248450\nexec_timeout   : 20\nafl_banner     : fuzzer-master\nafl_version    : 1.85b\ncommand_line   : /home/skaramcheti/.virtualenvs/afl/bin/afl-unix/afl-fuzz -i /dev/shm/work/Matchmaker/input -o /dev/shm/work/Matchmaker/sync -m 4G -Q -M fuzzer-master -x /dev/shm/work/Matchmaker/Matchmaker.dict -- data/linux/processed-challenges/Matchmaker/bin/Matchmaker\n'
p149
I4
tp150
a(I9000
S'start_time     : 1500241704\nlast_update    : 1500250661\nfuzzer_pid     : 8104\ncycles_done    : 2\nexecs_done     : 5499078\nexecs_per_sec  : 593.44\npaths_total    : 257\npaths_favored  : 80\npaths_found    : 256\npaths_imported : 0\nmax_depth      : 10\ncur_path       : 186\npending_favs   : 0\npending_total  : 104\nvariable_paths : 0\nbitmap_cvg     : 0.91%\nunique_crashes : 59\nunique_hangs   : 3\nlast_path      : 1500250553\nlast_crash     : 1500250372\nlast_hang      : 1500248450\nexec_timeout   : 20\nafl_banner     : fuzzer-master\nafl_version    : 1.85b\ncommand_line   : /home/skaramcheti/.virtualenvs/afl/bin/afl-unix/afl-fuzz -i /dev/shm/work/Matchmaker/input -o /dev/shm/work/Matchmaker/sync -m 4G -Q -M fuzzer-master -x /dev/shm/work/Matchmaker/Matchmaker.dict -- data/linux/processed-challenges/Matchmaker/bin/Matchmaker\n'
p151
I2
tp152
a(I9120
S'start_time     : 1500241704\nlast_update    : 1500250781\nfuzzer_pid     : 8104\ncycles_done    : 2\nexecs_done     : 5564712\nexecs_per_sec  : 466.42\npaths_total    : 259\npaths_favored  : 80\npaths_found    : 258\npaths_imported : 0\nmax_depth      : 10\ncur_path       : 187\npending_favs   : 0\npending_total  : 105\nvariable_paths : 0\nbitmap_cvg     : 0.91%\nunique_crashes : 59\nunique_hangs   : 3\nlast_path      : 1500250692\nlast_crash     : 1500250372\nlast_hang      : 1500248450\nexec_timeout   : 20\nafl_banner     : fuzzer-master\nafl_version    : 1.85b\ncommand_line   : /home/skaramcheti/.virtualenvs/afl/bin/afl-unix/afl-fuzz -i /dev/shm/work/Matchmaker/input -o /dev/shm/work/Matchmaker/sync -m 4G -Q -M fuzzer-master -x /dev/shm/work/Matchmaker/Matchmaker.dict -- data/linux/processed-challenges/Matchmaker/bin/Matchmaker\n'
p153
I1
tp154
a(I9240
S'start_time     : 1500241704\nlast_update    : 1500250902\nfuzzer_pid     : 8104\ncycles_done    : 2\nexecs_done     : 5619069\nexecs_per_sec  : 393.54\npaths_total    : 260\npaths_favored  : 80\npaths_found    : 259\npaths_imported : 0\nmax_depth      : 10\ncur_path       : 188\npending_favs   : 0\npending_total  : 105\nvariable_paths : 0\nbitmap_cvg     : 0.91%\nunique_crashes : 59\nunique_hangs   : 3\nlast_path      : 1500250805\nlast_crash     : 1500250372\nlast_hang      : 1500248450\nexec_timeout   : 20\nafl_banner     : fuzzer-master\nafl_version    : 1.85b\ncommand_line   : /home/skaramcheti/.virtualenvs/afl/bin/afl-unix/afl-fuzz -i /dev/shm/work/Matchmaker/input -o /dev/shm/work/Matchmaker/sync -m 4G -Q -M fuzzer-master -x /dev/shm/work/Matchmaker/Matchmaker.dict -- data/linux/processed-challenges/Matchmaker/bin/Matchmaker\n'
p155
I0
tp156
a(I9360
S'start_time     : 1500241704\nlast_update    : 1500251022\nfuzzer_pid     : 8104\ncycles_done    : 2\nexecs_done     : 5684041\nexecs_per_sec  : 656.55\npaths_total    : 260\npaths_favored  : 80\npaths_found    : 259\npaths_imported : 0\nmax_depth      : 10\ncur_path       : 197\npending_favs   : 0\npending_total  : 104\nvariable_paths : 0\nbitmap_cvg     : 0.91%\nunique_crashes : 59\nunique_hangs   : 3\nlast_path      : 1500250805\nlast_crash     : 1500250372\nlast_hang      : 1500248450\nexec_timeout   : 20\nafl_banner     : fuzzer-master\nafl_version    : 1.85b\ncommand_line   : /home/skaramcheti/.virtualenvs/afl/bin/afl-unix/afl-fuzz -i /dev/shm/work/Matchmaker/input -o /dev/shm/work/Matchmaker/sync -m 4G -Q -M fuzzer-master -x /dev/shm/work/Matchmaker/Matchmaker.dict -- data/linux/processed-challenges/Matchmaker/bin/Matchmaker\n'
p157
I0
tp158
a(I9480
S'start_time     : 1500241704\nlast_update    : 1500251142\nfuzzer_pid     : 8104\ncycles_done    : 2\nexecs_done     : 5759181\nexecs_per_sec  : 639.50\npaths_total    : 261\npaths_favored  : 80\npaths_found    : 260\npaths_imported : 0\nmax_depth      : 10\ncur_path       : 200\npending_favs   : 0\npending_total  : 105\nvariable_paths : 0\nbitmap_cvg     : 0.91%\nunique_crashes : 60\nunique_hangs   : 3\nlast_path      : 1500251104\nlast_crash     : 1500251094\nlast_hang      : 1500248450\nexec_timeout   : 20\nafl_banner     : fuzzer-master\nafl_version    : 1.85b\ncommand_line   : /home/skaramcheti/.virtualenvs/afl/bin/afl-unix/afl-fuzz -i /dev/shm/work/Matchmaker/input -o /dev/shm/work/Matchmaker/sync -m 4G -Q -M fuzzer-master -x /dev/shm/work/Matchmaker/Matchmaker.dict -- data/linux/processed-challenges/Matchmaker/bin/Matchmaker\n'
p159
I1
tp160
a(I9600
S'start_time     : 1500241704\nlast_update    : 1500251262\nfuzzer_pid     : 8104\ncycles_done    : 2\nexecs_done     : 5835603\nexecs_per_sec  : 634.38\npaths_total    : 262\npaths_favored  : 80\npaths_found    : 261\npaths_imported : 0\nmax_depth      : 10\ncur_path       : 203\npending_favs   : 0\npending_total  : 106\nvariable_paths : 0\nbitmap_cvg     : 0.91%\nunique_crashes : 61\nunique_hangs   : 3\nlast_path      : 1500251226\nlast_crash     : 1500251233\nlast_hang      : 1500248450\nexec_timeout   : 20\nafl_banner     : fuzzer-master\nafl_version    : 1.85b\ncommand_line   : /home/skaramcheti/.virtualenvs/afl/bin/afl-unix/afl-fuzz -i /dev/shm/work/Matchmaker/input -o /dev/shm/work/Matchmaker/sync -m 4G -Q -M fuzzer-master -x /dev/shm/work/Matchmaker/Matchmaker.dict -- data/linux/processed-challenges/Matchmaker/bin/Matchmaker\n'
p161
I1
tp162
a(I9720
S'start_time     : 1500241704\nlast_update    : 1500251382\nfuzzer_pid     : 8104\ncycles_done    : 2\nexecs_done     : 5910545\nexecs_per_sec  : 633.78\npaths_total    : 262\npaths_favored  : 80\npaths_found    : 261\npaths_imported : 0\nmax_depth      : 10\ncur_path       : 210\npending_favs   : 0\npending_total  : 105\nvariable_paths : 0\nbitmap_cvg     : 0.91%\nunique_crashes : 61\nunique_hangs   : 3\nlast_path      : 1500251226\nlast_crash     : 1500251233\nlast_hang      : 1500248450\nexec_timeout   : 20\nafl_banner     : fuzzer-master\nafl_version    : 1.85b\ncommand_line   : /home/skaramcheti/.virtualenvs/afl/bin/afl-unix/afl-fuzz -i /dev/shm/work/Matchmaker/input -o /dev/shm/work/Matchmaker/sync -m 4G -Q -M fuzzer-master -x /dev/shm/work/Matchmaker/Matchmaker.dict -- data/linux/processed-challenges/Matchmaker/bin/Matchmaker\n'
p163
I1
tp164
a(I9840
S'start_time     : 1500241704\nlast_update    : 1500251502\nfuzzer_pid     : 8104\ncycles_done    : 2\nexecs_done     : 5985570\nexecs_per_sec  : 603.85\npaths_total    : 263\npaths_favored  : 80\npaths_found    : 262\npaths_imported : 0\nmax_depth      : 10\ncur_path       : 213\npending_favs   : 0\npending_total  : 106\nvariable_paths : 0\nbitmap_cvg     : 0.91%\nunique_crashes : 62\nunique_hangs   : 3\nlast_path      : 1500251410\nlast_crash     : 1500251382\nlast_hang      : 1500248450\nexec_timeout   : 20\nafl_banner     : fuzzer-master\nafl_version    : 1.85b\ncommand_line   : /home/skaramcheti/.virtualenvs/afl/bin/afl-unix/afl-fuzz -i /dev/shm/work/Matchmaker/input -o /dev/shm/work/Matchmaker/sync -m 4G -Q -M fuzzer-master -x /dev/shm/work/Matchmaker/Matchmaker.dict -- data/linux/processed-challenges/Matchmaker/bin/Matchmaker\n'
p165
I2
tp166
a(I9960
S'start_time     : 1500241704\nlast_update    : 1500251623\nfuzzer_pid     : 8104\ncycles_done    : 2\nexecs_done     : 6061358\nexecs_per_sec  : 614.32\npaths_total    : 265\npaths_favored  : 80\npaths_found    : 264\npaths_imported : 0\nmax_depth      : 10\ncur_path       : 213\npending_favs   : 0\npending_total  : 108\nvariable_paths : 0\nbitmap_cvg     : 0.91%\nunique_crashes : 62\nunique_hangs   : 3\nlast_path      : 1500251522\nlast_crash     : 1500251382\nlast_hang      : 1500248450\nexec_timeout   : 20\nafl_banner     : fuzzer-master\nafl_version    : 1.85b\ncommand_line   : /home/skaramcheti/.virtualenvs/afl/bin/afl-unix/afl-fuzz -i /dev/shm/work/Matchmaker/input -o /dev/shm/work/Matchmaker/sync -m 4G -Q -M fuzzer-master -x /dev/shm/work/Matchmaker/Matchmaker.dict -- data/linux/processed-challenges/Matchmaker/bin/Matchmaker\n'
p167
I0
tp168
a(I10080
S'start_time     : 1500241704\nlast_update    : 1500251743\nfuzzer_pid     : 8104\ncycles_done    : 2\nexecs_done     : 6135414\nexecs_per_sec  : 596.38\npaths_total    : 265\npaths_favored  : 80\npaths_found    : 264\npaths_imported : 0\nmax_depth      : 10\ncur_path       : 225\npending_favs   : 0\npending_total  : 107\nvariable_paths : 0\nbitmap_cvg     : 0.91%\nunique_crashes : 62\nunique_hangs   : 3\nlast_path      : 1500251522\nlast_crash     : 1500251382\nlast_hang      : 1500248450\nexec_timeout   : 20\nafl_banner     : fuzzer-master\nafl_version    : 1.85b\ncommand_line   : /home/skaramcheti/.virtualenvs/afl/bin/afl-unix/afl-fuzz -i /dev/shm/work/Matchmaker/input -o /dev/shm/work/Matchmaker/sync -m 4G -Q -M fuzzer-master -x /dev/shm/work/Matchmaker/Matchmaker.dict -- data/linux/processed-challenges/Matchmaker/bin/Matchmaker\n'
p169
I0
tp170
a(I10200
S'start_time     : 1500241704\nlast_update    : 1500251863\nfuzzer_pid     : 8104\ncycles_done    : 2\nexecs_done     : 6208966\nexecs_per_sec  : 636.64\npaths_total    : 265\npaths_favored  : 80\npaths_found    : 264\npaths_imported : 0\nmax_depth      : 10\ncur_path       : 227\npending_favs   : 0\npending_total  : 105\nvariable_paths : 0\nbitmap_cvg     : 0.91%\nunique_crashes : 63\nunique_hangs   : 3\nlast_path      : 1500251522\nlast_crash     : 1500251787\nlast_hang      : 1500248450\nexec_timeout   : 20\nafl_banner     : fuzzer-master\nafl_version    : 1.85b\ncommand_line   : /home/skaramcheti/.virtualenvs/afl/bin/afl-unix/afl-fuzz -i /dev/shm/work/Matchmaker/input -o /dev/shm/work/Matchmaker/sync -m 4G -Q -M fuzzer-master -x /dev/shm/work/Matchmaker/Matchmaker.dict -- data/linux/processed-challenges/Matchmaker/bin/Matchmaker\n'
p171
I0
tp172
a(I10320
S'start_time     : 1500241704\nlast_update    : 1500251983\nfuzzer_pid     : 8104\ncycles_done    : 2\nexecs_done     : 6285280\nexecs_per_sec  : 598.44\npaths_total    : 265\npaths_favored  : 80\npaths_found    : 264\npaths_imported : 0\nmax_depth      : 10\ncur_path       : 231\npending_favs   : 0\npending_total  : 105\nvariable_paths : 0\nbitmap_cvg     : 0.91%\nunique_crashes : 63\nunique_hangs   : 3\nlast_path      : 1500251522\nlast_crash     : 1500251787\nlast_hang      : 1500248450\nexec_timeout   : 20\nafl_banner     : fuzzer-master\nafl_version    : 1.85b\ncommand_line   : /home/skaramcheti/.virtualenvs/afl/bin/afl-unix/afl-fuzz -i /dev/shm/work/Matchmaker/input -o /dev/shm/work/Matchmaker/sync -m 4G -Q -M fuzzer-master -x /dev/shm/work/Matchmaker/Matchmaker.dict -- data/linux/processed-challenges/Matchmaker/bin/Matchmaker\n'
p173
I0
tp174
a(I10440
S'start_time     : 1500241704\nlast_update    : 1500252103\nfuzzer_pid     : 8104\ncycles_done    : 2\nexecs_done     : 6358994\nexecs_per_sec  : 623.79\npaths_total    : 266\npaths_favored  : 80\npaths_found    : 265\npaths_imported : 0\nmax_depth      : 10\ncur_path       : 232\npending_favs   : 0\npending_total  : 105\nvariable_paths : 0\nbitmap_cvg     : 0.91%\nunique_crashes : 63\nunique_hangs   : 3\nlast_path      : 1500252047\nlast_crash     : 1500251787\nlast_hang      : 1500248450\nexec_timeout   : 20\nafl_banner     : fuzzer-master\nafl_version    : 1.85b\ncommand_line   : /home/skaramcheti/.virtualenvs/afl/bin/afl-unix/afl-fuzz -i /dev/shm/work/Matchmaker/input -o /dev/shm/work/Matchmaker/sync -m 4G -Q -M fuzzer-master -x /dev/shm/work/Matchmaker/Matchmaker.dict -- data/linux/processed-challenges/Matchmaker/bin/Matchmaker\n'
p175
I2
tp176
a(I10560
S'start_time     : 1500241704\nlast_update    : 1500252223\nfuzzer_pid     : 8104\ncycles_done    : 2\nexecs_done     : 6432475\nexecs_per_sec  : 576.00\npaths_total    : 267\npaths_favored  : 80\npaths_found    : 266\npaths_imported : 0\nmax_depth      : 10\ncur_path       : 236\npending_favs   : 0\npending_total  : 106\nvariable_paths : 0\nbitmap_cvg     : 0.91%\nunique_crashes : 64\nunique_hangs   : 3\nlast_path      : 1500252157\nlast_crash     : 1500252156\nlast_hang      : 1500248450\nexec_timeout   : 20\nafl_banner     : fuzzer-master\nafl_version    : 1.85b\ncommand_line   : /home/skaramcheti/.virtualenvs/afl/bin/afl-unix/afl-fuzz -i /dev/shm/work/Matchmaker/input -o /dev/shm/work/Matchmaker/sync -m 4G -Q -M fuzzer-master -x /dev/shm/work/Matchmaker/Matchmaker.dict -- data/linux/processed-challenges/Matchmaker/bin/Matchmaker\n'
p177
I1
tp178
a(I10680
S'start_time     : 1500241704\nlast_update    : 1500252344\nfuzzer_pid     : 8104\ncycles_done    : 2\nexecs_done     : 6498449\nexecs_per_sec  : 196.72\npaths_total    : 268\npaths_favored  : 80\npaths_found    : 267\npaths_imported : 0\nmax_depth      : 10\ncur_path       : 245\npending_favs   : 0\npending_total  : 106\nvariable_paths : 0\nbitmap_cvg     : 0.91%\nunique_crashes : 64\nunique_hangs   : 3\nlast_path      : 1500252261\nlast_crash     : 1500252156\nlast_hang      : 1500248450\nexec_timeout   : 20\nafl_banner     : fuzzer-master\nafl_version    : 1.85b\ncommand_line   : /home/skaramcheti/.virtualenvs/afl/bin/afl-unix/afl-fuzz -i /dev/shm/work/Matchmaker/input -o /dev/shm/work/Matchmaker/sync -m 4G -Q -M fuzzer-master -x /dev/shm/work/Matchmaker/Matchmaker.dict -- data/linux/processed-challenges/Matchmaker/bin/Matchmaker\n'
p179
I0
tp180
a.