(lp0
(I0
S'start_time     : 1500133524\nlast_update    : 1500133524\nfuzzer_pid     : 6015\ncycles_done    : 0\nexecs_done     : 10\nexecs_per_sec  : 172.41\npaths_total    : 1\npaths_favored  : 1\npaths_found    : 0\npaths_imported : 0\nmax_depth      : 1\ncur_path       : 0\npending_favs   : 1\npending_total  : 1\nvariable_paths : 0\nbitmap_cvg     : 0.15%\nunique_crashes : 0\nunique_hangs   : 0\nlast_path      : 0\nlast_crash     : 0\nlast_hang      : 0\nexec_timeout   : 20\nafl_banner     : fuzzer-master\nafl_version    : 1.85b\ncommand_line   : /home/skaramcheti/.virtualenvs/afl/bin/afl-unix/afl-fuzz -i /dev/shm/work/Pattern_Finder/input -o /dev/shm/work/Pattern_Finder/sync -m 4G -Q -M fuzzer-master -x /dev/shm/work/Pattern_Finder/Pattern_Finder.dict -- data/linux/processed-challenges/Pattern_Finder/bin/Pattern_Finder\n'
p1
I20
tp2
a(I120
S'start_time     : 1500133524\nlast_update    : 1500133644\nfuzzer_pid     : 6015\ncycles_done    : 0\nexecs_done     : 145175\nexecs_per_sec  : 1188.49\npaths_total    : 31\npaths_favored  : 1\npaths_found    : 30\npaths_imported : 0\nmax_depth      : 2\ncur_path       : 0\npending_favs   : 1\npending_total  : 31\nvariable_paths : 0\nbitmap_cvg     : 0.41%\nunique_crashes : 0\nunique_hangs   : 0\nlast_path      : 1500133630\nlast_crash     : 0\nlast_hang      : 0\nexec_timeout   : 20\nafl_banner     : fuzzer-master\nafl_version    : 1.85b\ncommand_line   : /home/skaramcheti/.virtualenvs/afl/bin/afl-unix/afl-fuzz -i /dev/shm/work/Pattern_Finder/input -o /dev/shm/work/Pattern_Finder/sync -m 4G -Q -M fuzzer-master -x /dev/shm/work/Pattern_Finder/Pattern_Finder.dict -- data/linux/processed-challenges/Pattern_Finder/bin/Pattern_Finder\n'
p3
I12
tp4
a(I240
S'start_time     : 1500133524\nlast_update    : 1500133764\nfuzzer_pid     : 6015\ncycles_done    : 0\nexecs_done     : 290636\nexecs_per_sec  : 1165.39\npaths_total    : 50\npaths_favored  : 12\npaths_found    : 49\npaths_imported : 0\nmax_depth      : 3\ncur_path       : 7\npending_favs   : 10\npending_total  : 48\nvariable_paths : 0\nbitmap_cvg     : 0.43%\nunique_crashes : 0\nunique_hangs   : 0\nlast_path      : 1500133762\nlast_crash     : 0\nlast_hang      : 0\nexec_timeout   : 20\nafl_banner     : fuzzer-master\nafl_version    : 1.85b\ncommand_line   : /home/skaramcheti/.virtualenvs/afl/bin/afl-unix/afl-fuzz -i /dev/shm/work/Pattern_Finder/input -o /dev/shm/work/Pattern_Finder/sync -m 4G -Q -M fuzzer-master -x /dev/shm/work/Pattern_Finder/Pattern_Finder.dict -- data/linux/processed-challenges/Pattern_Finder/bin/Pattern_Finder\n'
p5
I18
tp6
a(I360
S'start_time     : 1500133524\nlast_update    : 1500133884\nfuzzer_pid     : 6015\ncycles_done    : 0\nexecs_done     : 425897\nexecs_per_sec  : 1133.12\npaths_total    : 57\npaths_favored  : 18\npaths_found    : 56\npaths_imported : 0\nmax_depth      : 3\ncur_path       : 20\npending_favs   : 13\npending_total  : 52\nvariable_paths : 0\nbitmap_cvg     : 0.43%\nunique_crashes : 0\nunique_hangs   : 0\nlast_path      : 1500133881\nlast_crash     : 0\nlast_hang      : 0\nexec_timeout   : 20\nafl_banner     : fuzzer-master\nafl_version    : 1.85b\ncommand_line   : /home/skaramcheti/.virtualenvs/afl/bin/afl-unix/afl-fuzz -i /dev/shm/work/Pattern_Finder/input -o /dev/shm/work/Pattern_Finder/sync -m 4G -Q -M fuzzer-master -x /dev/shm/work/Pattern_Finder/Pattern_Finder.dict -- data/linux/processed-challenges/Pattern_Finder/bin/Pattern_Finder\n'
p7
I7
tp8
a(I480
S'start_time     : 1500133524\nlast_update    : 1500134005\nfuzzer_pid     : 6015\ncycles_done    : 0\nexecs_done     : 557166\nexecs_per_sec  : 1008.49\npaths_total    : 63\npaths_favored  : 19\npaths_found    : 62\npaths_imported : 0\nmax_depth      : 3\ncur_path       : 28\npending_favs   : 14\npending_total  : 57\nvariable_paths : 0\nbitmap_cvg     : 0.46%\nunique_crashes : 0\nunique_hangs   : 0\nlast_path      : 1500134004\nlast_crash     : 0\nlast_hang      : 0\nexec_timeout   : 20\nafl_banner     : fuzzer-master\nafl_version    : 1.85b\ncommand_line   : /home/skaramcheti/.virtualenvs/afl/bin/afl-unix/afl-fuzz -i /dev/shm/work/Pattern_Finder/input -o /dev/shm/work/Pattern_Finder/sync -m 4G -Q -M fuzzer-master -x /dev/shm/work/Pattern_Finder/Pattern_Finder.dict -- data/linux/processed-challenges/Pattern_Finder/bin/Pattern_Finder\n'
p9
I7
tp10
a(I600
S'start_time     : 1500133524\nlast_update    : 1500134125\nfuzzer_pid     : 6015\ncycles_done    : 0\nexecs_done     : 685042\nexecs_per_sec  : 1113.89\npaths_total    : 72\npaths_favored  : 26\npaths_found    : 71\npaths_imported : 0\nmax_depth      : 3\ncur_path       : 34\npending_favs   : 19\npending_total  : 64\nvariable_paths : 0\nbitmap_cvg     : 0.50%\nunique_crashes : 0\nunique_hangs   : 0\nlast_path      : 1500134089\nlast_crash     : 0\nlast_hang      : 0\nexec_timeout   : 20\nafl_banner     : fuzzer-master\nafl_version    : 1.85b\ncommand_line   : /home/skaramcheti/.virtualenvs/afl/bin/afl-unix/afl-fuzz -i /dev/shm/work/Pattern_Finder/input -o /dev/shm/work/Pattern_Finder/sync -m 4G -Q -M fuzzer-master -x /dev/shm/work/Pattern_Finder/Pattern_Finder.dict -- data/linux/processed-challenges/Pattern_Finder/bin/Pattern_Finder\n'
p11
I8
tp12
a(I720
S'start_time     : 1500133524\nlast_update    : 1500134245\nfuzzer_pid     : 6015\ncycles_done    : 0\nexecs_done     : 803371\nexecs_per_sec  : 965.11\npaths_total    : 79\npaths_favored  : 27\npaths_found    : 78\npaths_imported : 0\nmax_depth      : 4\ncur_path       : 51\npending_favs   : 13\npending_total  : 64\nvariable_paths : 0\nbitmap_cvg     : 0.51%\nunique_crashes : 0\nunique_hangs   : 0\nlast_path      : 1500134240\nlast_crash     : 0\nlast_hang      : 0\nexec_timeout   : 20\nafl_banner     : fuzzer-master\nafl_version    : 1.85b\ncommand_line   : /home/skaramcheti/.virtualenvs/afl/bin/afl-unix/afl-fuzz -i /dev/shm/work/Pattern_Finder/input -o /dev/shm/work/Pattern_Finder/sync -m 4G -Q -M fuzzer-master -x /dev/shm/work/Pattern_Finder/Pattern_Finder.dict -- data/linux/processed-challenges/Pattern_Finder/bin/Pattern_Finder\n'
p13
I8
tp14
a(I840
S'start_time     : 1500133524\nlast_update    : 1500134365\nfuzzer_pid     : 6015\ncycles_done    : 0\nexecs_done     : 918920\nexecs_per_sec  : 1065.53\npaths_total    : 84\npaths_favored  : 30\npaths_found    : 83\npaths_imported : 0\nmax_depth      : 4\ncur_path       : 56\npending_favs   : 19\npending_total  : 67\nvariable_paths : 0\nbitmap_cvg     : 0.52%\nunique_crashes : 0\nunique_hangs   : 0\nlast_path      : 1500134364\nlast_crash     : 0\nlast_hang      : 0\nexec_timeout   : 20\nafl_banner     : fuzzer-master\nafl_version    : 1.85b\ncommand_line   : /home/skaramcheti/.virtualenvs/afl/bin/afl-unix/afl-fuzz -i /dev/shm/work/Pattern_Finder/input -o /dev/shm/work/Pattern_Finder/sync -m 4G -Q -M fuzzer-master -x /dev/shm/work/Pattern_Finder/Pattern_Finder.dict -- data/linux/processed-challenges/Pattern_Finder/bin/Pattern_Finder\n'
p15
I4
tp16
a(I960
S'start_time     : 1500133524\nlast_update    : 1500134485\nfuzzer_pid     : 6015\ncycles_done    : 0\nexecs_done     : 1035883\nexecs_per_sec  : 1073.20\npaths_total    : 91\npaths_favored  : 31\npaths_found    : 90\npaths_imported : 0\nmax_depth      : 4\ncur_path       : 62\npending_favs   : 16\npending_total  : 70\nvariable_paths : 0\nbitmap_cvg     : 0.61%\nunique_crashes : 0\nunique_hangs   : 0\nlast_path      : 1500134484\nlast_crash     : 0\nlast_hang      : 0\nexec_timeout   : 20\nafl_banner     : fuzzer-master\nafl_version    : 1.85b\ncommand_line   : /home/skaramcheti/.virtualenvs/afl/bin/afl-unix/afl-fuzz -i /dev/shm/work/Pattern_Finder/input -o /dev/shm/work/Pattern_Finder/sync -m 4G -Q -M fuzzer-master -x /dev/shm/work/Pattern_Finder/Pattern_Finder.dict -- data/linux/processed-challenges/Pattern_Finder/bin/Pattern_Finder\n'
p17
I7
tp18
a(I1080
S'start_time     : 1500133524\nlast_update    : 1500134606\nfuzzer_pid     : 6015\ncycles_done    : 0\nexecs_done     : 1156518\nexecs_per_sec  : 938.88\npaths_total    : 92\npaths_favored  : 35\npaths_found    : 91\npaths_imported : 0\nmax_depth      : 4\ncur_path       : 71\npending_favs   : 18\npending_total  : 67\nvariable_paths : 0\nbitmap_cvg     : 0.61%\nunique_crashes : 0\nunique_hangs   : 0\nlast_path      : 1500134570\nlast_crash     : 0\nlast_hang      : 0\nexec_timeout   : 20\nafl_banner     : fuzzer-master\nafl_version    : 1.85b\ncommand_line   : /home/skaramcheti/.virtualenvs/afl/bin/afl-unix/afl-fuzz -i /dev/shm/work/Pattern_Finder/input -o /dev/shm/work/Pattern_Finder/sync -m 4G -Q -M fuzzer-master -x /dev/shm/work/Pattern_Finder/Pattern_Finder.dict -- data/linux/processed-challenges/Pattern_Finder/bin/Pattern_Finder\n'
p19
I1
tp20
a(I1200
S'start_time     : 1500133524\nlast_update    : 1500134726\nfuzzer_pid     : 6015\ncycles_done    : 0\nexecs_done     : 1266821\nexecs_per_sec  : 869.89\npaths_total    : 93\npaths_favored  : 35\npaths_found    : 92\npaths_imported : 0\nmax_depth      : 5\ncur_path       : 77\npending_favs   : 13\npending_total  : 63\nvariable_paths : 0\nbitmap_cvg     : 0.61%\nunique_crashes : 0\nunique_hangs   : 0\nlast_path      : 1500134721\nlast_crash     : 0\nlast_hang      : 0\nexec_timeout   : 20\nafl_banner     : fuzzer-master\nafl_version    : 1.85b\ncommand_line   : /home/skaramcheti/.virtualenvs/afl/bin/afl-unix/afl-fuzz -i /dev/shm/work/Pattern_Finder/input -o /dev/shm/work/Pattern_Finder/sync -m 4G -Q -M fuzzer-master -x /dev/shm/work/Pattern_Finder/Pattern_Finder.dict -- data/linux/processed-challenges/Pattern_Finder/bin/Pattern_Finder\n'
p21
I1
tp22
a(I1320
S'start_time     : 1500133524\nlast_update    : 1500134846\nfuzzer_pid     : 6015\ncycles_done    : 0\nexecs_done     : 1378086\nexecs_per_sec  : 1092.09\npaths_total    : 95\npaths_favored  : 36\npaths_found    : 94\npaths_imported : 0\nmax_depth      : 5\ncur_path       : 80\npending_favs   : 11\npending_total  : 62\nvariable_paths : 0\nbitmap_cvg     : 0.61%\nunique_crashes : 0\nunique_hangs   : 0\nlast_path      : 1500134833\nlast_crash     : 0\nlast_hang      : 0\nexec_timeout   : 20\nafl_banner     : fuzzer-master\nafl_version    : 1.85b\ncommand_line   : /home/skaramcheti/.virtualenvs/afl/bin/afl-unix/afl-fuzz -i /dev/shm/work/Pattern_Finder/input -o /dev/shm/work/Pattern_Finder/sync -m 4G -Q -M fuzzer-master -x /dev/shm/work/Pattern_Finder/Pattern_Finder.dict -- data/linux/processed-challenges/Pattern_Finder/bin/Pattern_Finder\n'
p23
I2
tp24
a(I1440
S'start_time     : 1500133524\nlast_update    : 1500134966\nfuzzer_pid     : 6015\ncycles_done    : 0\nexecs_done     : 1489254\nexecs_per_sec  : 1038.22\npaths_total    : 96\npaths_favored  : 35\npaths_found    : 95\npaths_imported : 0\nmax_depth      : 5\ncur_path       : 85\npending_favs   : 8\npending_total  : 60\nvariable_paths : 0\nbitmap_cvg     : 0.78%\nunique_crashes : 0\nunique_hangs   : 0\nlast_path      : 1500134961\nlast_crash     : 0\nlast_hang      : 0\nexec_timeout   : 20\nafl_banner     : fuzzer-master\nafl_version    : 1.85b\ncommand_line   : /home/skaramcheti/.virtualenvs/afl/bin/afl-unix/afl-fuzz -i /dev/shm/work/Pattern_Finder/input -o /dev/shm/work/Pattern_Finder/sync -m 4G -Q -M fuzzer-master -x /dev/shm/work/Pattern_Finder/Pattern_Finder.dict -- data/linux/processed-challenges/Pattern_Finder/bin/Pattern_Finder\n'
p25
I1
tp26
a(I1560
S'start_time     : 1500133524\nlast_update    : 1500135086\nfuzzer_pid     : 6015\ncycles_done    : 0\nexecs_done     : 1594523\nexecs_per_sec  : 834.66\npaths_total    : 100\npaths_favored  : 36\npaths_found    : 99\npaths_imported : 0\nmax_depth      : 5\ncur_path       : 91\npending_favs   : 6\npending_total  : 59\nvariable_paths : 0\nbitmap_cvg     : 0.79%\nunique_crashes : 0\nunique_hangs   : 0\nlast_path      : 1500135070\nlast_crash     : 0\nlast_hang      : 0\nexec_timeout   : 20\nafl_banner     : fuzzer-master\nafl_version    : 1.85b\ncommand_line   : /home/skaramcheti/.virtualenvs/afl/bin/afl-unix/afl-fuzz -i /dev/shm/work/Pattern_Finder/input -o /dev/shm/work/Pattern_Finder/sync -m 4G -Q -M fuzzer-master -x /dev/shm/work/Pattern_Finder/Pattern_Finder.dict -- data/linux/processed-challenges/Pattern_Finder/bin/Pattern_Finder\n'
p27
I4
tp28
a(I1680
S'start_time     : 1500133524\nlast_update    : 1500135207\nfuzzer_pid     : 6015\ncycles_done    : 0\nexecs_done     : 1682750\nexecs_per_sec  : 774.28\npaths_total    : 109\npaths_favored  : 36\npaths_found    : 108\npaths_imported : 0\nmax_depth      : 6\ncur_path       : 95\npending_favs   : 4\npending_total  : 66\nvariable_paths : 0\nbitmap_cvg     : 1.18%\nunique_crashes : 0\nunique_hangs   : 0\nlast_path      : 1500135184\nlast_crash     : 0\nlast_hang      : 0\nexec_timeout   : 20\nafl_banner     : fuzzer-master\nafl_version    : 1.85b\ncommand_line   : /home/skaramcheti/.virtualenvs/afl/bin/afl-unix/afl-fuzz -i /dev/shm/work/Pattern_Finder/input -o /dev/shm/work/Pattern_Finder/sync -m 4G -Q -M fuzzer-master -x /dev/shm/work/Pattern_Finder/Pattern_Finder.dict -- data/linux/processed-challenges/Pattern_Finder/bin/Pattern_Finder\n'
p29
I9
tp30
a(I1800
S'start_time     : 1500133524\nlast_update    : 1500135327\nfuzzer_pid     : 6015\ncycles_done    : 0\nexecs_done     : 1777753\nexecs_per_sec  : 797.78\npaths_total    : 118\npaths_favored  : 36\npaths_found    : 117\npaths_imported : 0\nmax_depth      : 6\ncur_path       : 95\npending_favs   : 4\npending_total  : 75\nvariable_paths : 0\nbitmap_cvg     : 1.30%\nunique_crashes : 0\nunique_hangs   : 0\nlast_path      : 1500135308\nlast_crash     : 0\nlast_hang      : 0\nexec_timeout   : 20\nafl_banner     : fuzzer-master\nafl_version    : 1.85b\ncommand_line   : /home/skaramcheti/.virtualenvs/afl/bin/afl-unix/afl-fuzz -i /dev/shm/work/Pattern_Finder/input -o /dev/shm/work/Pattern_Finder/sync -m 4G -Q -M fuzzer-master -x /dev/shm/work/Pattern_Finder/Pattern_Finder.dict -- data/linux/processed-challenges/Pattern_Finder/bin/Pattern_Finder\n'
p31
I9
tp32
a(I1920
S'start_time     : 1500133524\nlast_update    : 1500135447\nfuzzer_pid     : 6015\ncycles_done    : 0\nexecs_done     : 1860079\nexecs_per_sec  : 551.70\npaths_total    : 120\npaths_favored  : 38\npaths_found    : 119\npaths_imported : 0\nmax_depth      : 6\ncur_path       : 99\npending_favs   : 6\npending_total  : 74\nvariable_paths : 0\nbitmap_cvg     : 1.32%\nunique_crashes : 0\nunique_hangs   : 0\nlast_path      : 1500135432\nlast_crash     : 0\nlast_hang      : 0\nexec_timeout   : 20\nafl_banner     : fuzzer-master\nafl_version    : 1.85b\ncommand_line   : /home/skaramcheti/.virtualenvs/afl/bin/afl-unix/afl-fuzz -i /dev/shm/work/Pattern_Finder/input -o /dev/shm/work/Pattern_Finder/sync -m 4G -Q -M fuzzer-master -x /dev/shm/work/Pattern_Finder/Pattern_Finder.dict -- data/linux/processed-challenges/Pattern_Finder/bin/Pattern_Finder\n'
p33
I2
tp34
a(I2040
S'start_time     : 1500133524\nlast_update    : 1500135567\nfuzzer_pid     : 6015\ncycles_done    : 0\nexecs_done     : 1923399\nexecs_per_sec  : 681.89\npaths_total    : 145\npaths_favored  : 37\npaths_found    : 144\npaths_imported : 0\nmax_depth      : 7\ncur_path       : 112\npending_favs   : 5\npending_total  : 97\nvariable_paths : 0\nbitmap_cvg     : 1.54%\nunique_crashes : 0\nunique_hangs   : 0\nlast_path      : 1500135566\nlast_crash     : 0\nlast_hang      : 0\nexec_timeout   : 20\nafl_banner     : fuzzer-master\nafl_version    : 1.85b\ncommand_line   : /home/skaramcheti/.virtualenvs/afl/bin/afl-unix/afl-fuzz -i /dev/shm/work/Pattern_Finder/input -o /dev/shm/work/Pattern_Finder/sync -m 4G -Q -M fuzzer-master -x /dev/shm/work/Pattern_Finder/Pattern_Finder.dict -- data/linux/processed-challenges/Pattern_Finder/bin/Pattern_Finder\n'
p35
I25
tp36
a(I2160
S'start_time     : 1500133524\nlast_update    : 1500135687\nfuzzer_pid     : 6015\ncycles_done    : 0\nexecs_done     : 2014560\nexecs_per_sec  : 771.33\npaths_total    : 157\npaths_favored  : 37\npaths_found    : 156\npaths_imported : 0\nmax_depth      : 7\ncur_path       : 112\npending_favs   : 5\npending_total  : 109\nvariable_paths : 0\nbitmap_cvg     : 1.58%\nunique_crashes : 0\nunique_hangs   : 0\nlast_path      : 1500135665\nlast_crash     : 0\nlast_hang      : 0\nexec_timeout   : 20\nafl_banner     : fuzzer-master\nafl_version    : 1.85b\ncommand_line   : /home/skaramcheti/.virtualenvs/afl/bin/afl-unix/afl-fuzz -i /dev/shm/work/Pattern_Finder/input -o /dev/shm/work/Pattern_Finder/sync -m 4G -Q -M fuzzer-master -x /dev/shm/work/Pattern_Finder/Pattern_Finder.dict -- data/linux/processed-challenges/Pattern_Finder/bin/Pattern_Finder\n'
p37
I12
tp38
a(I2280
S'start_time     : 1500133524\nlast_update    : 1500135808\nfuzzer_pid     : 6015\ncycles_done    : 0\nexecs_done     : 2105918\nexecs_per_sec  : 874.34\npaths_total    : 163\npaths_favored  : 51\npaths_found    : 162\npaths_imported : 0\nmax_depth      : 7\ncur_path       : 119\npending_favs   : 21\npending_total  : 114\nvariable_paths : 0\nbitmap_cvg     : 1.59%\nunique_crashes : 0\nunique_hangs   : 0\nlast_path      : 1500135802\nlast_crash     : 0\nlast_hang      : 0\nexec_timeout   : 20\nafl_banner     : fuzzer-master\nafl_version    : 1.85b\ncommand_line   : /home/skaramcheti/.virtualenvs/afl/bin/afl-unix/afl-fuzz -i /dev/shm/work/Pattern_Finder/input -o /dev/shm/work/Pattern_Finder/sync -m 4G -Q -M fuzzer-master -x /dev/shm/work/Pattern_Finder/Pattern_Finder.dict -- data/linux/processed-challenges/Pattern_Finder/bin/Pattern_Finder\n'
p39
I6
tp40
a(I2400
S'start_time     : 1500133524\nlast_update    : 1500135928\nfuzzer_pid     : 6015\ncycles_done    : 0\nexecs_done     : 2187777\nexecs_per_sec  : 447.31\npaths_total    : 165\npaths_favored  : 52\npaths_found    : 164\npaths_imported : 0\nmax_depth      : 8\ncur_path       : 121\npending_favs   : 21\npending_total  : 114\nvariable_paths : 0\nbitmap_cvg     : 1.59%\nunique_crashes : 0\nunique_hangs   : 0\nlast_path      : 1500135897\nlast_crash     : 0\nlast_hang      : 0\nexec_timeout   : 20\nafl_banner     : fuzzer-master\nafl_version    : 1.85b\ncommand_line   : /home/skaramcheti/.virtualenvs/afl/bin/afl-unix/afl-fuzz -i /dev/shm/work/Pattern_Finder/input -o /dev/shm/work/Pattern_Finder/sync -m 4G -Q -M fuzzer-master -x /dev/shm/work/Pattern_Finder/Pattern_Finder.dict -- data/linux/processed-challenges/Pattern_Finder/bin/Pattern_Finder\n'
p41
I2
tp42
a(I2520
S'start_time     : 1500133524\nlast_update    : 1500136048\nfuzzer_pid     : 6015\ncycles_done    : 0\nexecs_done     : 2250886\nexecs_per_sec  : 747.26\npaths_total    : 167\npaths_favored  : 53\npaths_found    : 166\npaths_imported : 0\nmax_depth      : 8\ncur_path       : 123\npending_favs   : 21\npending_total  : 115\nvariable_paths : 0\nbitmap_cvg     : 1.59%\nunique_crashes : 0\nunique_hangs   : 0\nlast_path      : 1500136008\nlast_crash     : 0\nlast_hang      : 0\nexec_timeout   : 20\nafl_banner     : fuzzer-master\nafl_version    : 1.85b\ncommand_line   : /home/skaramcheti/.virtualenvs/afl/bin/afl-unix/afl-fuzz -i /dev/shm/work/Pattern_Finder/input -o /dev/shm/work/Pattern_Finder/sync -m 4G -Q -M fuzzer-master -x /dev/shm/work/Pattern_Finder/Pattern_Finder.dict -- data/linux/processed-challenges/Pattern_Finder/bin/Pattern_Finder\n'
p43
I2
tp44
a(I2640
S'start_time     : 1500133524\nlast_update    : 1500136168\nfuzzer_pid     : 6015\ncycles_done    : 0\nexecs_done     : 2320524\nexecs_per_sec  : 370.97\npaths_total    : 170\npaths_favored  : 53\npaths_found    : 169\npaths_imported : 0\nmax_depth      : 8\ncur_path       : 129\npending_favs   : 22\npending_total  : 116\nvariable_paths : 0\nbitmap_cvg     : 1.65%\nunique_crashes : 0\nunique_hangs   : 0\nlast_path      : 1500136112\nlast_crash     : 0\nlast_hang      : 0\nexec_timeout   : 20\nafl_banner     : fuzzer-master\nafl_version    : 1.85b\ncommand_line   : /home/skaramcheti/.virtualenvs/afl/bin/afl-unix/afl-fuzz -i /dev/shm/work/Pattern_Finder/input -o /dev/shm/work/Pattern_Finder/sync -m 4G -Q -M fuzzer-master -x /dev/shm/work/Pattern_Finder/Pattern_Finder.dict -- data/linux/processed-challenges/Pattern_Finder/bin/Pattern_Finder\n'
p45
I3
tp46
a(I2760
S'start_time     : 1500133524\nlast_update    : 1500136288\nfuzzer_pid     : 6015\ncycles_done    : 0\nexecs_done     : 2382151\nexecs_per_sec  : 749.93\npaths_total    : 173\npaths_favored  : 53\npaths_found    : 172\npaths_imported : 0\nmax_depth      : 8\ncur_path       : 131\npending_favs   : 21\npending_total  : 118\nvariable_paths : 0\nbitmap_cvg     : 1.68%\nunique_crashes : 0\nunique_hangs   : 0\nlast_path      : 1500136278\nlast_crash     : 0\nlast_hang      : 0\nexec_timeout   : 20\nafl_banner     : fuzzer-master\nafl_version    : 1.85b\ncommand_line   : /home/skaramcheti/.virtualenvs/afl/bin/afl-unix/afl-fuzz -i /dev/shm/work/Pattern_Finder/input -o /dev/shm/work/Pattern_Finder/sync -m 4G -Q -M fuzzer-master -x /dev/shm/work/Pattern_Finder/Pattern_Finder.dict -- data/linux/processed-challenges/Pattern_Finder/bin/Pattern_Finder\n'
p47
I3
tp48
a(I2880
S'start_time     : 1500133524\nlast_update    : 1500136409\nfuzzer_pid     : 6015\ncycles_done    : 0\nexecs_done     : 2472613\nexecs_per_sec  : 750.94\npaths_total    : 174\npaths_favored  : 53\npaths_found    : 173\npaths_imported : 0\nmax_depth      : 8\ncur_path       : 131\npending_favs   : 21\npending_total  : 119\nvariable_paths : 0\nbitmap_cvg     : 1.68%\nunique_crashes : 0\nunique_hangs   : 0\nlast_path      : 1500136327\nlast_crash     : 0\nlast_hang      : 0\nexec_timeout   : 20\nafl_banner     : fuzzer-master\nafl_version    : 1.85b\ncommand_line   : /home/skaramcheti/.virtualenvs/afl/bin/afl-unix/afl-fuzz -i /dev/shm/work/Pattern_Finder/input -o /dev/shm/work/Pattern_Finder/sync -m 4G -Q -M fuzzer-master -x /dev/shm/work/Pattern_Finder/Pattern_Finder.dict -- data/linux/processed-challenges/Pattern_Finder/bin/Pattern_Finder\n'
p49
I1
tp50
a(I3000
S'start_time     : 1500133524\nlast_update    : 1500136529\nfuzzer_pid     : 6015\ncycles_done    : 0\nexecs_done     : 2545266\nexecs_per_sec  : 744.56\npaths_total    : 176\npaths_favored  : 53\npaths_found    : 175\npaths_imported : 0\nmax_depth      : 8\ncur_path       : 133\npending_favs   : 21\npending_total  : 120\nvariable_paths : 0\nbitmap_cvg     : 1.68%\nunique_crashes : 0\nunique_hangs   : 0\nlast_path      : 1500136484\nlast_crash     : 0\nlast_hang      : 0\nexec_timeout   : 20\nafl_banner     : fuzzer-master\nafl_version    : 1.85b\ncommand_line   : /home/skaramcheti/.virtualenvs/afl/bin/afl-unix/afl-fuzz -i /dev/shm/work/Pattern_Finder/input -o /dev/shm/work/Pattern_Finder/sync -m 4G -Q -M fuzzer-master -x /dev/shm/work/Pattern_Finder/Pattern_Finder.dict -- data/linux/processed-challenges/Pattern_Finder/bin/Pattern_Finder\n'
p51
I2
tp52
a(I3120
S'start_time     : 1500133524\nlast_update    : 1500136649\nfuzzer_pid     : 6015\ncycles_done    : 0\nexecs_done     : 2600560\nexecs_per_sec  : 431.68\npaths_total    : 178\npaths_favored  : 53\npaths_found    : 177\npaths_imported : 0\nmax_depth      : 8\ncur_path       : 140\npending_favs   : 20\npending_total  : 120\nvariable_paths : 0\nbitmap_cvg     : 1.69%\nunique_crashes : 0\nunique_hangs   : 0\nlast_path      : 1500136603\nlast_crash     : 0\nlast_hang      : 0\nexec_timeout   : 20\nafl_banner     : fuzzer-master\nafl_version    : 1.85b\ncommand_line   : /home/skaramcheti/.virtualenvs/afl/bin/afl-unix/afl-fuzz -i /dev/shm/work/Pattern_Finder/input -o /dev/shm/work/Pattern_Finder/sync -m 4G -Q -M fuzzer-master -x /dev/shm/work/Pattern_Finder/Pattern_Finder.dict -- data/linux/processed-challenges/Pattern_Finder/bin/Pattern_Finder\n'
p53
I2
tp54
a(I3240
S'start_time     : 1500133524\nlast_update    : 1500136769\nfuzzer_pid     : 6015\ncycles_done    : 0\nexecs_done     : 2659403\nexecs_per_sec  : 689.10\npaths_total    : 186\npaths_favored  : 53\npaths_found    : 185\npaths_imported : 0\nmax_depth      : 8\ncur_path       : 145\npending_favs   : 20\npending_total  : 127\nvariable_paths : 0\nbitmap_cvg     : 1.73%\nunique_crashes : 0\nunique_hangs   : 0\nlast_path      : 1500136743\nlast_crash     : 0\nlast_hang      : 0\nexec_timeout   : 20\nafl_banner     : fuzzer-master\nafl_version    : 1.85b\ncommand_line   : /home/skaramcheti/.virtualenvs/afl/bin/afl-unix/afl-fuzz -i /dev/shm/work/Pattern_Finder/input -o /dev/shm/work/Pattern_Finder/sync -m 4G -Q -M fuzzer-master -x /dev/shm/work/Pattern_Finder/Pattern_Finder.dict -- data/linux/processed-challenges/Pattern_Finder/bin/Pattern_Finder\n'
p55
I8
tp56
a(I3360
S'start_time     : 1500133524\nlast_update    : 1500136890\nfuzzer_pid     : 6015\ncycles_done    : 0\nexecs_done     : 2730599\nexecs_per_sec  : 773.47\npaths_total    : 189\npaths_favored  : 52\npaths_found    : 188\npaths_imported : 0\nmax_depth      : 8\ncur_path       : 151\npending_favs   : 20\npending_total  : 129\nvariable_paths : 0\nbitmap_cvg     : 1.75%\nunique_crashes : 0\nunique_hangs   : 1\nlast_path      : 1500136870\nlast_crash     : 0\nlast_hang      : 1500136801\nexec_timeout   : 20\nafl_banner     : fuzzer-master\nafl_version    : 1.85b\ncommand_line   : /home/skaramcheti/.virtualenvs/afl/bin/afl-unix/afl-fuzz -i /dev/shm/work/Pattern_Finder/input -o /dev/shm/work/Pattern_Finder/sync -m 4G -Q -M fuzzer-master -x /dev/shm/work/Pattern_Finder/Pattern_Finder.dict -- data/linux/processed-challenges/Pattern_Finder/bin/Pattern_Finder\n'
p57
I3
tp58
a(I3480
S'start_time     : 1500133524\nlast_update    : 1500137010\nfuzzer_pid     : 6015\ncycles_done    : 0\nexecs_done     : 2815854\nexecs_per_sec  : 853.50\npaths_total    : 193\npaths_favored  : 54\npaths_found    : 192\npaths_imported : 0\nmax_depth      : 8\ncur_path       : 155\npending_favs   : 20\npending_total  : 132\nvariable_paths : 0\nbitmap_cvg     : 1.75%\nunique_crashes : 0\nunique_hangs   : 1\nlast_path      : 1500136990\nlast_crash     : 0\nlast_hang      : 1500136801\nexec_timeout   : 20\nafl_banner     : fuzzer-master\nafl_version    : 1.85b\ncommand_line   : /home/skaramcheti/.virtualenvs/afl/bin/afl-unix/afl-fuzz -i /dev/shm/work/Pattern_Finder/input -o /dev/shm/work/Pattern_Finder/sync -m 4G -Q -M fuzzer-master -x /dev/shm/work/Pattern_Finder/Pattern_Finder.dict -- data/linux/processed-challenges/Pattern_Finder/bin/Pattern_Finder\n'
p59
I4
tp60
a(I3600
S'start_time     : 1500133524\nlast_update    : 1500137130\nfuzzer_pid     : 6015\ncycles_done    : 0\nexecs_done     : 2894496\nexecs_per_sec  : 831.96\npaths_total    : 200\npaths_favored  : 54\npaths_found    : 199\npaths_imported : 0\nmax_depth      : 8\ncur_path       : 161\npending_favs   : 18\npending_total  : 137\nvariable_paths : 0\nbitmap_cvg     : 1.75%\nunique_crashes : 0\nunique_hangs   : 1\nlast_path      : 1500137118\nlast_crash     : 0\nlast_hang      : 1500136801\nexec_timeout   : 20\nafl_banner     : fuzzer-master\nafl_version    : 1.85b\ncommand_line   : /home/skaramcheti/.virtualenvs/afl/bin/afl-unix/afl-fuzz -i /dev/shm/work/Pattern_Finder/input -o /dev/shm/work/Pattern_Finder/sync -m 4G -Q -M fuzzer-master -x /dev/shm/work/Pattern_Finder/Pattern_Finder.dict -- data/linux/processed-challenges/Pattern_Finder/bin/Pattern_Finder\n'
p61
I7
tp62
a(I3720
S'start_time     : 1500133524\nlast_update    : 1500137250\nfuzzer_pid     : 6015\ncycles_done    : 0\nexecs_done     : 2979416\nexecs_per_sec  : 793.17\npaths_total    : 203\npaths_favored  : 55\npaths_found    : 202\npaths_imported : 0\nmax_depth      : 8\ncur_path       : 162\npending_favs   : 20\npending_total  : 139\nvariable_paths : 0\nbitmap_cvg     : 1.75%\nunique_crashes : 0\nunique_hangs   : 1\nlast_path      : 1500137235\nlast_crash     : 0\nlast_hang      : 1500136801\nexec_timeout   : 20\nafl_banner     : fuzzer-master\nafl_version    : 1.85b\ncommand_line   : /home/skaramcheti/.virtualenvs/afl/bin/afl-unix/afl-fuzz -i /dev/shm/work/Pattern_Finder/input -o /dev/shm/work/Pattern_Finder/sync -m 4G -Q -M fuzzer-master -x /dev/shm/work/Pattern_Finder/Pattern_Finder.dict -- data/linux/processed-challenges/Pattern_Finder/bin/Pattern_Finder\n'
p63
I3
tp64
a(I3840
S'start_time     : 1500133524\nlast_update    : 1500137370\nfuzzer_pid     : 6015\ncycles_done    : 0\nexecs_done     : 3066121\nexecs_per_sec  : 502.95\npaths_total    : 206\npaths_favored  : 56\npaths_found    : 205\npaths_imported : 0\nmax_depth      : 8\ncur_path       : 166\npending_favs   : 20\npending_total  : 141\nvariable_paths : 0\nbitmap_cvg     : 1.76%\nunique_crashes : 0\nunique_hangs   : 1\nlast_path      : 1500137339\nlast_crash     : 0\nlast_hang      : 1500136801\nexec_timeout   : 20\nafl_banner     : fuzzer-master\nafl_version    : 1.85b\ncommand_line   : /home/skaramcheti/.virtualenvs/afl/bin/afl-unix/afl-fuzz -i /dev/shm/work/Pattern_Finder/input -o /dev/shm/work/Pattern_Finder/sync -m 4G -Q -M fuzzer-master -x /dev/shm/work/Pattern_Finder/Pattern_Finder.dict -- data/linux/processed-challenges/Pattern_Finder/bin/Pattern_Finder\n'
p65
I3
tp66
a(I3960
S'start_time     : 1500133524\nlast_update    : 1500137490\nfuzzer_pid     : 6015\ncycles_done    : 0\nexecs_done     : 3133448\nexecs_per_sec  : 748.47\npaths_total    : 210\npaths_favored  : 56\npaths_found    : 209\npaths_imported : 0\nmax_depth      : 9\ncur_path       : 167\npending_favs   : 19\npending_total  : 144\nvariable_paths : 0\nbitmap_cvg     : 1.76%\nunique_crashes : 0\nunique_hangs   : 1\nlast_path      : 1500137442\nlast_crash     : 0\nlast_hang      : 1500136801\nexec_timeout   : 20\nafl_banner     : fuzzer-master\nafl_version    : 1.85b\ncommand_line   : /home/skaramcheti/.virtualenvs/afl/bin/afl-unix/afl-fuzz -i /dev/shm/work/Pattern_Finder/input -o /dev/shm/work/Pattern_Finder/sync -m 4G -Q -M fuzzer-master -x /dev/shm/work/Pattern_Finder/Pattern_Finder.dict -- data/linux/processed-challenges/Pattern_Finder/bin/Pattern_Finder\n'
p67
I4
tp68
a(I4080
S'start_time     : 1500133524\nlast_update    : 1500137610\nfuzzer_pid     : 6015\ncycles_done    : 0\nexecs_done     : 3199165\nexecs_per_sec  : 363.72\npaths_total    : 210\npaths_favored  : 57\npaths_found    : 209\npaths_imported : 0\nmax_depth      : 9\ncur_path       : 176\npending_favs   : 18\npending_total  : 142\nvariable_paths : 0\nbitmap_cvg     : 1.76%\nunique_crashes : 0\nunique_hangs   : 1\nlast_path      : 1500137442\nlast_crash     : 0\nlast_hang      : 1500136801\nexec_timeout   : 20\nafl_banner     : fuzzer-master\nafl_version    : 1.85b\ncommand_line   : /home/skaramcheti/.virtualenvs/afl/bin/afl-unix/afl-fuzz -i /dev/shm/work/Pattern_Finder/input -o /dev/shm/work/Pattern_Finder/sync -m 4G -Q -M fuzzer-master -x /dev/shm/work/Pattern_Finder/Pattern_Finder.dict -- data/linux/processed-challenges/Pattern_Finder/bin/Pattern_Finder\n'
p69
I0
tp70
a(I4200
S'start_time     : 1500133524\nlast_update    : 1500137731\nfuzzer_pid     : 6015\ncycles_done    : 0\nexecs_done     : 3264210\nexecs_per_sec  : 773.72\npaths_total    : 211\npaths_favored  : 57\npaths_found    : 210\npaths_imported : 0\nmax_depth      : 9\ncur_path       : 177\npending_favs   : 17\npending_total  : 142\nvariable_paths : 0\nbitmap_cvg     : 1.76%\nunique_crashes : 0\nunique_hangs   : 1\nlast_path      : 1500137689\nlast_crash     : 0\nlast_hang      : 1500136801\nexec_timeout   : 20\nafl_banner     : fuzzer-master\nafl_version    : 1.85b\ncommand_line   : /home/skaramcheti/.virtualenvs/afl/bin/afl-unix/afl-fuzz -i /dev/shm/work/Pattern_Finder/input -o /dev/shm/work/Pattern_Finder/sync -m 4G -Q -M fuzzer-master -x /dev/shm/work/Pattern_Finder/Pattern_Finder.dict -- data/linux/processed-challenges/Pattern_Finder/bin/Pattern_Finder\n'
p71
I1
tp72
a(I4320
S'start_time     : 1500133524\nlast_update    : 1500137851\nfuzzer_pid     : 6015\ncycles_done    : 0\nexecs_done     : 3325604\nexecs_per_sec  : 694.95\npaths_total    : 212\npaths_favored  : 57\npaths_found    : 211\npaths_imported : 0\nmax_depth      : 9\ncur_path       : 181\npending_favs   : 16\npending_total  : 142\nvariable_paths : 0\nbitmap_cvg     : 1.77%\nunique_crashes : 0\nunique_hangs   : 1\nlast_path      : 1500137837\nlast_crash     : 0\nlast_hang      : 1500136801\nexec_timeout   : 20\nafl_banner     : fuzzer-master\nafl_version    : 1.85b\ncommand_line   : /home/skaramcheti/.virtualenvs/afl/bin/afl-unix/afl-fuzz -i /dev/shm/work/Pattern_Finder/input -o /dev/shm/work/Pattern_Finder/sync -m 4G -Q -M fuzzer-master -x /dev/shm/work/Pattern_Finder/Pattern_Finder.dict -- data/linux/processed-challenges/Pattern_Finder/bin/Pattern_Finder\n'
p73
I1
tp74
a(I4440
S'start_time     : 1500133524\nlast_update    : 1500137971\nfuzzer_pid     : 6015\ncycles_done    : 0\nexecs_done     : 3397045\nexecs_per_sec  : 421.80\npaths_total    : 218\npaths_favored  : 57\npaths_found    : 217\npaths_imported : 0\nmax_depth      : 9\ncur_path       : 182\npending_favs   : 17\npending_total  : 147\nvariable_paths : 0\nbitmap_cvg     : 1.79%\nunique_crashes : 0\nunique_hangs   : 1\nlast_path      : 1500137937\nlast_crash     : 0\nlast_hang      : 1500136801\nexec_timeout   : 20\nafl_banner     : fuzzer-master\nafl_version    : 1.85b\ncommand_line   : /home/skaramcheti/.virtualenvs/afl/bin/afl-unix/afl-fuzz -i /dev/shm/work/Pattern_Finder/input -o /dev/shm/work/Pattern_Finder/sync -m 4G -Q -M fuzzer-master -x /dev/shm/work/Pattern_Finder/Pattern_Finder.dict -- data/linux/processed-challenges/Pattern_Finder/bin/Pattern_Finder\n'
p75
I6
tp76
a(I4560
S'start_time     : 1500133524\nlast_update    : 1500138091\nfuzzer_pid     : 6015\ncycles_done    : 0\nexecs_done     : 3449807\nexecs_per_sec  : 393.39\npaths_total    : 222\npaths_favored  : 57\npaths_found    : 221\npaths_imported : 0\nmax_depth      : 9\ncur_path       : 183\npending_favs   : 16\npending_total  : 150\nvariable_paths : 0\nbitmap_cvg     : 1.80%\nunique_crashes : 0\nunique_hangs   : 1\nlast_path      : 1500138071\nlast_crash     : 0\nlast_hang      : 1500136801\nexec_timeout   : 20\nafl_banner     : fuzzer-master\nafl_version    : 1.85b\ncommand_line   : /home/skaramcheti/.virtualenvs/afl/bin/afl-unix/afl-fuzz -i /dev/shm/work/Pattern_Finder/input -o /dev/shm/work/Pattern_Finder/sync -m 4G -Q -M fuzzer-master -x /dev/shm/work/Pattern_Finder/Pattern_Finder.dict -- data/linux/processed-challenges/Pattern_Finder/bin/Pattern_Finder\n'
p77
I4
tp78
a(I4680
S'start_time     : 1500133524\nlast_update    : 1500138211\nfuzzer_pid     : 6015\ncycles_done    : 0\nexecs_done     : 3500036\nexecs_per_sec  : 297.04\npaths_total    : 228\npaths_favored  : 59\npaths_found    : 227\npaths_imported : 0\nmax_depth      : 9\ncur_path       : 185\npending_favs   : 19\npending_total  : 155\nvariable_paths : 0\nbitmap_cvg     : 1.80%\nunique_crashes : 0\nunique_hangs   : 1\nlast_path      : 1500138173\nlast_crash     : 0\nlast_hang      : 1500136801\nexec_timeout   : 20\nafl_banner     : fuzzer-master\nafl_version    : 1.85b\ncommand_line   : /home/skaramcheti/.virtualenvs/afl/bin/afl-unix/afl-fuzz -i /dev/shm/work/Pattern_Finder/input -o /dev/shm/work/Pattern_Finder/sync -m 4G -Q -M fuzzer-master -x /dev/shm/work/Pattern_Finder/Pattern_Finder.dict -- data/linux/processed-challenges/Pattern_Finder/bin/Pattern_Finder\n'
p79
I6
tp80
a(I4800
S'start_time     : 1500133524\nlast_update    : 1500138331\nfuzzer_pid     : 6015\ncycles_done    : 0\nexecs_done     : 3562996\nexecs_per_sec  : 589.39\npaths_total    : 232\npaths_favored  : 59\npaths_found    : 231\npaths_imported : 0\nmax_depth      : 9\ncur_path       : 185\npending_favs   : 19\npending_total  : 159\nvariable_paths : 0\nbitmap_cvg     : 1.81%\nunique_crashes : 0\nunique_hangs   : 1\nlast_path      : 1500138277\nlast_crash     : 0\nlast_hang      : 1500136801\nexec_timeout   : 20\nafl_banner     : fuzzer-master\nafl_version    : 1.85b\ncommand_line   : /home/skaramcheti/.virtualenvs/afl/bin/afl-unix/afl-fuzz -i /dev/shm/work/Pattern_Finder/input -o /dev/shm/work/Pattern_Finder/sync -m 4G -Q -M fuzzer-master -x /dev/shm/work/Pattern_Finder/Pattern_Finder.dict -- data/linux/processed-challenges/Pattern_Finder/bin/Pattern_Finder\n'
p81
I4
tp82
a(I4920
S'start_time     : 1500133524\nlast_update    : 1500138452\nfuzzer_pid     : 6015\ncycles_done    : 0\nexecs_done     : 3621539\nexecs_per_sec  : 597.86\npaths_total    : 235\npaths_favored  : 63\npaths_found    : 234\npaths_imported : 0\nmax_depth      : 9\ncur_path       : 186\npending_favs   : 24\npending_total  : 161\nvariable_paths : 0\nbitmap_cvg     : 1.81%\nunique_crashes : 0\nunique_hangs   : 1\nlast_path      : 1500138448\nlast_crash     : 0\nlast_hang      : 1500136801\nexec_timeout   : 20\nafl_banner     : fuzzer-master\nafl_version    : 1.85b\ncommand_line   : /home/skaramcheti/.virtualenvs/afl/bin/afl-unix/afl-fuzz -i /dev/shm/work/Pattern_Finder/input -o /dev/shm/work/Pattern_Finder/sync -m 4G -Q -M fuzzer-master -x /dev/shm/work/Pattern_Finder/Pattern_Finder.dict -- data/linux/processed-challenges/Pattern_Finder/bin/Pattern_Finder\n'
p83
I3
tp84
a(I5040
S'start_time     : 1500133524\nlast_update    : 1500138572\nfuzzer_pid     : 6015\ncycles_done    : 0\nexecs_done     : 3686646\nexecs_per_sec  : 350.40\npaths_total    : 237\npaths_favored  : 67\npaths_found    : 236\npaths_imported : 0\nmax_depth      : 9\ncur_path       : 189\npending_favs   : 27\npending_total  : 162\nvariable_paths : 0\nbitmap_cvg     : 1.82%\nunique_crashes : 0\nunique_hangs   : 1\nlast_path      : 1500138528\nlast_crash     : 0\nlast_hang      : 1500136801\nexec_timeout   : 20\nafl_banner     : fuzzer-master\nafl_version    : 1.85b\ncommand_line   : /home/skaramcheti/.virtualenvs/afl/bin/afl-unix/afl-fuzz -i /dev/shm/work/Pattern_Finder/input -o /dev/shm/work/Pattern_Finder/sync -m 4G -Q -M fuzzer-master -x /dev/shm/work/Pattern_Finder/Pattern_Finder.dict -- data/linux/processed-challenges/Pattern_Finder/bin/Pattern_Finder\n'
p85
I2
tp86
a(I5160
S'start_time     : 1500133524\nlast_update    : 1500138692\nfuzzer_pid     : 6015\ncycles_done    : 0\nexecs_done     : 3769357\nexecs_per_sec  : 547.67\npaths_total    : 238\npaths_favored  : 66\npaths_found    : 237\npaths_imported : 0\nmax_depth      : 9\ncur_path       : 194\npending_favs   : 26\npending_total  : 161\nvariable_paths : 0\nbitmap_cvg     : 1.82%\nunique_crashes : 0\nunique_hangs   : 1\nlast_path      : 1500138574\nlast_crash     : 0\nlast_hang      : 1500136801\nexec_timeout   : 20\nafl_banner     : fuzzer-master\nafl_version    : 1.85b\ncommand_line   : /home/skaramcheti/.virtualenvs/afl/bin/afl-unix/afl-fuzz -i /dev/shm/work/Pattern_Finder/input -o /dev/shm/work/Pattern_Finder/sync -m 4G -Q -M fuzzer-master -x /dev/shm/work/Pattern_Finder/Pattern_Finder.dict -- data/linux/processed-challenges/Pattern_Finder/bin/Pattern_Finder\n'
p87
I1
tp88
a(I5280
S'start_time     : 1500133524\nlast_update    : 1500138812\nfuzzer_pid     : 6015\ncycles_done    : 0\nexecs_done     : 3838222\nexecs_per_sec  : 722.04\npaths_total    : 243\npaths_favored  : 66\npaths_found    : 242\npaths_imported : 0\nmax_depth      : 9\ncur_path       : 194\npending_favs   : 26\npending_total  : 166\nvariable_paths : 0\nbitmap_cvg     : 1.82%\nunique_crashes : 0\nunique_hangs   : 1\nlast_path      : 1500138791\nlast_crash     : 0\nlast_hang      : 1500136801\nexec_timeout   : 20\nafl_banner     : fuzzer-master\nafl_version    : 1.85b\ncommand_line   : /home/skaramcheti/.virtualenvs/afl/bin/afl-unix/afl-fuzz -i /dev/shm/work/Pattern_Finder/input -o /dev/shm/work/Pattern_Finder/sync -m 4G -Q -M fuzzer-master -x /dev/shm/work/Pattern_Finder/Pattern_Finder.dict -- data/linux/processed-challenges/Pattern_Finder/bin/Pattern_Finder\n'
p89
I5
tp90
a(I5400
S'start_time     : 1500133524\nlast_update    : 1500138932\nfuzzer_pid     : 6015\ncycles_done    : 0\nexecs_done     : 3919143\nexecs_per_sec  : 388.33\npaths_total    : 245\npaths_favored  : 67\npaths_found    : 244\npaths_imported : 0\nmax_depth      : 9\ncur_path       : 196\npending_favs   : 27\npending_total  : 167\nvariable_paths : 0\nbitmap_cvg     : 1.82%\nunique_crashes : 0\nunique_hangs   : 1\nlast_path      : 1500138854\nlast_crash     : 0\nlast_hang      : 1500136801\nexec_timeout   : 20\nafl_banner     : fuzzer-master\nafl_version    : 1.85b\ncommand_line   : /home/skaramcheti/.virtualenvs/afl/bin/afl-unix/afl-fuzz -i /dev/shm/work/Pattern_Finder/input -o /dev/shm/work/Pattern_Finder/sync -m 4G -Q -M fuzzer-master -x /dev/shm/work/Pattern_Finder/Pattern_Finder.dict -- data/linux/processed-challenges/Pattern_Finder/bin/Pattern_Finder\n'
p91
I2
tp92
a(I5520
S'start_time     : 1500133524\nlast_update    : 1500139053\nfuzzer_pid     : 6015\ncycles_done    : 0\nexecs_done     : 3984954\nexecs_per_sec  : 857.31\npaths_total    : 246\npaths_favored  : 67\npaths_found    : 245\npaths_imported : 0\nmax_depth      : 9\ncur_path       : 197\npending_favs   : 26\npending_total  : 167\nvariable_paths : 0\nbitmap_cvg     : 1.82%\nunique_crashes : 0\nunique_hangs   : 1\nlast_path      : 1500139015\nlast_crash     : 0\nlast_hang      : 1500136801\nexec_timeout   : 20\nafl_banner     : fuzzer-master\nafl_version    : 1.85b\ncommand_line   : /home/skaramcheti/.virtualenvs/afl/bin/afl-unix/afl-fuzz -i /dev/shm/work/Pattern_Finder/input -o /dev/shm/work/Pattern_Finder/sync -m 4G -Q -M fuzzer-master -x /dev/shm/work/Pattern_Finder/Pattern_Finder.dict -- data/linux/processed-challenges/Pattern_Finder/bin/Pattern_Finder\n'
p93
I1
tp94
a(I5640
S'start_time     : 1500133524\nlast_update    : 1500139173\nfuzzer_pid     : 6015\ncycles_done    : 0\nexecs_done     : 4065046\nexecs_per_sec  : 828.14\npaths_total    : 248\npaths_favored  : 67\npaths_found    : 247\npaths_imported : 0\nmax_depth      : 9\ncur_path       : 198\npending_favs   : 25\npending_total  : 168\nvariable_paths : 0\nbitmap_cvg     : 1.82%\nunique_crashes : 0\nunique_hangs   : 1\nlast_path      : 1500139157\nlast_crash     : 0\nlast_hang      : 1500136801\nexec_timeout   : 20\nafl_banner     : fuzzer-master\nafl_version    : 1.85b\ncommand_line   : /home/skaramcheti/.virtualenvs/afl/bin/afl-unix/afl-fuzz -i /dev/shm/work/Pattern_Finder/input -o /dev/shm/work/Pattern_Finder/sync -m 4G -Q -M fuzzer-master -x /dev/shm/work/Pattern_Finder/Pattern_Finder.dict -- data/linux/processed-challenges/Pattern_Finder/bin/Pattern_Finder\n'
p95
I2
tp96
a(I5760
S'start_time     : 1500133524\nlast_update    : 1500139293\nfuzzer_pid     : 6015\ncycles_done    : 0\nexecs_done     : 4139840\nexecs_per_sec  : 753.94\npaths_total    : 253\npaths_favored  : 67\npaths_found    : 252\npaths_imported : 0\nmax_depth      : 9\ncur_path       : 202\npending_favs   : 24\npending_total  : 172\nvariable_paths : 0\nbitmap_cvg     : 1.82%\nunique_crashes : 0\nunique_hangs   : 1\nlast_path      : 1500139291\nlast_crash     : 0\nlast_hang      : 1500136801\nexec_timeout   : 20\nafl_banner     : fuzzer-master\nafl_version    : 1.85b\ncommand_line   : /home/skaramcheti/.virtualenvs/afl/bin/afl-unix/afl-fuzz -i /dev/shm/work/Pattern_Finder/input -o /dev/shm/work/Pattern_Finder/sync -m 4G -Q -M fuzzer-master -x /dev/shm/work/Pattern_Finder/Pattern_Finder.dict -- data/linux/processed-challenges/Pattern_Finder/bin/Pattern_Finder\n'
p97
I6
tp98
a(I5880
S'start_time     : 1500133524\nlast_update    : 1500139413\nfuzzer_pid     : 6015\ncycles_done    : 0\nexecs_done     : 4231825\nexecs_per_sec  : 789.51\npaths_total    : 258\npaths_favored  : 67\npaths_found    : 257\npaths_imported : 0\nmax_depth      : 9\ncur_path       : 202\npending_favs   : 24\npending_total  : 177\nvariable_paths : 0\nbitmap_cvg     : 1.82%\nunique_crashes : 0\nunique_hangs   : 1\nlast_path      : 1500139409\nlast_crash     : 0\nlast_hang      : 1500136801\nexec_timeout   : 20\nafl_banner     : fuzzer-master\nafl_version    : 1.85b\ncommand_line   : /home/skaramcheti/.virtualenvs/afl/bin/afl-unix/afl-fuzz -i /dev/shm/work/Pattern_Finder/input -o /dev/shm/work/Pattern_Finder/sync -m 4G -Q -M fuzzer-master -x /dev/shm/work/Pattern_Finder/Pattern_Finder.dict -- data/linux/processed-challenges/Pattern_Finder/bin/Pattern_Finder\n'
p99
I4
tp100
a(I6000
S'start_time     : 1500133524\nlast_update    : 1500139533\nfuzzer_pid     : 6015\ncycles_done    : 0\nexecs_done     : 4298553\nexecs_per_sec  : 722.12\npaths_total    : 258\npaths_favored  : 63\npaths_found    : 257\npaths_imported : 0\nmax_depth      : 9\ncur_path       : 203\npending_favs   : 25\npending_total  : 176\nvariable_paths : 0\nbitmap_cvg     : 1.82%\nunique_crashes : 0\nunique_hangs   : 1\nlast_path      : 1500139409\nlast_crash     : 0\nlast_hang      : 1500136801\nexec_timeout   : 20\nafl_banner     : fuzzer-master\nafl_version    : 1.85b\ncommand_line   : /home/skaramcheti/.virtualenvs/afl/bin/afl-unix/afl-fuzz -i /dev/shm/work/Pattern_Finder/input -o /dev/shm/work/Pattern_Finder/sync -m 4G -Q -M fuzzer-master -x /dev/shm/work/Pattern_Finder/Pattern_Finder.dict -- data/linux/processed-challenges/Pattern_Finder/bin/Pattern_Finder\n'
p101
I0
tp102
a(I6120
S'start_time     : 1500133524\nlast_update    : 1500139653\nfuzzer_pid     : 6015\ncycles_done    : 0\nexecs_done     : 4364338\nexecs_per_sec  : 404.33\npaths_total    : 258\npaths_favored  : 63\npaths_found    : 257\npaths_imported : 0\nmax_depth      : 9\ncur_path       : 207\npending_favs   : 23\npending_total  : 174\nvariable_paths : 0\nbitmap_cvg     : 1.82%\nunique_crashes : 0\nunique_hangs   : 1\nlast_path      : 1500139409\nlast_crash     : 0\nlast_hang      : 1500136801\nexec_timeout   : 20\nafl_banner     : fuzzer-master\nafl_version    : 1.85b\ncommand_line   : /home/skaramcheti/.virtualenvs/afl/bin/afl-unix/afl-fuzz -i /dev/shm/work/Pattern_Finder/input -o /dev/shm/work/Pattern_Finder/sync -m 4G -Q -M fuzzer-master -x /dev/shm/work/Pattern_Finder/Pattern_Finder.dict -- data/linux/processed-challenges/Pattern_Finder/bin/Pattern_Finder\n'
p103
I0
tp104
a(I6240
S'start_time     : 1500133524\nlast_update    : 1500139774\nfuzzer_pid     : 6015\ncycles_done    : 0\nexecs_done     : 4419789\nexecs_per_sec  : 298.88\npaths_total    : 259\npaths_favored  : 63\npaths_found    : 258\npaths_imported : 0\nmax_depth      : 10\ncur_path       : 211\npending_favs   : 22\npending_total  : 174\nvariable_paths : 0\nbitmap_cvg     : 1.83%\nunique_crashes : 0\nunique_hangs   : 1\nlast_path      : 1500139703\nlast_crash     : 0\nlast_hang      : 1500136801\nexec_timeout   : 20\nafl_banner     : fuzzer-master\nafl_version    : 1.85b\ncommand_line   : /home/skaramcheti/.virtualenvs/afl/bin/afl-unix/afl-fuzz -i /dev/shm/work/Pattern_Finder/input -o /dev/shm/work/Pattern_Finder/sync -m 4G -Q -M fuzzer-master -x /dev/shm/work/Pattern_Finder/Pattern_Finder.dict -- data/linux/processed-challenges/Pattern_Finder/bin/Pattern_Finder\n'
p105
I1
tp106
a(I6360
S'start_time     : 1500133524\nlast_update    : 1500139894\nfuzzer_pid     : 6015\ncycles_done    : 0\nexecs_done     : 4468081\nexecs_per_sec  : 305.95\npaths_total    : 259\npaths_favored  : 64\npaths_found    : 258\npaths_imported : 0\nmax_depth      : 10\ncur_path       : 213\npending_favs   : 22\npending_total  : 173\nvariable_paths : 0\nbitmap_cvg     : 1.83%\nunique_crashes : 0\nunique_hangs   : 1\nlast_path      : 1500139703\nlast_crash     : 0\nlast_hang      : 1500136801\nexec_timeout   : 20\nafl_banner     : fuzzer-master\nafl_version    : 1.85b\ncommand_line   : /home/skaramcheti/.virtualenvs/afl/bin/afl-unix/afl-fuzz -i /dev/shm/work/Pattern_Finder/input -o /dev/shm/work/Pattern_Finder/sync -m 4G -Q -M fuzzer-master -x /dev/shm/work/Pattern_Finder/Pattern_Finder.dict -- data/linux/processed-challenges/Pattern_Finder/bin/Pattern_Finder\n'
p107
I0
tp108
a(I6480
S'start_time     : 1500133524\nlast_update    : 1500140014\nfuzzer_pid     : 6015\ncycles_done    : 0\nexecs_done     : 4526918\nexecs_per_sec  : 602.28\npaths_total    : 261\npaths_favored  : 64\npaths_found    : 260\npaths_imported : 0\nmax_depth      : 10\ncur_path       : 213\npending_favs   : 22\npending_total  : 175\nvariable_paths : 0\nbitmap_cvg     : 1.83%\nunique_crashes : 0\nunique_hangs   : 1\nlast_path      : 1500139990\nlast_crash     : 0\nlast_hang      : 1500136801\nexec_timeout   : 20\nafl_banner     : fuzzer-master\nafl_version    : 1.85b\ncommand_line   : /home/skaramcheti/.virtualenvs/afl/bin/afl-unix/afl-fuzz -i /dev/shm/work/Pattern_Finder/input -o /dev/shm/work/Pattern_Finder/sync -m 4G -Q -M fuzzer-master -x /dev/shm/work/Pattern_Finder/Pattern_Finder.dict -- data/linux/processed-challenges/Pattern_Finder/bin/Pattern_Finder\n'
p109
I2
tp110
a(I6600
S'start_time     : 1500133524\nlast_update    : 1500140074\nfuzzer_pid     : 6015\ncycles_done    : 0\nexecs_done     : 4563876\nexecs_per_sec  : 613.04\npaths_total    : 262\npaths_favored  : 64\npaths_found    : 261\npaths_imported : 0\nmax_depth      : 10\ncur_path       : 213\npending_favs   : 22\npending_total  : 176\nvariable_paths : 0\nbitmap_cvg     : 1.83%\nunique_crashes : 0\nunique_hangs   : 1\nlast_path      : 1500140061\nlast_crash     : 0\nlast_hang      : 1500136801\nexec_timeout   : 20\nafl_banner     : fuzzer-master\nafl_version    : 1.85b\ncommand_line   : /home/skaramcheti/.virtualenvs/afl/bin/afl-unix/afl-fuzz -i /dev/shm/work/Pattern_Finder/input -o /dev/shm/work/Pattern_Finder/sync -m 4G -Q -M fuzzer-master -x /dev/shm/work/Pattern_Finder/Pattern_Finder.dict -- data/linux/processed-challenges/Pattern_Finder/bin/Pattern_Finder\n'
p111
I2
tp112
a(I6720
S'start_time     : 1500133524\nlast_update    : 1500140195\nfuzzer_pid     : 6015\ncycles_done    : 0\nexecs_done     : 4623933\nexecs_per_sec  : 684.30\npaths_total    : 264\npaths_favored  : 65\npaths_found    : 263\npaths_imported : 0\nmax_depth      : 10\ncur_path       : 214\npending_favs   : 22\npending_total  : 177\nvariable_paths : 0\nbitmap_cvg     : 1.83%\nunique_crashes : 0\nunique_hangs   : 1\nlast_path      : 1500140174\nlast_crash     : 0\nlast_hang      : 1500136801\nexec_timeout   : 20\nafl_banner     : fuzzer-master\nafl_version    : 1.85b\ncommand_line   : /home/skaramcheti/.virtualenvs/afl/bin/afl-unix/afl-fuzz -i /dev/shm/work/Pattern_Finder/input -o /dev/shm/work/Pattern_Finder/sync -m 4G -Q -M fuzzer-master -x /dev/shm/work/Pattern_Finder/Pattern_Finder.dict -- data/linux/processed-challenges/Pattern_Finder/bin/Pattern_Finder\n'
p113
I3
tp114
a(I6840
S'start_time     : 1500133524\nlast_update    : 1500140315\nfuzzer_pid     : 6015\ncycles_done    : 0\nexecs_done     : 4707462\nexecs_per_sec  : 696.56\npaths_total    : 267\npaths_favored  : 65\npaths_found    : 266\npaths_imported : 0\nmax_depth      : 10\ncur_path       : 214\npending_favs   : 22\npending_total  : 180\nvariable_paths : 0\nbitmap_cvg     : 1.84%\nunique_crashes : 0\nunique_hangs   : 1\nlast_path      : 1500140297\nlast_crash     : 0\nlast_hang      : 1500136801\nexec_timeout   : 20\nafl_banner     : fuzzer-master\nafl_version    : 1.85b\ncommand_line   : /home/skaramcheti/.virtualenvs/afl/bin/afl-unix/afl-fuzz -i /dev/shm/work/Pattern_Finder/input -o /dev/shm/work/Pattern_Finder/sync -m 4G -Q -M fuzzer-master -x /dev/shm/work/Pattern_Finder/Pattern_Finder.dict -- data/linux/processed-challenges/Pattern_Finder/bin/Pattern_Finder\n'
p115
I4
tp116
a(I6960
S'start_time     : 1500133524\nlast_update    : 1500140435\nfuzzer_pid     : 6015\ncycles_done    : 0\nexecs_done     : 4757314\nexecs_per_sec  : 592.84\npaths_total    : 271\npaths_favored  : 68\npaths_found    : 270\npaths_imported : 0\nmax_depth      : 10\ncur_path       : 215\npending_favs   : 24\npending_total  : 183\nvariable_paths : 0\nbitmap_cvg     : 1.85%\nunique_crashes : 0\nunique_hangs   : 1\nlast_path      : 1500140429\nlast_crash     : 0\nlast_hang      : 1500136801\nexec_timeout   : 20\nafl_banner     : fuzzer-master\nafl_version    : 1.85b\ncommand_line   : /home/skaramcheti/.virtualenvs/afl/bin/afl-unix/afl-fuzz -i /dev/shm/work/Pattern_Finder/input -o /dev/shm/work/Pattern_Finder/sync -m 4G -Q -M fuzzer-master -x /dev/shm/work/Pattern_Finder/Pattern_Finder.dict -- data/linux/processed-challenges/Pattern_Finder/bin/Pattern_Finder\n'
p117
I1
tp118
a(I7080
S'start_time     : 1500133524\nlast_update    : 1500140555\nfuzzer_pid     : 6015\ncycles_done    : 0\nexecs_done     : 4815162\nexecs_per_sec  : 346.31\npaths_total    : 272\npaths_favored  : 68\npaths_found    : 271\npaths_imported : 0\nmax_depth      : 10\ncur_path       : 218\npending_favs   : 24\npending_total  : 183\nvariable_paths : 0\nbitmap_cvg     : 1.85%\nunique_crashes : 0\nunique_hangs   : 1\nlast_path      : 1500140544\nlast_crash     : 0\nlast_hang      : 1500136801\nexec_timeout   : 20\nafl_banner     : fuzzer-master\nafl_version    : 1.85b\ncommand_line   : /home/skaramcheti/.virtualenvs/afl/bin/afl-unix/afl-fuzz -i /dev/shm/work/Pattern_Finder/input -o /dev/shm/work/Pattern_Finder/sync -m 4G -Q -M fuzzer-master -x /dev/shm/work/Pattern_Finder/Pattern_Finder.dict -- data/linux/processed-challenges/Pattern_Finder/bin/Pattern_Finder\n'
p119
I1
tp120
a(I7200
S'start_time     : 1500133524\nlast_update    : 1500140675\nfuzzer_pid     : 6015\ncycles_done    : 0\nexecs_done     : 4870071\nexecs_per_sec  : 633.94\npaths_total    : 272\npaths_favored  : 67\npaths_found    : 271\npaths_imported : 0\nmax_depth      : 10\ncur_path       : 220\npending_favs   : 23\npending_total  : 182\nvariable_paths : 0\nbitmap_cvg     : 1.85%\nunique_crashes : 0\nunique_hangs   : 1\nlast_path      : 1500140544\nlast_crash     : 0\nlast_hang      : 1500136801\nexec_timeout   : 20\nafl_banner     : fuzzer-master\nafl_version    : 1.85b\ncommand_line   : /home/skaramcheti/.virtualenvs/afl/bin/afl-unix/afl-fuzz -i /dev/shm/work/Pattern_Finder/input -o /dev/shm/work/Pattern_Finder/sync -m 4G -Q -M fuzzer-master -x /dev/shm/work/Pattern_Finder/Pattern_Finder.dict -- data/linux/processed-challenges/Pattern_Finder/bin/Pattern_Finder\n'
p121
I1
tp122
a(I7320
S'start_time     : 1500133524\nlast_update    : 1500140796\nfuzzer_pid     : 6015\ncycles_done    : 0\nexecs_done     : 4937898\nexecs_per_sec  : 334.02\npaths_total    : 273\npaths_favored  : 65\npaths_found    : 272\npaths_imported : 0\nmax_depth      : 10\ncur_path       : 222\npending_favs   : 23\npending_total  : 182\nvariable_paths : 0\nbitmap_cvg     : 1.85%\nunique_crashes : 0\nunique_hangs   : 1\nlast_path      : 1500140683\nlast_crash     : 0\nlast_hang      : 1500136801\nexec_timeout   : 20\nafl_banner     : fuzzer-master\nafl_version    : 1.85b\ncommand_line   : /home/skaramcheti/.virtualenvs/afl/bin/afl-unix/afl-fuzz -i /dev/shm/work/Pattern_Finder/input -o /dev/shm/work/Pattern_Finder/sync -m 4G -Q -M fuzzer-master -x /dev/shm/work/Pattern_Finder/Pattern_Finder.dict -- data/linux/processed-challenges/Pattern_Finder/bin/Pattern_Finder\n'
p123
I0
tp124
a(I7440
S'start_time     : 1500133524\nlast_update    : 1500140916\nfuzzer_pid     : 6015\ncycles_done    : 0\nexecs_done     : 4986990\nexecs_per_sec  : 283.65\npaths_total    : 273\npaths_favored  : 65\npaths_found    : 272\npaths_imported : 0\nmax_depth      : 10\ncur_path       : 224\npending_favs   : 22\npending_total  : 181\nvariable_paths : 0\nbitmap_cvg     : 1.85%\nunique_crashes : 0\nunique_hangs   : 1\nlast_path      : 1500140683\nlast_crash     : 0\nlast_hang      : 1500136801\nexec_timeout   : 20\nafl_banner     : fuzzer-master\nafl_version    : 1.85b\ncommand_line   : /home/skaramcheti/.virtualenvs/afl/bin/afl-unix/afl-fuzz -i /dev/shm/work/Pattern_Finder/input -o /dev/shm/work/Pattern_Finder/sync -m 4G -Q -M fuzzer-master -x /dev/shm/work/Pattern_Finder/Pattern_Finder.dict -- data/linux/processed-challenges/Pattern_Finder/bin/Pattern_Finder\n'
p125
I0
tp126
a(I7560
S'start_time     : 1500133524\nlast_update    : 1500141036\nfuzzer_pid     : 6015\ncycles_done    : 0\nexecs_done     : 5035821\nexecs_per_sec  : 617.02\npaths_total    : 273\npaths_favored  : 65\npaths_found    : 272\npaths_imported : 0\nmax_depth      : 10\ncur_path       : 224\npending_favs   : 22\npending_total  : 181\nvariable_paths : 0\nbitmap_cvg     : 1.85%\nunique_crashes : 0\nunique_hangs   : 1\nlast_path      : 1500140683\nlast_crash     : 0\nlast_hang      : 1500136801\nexec_timeout   : 20\nafl_banner     : fuzzer-master\nafl_version    : 1.85b\ncommand_line   : /home/skaramcheti/.virtualenvs/afl/bin/afl-unix/afl-fuzz -i /dev/shm/work/Pattern_Finder/input -o /dev/shm/work/Pattern_Finder/sync -m 4G -Q -M fuzzer-master -x /dev/shm/work/Pattern_Finder/Pattern_Finder.dict -- data/linux/processed-challenges/Pattern_Finder/bin/Pattern_Finder\n'
p127
I0
tp128
a(I7680
S'start_time     : 1500133524\nlast_update    : 1500141156\nfuzzer_pid     : 6015\ncycles_done    : 0\nexecs_done     : 5079875\nexecs_per_sec  : 605.92\npaths_total    : 273\npaths_favored  : 65\npaths_found    : 272\npaths_imported : 0\nmax_depth      : 10\ncur_path       : 226\npending_favs   : 21\npending_total  : 180\nvariable_paths : 0\nbitmap_cvg     : 1.85%\nunique_crashes : 0\nunique_hangs   : 1\nlast_path      : 1500140683\nlast_crash     : 0\nlast_hang      : 1500136801\nexec_timeout   : 20\nafl_banner     : fuzzer-master\nafl_version    : 1.85b\ncommand_line   : /home/skaramcheti/.virtualenvs/afl/bin/afl-unix/afl-fuzz -i /dev/shm/work/Pattern_Finder/input -o /dev/shm/work/Pattern_Finder/sync -m 4G -Q -M fuzzer-master -x /dev/shm/work/Pattern_Finder/Pattern_Finder.dict -- data/linux/processed-challenges/Pattern_Finder/bin/Pattern_Finder\n'
p129
I0
tp130
a(I7800
S'start_time     : 1500133524\nlast_update    : 1500141276\nfuzzer_pid     : 6015\ncycles_done    : 0\nexecs_done     : 5134180\nexecs_per_sec  : 674.50\npaths_total    : 273\npaths_favored  : 65\npaths_found    : 272\npaths_imported : 0\nmax_depth      : 10\ncur_path       : 230\npending_favs   : 20\npending_total  : 179\nvariable_paths : 0\nbitmap_cvg     : 1.85%\nunique_crashes : 0\nunique_hangs   : 1\nlast_path      : 1500140683\nlast_crash     : 0\nlast_hang      : 1500136801\nexec_timeout   : 20\nafl_banner     : fuzzer-master\nafl_version    : 1.85b\ncommand_line   : /home/skaramcheti/.virtualenvs/afl/bin/afl-unix/afl-fuzz -i /dev/shm/work/Pattern_Finder/input -o /dev/shm/work/Pattern_Finder/sync -m 4G -Q -M fuzzer-master -x /dev/shm/work/Pattern_Finder/Pattern_Finder.dict -- data/linux/processed-challenges/Pattern_Finder/bin/Pattern_Finder\n'
p131
I0
tp132
a(I7920
S'start_time     : 1500133524\nlast_update    : 1500141397\nfuzzer_pid     : 6015\ncycles_done    : 0\nexecs_done     : 5194712\nexecs_per_sec  : 414.08\npaths_total    : 274\npaths_favored  : 65\npaths_found    : 273\npaths_imported : 0\nmax_depth      : 10\ncur_path       : 235\npending_favs   : 18\npending_total  : 178\nvariable_paths : 0\nbitmap_cvg     : 1.85%\nunique_crashes : 0\nunique_hangs   : 1\nlast_path      : 1500141366\nlast_crash     : 0\nlast_hang      : 1500136801\nexec_timeout   : 20\nafl_banner     : fuzzer-master\nafl_version    : 1.85b\ncommand_line   : /home/skaramcheti/.virtualenvs/afl/bin/afl-unix/afl-fuzz -i /dev/shm/work/Pattern_Finder/input -o /dev/shm/work/Pattern_Finder/sync -m 4G -Q -M fuzzer-master -x /dev/shm/work/Pattern_Finder/Pattern_Finder.dict -- data/linux/processed-challenges/Pattern_Finder/bin/Pattern_Finder\n'
p133
I5
tp134
a(I8040
S'start_time     : 1500133524\nlast_update    : 1500141517\nfuzzer_pid     : 6015\ncycles_done    : 0\nexecs_done     : 5273661\nexecs_per_sec  : 731.19\npaths_total    : 279\npaths_favored  : 65\npaths_found    : 278\npaths_imported : 0\nmax_depth      : 10\ncur_path       : 235\npending_favs   : 18\npending_total  : 183\nvariable_paths : 0\nbitmap_cvg     : 1.87%\nunique_crashes : 0\nunique_hangs   : 1\nlast_path      : 1500141516\nlast_crash     : 0\nlast_hang      : 1500136801\nexec_timeout   : 20\nafl_banner     : fuzzer-master\nafl_version    : 1.85b\ncommand_line   : /home/skaramcheti/.virtualenvs/afl/bin/afl-unix/afl-fuzz -i /dev/shm/work/Pattern_Finder/input -o /dev/shm/work/Pattern_Finder/sync -m 4G -Q -M fuzzer-master -x /dev/shm/work/Pattern_Finder/Pattern_Finder.dict -- data/linux/processed-challenges/Pattern_Finder/bin/Pattern_Finder\n'
p135
I3
tp136
a(I8160
S'start_time     : 1500133524\nlast_update    : 1500141637\nfuzzer_pid     : 6015\ncycles_done    : 0\nexecs_done     : 5359931\nexecs_per_sec  : 735.48\npaths_total    : 282\npaths_favored  : 65\npaths_found    : 281\npaths_imported : 0\nmax_depth      : 10\ncur_path       : 235\npending_favs   : 18\npending_total  : 186\nvariable_paths : 0\nbitmap_cvg     : 1.87%\nunique_crashes : 0\nunique_hangs   : 1\nlast_path      : 1500141608\nlast_crash     : 0\nlast_hang      : 1500136801\nexec_timeout   : 20\nafl_banner     : fuzzer-master\nafl_version    : 1.85b\ncommand_line   : /home/skaramcheti/.virtualenvs/afl/bin/afl-unix/afl-fuzz -i /dev/shm/work/Pattern_Finder/input -o /dev/shm/work/Pattern_Finder/sync -m 4G -Q -M fuzzer-master -x /dev/shm/work/Pattern_Finder/Pattern_Finder.dict -- data/linux/processed-challenges/Pattern_Finder/bin/Pattern_Finder\n'
p137
I1
tp138
a(I8280
S'start_time     : 1500133524\nlast_update    : 1500141757\nfuzzer_pid     : 6015\ncycles_done    : 0\nexecs_done     : 5414825\nexecs_per_sec  : 645.60\npaths_total    : 285\npaths_favored  : 66\npaths_found    : 284\npaths_imported : 0\nmax_depth      : 10\ncur_path       : 241\npending_favs   : 20\npending_total  : 188\nvariable_paths : 0\nbitmap_cvg     : 1.87%\nunique_crashes : 0\nunique_hangs   : 1\nlast_path      : 1500141756\nlast_crash     : 0\nlast_hang      : 1500136801\nexec_timeout   : 20\nafl_banner     : fuzzer-master\nafl_version    : 1.85b\ncommand_line   : /home/skaramcheti/.virtualenvs/afl/bin/afl-unix/afl-fuzz -i /dev/shm/work/Pattern_Finder/input -o /dev/shm/work/Pattern_Finder/sync -m 4G -Q -M fuzzer-master -x /dev/shm/work/Pattern_Finder/Pattern_Finder.dict -- data/linux/processed-challenges/Pattern_Finder/bin/Pattern_Finder\n'
p139
I3
tp140
a(I8400
S'start_time     : 1500133524\nlast_update    : 1500141878\nfuzzer_pid     : 6015\ncycles_done    : 0\nexecs_done     : 5493034\nexecs_per_sec  : 644.14\npaths_total    : 285\npaths_favored  : 66\npaths_found    : 284\npaths_imported : 0\nmax_depth      : 10\ncur_path       : 241\npending_favs   : 20\npending_total  : 188\nvariable_paths : 0\nbitmap_cvg     : 1.87%\nunique_crashes : 0\nunique_hangs   : 1\nlast_path      : 1500141756\nlast_crash     : 0\nlast_hang      : 1500136801\nexec_timeout   : 20\nafl_banner     : fuzzer-master\nafl_version    : 1.85b\ncommand_line   : /home/skaramcheti/.virtualenvs/afl/bin/afl-unix/afl-fuzz -i /dev/shm/work/Pattern_Finder/input -o /dev/shm/work/Pattern_Finder/sync -m 4G -Q -M fuzzer-master -x /dev/shm/work/Pattern_Finder/Pattern_Finder.dict -- data/linux/processed-challenges/Pattern_Finder/bin/Pattern_Finder\n'
p141
I0
tp142
a(I8520
S'start_time     : 1500133524\nlast_update    : 1500141998\nfuzzer_pid     : 6015\ncycles_done    : 0\nexecs_done     : 5556754\nexecs_per_sec  : 706.80\npaths_total    : 286\npaths_favored  : 66\npaths_found    : 285\npaths_imported : 0\nmax_depth      : 10\ncur_path       : 242\npending_favs   : 19\npending_total  : 188\nvariable_paths : 0\nbitmap_cvg     : 1.87%\nunique_crashes : 0\nunique_hangs   : 1\nlast_path      : 1500141981\nlast_crash     : 0\nlast_hang      : 1500136801\nexec_timeout   : 20\nafl_banner     : fuzzer-master\nafl_version    : 1.85b\ncommand_line   : /home/skaramcheti/.virtualenvs/afl/bin/afl-unix/afl-fuzz -i /dev/shm/work/Pattern_Finder/input -o /dev/shm/work/Pattern_Finder/sync -m 4G -Q -M fuzzer-master -x /dev/shm/work/Pattern_Finder/Pattern_Finder.dict -- data/linux/processed-challenges/Pattern_Finder/bin/Pattern_Finder\n'
p143
I1
tp144
a(I8640
S'start_time     : 1500133524\nlast_update    : 1500142118\nfuzzer_pid     : 6015\ncycles_done    : 0\nexecs_done     : 5620465\nexecs_per_sec  : 688.86\npaths_total    : 287\npaths_favored  : 66\npaths_found    : 286\npaths_imported : 0\nmax_depth      : 10\ncur_path       : 248\npending_favs   : 18\npending_total  : 188\nvariable_paths : 0\nbitmap_cvg     : 1.87%\nunique_crashes : 0\nunique_hangs   : 2\nlast_path      : 1500142114\nlast_crash     : 0\nlast_hang      : 1500142118\nexec_timeout   : 20\nafl_banner     : fuzzer-master\nafl_version    : 1.85b\ncommand_line   : /home/skaramcheti/.virtualenvs/afl/bin/afl-unix/afl-fuzz -i /dev/shm/work/Pattern_Finder/input -o /dev/shm/work/Pattern_Finder/sync -m 4G -Q -M fuzzer-master -x /dev/shm/work/Pattern_Finder/Pattern_Finder.dict -- data/linux/processed-challenges/Pattern_Finder/bin/Pattern_Finder\n'
p145
I1
tp146
a(I8760
S'start_time     : 1500133524\nlast_update    : 1500142238\nfuzzer_pid     : 6015\ncycles_done    : 0\nexecs_done     : 5693119\nexecs_per_sec  : 465.59\npaths_total    : 287\npaths_favored  : 66\npaths_found    : 286\npaths_imported : 0\nmax_depth      : 10\ncur_path       : 251\npending_favs   : 17\npending_total  : 187\nvariable_paths : 0\nbitmap_cvg     : 1.87%\nunique_crashes : 0\nunique_hangs   : 2\nlast_path      : 1500142114\nlast_crash     : 0\nlast_hang      : 1500142118\nexec_timeout   : 20\nafl_banner     : fuzzer-master\nafl_version    : 1.85b\ncommand_line   : /home/skaramcheti/.virtualenvs/afl/bin/afl-unix/afl-fuzz -i /dev/shm/work/Pattern_Finder/input -o /dev/shm/work/Pattern_Finder/sync -m 4G -Q -M fuzzer-master -x /dev/shm/work/Pattern_Finder/Pattern_Finder.dict -- data/linux/processed-challenges/Pattern_Finder/bin/Pattern_Finder\n'
p147
I1
tp148
a(I8880
S'start_time     : 1500133524\nlast_update    : 1500142358\nfuzzer_pid     : 6015\ncycles_done    : 0\nexecs_done     : 5769404\nexecs_per_sec  : 368.89\npaths_total    : 288\npaths_favored  : 66\npaths_found    : 287\npaths_imported : 0\nmax_depth      : 10\ncur_path       : 258\npending_favs   : 16\npending_total  : 187\nvariable_paths : 0\nbitmap_cvg     : 1.87%\nunique_crashes : 0\nunique_hangs   : 2\nlast_path      : 1500142285\nlast_crash     : 0\nlast_hang      : 1500142118\nexec_timeout   : 20\nafl_banner     : fuzzer-master\nafl_version    : 1.85b\ncommand_line   : /home/skaramcheti/.virtualenvs/afl/bin/afl-unix/afl-fuzz -i /dev/shm/work/Pattern_Finder/input -o /dev/shm/work/Pattern_Finder/sync -m 4G -Q -M fuzzer-master -x /dev/shm/work/Pattern_Finder/Pattern_Finder.dict -- data/linux/processed-challenges/Pattern_Finder/bin/Pattern_Finder\n'
p149
I0
tp150
a(I9000
S'start_time     : 1500133524\nlast_update    : 1500142479\nfuzzer_pid     : 6015\ncycles_done    : 0\nexecs_done     : 5816844\nexecs_per_sec  : 209.34\npaths_total    : 288\npaths_favored  : 66\npaths_found    : 287\npaths_imported : 0\nmax_depth      : 10\ncur_path       : 259\npending_favs   : 15\npending_total  : 186\nvariable_paths : 0\nbitmap_cvg     : 1.87%\nunique_crashes : 0\nunique_hangs   : 3\nlast_path      : 1500142285\nlast_crash     : 0\nlast_hang      : 1500142377\nexec_timeout   : 20\nafl_banner     : fuzzer-master\nafl_version    : 1.85b\ncommand_line   : /home/skaramcheti/.virtualenvs/afl/bin/afl-unix/afl-fuzz -i /dev/shm/work/Pattern_Finder/input -o /dev/shm/work/Pattern_Finder/sync -m 4G -Q -M fuzzer-master -x /dev/shm/work/Pattern_Finder/Pattern_Finder.dict -- data/linux/processed-challenges/Pattern_Finder/bin/Pattern_Finder\n'
p151
I0
tp152
a(I9120
S'start_time     : 1500133524\nlast_update    : 1500142599\nfuzzer_pid     : 6015\ncycles_done    : 0\nexecs_done     : 5852728\nexecs_per_sec  : 561.06\npaths_total    : 288\npaths_favored  : 66\npaths_found    : 287\npaths_imported : 0\nmax_depth      : 10\ncur_path       : 259\npending_favs   : 15\npending_total  : 186\nvariable_paths : 0\nbitmap_cvg     : 1.87%\nunique_crashes : 0\nunique_hangs   : 3\nlast_path      : 1500142285\nlast_crash     : 0\nlast_hang      : 1500142377\nexec_timeout   : 20\nafl_banner     : fuzzer-master\nafl_version    : 1.85b\ncommand_line   : /home/skaramcheti/.virtualenvs/afl/bin/afl-unix/afl-fuzz -i /dev/shm/work/Pattern_Finder/input -o /dev/shm/work/Pattern_Finder/sync -m 4G -Q -M fuzzer-master -x /dev/shm/work/Pattern_Finder/Pattern_Finder.dict -- data/linux/processed-challenges/Pattern_Finder/bin/Pattern_Finder\n'
p153
I0
tp154
a(I9240
S'start_time     : 1500133524\nlast_update    : 1500142719\nfuzzer_pid     : 6015\ncycles_done    : 0\nexecs_done     : 5889528\nexecs_per_sec  : 337.15\npaths_total    : 288\npaths_favored  : 66\npaths_found    : 287\npaths_imported : 0\nmax_depth      : 10\ncur_path       : 261\npending_favs   : 15\npending_total  : 185\nvariable_paths : 0\nbitmap_cvg     : 1.87%\nunique_crashes : 0\nunique_hangs   : 3\nlast_path      : 1500142285\nlast_crash     : 0\nlast_hang      : 1500142377\nexec_timeout   : 20\nafl_banner     : fuzzer-master\nafl_version    : 1.85b\ncommand_line   : /home/skaramcheti/.virtualenvs/afl/bin/afl-unix/afl-fuzz -i /dev/shm/work/Pattern_Finder/input -o /dev/shm/work/Pattern_Finder/sync -m 4G -Q -M fuzzer-master -x /dev/shm/work/Pattern_Finder/Pattern_Finder.dict -- data/linux/processed-challenges/Pattern_Finder/bin/Pattern_Finder\n'
p155
I1
tp156
a(I9360
S'start_time     : 1500133524\nlast_update    : 1500142839\nfuzzer_pid     : 6015\ncycles_done    : 0\nexecs_done     : 5950683\nexecs_per_sec  : 425.94\npaths_total    : 289\npaths_favored  : 66\npaths_found    : 288\npaths_imported : 0\nmax_depth      : 11\ncur_path       : 262\npending_favs   : 14\npending_total  : 185\nvariable_paths : 0\nbitmap_cvg     : 1.87%\nunique_crashes : 0\nunique_hangs   : 3\nlast_path      : 1500142735\nlast_crash     : 0\nlast_hang      : 1500142377\nexec_timeout   : 20\nafl_banner     : fuzzer-master\nafl_version    : 1.85b\ncommand_line   : /home/skaramcheti/.virtualenvs/afl/bin/afl-unix/afl-fuzz -i /dev/shm/work/Pattern_Finder/input -o /dev/shm/work/Pattern_Finder/sync -m 4G -Q -M fuzzer-master -x /dev/shm/work/Pattern_Finder/Pattern_Finder.dict -- data/linux/processed-challenges/Pattern_Finder/bin/Pattern_Finder\n'
p157
I0
tp158
a(I9480
S'start_time     : 1500133524\nlast_update    : 1500142959\nfuzzer_pid     : 6015\ncycles_done    : 0\nexecs_done     : 6012679\nexecs_per_sec  : 651.14\npaths_total    : 291\npaths_favored  : 66\npaths_found    : 290\npaths_imported : 0\nmax_depth      : 11\ncur_path       : 264\npending_favs   : 13\npending_total  : 186\nvariable_paths : 0\nbitmap_cvg     : 1.87%\nunique_crashes : 0\nunique_hangs   : 3\nlast_path      : 1500142955\nlast_crash     : 0\nlast_hang      : 1500142377\nexec_timeout   : 20\nafl_banner     : fuzzer-master\nafl_version    : 1.85b\ncommand_line   : /home/skaramcheti/.virtualenvs/afl/bin/afl-unix/afl-fuzz -i /dev/shm/work/Pattern_Finder/input -o /dev/shm/work/Pattern_Finder/sync -m 4G -Q -M fuzzer-master -x /dev/shm/work/Pattern_Finder/Pattern_Finder.dict -- data/linux/processed-challenges/Pattern_Finder/bin/Pattern_Finder\n'
p159
I3
tp160
a(I9600
S'start_time     : 1500133524\nlast_update    : 1500143080\nfuzzer_pid     : 6015\ncycles_done    : 0\nexecs_done     : 6106305\nexecs_per_sec  : 768.08\npaths_total    : 293\npaths_favored  : 66\npaths_found    : 292\npaths_imported : 0\nmax_depth      : 11\ncur_path       : 264\npending_favs   : 13\npending_total  : 188\nvariable_paths : 0\nbitmap_cvg     : 1.88%\nunique_crashes : 0\nunique_hangs   : 3\nlast_path      : 1500143024\nlast_crash     : 0\nlast_hang      : 1500142377\nexec_timeout   : 20\nafl_banner     : fuzzer-master\nafl_version    : 1.85b\ncommand_line   : /home/skaramcheti/.virtualenvs/afl/bin/afl-unix/afl-fuzz -i /dev/shm/work/Pattern_Finder/input -o /dev/shm/work/Pattern_Finder/sync -m 4G -Q -M fuzzer-master -x /dev/shm/work/Pattern_Finder/Pattern_Finder.dict -- data/linux/processed-challenges/Pattern_Finder/bin/Pattern_Finder\n'
p161
I1
tp162
a(I9720
S'start_time     : 1500133524\nlast_update    : 1500143200\nfuzzer_pid     : 6015\ncycles_done    : 0\nexecs_done     : 6171604\nexecs_per_sec  : 659.40\npaths_total    : 293\npaths_favored  : 67\npaths_found    : 292\npaths_imported : 0\nmax_depth      : 11\ncur_path       : 265\npending_favs   : 15\npending_total  : 187\nvariable_paths : 0\nbitmap_cvg     : 1.88%\nunique_crashes : 0\nunique_hangs   : 3\nlast_path      : 1500143024\nlast_crash     : 0\nlast_hang      : 1500142377\nexec_timeout   : 20\nafl_banner     : fuzzer-master\nafl_version    : 1.85b\ncommand_line   : /home/skaramcheti/.virtualenvs/afl/bin/afl-unix/afl-fuzz -i /dev/shm/work/Pattern_Finder/input -o /dev/shm/work/Pattern_Finder/sync -m 4G -Q -M fuzzer-master -x /dev/shm/work/Pattern_Finder/Pattern_Finder.dict -- data/linux/processed-challenges/Pattern_Finder/bin/Pattern_Finder\n'
p163
I5
tp164
a(I9840
S'start_time     : 1500133524\nlast_update    : 1500143320\nfuzzer_pid     : 6015\ncycles_done    : 0\nexecs_done     : 6223882\nexecs_per_sec  : 634.62\npaths_total    : 300\npaths_favored  : 67\npaths_found    : 299\npaths_imported : 0\nmax_depth      : 11\ncur_path       : 266\npending_favs   : 14\npending_total  : 193\nvariable_paths : 0\nbitmap_cvg     : 1.89%\nunique_crashes : 0\nunique_hangs   : 3\nlast_path      : 1500143309\nlast_crash     : 0\nlast_hang      : 1500142377\nexec_timeout   : 20\nafl_banner     : fuzzer-master\nafl_version    : 1.85b\ncommand_line   : /home/skaramcheti/.virtualenvs/afl/bin/afl-unix/afl-fuzz -i /dev/shm/work/Pattern_Finder/input -o /dev/shm/work/Pattern_Finder/sync -m 4G -Q -M fuzzer-master -x /dev/shm/work/Pattern_Finder/Pattern_Finder.dict -- data/linux/processed-challenges/Pattern_Finder/bin/Pattern_Finder\n'
p165
I2
tp166
a(I9960
S'start_time     : 1500133524\nlast_update    : 1500143440\nfuzzer_pid     : 6015\ncycles_done    : 0\nexecs_done     : 6300730\nexecs_per_sec  : 634.33\npaths_total    : 300\npaths_favored  : 67\npaths_found    : 299\npaths_imported : 0\nmax_depth      : 11\ncur_path       : 266\npending_favs   : 14\npending_total  : 193\nvariable_paths : 0\nbitmap_cvg     : 1.89%\nunique_crashes : 0\nunique_hangs   : 3\nlast_path      : 1500143309\nlast_crash     : 0\nlast_hang      : 1500142377\nexec_timeout   : 20\nafl_banner     : fuzzer-master\nafl_version    : 1.85b\ncommand_line   : /home/skaramcheti/.virtualenvs/afl/bin/afl-unix/afl-fuzz -i /dev/shm/work/Pattern_Finder/input -o /dev/shm/work/Pattern_Finder/sync -m 4G -Q -M fuzzer-master -x /dev/shm/work/Pattern_Finder/Pattern_Finder.dict -- data/linux/processed-challenges/Pattern_Finder/bin/Pattern_Finder\n'
p167
I1
tp168
a(I10080
S'start_time     : 1500133524\nlast_update    : 1500143560\nfuzzer_pid     : 6015\ncycles_done    : 0\nexecs_done     : 6359271\nexecs_per_sec  : 361.25\npaths_total    : 301\npaths_favored  : 71\npaths_found    : 300\npaths_imported : 0\nmax_depth      : 11\ncur_path       : 268\npending_favs   : 21\npending_total  : 193\nvariable_paths : 0\nbitmap_cvg     : 1.89%\nunique_crashes : 0\nunique_hangs   : 3\nlast_path      : 1500143478\nlast_crash     : 0\nlast_hang      : 1500142377\nexec_timeout   : 20\nafl_banner     : fuzzer-master\nafl_version    : 1.85b\ncommand_line   : /home/skaramcheti/.virtualenvs/afl/bin/afl-unix/afl-fuzz -i /dev/shm/work/Pattern_Finder/input -o /dev/shm/work/Pattern_Finder/sync -m 4G -Q -M fuzzer-master -x /dev/shm/work/Pattern_Finder/Pattern_Finder.dict -- data/linux/processed-challenges/Pattern_Finder/bin/Pattern_Finder\n'
p169
I1
tp170
a(I10200
S'start_time     : 1500133524\nlast_update    : 1500143681\nfuzzer_pid     : 6015\ncycles_done    : 0\nexecs_done     : 6425296\nexecs_per_sec  : 630.19\npaths_total    : 302\npaths_favored  : 71\npaths_found    : 301\npaths_imported : 0\nmax_depth      : 11\ncur_path       : 268\npending_favs   : 21\npending_total  : 194\nvariable_paths : 0\nbitmap_cvg     : 1.89%\nunique_crashes : 0\nunique_hangs   : 3\nlast_path      : 1500143598\nlast_crash     : 0\nlast_hang      : 1500142377\nexec_timeout   : 20\nafl_banner     : fuzzer-master\nafl_version    : 1.85b\ncommand_line   : /home/skaramcheti/.virtualenvs/afl/bin/afl-unix/afl-fuzz -i /dev/shm/work/Pattern_Finder/input -o /dev/shm/work/Pattern_Finder/sync -m 4G -Q -M fuzzer-master -x /dev/shm/work/Pattern_Finder/Pattern_Finder.dict -- data/linux/processed-challenges/Pattern_Finder/bin/Pattern_Finder\n'
p171
I0
tp172
a(I10320
S'start_time     : 1500133524\nlast_update    : 1500143801\nfuzzer_pid     : 6015\ncycles_done    : 0\nexecs_done     : 6474122\nexecs_per_sec  : 620.16\npaths_total    : 302\npaths_favored  : 71\npaths_found    : 301\npaths_imported : 0\nmax_depth      : 11\ncur_path       : 269\npending_favs   : 20\npending_total  : 193\nvariable_paths : 0\nbitmap_cvg     : 1.89%\nunique_crashes : 0\nunique_hangs   : 3\nlast_path      : 1500143598\nlast_crash     : 0\nlast_hang      : 1500142377\nexec_timeout   : 20\nafl_banner     : fuzzer-master\nafl_version    : 1.85b\ncommand_line   : /home/skaramcheti/.virtualenvs/afl/bin/afl-unix/afl-fuzz -i /dev/shm/work/Pattern_Finder/input -o /dev/shm/work/Pattern_Finder/sync -m 4G -Q -M fuzzer-master -x /dev/shm/work/Pattern_Finder/Pattern_Finder.dict -- data/linux/processed-challenges/Pattern_Finder/bin/Pattern_Finder\n'
p173
I0
tp174
a(I10440
S'start_time     : 1500133524\nlast_update    : 1500143921\nfuzzer_pid     : 6015\ncycles_done    : 0\nexecs_done     : 6526487\nexecs_per_sec  : 348.24\npaths_total    : 302\npaths_favored  : 71\npaths_found    : 301\npaths_imported : 0\nmax_depth      : 11\ncur_path       : 270\npending_favs   : 19\npending_total  : 192\nvariable_paths : 0\nbitmap_cvg     : 1.89%\nunique_crashes : 0\nunique_hangs   : 3\nlast_path      : 1500143598\nlast_crash     : 0\nlast_hang      : 1500142377\nexec_timeout   : 20\nafl_banner     : fuzzer-master\nafl_version    : 1.85b\ncommand_line   : /home/skaramcheti/.virtualenvs/afl/bin/afl-unix/afl-fuzz -i /dev/shm/work/Pattern_Finder/input -o /dev/shm/work/Pattern_Finder/sync -m 4G -Q -M fuzzer-master -x /dev/shm/work/Pattern_Finder/Pattern_Finder.dict -- data/linux/processed-challenges/Pattern_Finder/bin/Pattern_Finder\n'
p175
I0
tp176
a(I10560
S'start_time     : 1500133524\nlast_update    : 1500144041\nfuzzer_pid     : 6015\ncycles_done    : 0\nexecs_done     : 6580763\nexecs_per_sec  : 370.73\npaths_total    : 303\npaths_favored  : 71\npaths_found    : 302\npaths_imported : 0\nmax_depth      : 11\ncur_path       : 271\npending_favs   : 18\npending_total  : 192\nvariable_paths : 0\nbitmap_cvg     : 1.89%\nunique_crashes : 0\nunique_hangs   : 3\nlast_path      : 1500143987\nlast_crash     : 0\nlast_hang      : 1500142377\nexec_timeout   : 20\nafl_banner     : fuzzer-master\nafl_version    : 1.85b\ncommand_line   : /home/skaramcheti/.virtualenvs/afl/bin/afl-unix/afl-fuzz -i /dev/shm/work/Pattern_Finder/input -o /dev/shm/work/Pattern_Finder/sync -m 4G -Q -M fuzzer-master -x /dev/shm/work/Pattern_Finder/Pattern_Finder.dict -- data/linux/processed-challenges/Pattern_Finder/bin/Pattern_Finder\n'
p177
I1
tp178
a(I10680
S'start_time     : 1500133524\nlast_update    : 1500144162\nfuzzer_pid     : 6015\ncycles_done    : 0\nexecs_done     : 6637673\nexecs_per_sec  : 671.03\npaths_total    : 303\npaths_favored  : 73\npaths_found    : 302\npaths_imported : 0\nmax_depth      : 11\ncur_path       : 272\npending_favs   : 18\npending_total  : 191\nvariable_paths : 0\nbitmap_cvg     : 1.89%\nunique_crashes : 0\nunique_hangs   : 3\nlast_path      : 1500143987\nlast_crash     : 0\nlast_hang      : 1500142377\nexec_timeout   : 20\nafl_banner     : fuzzer-master\nafl_version    : 1.85b\ncommand_line   : /home/skaramcheti/.virtualenvs/afl/bin/afl-unix/afl-fuzz -i /dev/shm/work/Pattern_Finder/input -o /dev/shm/work/Pattern_Finder/sync -m 4G -Q -M fuzzer-master -x /dev/shm/work/Pattern_Finder/Pattern_Finder.dict -- data/linux/processed-challenges/Pattern_Finder/bin/Pattern_Finder\n'
p179
I0
tp180
a.