(lp0
(I0
S'start_time     : 1500068569\nlast_update    : 1500068569\nfuzzer_pid     : 18615\ncycles_done    : 0\nexecs_done     : 10\nexecs_per_sec  : 178.57\npaths_total    : 1\npaths_favored  : 1\npaths_found    : 0\npaths_imported : 0\nmax_depth      : 1\ncur_path       : 0\npending_favs   : 1\npending_total  : 1\nvariable_paths : 0\nbitmap_cvg     : 0.70%\nunique_crashes : 0\nunique_hangs   : 0\nlast_path      : 0\nlast_crash     : 0\nlast_hang      : 0\nexec_timeout   : 20\nafl_banner     : fuzzer-master\nafl_version    : 1.85b\ncommand_line   : /home/skaramcheti/.virtualenvs/afl/bin/afl-unix/afl-fuzz -i /dev/shm/work/Character_Statistics/input -o /dev/shm/work/Character_Statistics/sync -m 4G -Q -M fuzzer-master -x /dev/shm/work/Character_Statistics/Character_Statistics.dict -- data/linux/processed-challenges/Character_Statistics/bin/Character_Statistics\n'
p1
I61
tp2
a(I120
S'start_time     : 1500068569\nlast_update    : 1500068689\nfuzzer_pid     : 18615\ncycles_done    : 0\nexecs_done     : 73244\nexecs_per_sec  : 611.17\npaths_total    : 80\npaths_favored  : 1\npaths_found    : 79\npaths_imported : 0\nmax_depth      : 2\ncur_path       : 0\npending_favs   : 1\npending_total  : 80\nvariable_paths : 0\nbitmap_cvg     : 0.89%\nunique_crashes : 0\nunique_hangs   : 0\nlast_path      : 1500068688\nlast_crash     : 0\nlast_hang      : 0\nexec_timeout   : 20\nafl_banner     : fuzzer-master\nafl_version    : 1.85b\ncommand_line   : /home/skaramcheti/.virtualenvs/afl/bin/afl-unix/afl-fuzz -i /dev/shm/work/Character_Statistics/input -o /dev/shm/work/Character_Statistics/sync -m 4G -Q -M fuzzer-master -x /dev/shm/work/Character_Statistics/Character_Statistics.dict -- data/linux/processed-challenges/Character_Statistics/bin/Character_Statistics\n'
p3
I19
tp4
a(I240
S'start_time     : 1500068569\nlast_update    : 1500068809\nfuzzer_pid     : 18615\ncycles_done    : 0\nexecs_done     : 146162\nexecs_per_sec  : 606.62\npaths_total    : 83\npaths_favored  : 1\npaths_found    : 82\npaths_imported : 0\nmax_depth      : 2\ncur_path       : 0\npending_favs   : 1\npending_total  : 83\nvariable_paths : 0\nbitmap_cvg     : 0.89%\nunique_crashes : 0\nunique_hangs   : 0\nlast_path      : 1500068744\nlast_crash     : 0\nlast_hang      : 0\nexec_timeout   : 20\nafl_banner     : fuzzer-master\nafl_version    : 1.85b\ncommand_line   : /home/skaramcheti/.virtualenvs/afl/bin/afl-unix/afl-fuzz -i /dev/shm/work/Character_Statistics/input -o /dev/shm/work/Character_Statistics/sync -m 4G -Q -M fuzzer-master -x /dev/shm/work/Character_Statistics/Character_Statistics.dict -- data/linux/processed-challenges/Character_Statistics/bin/Character_Statistics\n'
p5
I3
tp6
a(I360
S'start_time     : 1500068569\nlast_update    : 1500068929\nfuzzer_pid     : 18615\ncycles_done    : 0\nexecs_done     : 218418\nexecs_per_sec  : 594.11\npaths_total    : 85\npaths_favored  : 13\npaths_found    : 84\npaths_imported : 0\nmax_depth      : 3\ncur_path       : 45\npending_favs   : 5\npending_total  : 76\nvariable_paths : 0\nbitmap_cvg     : 0.89%\nunique_crashes : 0\nunique_hangs   : 0\nlast_path      : 1500068905\nlast_crash     : 0\nlast_hang      : 0\nexec_timeout   : 20\nafl_banner     : fuzzer-master\nafl_version    : 1.85b\ncommand_line   : /home/skaramcheti/.virtualenvs/afl/bin/afl-unix/afl-fuzz -i /dev/shm/work/Character_Statistics/input -o /dev/shm/work/Character_Statistics/sync -m 4G -Q -M fuzzer-master -x /dev/shm/work/Character_Statistics/Character_Statistics.dict -- data/linux/processed-challenges/Character_Statistics/bin/Character_Statistics\n'
p7
I2
tp8
a(I480
S'start_time     : 1500068569\nlast_update    : 1500069050\nfuzzer_pid     : 18615\ncycles_done    : 1\nexecs_done     : 290144\nexecs_per_sec  : 589.77\npaths_total    : 88\npaths_favored  : 13\npaths_found    : 87\npaths_imported : 0\nmax_depth      : 3\ncur_path       : 15\npending_favs   : 0\npending_total  : 72\nvariable_paths : 0\nbitmap_cvg     : 0.89%\nunique_crashes : 0\nunique_hangs   : 0\nlast_path      : 1500069037\nlast_crash     : 0\nlast_hang      : 0\nexec_timeout   : 20\nafl_banner     : fuzzer-master\nafl_version    : 1.85b\ncommand_line   : /home/skaramcheti/.virtualenvs/afl/bin/afl-unix/afl-fuzz -i /dev/shm/work/Character_Statistics/input -o /dev/shm/work/Character_Statistics/sync -m 4G -Q -M fuzzer-master -x /dev/shm/work/Character_Statistics/Character_Statistics.dict -- data/linux/processed-challenges/Character_Statistics/bin/Character_Statistics\n'
p9
I3
tp10
a(I600
S'start_time     : 1500068569\nlast_update    : 1500069170\nfuzzer_pid     : 18615\ncycles_done    : 1\nexecs_done     : 358794\nexecs_per_sec  : 462.82\npaths_total    : 97\npaths_favored  : 13\npaths_found    : 96\npaths_imported : 0\nmax_depth      : 3\ncur_path       : 42\npending_favs   : 0\npending_total  : 76\nvariable_paths : 0\nbitmap_cvg     : 0.89%\nunique_crashes : 0\nunique_hangs   : 0\nlast_path      : 1500069169\nlast_crash     : 0\nlast_hang      : 0\nexec_timeout   : 20\nafl_banner     : fuzzer-master\nafl_version    : 1.85b\ncommand_line   : /home/skaramcheti/.virtualenvs/afl/bin/afl-unix/afl-fuzz -i /dev/shm/work/Character_Statistics/input -o /dev/shm/work/Character_Statistics/sync -m 4G -Q -M fuzzer-master -x /dev/shm/work/Character_Statistics/Character_Statistics.dict -- data/linux/processed-challenges/Character_Statistics/bin/Character_Statistics\n'
p11
I19
tp12
a(I720
S'start_time     : 1500068569\nlast_update    : 1500069290\nfuzzer_pid     : 18615\ncycles_done    : 1\nexecs_done     : 419311\nexecs_per_sec  : 517.52\npaths_total    : 126\npaths_favored  : 13\npaths_found    : 125\npaths_imported : 0\nmax_depth      : 3\ncur_path       : 42\npending_favs   : 0\npending_total  : 105\nvariable_paths : 0\nbitmap_cvg     : 0.89%\nunique_crashes : 0\nunique_hangs   : 0\nlast_path      : 1500069252\nlast_crash     : 0\nlast_hang      : 0\nexec_timeout   : 20\nafl_banner     : fuzzer-master\nafl_version    : 1.85b\ncommand_line   : /home/skaramcheti/.virtualenvs/afl/bin/afl-unix/afl-fuzz -i /dev/shm/work/Character_Statistics/input -o /dev/shm/work/Character_Statistics/sync -m 4G -Q -M fuzzer-master -x /dev/shm/work/Character_Statistics/Character_Statistics.dict -- data/linux/processed-challenges/Character_Statistics/bin/Character_Statistics\n'
p13
I20
tp14
a(I840
S'start_time     : 1500068569\nlast_update    : 1500069410\nfuzzer_pid     : 18615\ncycles_done    : 1\nexecs_done     : 480431\nexecs_per_sec  : 509.78\npaths_total    : 129\npaths_favored  : 13\npaths_found    : 128\npaths_imported : 0\nmax_depth      : 3\ncur_path       : 42\npending_favs   : 0\npending_total  : 108\nvariable_paths : 0\nbitmap_cvg     : 0.89%\nunique_crashes : 0\nunique_hangs   : 0\nlast_path      : 1500069381\nlast_crash     : 0\nlast_hang      : 0\nexec_timeout   : 20\nafl_banner     : fuzzer-master\nafl_version    : 1.85b\ncommand_line   : /home/skaramcheti/.virtualenvs/afl/bin/afl-unix/afl-fuzz -i /dev/shm/work/Character_Statistics/input -o /dev/shm/work/Character_Statistics/sync -m 4G -Q -M fuzzer-master -x /dev/shm/work/Character_Statistics/Character_Statistics.dict -- data/linux/processed-challenges/Character_Statistics/bin/Character_Statistics\n'
p15
I2
tp16
a(I960
S'start_time     : 1500068569\nlast_update    : 1500069530\nfuzzer_pid     : 18615\ncycles_done    : 1\nexecs_done     : 546251\nexecs_per_sec  : 589.79\npaths_total    : 130\npaths_favored  : 13\npaths_found    : 129\npaths_imported : 0\nmax_depth      : 3\ncur_path       : 49\npending_favs   : 0\npending_total  : 108\nvariable_paths : 0\nbitmap_cvg     : 0.89%\nunique_crashes : 0\nunique_hangs   : 0\nlast_path      : 1500069430\nlast_crash     : 0\nlast_hang      : 0\nexec_timeout   : 20\nafl_banner     : fuzzer-master\nafl_version    : 1.85b\ncommand_line   : /home/skaramcheti/.virtualenvs/afl/bin/afl-unix/afl-fuzz -i /dev/shm/work/Character_Statistics/input -o /dev/shm/work/Character_Statistics/sync -m 4G -Q -M fuzzer-master -x /dev/shm/work/Character_Statistics/Character_Statistics.dict -- data/linux/processed-challenges/Character_Statistics/bin/Character_Statistics\n'
p17
I1
tp18
a(I1080
S'start_time     : 1500068569\nlast_update    : 1500069651\nfuzzer_pid     : 18615\ncycles_done    : 1\nexecs_done     : 605811\nexecs_per_sec  : 375.13\npaths_total    : 130\npaths_favored  : 13\npaths_found    : 129\npaths_imported : 0\nmax_depth      : 3\ncur_path       : 70\npending_favs   : 0\npending_total  : 103\nvariable_paths : 0\nbitmap_cvg     : 0.89%\nunique_crashes : 0\nunique_hangs   : 0\nlast_path      : 1500069430\nlast_crash     : 0\nlast_hang      : 0\nexec_timeout   : 20\nafl_banner     : fuzzer-master\nafl_version    : 1.85b\ncommand_line   : /home/skaramcheti/.virtualenvs/afl/bin/afl-unix/afl-fuzz -i /dev/shm/work/Character_Statistics/input -o /dev/shm/work/Character_Statistics/sync -m 4G -Q -M fuzzer-master -x /dev/shm/work/Character_Statistics/Character_Statistics.dict -- data/linux/processed-challenges/Character_Statistics/bin/Character_Statistics\n'
p19
I0
tp20
a(I1200
S'start_time     : 1500068569\nlast_update    : 1500069771\nfuzzer_pid     : 18615\ncycles_done    : 1\nexecs_done     : 648110\nexecs_per_sec  : 279.27\npaths_total    : 131\npaths_favored  : 13\npaths_found    : 130\npaths_imported : 0\nmax_depth      : 3\ncur_path       : 84\npending_favs   : 0\npending_total  : 102\nvariable_paths : 0\nbitmap_cvg     : 0.89%\nunique_crashes : 0\nunique_hangs   : 0\nlast_path      : 1500069665\nlast_crash     : 0\nlast_hang      : 0\nexec_timeout   : 20\nafl_banner     : fuzzer-master\nafl_version    : 1.85b\ncommand_line   : /home/skaramcheti/.virtualenvs/afl/bin/afl-unix/afl-fuzz -i /dev/shm/work/Character_Statistics/input -o /dev/shm/work/Character_Statistics/sync -m 4G -Q -M fuzzer-master -x /dev/shm/work/Character_Statistics/Character_Statistics.dict -- data/linux/processed-challenges/Character_Statistics/bin/Character_Statistics\n'
p21
I1
tp22
a(I1320
S'start_time     : 1500068569\nlast_update    : 1500069891\nfuzzer_pid     : 18615\ncycles_done    : 1\nexecs_done     : 687234\nexecs_per_sec  : 323.21\npaths_total    : 138\npaths_favored  : 13\npaths_found    : 137\npaths_imported : 0\nmax_depth      : 4\ncur_path       : 84\npending_favs   : 0\npending_total  : 109\nvariable_paths : 0\nbitmap_cvg     : 0.89%\nunique_crashes : 0\nunique_hangs   : 0\nlast_path      : 1500069870\nlast_crash     : 0\nlast_hang      : 0\nexec_timeout   : 20\nafl_banner     : fuzzer-master\nafl_version    : 1.85b\ncommand_line   : /home/skaramcheti/.virtualenvs/afl/bin/afl-unix/afl-fuzz -i /dev/shm/work/Character_Statistics/input -o /dev/shm/work/Character_Statistics/sync -m 4G -Q -M fuzzer-master -x /dev/shm/work/Character_Statistics/Character_Statistics.dict -- data/linux/processed-challenges/Character_Statistics/bin/Character_Statistics\n'
p23
I7
tp24
a(I1440
S'start_time     : 1500068569\nlast_update    : 1500070011\nfuzzer_pid     : 18615\ncycles_done    : 1\nexecs_done     : 727806\nexecs_per_sec  : 338.84\npaths_total    : 138\npaths_favored  : 13\npaths_found    : 137\npaths_imported : 0\nmax_depth      : 4\ncur_path       : 84\npending_favs   : 0\npending_total  : 109\nvariable_paths : 0\nbitmap_cvg     : 0.89%\nunique_crashes : 0\nunique_hangs   : 1\nlast_path      : 1500069870\nlast_crash     : 0\nlast_hang      : 1500069964\nexec_timeout   : 20\nafl_banner     : fuzzer-master\nafl_version    : 1.85b\ncommand_line   : /home/skaramcheti/.virtualenvs/afl/bin/afl-unix/afl-fuzz -i /dev/shm/work/Character_Statistics/input -o /dev/shm/work/Character_Statistics/sync -m 4G -Q -M fuzzer-master -x /dev/shm/work/Character_Statistics/Character_Statistics.dict -- data/linux/processed-challenges/Character_Statistics/bin/Character_Statistics\n'
p25
I0
tp26
a(I1560
S'start_time     : 1500068569\nlast_update    : 1500070131\nfuzzer_pid     : 18615\ncycles_done    : 1\nexecs_done     : 768876\nexecs_per_sec  : 348.46\npaths_total    : 138\npaths_favored  : 13\npaths_found    : 137\npaths_imported : 0\nmax_depth      : 4\ncur_path       : 84\npending_favs   : 0\npending_total  : 109\nvariable_paths : 0\nbitmap_cvg     : 0.89%\nunique_crashes : 0\nunique_hangs   : 1\nlast_path      : 1500069870\nlast_crash     : 0\nlast_hang      : 1500069964\nexec_timeout   : 20\nafl_banner     : fuzzer-master\nafl_version    : 1.85b\ncommand_line   : /home/skaramcheti/.virtualenvs/afl/bin/afl-unix/afl-fuzz -i /dev/shm/work/Character_Statistics/input -o /dev/shm/work/Character_Statistics/sync -m 4G -Q -M fuzzer-master -x /dev/shm/work/Character_Statistics/Character_Statistics.dict -- data/linux/processed-challenges/Character_Statistics/bin/Character_Statistics\n'
p27
I0
tp28
a(I1680
S'start_time     : 1500068569\nlast_update    : 1500070252\nfuzzer_pid     : 18615\ncycles_done    : 1\nexecs_done     : 810228\nexecs_per_sec  : 343.66\npaths_total    : 138\npaths_favored  : 13\npaths_found    : 137\npaths_imported : 0\nmax_depth      : 4\ncur_path       : 84\npending_favs   : 0\npending_total  : 109\nvariable_paths : 0\nbitmap_cvg     : 0.89%\nunique_crashes : 0\nunique_hangs   : 1\nlast_path      : 1500069870\nlast_crash     : 0\nlast_hang      : 1500069964\nexec_timeout   : 20\nafl_banner     : fuzzer-master\nafl_version    : 1.85b\ncommand_line   : /home/skaramcheti/.virtualenvs/afl/bin/afl-unix/afl-fuzz -i /dev/shm/work/Character_Statistics/input -o /dev/shm/work/Character_Statistics/sync -m 4G -Q -M fuzzer-master -x /dev/shm/work/Character_Statistics/Character_Statistics.dict -- data/linux/processed-challenges/Character_Statistics/bin/Character_Statistics\n'
p29
I0
tp30
a(I1800
S'start_time     : 1500068569\nlast_update    : 1500070372\nfuzzer_pid     : 18615\ncycles_done    : 1\nexecs_done     : 850845\nexecs_per_sec  : 282.65\npaths_total    : 138\npaths_favored  : 13\npaths_found    : 137\npaths_imported : 0\nmax_depth      : 4\ncur_path       : 86\npending_favs   : 0\npending_total  : 107\nvariable_paths : 0\nbitmap_cvg     : 0.89%\nunique_crashes : 0\nunique_hangs   : 1\nlast_path      : 1500069870\nlast_crash     : 0\nlast_hang      : 1500069964\nexec_timeout   : 20\nafl_banner     : fuzzer-master\nafl_version    : 1.85b\ncommand_line   : /home/skaramcheti/.virtualenvs/afl/bin/afl-unix/afl-fuzz -i /dev/shm/work/Character_Statistics/input -o /dev/shm/work/Character_Statistics/sync -m 4G -Q -M fuzzer-master -x /dev/shm/work/Character_Statistics/Character_Statistics.dict -- data/linux/processed-challenges/Character_Statistics/bin/Character_Statistics\n'
p31
I0
tp32
a(I1920
S'start_time     : 1500068569\nlast_update    : 1500070492\nfuzzer_pid     : 18615\ncycles_done    : 1\nexecs_done     : 888862\nexecs_per_sec  : 334.65\npaths_total    : 138\npaths_favored  : 13\npaths_found    : 137\npaths_imported : 0\nmax_depth      : 4\ncur_path       : 87\npending_favs   : 0\npending_total  : 106\nvariable_paths : 0\nbitmap_cvg     : 0.89%\nunique_crashes : 0\nunique_hangs   : 1\nlast_path      : 1500069870\nlast_crash     : 0\nlast_hang      : 1500069964\nexec_timeout   : 20\nafl_banner     : fuzzer-master\nafl_version    : 1.85b\ncommand_line   : /home/skaramcheti/.virtualenvs/afl/bin/afl-unix/afl-fuzz -i /dev/shm/work/Character_Statistics/input -o /dev/shm/work/Character_Statistics/sync -m 4G -Q -M fuzzer-master -x /dev/shm/work/Character_Statistics/Character_Statistics.dict -- data/linux/processed-challenges/Character_Statistics/bin/Character_Statistics\n'
p33
I0
tp34
a(I2040
S'start_time     : 1500068569\nlast_update    : 1500070612\nfuzzer_pid     : 18615\ncycles_done    : 1\nexecs_done     : 927577\nexecs_per_sec  : 284.27\npaths_total    : 138\npaths_favored  : 13\npaths_found    : 137\npaths_imported : 0\nmax_depth      : 4\ncur_path       : 94\npending_favs   : 0\npending_total  : 105\nvariable_paths : 0\nbitmap_cvg     : 0.89%\nunique_crashes : 0\nunique_hangs   : 1\nlast_path      : 1500069870\nlast_crash     : 0\nlast_hang      : 1500069964\nexec_timeout   : 20\nafl_banner     : fuzzer-master\nafl_version    : 1.85b\ncommand_line   : /home/skaramcheti/.virtualenvs/afl/bin/afl-unix/afl-fuzz -i /dev/shm/work/Character_Statistics/input -o /dev/shm/work/Character_Statistics/sync -m 4G -Q -M fuzzer-master -x /dev/shm/work/Character_Statistics/Character_Statistics.dict -- data/linux/processed-challenges/Character_Statistics/bin/Character_Statistics\n'
p35
I0
tp36
a(I2160
S'start_time     : 1500068569\nlast_update    : 1500070733\nfuzzer_pid     : 18615\ncycles_done    : 1\nexecs_done     : 955531\nexecs_per_sec  : 180.36\npaths_total    : 138\npaths_favored  : 13\npaths_found    : 137\npaths_imported : 0\nmax_depth      : 4\ncur_path       : 97\npending_favs   : 0\npending_total  : 104\nvariable_paths : 0\nbitmap_cvg     : 0.89%\nunique_crashes : 0\nunique_hangs   : 1\nlast_path      : 1500069870\nlast_crash     : 0\nlast_hang      : 1500069964\nexec_timeout   : 20\nafl_banner     : fuzzer-master\nafl_version    : 1.85b\ncommand_line   : /home/skaramcheti/.virtualenvs/afl/bin/afl-unix/afl-fuzz -i /dev/shm/work/Character_Statistics/input -o /dev/shm/work/Character_Statistics/sync -m 4G -Q -M fuzzer-master -x /dev/shm/work/Character_Statistics/Character_Statistics.dict -- data/linux/processed-challenges/Character_Statistics/bin/Character_Statistics\n'
p37
I0
tp38
a(I2280
S'start_time     : 1500068569\nlast_update    : 1500070853\nfuzzer_pid     : 18615\ncycles_done    : 1\nexecs_done     : 977459\nexecs_per_sec  : 181.78\npaths_total    : 138\npaths_favored  : 13\npaths_found    : 137\npaths_imported : 0\nmax_depth      : 4\ncur_path       : 97\npending_favs   : 0\npending_total  : 104\nvariable_paths : 0\nbitmap_cvg     : 0.89%\nunique_crashes : 0\nunique_hangs   : 1\nlast_path      : 1500069870\nlast_crash     : 0\nlast_hang      : 1500069964\nexec_timeout   : 20\nafl_banner     : fuzzer-master\nafl_version    : 1.85b\ncommand_line   : /home/skaramcheti/.virtualenvs/afl/bin/afl-unix/afl-fuzz -i /dev/shm/work/Character_Statistics/input -o /dev/shm/work/Character_Statistics/sync -m 4G -Q -M fuzzer-master -x /dev/shm/work/Character_Statistics/Character_Statistics.dict -- data/linux/processed-challenges/Character_Statistics/bin/Character_Statistics\n'
p39
I0
tp40
a(I2400
S'start_time     : 1500068569\nlast_update    : 1500070973\nfuzzer_pid     : 18615\ncycles_done    : 1\nexecs_done     : 1011913\nexecs_per_sec  : 360.77\npaths_total    : 138\npaths_favored  : 13\npaths_found    : 137\npaths_imported : 0\nmax_depth      : 4\ncur_path       : 99\npending_favs   : 0\npending_total  : 103\nvariable_paths : 0\nbitmap_cvg     : 0.89%\nunique_crashes : 0\nunique_hangs   : 1\nlast_path      : 1500069870\nlast_crash     : 0\nlast_hang      : 1500069964\nexec_timeout   : 20\nafl_banner     : fuzzer-master\nafl_version    : 1.85b\ncommand_line   : /home/skaramcheti/.virtualenvs/afl/bin/afl-unix/afl-fuzz -i /dev/shm/work/Character_Statistics/input -o /dev/shm/work/Character_Statistics/sync -m 4G -Q -M fuzzer-master -x /dev/shm/work/Character_Statistics/Character_Statistics.dict -- data/linux/processed-challenges/Character_Statistics/bin/Character_Statistics\n'
p41
I0
tp42
a(I2520
S'start_time     : 1500068569\nlast_update    : 1500071093\nfuzzer_pid     : 18615\ncycles_done    : 1\nexecs_done     : 1042363\nexecs_per_sec  : 168.48\npaths_total    : 139\npaths_favored  : 13\npaths_found    : 138\npaths_imported : 0\nmax_depth      : 4\ncur_path       : 100\npending_favs   : 0\npending_total  : 103\nvariable_paths : 0\nbitmap_cvg     : 0.89%\nunique_crashes : 0\nunique_hangs   : 1\nlast_path      : 1500070990\nlast_crash     : 0\nlast_hang      : 1500069964\nexec_timeout   : 20\nafl_banner     : fuzzer-master\nafl_version    : 1.85b\ncommand_line   : /home/skaramcheti/.virtualenvs/afl/bin/afl-unix/afl-fuzz -i /dev/shm/work/Character_Statistics/input -o /dev/shm/work/Character_Statistics/sync -m 4G -Q -M fuzzer-master -x /dev/shm/work/Character_Statistics/Character_Statistics.dict -- data/linux/processed-challenges/Character_Statistics/bin/Character_Statistics\n'
p43
I1
tp44
a(I2640
S'start_time     : 1500068569\nlast_update    : 1500071213\nfuzzer_pid     : 18615\ncycles_done    : 1\nexecs_done     : 1062767\nexecs_per_sec  : 169.42\npaths_total    : 139\npaths_favored  : 13\npaths_found    : 138\npaths_imported : 0\nmax_depth      : 4\ncur_path       : 100\npending_favs   : 0\npending_total  : 103\nvariable_paths : 0\nbitmap_cvg     : 0.89%\nunique_crashes : 0\nunique_hangs   : 1\nlast_path      : 1500070990\nlast_crash     : 0\nlast_hang      : 1500069964\nexec_timeout   : 20\nafl_banner     : fuzzer-master\nafl_version    : 1.85b\ncommand_line   : /home/skaramcheti/.virtualenvs/afl/bin/afl-unix/afl-fuzz -i /dev/shm/work/Character_Statistics/input -o /dev/shm/work/Character_Statistics/sync -m 4G -Q -M fuzzer-master -x /dev/shm/work/Character_Statistics/Character_Statistics.dict -- data/linux/processed-challenges/Character_Statistics/bin/Character_Statistics\n'
p45
I0
tp46
a(I2760
S'start_time     : 1500068569\nlast_update    : 1500071333\nfuzzer_pid     : 18615\ncycles_done    : 1\nexecs_done     : 1083539\nexecs_per_sec  : 215.36\npaths_total    : 139\npaths_favored  : 13\npaths_found    : 138\npaths_imported : 0\nmax_depth      : 4\ncur_path       : 100\npending_favs   : 0\npending_total  : 103\nvariable_paths : 0\nbitmap_cvg     : 0.89%\nunique_crashes : 0\nunique_hangs   : 2\nlast_path      : 1500070990\nlast_crash     : 0\nlast_hang      : 1500071216\nexec_timeout   : 20\nafl_banner     : fuzzer-master\nafl_version    : 1.85b\ncommand_line   : /home/skaramcheti/.virtualenvs/afl/bin/afl-unix/afl-fuzz -i /dev/shm/work/Character_Statistics/input -o /dev/shm/work/Character_Statistics/sync -m 4G -Q -M fuzzer-master -x /dev/shm/work/Character_Statistics/Character_Statistics.dict -- data/linux/processed-challenges/Character_Statistics/bin/Character_Statistics\n'
p47
I0
tp48
a(I2880
S'start_time     : 1500068569\nlast_update    : 1500071454\nfuzzer_pid     : 18615\ncycles_done    : 1\nexecs_done     : 1113472\nexecs_per_sec  : 282.39\npaths_total    : 139\npaths_favored  : 13\npaths_found    : 138\npaths_imported : 0\nmax_depth      : 4\ncur_path       : 108\npending_favs   : 0\npending_total  : 102\nvariable_paths : 0\nbitmap_cvg     : 0.89%\nunique_crashes : 0\nunique_hangs   : 2\nlast_path      : 1500070990\nlast_crash     : 0\nlast_hang      : 1500071216\nexec_timeout   : 20\nafl_banner     : fuzzer-master\nafl_version    : 1.85b\ncommand_line   : /home/skaramcheti/.virtualenvs/afl/bin/afl-unix/afl-fuzz -i /dev/shm/work/Character_Statistics/input -o /dev/shm/work/Character_Statistics/sync -m 4G -Q -M fuzzer-master -x /dev/shm/work/Character_Statistics/Character_Statistics.dict -- data/linux/processed-challenges/Character_Statistics/bin/Character_Statistics\n'
p49
I0
tp50
a(I3000
S'start_time     : 1500068569\nlast_update    : 1500071574\nfuzzer_pid     : 18615\ncycles_done    : 1\nexecs_done     : 1148833\nexecs_per_sec  : 360.02\npaths_total    : 139\npaths_favored  : 13\npaths_found    : 138\npaths_imported : 0\nmax_depth      : 4\ncur_path       : 114\npending_favs   : 0\npending_total  : 101\nvariable_paths : 0\nbitmap_cvg     : 0.89%\nunique_crashes : 0\nunique_hangs   : 2\nlast_path      : 1500070990\nlast_crash     : 0\nlast_hang      : 1500071216\nexec_timeout   : 20\nafl_banner     : fuzzer-master\nafl_version    : 1.85b\ncommand_line   : /home/skaramcheti/.virtualenvs/afl/bin/afl-unix/afl-fuzz -i /dev/shm/work/Character_Statistics/input -o /dev/shm/work/Character_Statistics/sync -m 4G -Q -M fuzzer-master -x /dev/shm/work/Character_Statistics/Character_Statistics.dict -- data/linux/processed-challenges/Character_Statistics/bin/Character_Statistics\n'
p51
I0
tp52
a(I3120
S'start_time     : 1500068569\nlast_update    : 1500071694\nfuzzer_pid     : 18615\ncycles_done    : 1\nexecs_done     : 1174625\nexecs_per_sec  : 197.46\npaths_total    : 139\npaths_favored  : 13\npaths_found    : 138\npaths_imported : 0\nmax_depth      : 4\ncur_path       : 116\npending_favs   : 0\npending_total  : 100\nvariable_paths : 0\nbitmap_cvg     : 0.89%\nunique_crashes : 0\nunique_hangs   : 2\nlast_path      : 1500070990\nlast_crash     : 0\nlast_hang      : 1500071216\nexec_timeout   : 20\nafl_banner     : fuzzer-master\nafl_version    : 1.85b\ncommand_line   : /home/skaramcheti/.virtualenvs/afl/bin/afl-unix/afl-fuzz -i /dev/shm/work/Character_Statistics/input -o /dev/shm/work/Character_Statistics/sync -m 4G -Q -M fuzzer-master -x /dev/shm/work/Character_Statistics/Character_Statistics.dict -- data/linux/processed-challenges/Character_Statistics/bin/Character_Statistics\n'
p53
I0
tp54
a(I3240
S'start_time     : 1500068569\nlast_update    : 1500071814\nfuzzer_pid     : 18615\ncycles_done    : 1\nexecs_done     : 1203815\nexecs_per_sec  : 276.97\npaths_total    : 139\npaths_favored  : 13\npaths_found    : 138\npaths_imported : 0\nmax_depth      : 4\ncur_path       : 118\npending_favs   : 0\npending_total  : 99\nvariable_paths : 0\nbitmap_cvg     : 0.89%\nunique_crashes : 0\nunique_hangs   : 2\nlast_path      : 1500070990\nlast_crash     : 0\nlast_hang      : 1500071216\nexec_timeout   : 20\nafl_banner     : fuzzer-master\nafl_version    : 1.85b\ncommand_line   : /home/skaramcheti/.virtualenvs/afl/bin/afl-unix/afl-fuzz -i /dev/shm/work/Character_Statistics/input -o /dev/shm/work/Character_Statistics/sync -m 4G -Q -M fuzzer-master -x /dev/shm/work/Character_Statistics/Character_Statistics.dict -- data/linux/processed-challenges/Character_Statistics/bin/Character_Statistics\n'
p55
I0
tp56
a(I3360
S'start_time     : 1500068569\nlast_update    : 1500071934\nfuzzer_pid     : 18615\ncycles_done    : 1\nexecs_done     : 1240400\nexecs_per_sec  : 301.25\npaths_total    : 139\npaths_favored  : 13\npaths_found    : 138\npaths_imported : 0\nmax_depth      : 4\ncur_path       : 127\npending_favs   : 0\npending_total  : 98\nvariable_paths : 0\nbitmap_cvg     : 0.89%\nunique_crashes : 0\nunique_hangs   : 2\nlast_path      : 1500070990\nlast_crash     : 0\nlast_hang      : 1500071216\nexec_timeout   : 20\nafl_banner     : fuzzer-master\nafl_version    : 1.85b\ncommand_line   : /home/skaramcheti/.virtualenvs/afl/bin/afl-unix/afl-fuzz -i /dev/shm/work/Character_Statistics/input -o /dev/shm/work/Character_Statistics/sync -m 4G -Q -M fuzzer-master -x /dev/shm/work/Character_Statistics/Character_Statistics.dict -- data/linux/processed-challenges/Character_Statistics/bin/Character_Statistics\n'
p57
I0
tp58
a(I3480
S'start_time     : 1500068569\nlast_update    : 1500072055\nfuzzer_pid     : 18615\ncycles_done    : 1\nexecs_done     : 1274022\nexecs_per_sec  : 149.99\npaths_total    : 140\npaths_favored  : 13\npaths_found    : 139\npaths_imported : 0\nmax_depth      : 4\ncur_path       : 131\npending_favs   : 0\npending_total  : 98\nvariable_paths : 0\nbitmap_cvg     : 0.89%\nunique_crashes : 0\nunique_hangs   : 2\nlast_path      : 1500071985\nlast_crash     : 0\nlast_hang      : 1500071216\nexec_timeout   : 20\nafl_banner     : fuzzer-master\nafl_version    : 1.85b\ncommand_line   : /home/skaramcheti/.virtualenvs/afl/bin/afl-unix/afl-fuzz -i /dev/shm/work/Character_Statistics/input -o /dev/shm/work/Character_Statistics/sync -m 4G -Q -M fuzzer-master -x /dev/shm/work/Character_Statistics/Character_Statistics.dict -- data/linux/processed-challenges/Character_Statistics/bin/Character_Statistics\n'
p59
I1
tp60
a(I3600
S'start_time     : 1500068569\nlast_update    : 1500072175\nfuzzer_pid     : 18615\ncycles_done    : 1\nexecs_done     : 1292021\nexecs_per_sec  : 151.72\npaths_total    : 140\npaths_favored  : 13\npaths_found    : 139\npaths_imported : 0\nmax_depth      : 4\ncur_path       : 131\npending_favs   : 0\npending_total  : 98\nvariable_paths : 0\nbitmap_cvg     : 0.89%\nunique_crashes : 0\nunique_hangs   : 2\nlast_path      : 1500071985\nlast_crash     : 0\nlast_hang      : 1500071216\nexec_timeout   : 20\nafl_banner     : fuzzer-master\nafl_version    : 1.85b\ncommand_line   : /home/skaramcheti/.virtualenvs/afl/bin/afl-unix/afl-fuzz -i /dev/shm/work/Character_Statistics/input -o /dev/shm/work/Character_Statistics/sync -m 4G -Q -M fuzzer-master -x /dev/shm/work/Character_Statistics/Character_Statistics.dict -- data/linux/processed-challenges/Character_Statistics/bin/Character_Statistics\n'
p61
I0
tp62
a(I3720
S'start_time     : 1500068569\nlast_update    : 1500072295\nfuzzer_pid     : 18615\ncycles_done    : 1\nexecs_done     : 1310007\nexecs_per_sec  : 148.96\npaths_total    : 140\npaths_favored  : 13\npaths_found    : 139\npaths_imported : 0\nmax_depth      : 4\ncur_path       : 131\npending_favs   : 0\npending_total  : 98\nvariable_paths : 0\nbitmap_cvg     : 0.89%\nunique_crashes : 0\nunique_hangs   : 2\nlast_path      : 1500071985\nlast_crash     : 0\nlast_hang      : 1500071216\nexec_timeout   : 20\nafl_banner     : fuzzer-master\nafl_version    : 1.85b\ncommand_line   : /home/skaramcheti/.virtualenvs/afl/bin/afl-unix/afl-fuzz -i /dev/shm/work/Character_Statistics/input -o /dev/shm/work/Character_Statistics/sync -m 4G -Q -M fuzzer-master -x /dev/shm/work/Character_Statistics/Character_Statistics.dict -- data/linux/processed-challenges/Character_Statistics/bin/Character_Statistics\n'
p63
I0
tp64
a(I3840
S'start_time     : 1500068569\nlast_update    : 1500072415\nfuzzer_pid     : 18615\ncycles_done    : 1\nexecs_done     : 1327886\nexecs_per_sec  : 164.81\npaths_total    : 140\npaths_favored  : 13\npaths_found    : 139\npaths_imported : 0\nmax_depth      : 4\ncur_path       : 131\npending_favs   : 0\npending_total  : 98\nvariable_paths : 0\nbitmap_cvg     : 0.89%\nunique_crashes : 0\nunique_hangs   : 2\nlast_path      : 1500071985\nlast_crash     : 0\nlast_hang      : 1500071216\nexec_timeout   : 20\nafl_banner     : fuzzer-master\nafl_version    : 1.85b\ncommand_line   : /home/skaramcheti/.virtualenvs/afl/bin/afl-unix/afl-fuzz -i /dev/shm/work/Character_Statistics/input -o /dev/shm/work/Character_Statistics/sync -m 4G -Q -M fuzzer-master -x /dev/shm/work/Character_Statistics/Character_Statistics.dict -- data/linux/processed-challenges/Character_Statistics/bin/Character_Statistics\n'
p65
I0
tp66
a(I3960
S'start_time     : 1500068569\nlast_update    : 1500072535\nfuzzer_pid     : 18615\ncycles_done    : 1\nexecs_done     : 1345796\nexecs_per_sec  : 121.96\npaths_total    : 140\npaths_favored  : 13\npaths_found    : 139\npaths_imported : 0\nmax_depth      : 4\ncur_path       : 134\npending_favs   : 0\npending_total  : 97\nvariable_paths : 0\nbitmap_cvg     : 0.89%\nunique_crashes : 0\nunique_hangs   : 3\nlast_path      : 1500071985\nlast_crash     : 0\nlast_hang      : 1500072441\nexec_timeout   : 20\nafl_banner     : fuzzer-master\nafl_version    : 1.85b\ncommand_line   : /home/skaramcheti/.virtualenvs/afl/bin/afl-unix/afl-fuzz -i /dev/shm/work/Character_Statistics/input -o /dev/shm/work/Character_Statistics/sync -m 4G -Q -M fuzzer-master -x /dev/shm/work/Character_Statistics/Character_Statistics.dict -- data/linux/processed-challenges/Character_Statistics/bin/Character_Statistics\n'
p67
I0
tp68
a(I4080
S'start_time     : 1500068569\nlast_update    : 1500072655\nfuzzer_pid     : 18615\ncycles_done    : 1\nexecs_done     : 1360540\nexecs_per_sec  : 118.99\npaths_total    : 140\npaths_favored  : 13\npaths_found    : 139\npaths_imported : 0\nmax_depth      : 4\ncur_path       : 134\npending_favs   : 0\npending_total  : 97\nvariable_paths : 0\nbitmap_cvg     : 0.89%\nunique_crashes : 0\nunique_hangs   : 4\nlast_path      : 1500071985\nlast_crash     : 0\nlast_hang      : 1500072624\nexec_timeout   : 20\nafl_banner     : fuzzer-master\nafl_version    : 1.85b\ncommand_line   : /home/skaramcheti/.virtualenvs/afl/bin/afl-unix/afl-fuzz -i /dev/shm/work/Character_Statistics/input -o /dev/shm/work/Character_Statistics/sync -m 4G -Q -M fuzzer-master -x /dev/shm/work/Character_Statistics/Character_Statistics.dict -- data/linux/processed-challenges/Character_Statistics/bin/Character_Statistics\n'
p69
I0
tp70
a(I4200
S'start_time     : 1500068569\nlast_update    : 1500072776\nfuzzer_pid     : 18615\ncycles_done    : 1\nexecs_done     : 1375290\nexecs_per_sec  : 124.05\npaths_total    : 140\npaths_favored  : 13\npaths_found    : 139\npaths_imported : 0\nmax_depth      : 4\ncur_path       : 134\npending_favs   : 0\npending_total  : 97\nvariable_paths : 0\nbitmap_cvg     : 0.89%\nunique_crashes : 0\nunique_hangs   : 4\nlast_path      : 1500071985\nlast_crash     : 0\nlast_hang      : 1500072624\nexec_timeout   : 20\nafl_banner     : fuzzer-master\nafl_version    : 1.85b\ncommand_line   : /home/skaramcheti/.virtualenvs/afl/bin/afl-unix/afl-fuzz -i /dev/shm/work/Character_Statistics/input -o /dev/shm/work/Character_Statistics/sync -m 4G -Q -M fuzzer-master -x /dev/shm/work/Character_Statistics/Character_Statistics.dict -- data/linux/processed-challenges/Character_Statistics/bin/Character_Statistics\n'
p71
I0
tp72
a(I4320
S'start_time     : 1500068569\nlast_update    : 1500072896\nfuzzer_pid     : 18615\ncycles_done    : 1\nexecs_done     : 1389973\nexecs_per_sec  : 123.73\npaths_total    : 140\npaths_favored  : 13\npaths_found    : 139\npaths_imported : 0\nmax_depth      : 4\ncur_path       : 134\npending_favs   : 0\npending_total  : 97\nvariable_paths : 0\nbitmap_cvg     : 0.89%\nunique_crashes : 0\nunique_hangs   : 5\nlast_path      : 1500071985\nlast_crash     : 0\nlast_hang      : 1500072891\nexec_timeout   : 20\nafl_banner     : fuzzer-master\nafl_version    : 1.85b\ncommand_line   : /home/skaramcheti/.virtualenvs/afl/bin/afl-unix/afl-fuzz -i /dev/shm/work/Character_Statistics/input -o /dev/shm/work/Character_Statistics/sync -m 4G -Q -M fuzzer-master -x /dev/shm/work/Character_Statistics/Character_Statistics.dict -- data/linux/processed-challenges/Character_Statistics/bin/Character_Statistics\n'
p73
I0
tp74
a(I4440
S'start_time     : 1500068569\nlast_update    : 1500073016\nfuzzer_pid     : 18615\ncycles_done    : 1\nexecs_done     : 1404812\nexecs_per_sec  : 121.51\npaths_total    : 140\npaths_favored  : 13\npaths_found    : 139\npaths_imported : 0\nmax_depth      : 4\ncur_path       : 134\npending_favs   : 0\npending_total  : 97\nvariable_paths : 0\nbitmap_cvg     : 0.89%\nunique_crashes : 0\nunique_hangs   : 6\nlast_path      : 1500071985\nlast_crash     : 0\nlast_hang      : 1500072970\nexec_timeout   : 20\nafl_banner     : fuzzer-master\nafl_version    : 1.85b\ncommand_line   : /home/skaramcheti/.virtualenvs/afl/bin/afl-unix/afl-fuzz -i /dev/shm/work/Character_Statistics/input -o /dev/shm/work/Character_Statistics/sync -m 4G -Q -M fuzzer-master -x /dev/shm/work/Character_Statistics/Character_Statistics.dict -- data/linux/processed-challenges/Character_Statistics/bin/Character_Statistics\n'
p75
I0
tp76
a(I4560
S'start_time     : 1500068569\nlast_update    : 1500073136\nfuzzer_pid     : 18615\ncycles_done    : 1\nexecs_done     : 1419629\nexecs_per_sec  : 123.42\npaths_total    : 140\npaths_favored  : 13\npaths_found    : 139\npaths_imported : 0\nmax_depth      : 4\ncur_path       : 134\npending_favs   : 0\npending_total  : 97\nvariable_paths : 0\nbitmap_cvg     : 0.89%\nunique_crashes : 0\nunique_hangs   : 7\nlast_path      : 1500071985\nlast_crash     : 0\nlast_hang      : 1500073025\nexec_timeout   : 20\nafl_banner     : fuzzer-master\nafl_version    : 1.85b\ncommand_line   : /home/skaramcheti/.virtualenvs/afl/bin/afl-unix/afl-fuzz -i /dev/shm/work/Character_Statistics/input -o /dev/shm/work/Character_Statistics/sync -m 4G -Q -M fuzzer-master -x /dev/shm/work/Character_Statistics/Character_Statistics.dict -- data/linux/processed-challenges/Character_Statistics/bin/Character_Statistics\n'
p77
I0
tp78
a(I4680
S'start_time     : 1500068569\nlast_update    : 1500073257\nfuzzer_pid     : 18615\ncycles_done    : 1\nexecs_done     : 1434904\nexecs_per_sec  : 146.32\npaths_total    : 141\npaths_favored  : 13\npaths_found    : 140\npaths_imported : 0\nmax_depth      : 5\ncur_path       : 134\npending_favs   : 0\npending_total  : 98\nvariable_paths : 0\nbitmap_cvg     : 0.89%\nunique_crashes : 0\nunique_hangs   : 7\nlast_path      : 1500073240\nlast_crash     : 0\nlast_hang      : 1500073025\nexec_timeout   : 20\nafl_banner     : fuzzer-master\nafl_version    : 1.85b\ncommand_line   : /home/skaramcheti/.virtualenvs/afl/bin/afl-unix/afl-fuzz -i /dev/shm/work/Character_Statistics/input -o /dev/shm/work/Character_Statistics/sync -m 4G -Q -M fuzzer-master -x /dev/shm/work/Character_Statistics/Character_Statistics.dict -- data/linux/processed-challenges/Character_Statistics/bin/Character_Statistics\n'
p79
I1
tp80
a(I4800
S'start_time     : 1500068569\nlast_update    : 1500073377\nfuzzer_pid     : 18615\ncycles_done    : 1\nexecs_done     : 1452593\nexecs_per_sec  : 150.51\npaths_total    : 146\npaths_favored  : 13\npaths_found    : 145\npaths_imported : 0\nmax_depth      : 5\ncur_path       : 134\npending_favs   : 0\npending_total  : 103\nvariable_paths : 0\nbitmap_cvg     : 0.89%\nunique_crashes : 0\nunique_hangs   : 7\nlast_path      : 1500073367\nlast_crash     : 0\nlast_hang      : 1500073025\nexec_timeout   : 20\nafl_banner     : fuzzer-master\nafl_version    : 1.85b\ncommand_line   : /home/skaramcheti/.virtualenvs/afl/bin/afl-unix/afl-fuzz -i /dev/shm/work/Character_Statistics/input -o /dev/shm/work/Character_Statistics/sync -m 4G -Q -M fuzzer-master -x /dev/shm/work/Character_Statistics/Character_Statistics.dict -- data/linux/processed-challenges/Character_Statistics/bin/Character_Statistics\n'
p81
I6
tp82
a(I4920
S'start_time     : 1500068569\nlast_update    : 1500073497\nfuzzer_pid     : 18615\ncycles_done    : 1\nexecs_done     : 1470190\nexecs_per_sec  : 149.50\npaths_total    : 148\npaths_favored  : 13\npaths_found    : 147\npaths_imported : 0\nmax_depth      : 5\ncur_path       : 134\npending_favs   : 0\npending_total  : 105\nvariable_paths : 0\nbitmap_cvg     : 0.89%\nunique_crashes : 0\nunique_hangs   : 10\nlast_path      : 1500073481\nlast_crash     : 0\nlast_hang      : 1500073447\nexec_timeout   : 20\nafl_banner     : fuzzer-master\nafl_version    : 1.85b\ncommand_line   : /home/skaramcheti/.virtualenvs/afl/bin/afl-unix/afl-fuzz -i /dev/shm/work/Character_Statistics/input -o /dev/shm/work/Character_Statistics/sync -m 4G -Q -M fuzzer-master -x /dev/shm/work/Character_Statistics/Character_Statistics.dict -- data/linux/processed-challenges/Character_Statistics/bin/Character_Statistics\n'
p83
I1
tp84
a(I5040
S'start_time     : 1500068569\nlast_update    : 1500073617\nfuzzer_pid     : 18615\ncycles_done    : 1\nexecs_done     : 1487866\nexecs_per_sec  : 143.31\npaths_total    : 148\npaths_favored  : 13\npaths_found    : 147\npaths_imported : 0\nmax_depth      : 5\ncur_path       : 134\npending_favs   : 0\npending_total  : 105\nvariable_paths : 0\nbitmap_cvg     : 0.89%\nunique_crashes : 0\nunique_hangs   : 10\nlast_path      : 1500073481\nlast_crash     : 0\nlast_hang      : 1500073447\nexec_timeout   : 20\nafl_banner     : fuzzer-master\nafl_version    : 1.85b\ncommand_line   : /home/skaramcheti/.virtualenvs/afl/bin/afl-unix/afl-fuzz -i /dev/shm/work/Character_Statistics/input -o /dev/shm/work/Character_Statistics/sync -m 4G -Q -M fuzzer-master -x /dev/shm/work/Character_Statistics/Character_Statistics.dict -- data/linux/processed-challenges/Character_Statistics/bin/Character_Statistics\n'
p85
I0
tp86
a(I5160
S'start_time     : 1500068569\nlast_update    : 1500073737\nfuzzer_pid     : 18615\ncycles_done    : 1\nexecs_done     : 1505536\nexecs_per_sec  : 150.34\npaths_total    : 148\npaths_favored  : 13\npaths_found    : 147\npaths_imported : 0\nmax_depth      : 5\ncur_path       : 134\npending_favs   : 0\npending_total  : 105\nvariable_paths : 0\nbitmap_cvg     : 0.89%\nunique_crashes : 0\nunique_hangs   : 10\nlast_path      : 1500073481\nlast_crash     : 0\nlast_hang      : 1500073447\nexec_timeout   : 20\nafl_banner     : fuzzer-master\nafl_version    : 1.85b\ncommand_line   : /home/skaramcheti/.virtualenvs/afl/bin/afl-unix/afl-fuzz -i /dev/shm/work/Character_Statistics/input -o /dev/shm/work/Character_Statistics/sync -m 4G -Q -M fuzzer-master -x /dev/shm/work/Character_Statistics/Character_Statistics.dict -- data/linux/processed-challenges/Character_Statistics/bin/Character_Statistics\n'
p87
I0
tp88
a(I5280
S'start_time     : 1500068569\nlast_update    : 1500073858\nfuzzer_pid     : 18615\ncycles_done    : 1\nexecs_done     : 1523092\nexecs_per_sec  : 143.05\npaths_total    : 148\npaths_favored  : 13\npaths_found    : 147\npaths_imported : 0\nmax_depth      : 5\ncur_path       : 134\npending_favs   : 0\npending_total  : 105\nvariable_paths : 0\nbitmap_cvg     : 0.89%\nunique_crashes : 0\nunique_hangs   : 11\nlast_path      : 1500073481\nlast_crash     : 0\nlast_hang      : 1500073766\nexec_timeout   : 20\nafl_banner     : fuzzer-master\nafl_version    : 1.85b\ncommand_line   : /home/skaramcheti/.virtualenvs/afl/bin/afl-unix/afl-fuzz -i /dev/shm/work/Character_Statistics/input -o /dev/shm/work/Character_Statistics/sync -m 4G -Q -M fuzzer-master -x /dev/shm/work/Character_Statistics/Character_Statistics.dict -- data/linux/processed-challenges/Character_Statistics/bin/Character_Statistics\n'
p89
I0
tp90
a(I5400
S'start_time     : 1500068569\nlast_update    : 1500073978\nfuzzer_pid     : 18615\ncycles_done    : 1\nexecs_done     : 1540724\nexecs_per_sec  : 148.11\npaths_total    : 148\npaths_favored  : 13\npaths_found    : 147\npaths_imported : 0\nmax_depth      : 5\ncur_path       : 134\npending_favs   : 0\npending_total  : 105\nvariable_paths : 0\nbitmap_cvg     : 0.89%\nunique_crashes : 0\nunique_hangs   : 12\nlast_path      : 1500073481\nlast_crash     : 0\nlast_hang      : 1500073928\nexec_timeout   : 20\nafl_banner     : fuzzer-master\nafl_version    : 1.85b\ncommand_line   : /home/skaramcheti/.virtualenvs/afl/bin/afl-unix/afl-fuzz -i /dev/shm/work/Character_Statistics/input -o /dev/shm/work/Character_Statistics/sync -m 4G -Q -M fuzzer-master -x /dev/shm/work/Character_Statistics/Character_Statistics.dict -- data/linux/processed-challenges/Character_Statistics/bin/Character_Statistics\n'
p91
I0
tp92
a(I5520
S'start_time     : 1500068569\nlast_update    : 1500074098\nfuzzer_pid     : 18615\ncycles_done    : 1\nexecs_done     : 1558436\nexecs_per_sec  : 144.37\npaths_total    : 149\npaths_favored  : 13\npaths_found    : 148\npaths_imported : 0\nmax_depth      : 5\ncur_path       : 134\npending_favs   : 0\npending_total  : 106\nvariable_paths : 0\nbitmap_cvg     : 0.89%\nunique_crashes : 0\nunique_hangs   : 12\nlast_path      : 1500074070\nlast_crash     : 0\nlast_hang      : 1500073928\nexec_timeout   : 20\nafl_banner     : fuzzer-master\nafl_version    : 1.85b\ncommand_line   : /home/skaramcheti/.virtualenvs/afl/bin/afl-unix/afl-fuzz -i /dev/shm/work/Character_Statistics/input -o /dev/shm/work/Character_Statistics/sync -m 4G -Q -M fuzzer-master -x /dev/shm/work/Character_Statistics/Character_Statistics.dict -- data/linux/processed-challenges/Character_Statistics/bin/Character_Statistics\n'
p93
I1
tp94
a(I5640
S'start_time     : 1500068569\nlast_update    : 1500074218\nfuzzer_pid     : 18615\ncycles_done    : 1\nexecs_done     : 1576182\nexecs_per_sec  : 147.47\npaths_total    : 149\npaths_favored  : 13\npaths_found    : 148\npaths_imported : 0\nmax_depth      : 5\ncur_path       : 134\npending_favs   : 0\npending_total  : 106\nvariable_paths : 0\nbitmap_cvg     : 0.89%\nunique_crashes : 0\nunique_hangs   : 12\nlast_path      : 1500074070\nlast_crash     : 0\nlast_hang      : 1500073928\nexec_timeout   : 20\nafl_banner     : fuzzer-master\nafl_version    : 1.85b\ncommand_line   : /home/skaramcheti/.virtualenvs/afl/bin/afl-unix/afl-fuzz -i /dev/shm/work/Character_Statistics/input -o /dev/shm/work/Character_Statistics/sync -m 4G -Q -M fuzzer-master -x /dev/shm/work/Character_Statistics/Character_Statistics.dict -- data/linux/processed-challenges/Character_Statistics/bin/Character_Statistics\n'
p95
I0
tp96
a(I5760
S'start_time     : 1500068569\nlast_update    : 1500074339\nfuzzer_pid     : 18615\ncycles_done    : 1\nexecs_done     : 1595611\nexecs_per_sec  : 259.97\npaths_total    : 149\npaths_favored  : 13\npaths_found    : 148\npaths_imported : 0\nmax_depth      : 5\ncur_path       : 135\npending_favs   : 0\npending_total  : 105\nvariable_paths : 0\nbitmap_cvg     : 0.89%\nunique_crashes : 0\nunique_hangs   : 12\nlast_path      : 1500074070\nlast_crash     : 0\nlast_hang      : 1500073928\nexec_timeout   : 20\nafl_banner     : fuzzer-master\nafl_version    : 1.85b\ncommand_line   : /home/skaramcheti/.virtualenvs/afl/bin/afl-unix/afl-fuzz -i /dev/shm/work/Character_Statistics/input -o /dev/shm/work/Character_Statistics/sync -m 4G -Q -M fuzzer-master -x /dev/shm/work/Character_Statistics/Character_Statistics.dict -- data/linux/processed-challenges/Character_Statistics/bin/Character_Statistics\n'
p97
I0
tp98
a(I5880
S'start_time     : 1500068569\nlast_update    : 1500074459\nfuzzer_pid     : 18615\ncycles_done    : 1\nexecs_done     : 1628044\nexecs_per_sec  : 316.87\npaths_total    : 149\npaths_favored  : 13\npaths_found    : 148\npaths_imported : 0\nmax_depth      : 5\ncur_path       : 135\npending_favs   : 0\npending_total  : 105\nvariable_paths : 0\nbitmap_cvg     : 0.89%\nunique_crashes : 0\nunique_hangs   : 12\nlast_path      : 1500074070\nlast_crash     : 0\nlast_hang      : 1500073928\nexec_timeout   : 20\nafl_banner     : fuzzer-master\nafl_version    : 1.85b\ncommand_line   : /home/skaramcheti/.virtualenvs/afl/bin/afl-unix/afl-fuzz -i /dev/shm/work/Character_Statistics/input -o /dev/shm/work/Character_Statistics/sync -m 4G -Q -M fuzzer-master -x /dev/shm/work/Character_Statistics/Character_Statistics.dict -- data/linux/processed-challenges/Character_Statistics/bin/Character_Statistics\n'
p99
I0
tp100
a(I6000
S'start_time     : 1500068569\nlast_update    : 1500074579\nfuzzer_pid     : 18615\ncycles_done    : 1\nexecs_done     : 1649372\nexecs_per_sec  : 118.16\npaths_total    : 149\npaths_favored  : 13\npaths_found    : 148\npaths_imported : 0\nmax_depth      : 5\ncur_path       : 141\npending_favs   : 0\npending_total  : 104\nvariable_paths : 0\nbitmap_cvg     : 0.89%\nunique_crashes : 0\nunique_hangs   : 12\nlast_path      : 1500074070\nlast_crash     : 0\nlast_hang      : 1500073928\nexec_timeout   : 20\nafl_banner     : fuzzer-master\nafl_version    : 1.85b\ncommand_line   : /home/skaramcheti/.virtualenvs/afl/bin/afl-unix/afl-fuzz -i /dev/shm/work/Character_Statistics/input -o /dev/shm/work/Character_Statistics/sync -m 4G -Q -M fuzzer-master -x /dev/shm/work/Character_Statistics/Character_Statistics.dict -- data/linux/processed-challenges/Character_Statistics/bin/Character_Statistics\n'
p101
I0
tp102
a(I6120
S'start_time     : 1500068569\nlast_update    : 1500074699\nfuzzer_pid     : 18615\ncycles_done    : 1\nexecs_done     : 1663311\nexecs_per_sec  : 117.37\npaths_total    : 149\npaths_favored  : 13\npaths_found    : 148\npaths_imported : 0\nmax_depth      : 5\ncur_path       : 141\npending_favs   : 0\npending_total  : 104\nvariable_paths : 0\nbitmap_cvg     : 0.89%\nunique_crashes : 0\nunique_hangs   : 13\nlast_path      : 1500074070\nlast_crash     : 0\nlast_hang      : 1500074641\nexec_timeout   : 20\nafl_banner     : fuzzer-master\nafl_version    : 1.85b\ncommand_line   : /home/skaramcheti/.virtualenvs/afl/bin/afl-unix/afl-fuzz -i /dev/shm/work/Character_Statistics/input -o /dev/shm/work/Character_Statistics/sync -m 4G -Q -M fuzzer-master -x /dev/shm/work/Character_Statistics/Character_Statistics.dict -- data/linux/processed-challenges/Character_Statistics/bin/Character_Statistics\n'
p103
I0
tp104
a(I6240
S'start_time     : 1500068569\nlast_update    : 1500074819\nfuzzer_pid     : 18615\ncycles_done    : 1\nexecs_done     : 1677209\nexecs_per_sec  : 116.99\npaths_total    : 149\npaths_favored  : 13\npaths_found    : 148\npaths_imported : 0\nmax_depth      : 5\ncur_path       : 141\npending_favs   : 0\npending_total  : 104\nvariable_paths : 0\nbitmap_cvg     : 0.89%\nunique_crashes : 0\nunique_hangs   : 13\nlast_path      : 1500074070\nlast_crash     : 0\nlast_hang      : 1500074641\nexec_timeout   : 20\nafl_banner     : fuzzer-master\nafl_version    : 1.85b\ncommand_line   : /home/skaramcheti/.virtualenvs/afl/bin/afl-unix/afl-fuzz -i /dev/shm/work/Character_Statistics/input -o /dev/shm/work/Character_Statistics/sync -m 4G -Q -M fuzzer-master -x /dev/shm/work/Character_Statistics/Character_Statistics.dict -- data/linux/processed-challenges/Character_Statistics/bin/Character_Statistics\n'
p105
I0
tp106
a(I6360
S'start_time     : 1500068569\nlast_update    : 1500074939\nfuzzer_pid     : 18615\ncycles_done    : 1\nexecs_done     : 1691145\nexecs_per_sec  : 117.45\npaths_total    : 149\npaths_favored  : 13\npaths_found    : 148\npaths_imported : 0\nmax_depth      : 5\ncur_path       : 141\npending_favs   : 0\npending_total  : 104\nvariable_paths : 0\nbitmap_cvg     : 0.89%\nunique_crashes : 0\nunique_hangs   : 13\nlast_path      : 1500074070\nlast_crash     : 0\nlast_hang      : 1500074641\nexec_timeout   : 20\nafl_banner     : fuzzer-master\nafl_version    : 1.85b\ncommand_line   : /home/skaramcheti/.virtualenvs/afl/bin/afl-unix/afl-fuzz -i /dev/shm/work/Character_Statistics/input -o /dev/shm/work/Character_Statistics/sync -m 4G -Q -M fuzzer-master -x /dev/shm/work/Character_Statistics/Character_Statistics.dict -- data/linux/processed-challenges/Character_Statistics/bin/Character_Statistics\n'
p107
I0
tp108
a(I6480
S'start_time     : 1500068569\nlast_update    : 1500075059\nfuzzer_pid     : 18615\ncycles_done    : 1\nexecs_done     : 1705997\nexecs_per_sec  : 137.29\npaths_total    : 152\npaths_favored  : 13\npaths_found    : 151\npaths_imported : 0\nmax_depth      : 6\ncur_path       : 141\npending_favs   : 0\npending_total  : 107\nvariable_paths : 0\nbitmap_cvg     : 0.89%\nunique_crashes : 0\nunique_hangs   : 13\nlast_path      : 1500075040\nlast_crash     : 0\nlast_hang      : 1500074641\nexec_timeout   : 20\nafl_banner     : fuzzer-master\nafl_version    : 1.85b\ncommand_line   : /home/skaramcheti/.virtualenvs/afl/bin/afl-unix/afl-fuzz -i /dev/shm/work/Character_Statistics/input -o /dev/shm/work/Character_Statistics/sync -m 4G -Q -M fuzzer-master -x /dev/shm/work/Character_Statistics/Character_Statistics.dict -- data/linux/processed-challenges/Character_Statistics/bin/Character_Statistics\n'
p109
I3
tp110
a(I6600
S'start_time     : 1500068569\nlast_update    : 1500075180\nfuzzer_pid     : 18615\ncycles_done    : 1\nexecs_done     : 1722517\nexecs_per_sec  : 133.47\npaths_total    : 152\npaths_favored  : 13\npaths_found    : 151\npaths_imported : 0\nmax_depth      : 6\ncur_path       : 141\npending_favs   : 0\npending_total  : 107\nvariable_paths : 0\nbitmap_cvg     : 0.89%\nunique_crashes : 0\nunique_hangs   : 14\nlast_path      : 1500075040\nlast_crash     : 0\nlast_hang      : 1500075064\nexec_timeout   : 20\nafl_banner     : fuzzer-master\nafl_version    : 1.85b\ncommand_line   : /home/skaramcheti/.virtualenvs/afl/bin/afl-unix/afl-fuzz -i /dev/shm/work/Character_Statistics/input -o /dev/shm/work/Character_Statistics/sync -m 4G -Q -M fuzzer-master -x /dev/shm/work/Character_Statistics/Character_Statistics.dict -- data/linux/processed-challenges/Character_Statistics/bin/Character_Statistics\n'
p111
I0
tp112
a(I6720
S'start_time     : 1500068569\nlast_update    : 1500075300\nfuzzer_pid     : 18615\ncycles_done    : 1\nexecs_done     : 1739097\nexecs_per_sec  : 136.74\npaths_total    : 153\npaths_favored  : 13\npaths_found    : 152\npaths_imported : 0\nmax_depth      : 6\ncur_path       : 141\npending_favs   : 0\npending_total  : 108\nvariable_paths : 0\nbitmap_cvg     : 0.89%\nunique_crashes : 0\nunique_hangs   : 14\nlast_path      : 1500075211\nlast_crash     : 0\nlast_hang      : 1500075064\nexec_timeout   : 20\nafl_banner     : fuzzer-master\nafl_version    : 1.85b\ncommand_line   : /home/skaramcheti/.virtualenvs/afl/bin/afl-unix/afl-fuzz -i /dev/shm/work/Character_Statistics/input -o /dev/shm/work/Character_Statistics/sync -m 4G -Q -M fuzzer-master -x /dev/shm/work/Character_Statistics/Character_Statistics.dict -- data/linux/processed-challenges/Character_Statistics/bin/Character_Statistics\n'
p113
I1
tp114
a(I6840
S'start_time     : 1500068569\nlast_update    : 1500075420\nfuzzer_pid     : 18615\ncycles_done    : 1\nexecs_done     : 1755685\nexecs_per_sec  : 138.83\npaths_total    : 153\npaths_favored  : 13\npaths_found    : 152\npaths_imported : 0\nmax_depth      : 6\ncur_path       : 141\npending_favs   : 0\npending_total  : 108\nvariable_paths : 0\nbitmap_cvg     : 0.89%\nunique_crashes : 0\nunique_hangs   : 14\nlast_path      : 1500075211\nlast_crash     : 0\nlast_hang      : 1500075064\nexec_timeout   : 20\nafl_banner     : fuzzer-master\nafl_version    : 1.85b\ncommand_line   : /home/skaramcheti/.virtualenvs/afl/bin/afl-unix/afl-fuzz -i /dev/shm/work/Character_Statistics/input -o /dev/shm/work/Character_Statistics/sync -m 4G -Q -M fuzzer-master -x /dev/shm/work/Character_Statistics/Character_Statistics.dict -- data/linux/processed-challenges/Character_Statistics/bin/Character_Statistics\n'
p115
I0
tp116
a(I6960
S'start_time     : 1500068569\nlast_update    : 1500075540\nfuzzer_pid     : 18615\ncycles_done    : 1\nexecs_done     : 1772367\nexecs_per_sec  : 145.04\npaths_total    : 153\npaths_favored  : 13\npaths_found    : 152\npaths_imported : 0\nmax_depth      : 6\ncur_path       : 141\npending_favs   : 0\npending_total  : 108\nvariable_paths : 0\nbitmap_cvg     : 0.89%\nunique_crashes : 0\nunique_hangs   : 14\nlast_path      : 1500075211\nlast_crash     : 0\nlast_hang      : 1500075064\nexec_timeout   : 20\nafl_banner     : fuzzer-master\nafl_version    : 1.85b\ncommand_line   : /home/skaramcheti/.virtualenvs/afl/bin/afl-unix/afl-fuzz -i /dev/shm/work/Character_Statistics/input -o /dev/shm/work/Character_Statistics/sync -m 4G -Q -M fuzzer-master -x /dev/shm/work/Character_Statistics/Character_Statistics.dict -- data/linux/processed-challenges/Character_Statistics/bin/Character_Statistics\n'
p117
I0
tp118
a(I7080
S'start_time     : 1500068569\nlast_update    : 1500075660\nfuzzer_pid     : 18615\ncycles_done    : 1\nexecs_done     : 1789088\nexecs_per_sec  : 139.38\npaths_total    : 153\npaths_favored  : 13\npaths_found    : 152\npaths_imported : 0\nmax_depth      : 6\ncur_path       : 143\npending_favs   : 0\npending_total  : 107\nvariable_paths : 0\nbitmap_cvg     : 0.89%\nunique_crashes : 0\nunique_hangs   : 15\nlast_path      : 1500075211\nlast_crash     : 0\nlast_hang      : 1500075571\nexec_timeout   : 20\nafl_banner     : fuzzer-master\nafl_version    : 1.85b\ncommand_line   : /home/skaramcheti/.virtualenvs/afl/bin/afl-unix/afl-fuzz -i /dev/shm/work/Character_Statistics/input -o /dev/shm/work/Character_Statistics/sync -m 4G -Q -M fuzzer-master -x /dev/shm/work/Character_Statistics/Character_Statistics.dict -- data/linux/processed-challenges/Character_Statistics/bin/Character_Statistics\n'
p119
I0
tp120
a(I7200
S'start_time     : 1500068569\nlast_update    : 1500075780\nfuzzer_pid     : 18615\ncycles_done    : 1\nexecs_done     : 1805888\nexecs_per_sec  : 140.88\npaths_total    : 153\npaths_favored  : 13\npaths_found    : 152\npaths_imported : 0\nmax_depth      : 6\ncur_path       : 143\npending_favs   : 0\npending_total  : 107\nvariable_paths : 0\nbitmap_cvg     : 0.89%\nunique_crashes : 0\nunique_hangs   : 15\nlast_path      : 1500075211\nlast_crash     : 0\nlast_hang      : 1500075571\nexec_timeout   : 20\nafl_banner     : fuzzer-master\nafl_version    : 1.85b\ncommand_line   : /home/skaramcheti/.virtualenvs/afl/bin/afl-unix/afl-fuzz -i /dev/shm/work/Character_Statistics/input -o /dev/shm/work/Character_Statistics/sync -m 4G -Q -M fuzzer-master -x /dev/shm/work/Character_Statistics/Character_Statistics.dict -- data/linux/processed-challenges/Character_Statistics/bin/Character_Statistics\n'
p121
I0
tp122
a(I7320
S'start_time     : 1500068569\nlast_update    : 1500075900\nfuzzer_pid     : 18615\ncycles_done    : 1\nexecs_done     : 1822654\nexecs_per_sec  : 139.33\npaths_total    : 153\npaths_favored  : 13\npaths_found    : 152\npaths_imported : 0\nmax_depth      : 6\ncur_path       : 143\npending_favs   : 0\npending_total  : 107\nvariable_paths : 0\nbitmap_cvg     : 0.89%\nunique_crashes : 0\nunique_hangs   : 15\nlast_path      : 1500075211\nlast_crash     : 0\nlast_hang      : 1500075571\nexec_timeout   : 20\nafl_banner     : fuzzer-master\nafl_version    : 1.85b\ncommand_line   : /home/skaramcheti/.virtualenvs/afl/bin/afl-unix/afl-fuzz -i /dev/shm/work/Character_Statistics/input -o /dev/shm/work/Character_Statistics/sync -m 4G -Q -M fuzzer-master -x /dev/shm/work/Character_Statistics/Character_Statistics.dict -- data/linux/processed-challenges/Character_Statistics/bin/Character_Statistics\n'
p123
I0
tp124
a(I7440
S'start_time     : 1500068569\nlast_update    : 1500076020\nfuzzer_pid     : 18615\ncycles_done    : 1\nexecs_done     : 1839457\nexecs_per_sec  : 140.82\npaths_total    : 153\npaths_favored  : 13\npaths_found    : 152\npaths_imported : 0\nmax_depth      : 6\ncur_path       : 143\npending_favs   : 0\npending_total  : 107\nvariable_paths : 0\nbitmap_cvg     : 0.89%\nunique_crashes : 0\nunique_hangs   : 16\nlast_path      : 1500075211\nlast_crash     : 0\nlast_hang      : 1500075969\nexec_timeout   : 20\nafl_banner     : fuzzer-master\nafl_version    : 1.85b\ncommand_line   : /home/skaramcheti/.virtualenvs/afl/bin/afl-unix/afl-fuzz -i /dev/shm/work/Character_Statistics/input -o /dev/shm/work/Character_Statistics/sync -m 4G -Q -M fuzzer-master -x /dev/shm/work/Character_Statistics/Character_Statistics.dict -- data/linux/processed-challenges/Character_Statistics/bin/Character_Statistics\n'
p125
I0
tp126
a(I7560
S'start_time     : 1500068569\nlast_update    : 1500076141\nfuzzer_pid     : 18615\ncycles_done    : 1\nexecs_done     : 1856219\nexecs_per_sec  : 140.53\npaths_total    : 153\npaths_favored  : 13\npaths_found    : 152\npaths_imported : 0\nmax_depth      : 6\ncur_path       : 143\npending_favs   : 0\npending_total  : 107\nvariable_paths : 0\nbitmap_cvg     : 0.89%\nunique_crashes : 0\nunique_hangs   : 16\nlast_path      : 1500075211\nlast_crash     : 0\nlast_hang      : 1500075969\nexec_timeout   : 20\nafl_banner     : fuzzer-master\nafl_version    : 1.85b\ncommand_line   : /home/skaramcheti/.virtualenvs/afl/bin/afl-unix/afl-fuzz -i /dev/shm/work/Character_Statistics/input -o /dev/shm/work/Character_Statistics/sync -m 4G -Q -M fuzzer-master -x /dev/shm/work/Character_Statistics/Character_Statistics.dict -- data/linux/processed-challenges/Character_Statistics/bin/Character_Statistics\n'
p127
I0
tp128
a(I7680
S'start_time     : 1500068569\nlast_update    : 1500076261\nfuzzer_pid     : 18615\ncycles_done    : 1\nexecs_done     : 1873068\nexecs_per_sec  : 138.00\npaths_total    : 153\npaths_favored  : 13\npaths_found    : 152\npaths_imported : 0\nmax_depth      : 6\ncur_path       : 143\npending_favs   : 0\npending_total  : 107\nvariable_paths : 0\nbitmap_cvg     : 0.89%\nunique_crashes : 0\nunique_hangs   : 16\nlast_path      : 1500075211\nlast_crash     : 0\nlast_hang      : 1500075969\nexec_timeout   : 20\nafl_banner     : fuzzer-master\nafl_version    : 1.85b\ncommand_line   : /home/skaramcheti/.virtualenvs/afl/bin/afl-unix/afl-fuzz -i /dev/shm/work/Character_Statistics/input -o /dev/shm/work/Character_Statistics/sync -m 4G -Q -M fuzzer-master -x /dev/shm/work/Character_Statistics/Character_Statistics.dict -- data/linux/processed-challenges/Character_Statistics/bin/Character_Statistics\n'
p129
I0
tp130
a(I7800
S'start_time     : 1500068569\nlast_update    : 1500076381\nfuzzer_pid     : 18615\ncycles_done    : 1\nexecs_done     : 1890720\nexecs_per_sec  : 114.74\npaths_total    : 153\npaths_favored  : 13\npaths_found    : 152\npaths_imported : 0\nmax_depth      : 6\ncur_path       : 146\npending_favs   : 0\npending_total  : 106\nvariable_paths : 0\nbitmap_cvg     : 0.89%\nunique_crashes : 0\nunique_hangs   : 16\nlast_path      : 1500075211\nlast_crash     : 0\nlast_hang      : 1500075969\nexec_timeout   : 20\nafl_banner     : fuzzer-master\nafl_version    : 1.85b\ncommand_line   : /home/skaramcheti/.virtualenvs/afl/bin/afl-unix/afl-fuzz -i /dev/shm/work/Character_Statistics/input -o /dev/shm/work/Character_Statistics/sync -m 4G -Q -M fuzzer-master -x /dev/shm/work/Character_Statistics/Character_Statistics.dict -- data/linux/processed-challenges/Character_Statistics/bin/Character_Statistics\n'
p131
I0
tp132
a(I7920
S'start_time     : 1500068569\nlast_update    : 1500076501\nfuzzer_pid     : 18615\ncycles_done    : 1\nexecs_done     : 1904418\nexecs_per_sec  : 111.34\npaths_total    : 153\npaths_favored  : 13\npaths_found    : 152\npaths_imported : 0\nmax_depth      : 6\ncur_path       : 146\npending_favs   : 0\npending_total  : 106\nvariable_paths : 0\nbitmap_cvg     : 0.89%\nunique_crashes : 0\nunique_hangs   : 17\nlast_path      : 1500075211\nlast_crash     : 0\nlast_hang      : 1500076398\nexec_timeout   : 20\nafl_banner     : fuzzer-master\nafl_version    : 1.85b\ncommand_line   : /home/skaramcheti/.virtualenvs/afl/bin/afl-unix/afl-fuzz -i /dev/shm/work/Character_Statistics/input -o /dev/shm/work/Character_Statistics/sync -m 4G -Q -M fuzzer-master -x /dev/shm/work/Character_Statistics/Character_Statistics.dict -- data/linux/processed-challenges/Character_Statistics/bin/Character_Statistics\n'
p133
I0
tp134
a(I8040
S'start_time     : 1500068569\nlast_update    : 1500076622\nfuzzer_pid     : 18615\ncycles_done    : 1\nexecs_done     : 1917970\nexecs_per_sec  : 113.27\npaths_total    : 153\npaths_favored  : 13\npaths_found    : 152\npaths_imported : 0\nmax_depth      : 6\ncur_path       : 146\npending_favs   : 0\npending_total  : 106\nvariable_paths : 0\nbitmap_cvg     : 0.89%\nunique_crashes : 0\nunique_hangs   : 17\nlast_path      : 1500075211\nlast_crash     : 0\nlast_hang      : 1500076398\nexec_timeout   : 20\nafl_banner     : fuzzer-master\nafl_version    : 1.85b\ncommand_line   : /home/skaramcheti/.virtualenvs/afl/bin/afl-unix/afl-fuzz -i /dev/shm/work/Character_Statistics/input -o /dev/shm/work/Character_Statistics/sync -m 4G -Q -M fuzzer-master -x /dev/shm/work/Character_Statistics/Character_Statistics.dict -- data/linux/processed-challenges/Character_Statistics/bin/Character_Statistics\n'
p135
I0
tp136
a(I8160
S'start_time     : 1500068569\nlast_update    : 1500076742\nfuzzer_pid     : 18615\ncycles_done    : 1\nexecs_done     : 1931648\nexecs_per_sec  : 115.70\npaths_total    : 153\npaths_favored  : 13\npaths_found    : 152\npaths_imported : 0\nmax_depth      : 6\ncur_path       : 146\npending_favs   : 0\npending_total  : 106\nvariable_paths : 0\nbitmap_cvg     : 0.89%\nunique_crashes : 0\nunique_hangs   : 18\nlast_path      : 1500075211\nlast_crash     : 0\nlast_hang      : 1500076638\nexec_timeout   : 20\nafl_banner     : fuzzer-master\nafl_version    : 1.85b\ncommand_line   : /home/skaramcheti/.virtualenvs/afl/bin/afl-unix/afl-fuzz -i /dev/shm/work/Character_Statistics/input -o /dev/shm/work/Character_Statistics/sync -m 4G -Q -M fuzzer-master -x /dev/shm/work/Character_Statistics/Character_Statistics.dict -- data/linux/processed-challenges/Character_Statistics/bin/Character_Statistics\n'
p137
I0
tp138
a(I8280
S'start_time     : 1500068569\nlast_update    : 1500076802\nfuzzer_pid     : 18615\ncycles_done    : 1\nexecs_done     : 1938456\nexecs_per_sec  : 109.93\npaths_total    : 153\npaths_favored  : 13\npaths_found    : 152\npaths_imported : 0\nmax_depth      : 6\ncur_path       : 146\npending_favs   : 0\npending_total  : 106\nvariable_paths : 0\nbitmap_cvg     : 0.89%\nunique_crashes : 0\nunique_hangs   : 18\nlast_path      : 1500075211\nlast_crash     : 0\nlast_hang      : 1500076638\nexec_timeout   : 20\nafl_banner     : fuzzer-master\nafl_version    : 1.85b\ncommand_line   : /home/skaramcheti/.virtualenvs/afl/bin/afl-unix/afl-fuzz -i /dev/shm/work/Character_Statistics/input -o /dev/shm/work/Character_Statistics/sync -m 4G -Q -M fuzzer-master -x /dev/shm/work/Character_Statistics/Character_Statistics.dict -- data/linux/processed-challenges/Character_Statistics/bin/Character_Statistics\n'
p139
I0
tp140
a(I8400
S'start_time     : 1500068569\nlast_update    : 1500076922\nfuzzer_pid     : 18615\ncycles_done    : 1\nexecs_done     : 1952151\nexecs_per_sec  : 113.77\npaths_total    : 153\npaths_favored  : 13\npaths_found    : 152\npaths_imported : 0\nmax_depth      : 6\ncur_path       : 146\npending_favs   : 0\npending_total  : 106\nvariable_paths : 0\nbitmap_cvg     : 0.89%\nunique_crashes : 0\nunique_hangs   : 18\nlast_path      : 1500075211\nlast_crash     : 0\nlast_hang      : 1500076638\nexec_timeout   : 20\nafl_banner     : fuzzer-master\nafl_version    : 1.85b\ncommand_line   : /home/skaramcheti/.virtualenvs/afl/bin/afl-unix/afl-fuzz -i /dev/shm/work/Character_Statistics/input -o /dev/shm/work/Character_Statistics/sync -m 4G -Q -M fuzzer-master -x /dev/shm/work/Character_Statistics/Character_Statistics.dict -- data/linux/processed-challenges/Character_Statistics/bin/Character_Statistics\n'
p141
I0
tp142
a(I8520
S'start_time     : 1500068569\nlast_update    : 1500077042\nfuzzer_pid     : 18615\ncycles_done    : 1\nexecs_done     : 1965789\nexecs_per_sec  : 113.40\npaths_total    : 153\npaths_favored  : 13\npaths_found    : 152\npaths_imported : 0\nmax_depth      : 6\ncur_path       : 146\npending_favs   : 0\npending_total  : 106\nvariable_paths : 0\nbitmap_cvg     : 0.89%\nunique_crashes : 0\nunique_hangs   : 18\nlast_path      : 1500075211\nlast_crash     : 0\nlast_hang      : 1500076638\nexec_timeout   : 20\nafl_banner     : fuzzer-master\nafl_version    : 1.85b\ncommand_line   : /home/skaramcheti/.virtualenvs/afl/bin/afl-unix/afl-fuzz -i /dev/shm/work/Character_Statistics/input -o /dev/shm/work/Character_Statistics/sync -m 4G -Q -M fuzzer-master -x /dev/shm/work/Character_Statistics/Character_Statistics.dict -- data/linux/processed-challenges/Character_Statistics/bin/Character_Statistics\n'
p143
I0
tp144
a(I8640
S'start_time     : 1500068569\nlast_update    : 1500077163\nfuzzer_pid     : 18615\ncycles_done    : 1\nexecs_done     : 1979427\nexecs_per_sec  : 112.32\npaths_total    : 153\npaths_favored  : 13\npaths_found    : 152\npaths_imported : 0\nmax_depth      : 6\ncur_path       : 146\npending_favs   : 0\npending_total  : 106\nvariable_paths : 0\nbitmap_cvg     : 0.89%\nunique_crashes : 0\nunique_hangs   : 18\nlast_path      : 1500075211\nlast_crash     : 0\nlast_hang      : 1500076638\nexec_timeout   : 20\nafl_banner     : fuzzer-master\nafl_version    : 1.85b\ncommand_line   : /home/skaramcheti/.virtualenvs/afl/bin/afl-unix/afl-fuzz -i /dev/shm/work/Character_Statistics/input -o /dev/shm/work/Character_Statistics/sync -m 4G -Q -M fuzzer-master -x /dev/shm/work/Character_Statistics/Character_Statistics.dict -- data/linux/processed-challenges/Character_Statistics/bin/Character_Statistics\n'
p145
I0
tp146
a(I8760
S'start_time     : 1500068569\nlast_update    : 1500077283\nfuzzer_pid     : 18615\ncycles_done    : 1\nexecs_done     : 1993026\nexecs_per_sec  : 112.05\npaths_total    : 153\npaths_favored  : 13\npaths_found    : 152\npaths_imported : 0\nmax_depth      : 6\ncur_path       : 146\npending_favs   : 0\npending_total  : 106\nvariable_paths : 0\nbitmap_cvg     : 0.89%\nunique_crashes : 0\nunique_hangs   : 18\nlast_path      : 1500075211\nlast_crash     : 0\nlast_hang      : 1500076638\nexec_timeout   : 20\nafl_banner     : fuzzer-master\nafl_version    : 1.85b\ncommand_line   : /home/skaramcheti/.virtualenvs/afl/bin/afl-unix/afl-fuzz -i /dev/shm/work/Character_Statistics/input -o /dev/shm/work/Character_Statistics/sync -m 4G -Q -M fuzzer-master -x /dev/shm/work/Character_Statistics/Character_Statistics.dict -- data/linux/processed-challenges/Character_Statistics/bin/Character_Statistics\n'
p147
I0
tp148
a(I8880
S'start_time     : 1500068569\nlast_update    : 1500077403\nfuzzer_pid     : 18615\ncycles_done    : 1\nexecs_done     : 2007310\nexecs_per_sec  : 133.09\npaths_total    : 153\npaths_favored  : 13\npaths_found    : 152\npaths_imported : 0\nmax_depth      : 6\ncur_path       : 146\npending_favs   : 0\npending_total  : 106\nvariable_paths : 0\nbitmap_cvg     : 0.89%\nunique_crashes : 0\nunique_hangs   : 18\nlast_path      : 1500075211\nlast_crash     : 0\nlast_hang      : 1500076638\nexec_timeout   : 20\nafl_banner     : fuzzer-master\nafl_version    : 1.85b\ncommand_line   : /home/skaramcheti/.virtualenvs/afl/bin/afl-unix/afl-fuzz -i /dev/shm/work/Character_Statistics/input -o /dev/shm/work/Character_Statistics/sync -m 4G -Q -M fuzzer-master -x /dev/shm/work/Character_Statistics/Character_Statistics.dict -- data/linux/processed-challenges/Character_Statistics/bin/Character_Statistics\n'
p149
I0
tp150
a(I9000
S'start_time     : 1500068569\nlast_update    : 1500077523\nfuzzer_pid     : 18615\ncycles_done    : 1\nexecs_done     : 2021109\nexecs_per_sec  : 107.71\npaths_total    : 153\npaths_favored  : 13\npaths_found    : 152\npaths_imported : 0\nmax_depth      : 6\ncur_path       : 152\npending_favs   : 0\npending_total  : 105\nvariable_paths : 0\nbitmap_cvg     : 0.89%\nunique_crashes : 0\nunique_hangs   : 18\nlast_path      : 1500075211\nlast_crash     : 0\nlast_hang      : 1500076638\nexec_timeout   : 20\nafl_banner     : fuzzer-master\nafl_version    : 1.85b\ncommand_line   : /home/skaramcheti/.virtualenvs/afl/bin/afl-unix/afl-fuzz -i /dev/shm/work/Character_Statistics/input -o /dev/shm/work/Character_Statistics/sync -m 4G -Q -M fuzzer-master -x /dev/shm/work/Character_Statistics/Character_Statistics.dict -- data/linux/processed-challenges/Character_Statistics/bin/Character_Statistics\n'
p151
I0
tp152
a(I9120
S'start_time     : 1500068569\nlast_update    : 1500077643\nfuzzer_pid     : 18615\ncycles_done    : 1\nexecs_done     : 2034028\nexecs_per_sec  : 105.20\npaths_total    : 153\npaths_favored  : 13\npaths_found    : 152\npaths_imported : 0\nmax_depth      : 6\ncur_path       : 152\npending_favs   : 0\npending_total  : 105\nvariable_paths : 0\nbitmap_cvg     : 0.89%\nunique_crashes : 0\nunique_hangs   : 18\nlast_path      : 1500075211\nlast_crash     : 0\nlast_hang      : 1500076638\nexec_timeout   : 20\nafl_banner     : fuzzer-master\nafl_version    : 1.85b\ncommand_line   : /home/skaramcheti/.virtualenvs/afl/bin/afl-unix/afl-fuzz -i /dev/shm/work/Character_Statistics/input -o /dev/shm/work/Character_Statistics/sync -m 4G -Q -M fuzzer-master -x /dev/shm/work/Character_Statistics/Character_Statistics.dict -- data/linux/processed-challenges/Character_Statistics/bin/Character_Statistics\n'
p153
I0
tp154
a(I9240
S'start_time     : 1500068569\nlast_update    : 1500077763\nfuzzer_pid     : 18615\ncycles_done    : 1\nexecs_done     : 2046928\nexecs_per_sec  : 107.86\npaths_total    : 153\npaths_favored  : 13\npaths_found    : 152\npaths_imported : 0\nmax_depth      : 6\ncur_path       : 152\npending_favs   : 0\npending_total  : 105\nvariable_paths : 0\nbitmap_cvg     : 0.89%\nunique_crashes : 0\nunique_hangs   : 18\nlast_path      : 1500075211\nlast_crash     : 0\nlast_hang      : 1500076638\nexec_timeout   : 20\nafl_banner     : fuzzer-master\nafl_version    : 1.85b\ncommand_line   : /home/skaramcheti/.virtualenvs/afl/bin/afl-unix/afl-fuzz -i /dev/shm/work/Character_Statistics/input -o /dev/shm/work/Character_Statistics/sync -m 4G -Q -M fuzzer-master -x /dev/shm/work/Character_Statistics/Character_Statistics.dict -- data/linux/processed-challenges/Character_Statistics/bin/Character_Statistics\n'
p155
I0
tp156
a(I9360
S'start_time     : 1500068569\nlast_update    : 1500077884\nfuzzer_pid     : 18615\ncycles_done    : 1\nexecs_done     : 2059841\nexecs_per_sec  : 103.74\npaths_total    : 153\npaths_favored  : 13\npaths_found    : 152\npaths_imported : 0\nmax_depth      : 6\ncur_path       : 152\npending_favs   : 0\npending_total  : 105\nvariable_paths : 0\nbitmap_cvg     : 0.89%\nunique_crashes : 0\nunique_hangs   : 18\nlast_path      : 1500075211\nlast_crash     : 0\nlast_hang      : 1500076638\nexec_timeout   : 20\nafl_banner     : fuzzer-master\nafl_version    : 1.85b\ncommand_line   : /home/skaramcheti/.virtualenvs/afl/bin/afl-unix/afl-fuzz -i /dev/shm/work/Character_Statistics/input -o /dev/shm/work/Character_Statistics/sync -m 4G -Q -M fuzzer-master -x /dev/shm/work/Character_Statistics/Character_Statistics.dict -- data/linux/processed-challenges/Character_Statistics/bin/Character_Statistics\n'
p157
I0
tp158
a(I9480
S'start_time     : 1500068569\nlast_update    : 1500078004\nfuzzer_pid     : 18615\ncycles_done    : 1\nexecs_done     : 2072774\nexecs_per_sec  : 108.36\npaths_total    : 153\npaths_favored  : 13\npaths_found    : 152\npaths_imported : 0\nmax_depth      : 6\ncur_path       : 152\npending_favs   : 0\npending_total  : 105\nvariable_paths : 0\nbitmap_cvg     : 0.89%\nunique_crashes : 0\nunique_hangs   : 18\nlast_path      : 1500075211\nlast_crash     : 0\nlast_hang      : 1500076638\nexec_timeout   : 20\nafl_banner     : fuzzer-master\nafl_version    : 1.85b\ncommand_line   : /home/skaramcheti/.virtualenvs/afl/bin/afl-unix/afl-fuzz -i /dev/shm/work/Character_Statistics/input -o /dev/shm/work/Character_Statistics/sync -m 4G -Q -M fuzzer-master -x /dev/shm/work/Character_Statistics/Character_Statistics.dict -- data/linux/processed-challenges/Character_Statistics/bin/Character_Statistics\n'
p159
I0
tp160
a(I9600
S'start_time     : 1500068569\nlast_update    : 1500078124\nfuzzer_pid     : 18615\ncycles_done    : 1\nexecs_done     : 2085720\nexecs_per_sec  : 106.70\npaths_total    : 153\npaths_favored  : 13\npaths_found    : 152\npaths_imported : 0\nmax_depth      : 6\ncur_path       : 152\npending_favs   : 0\npending_total  : 105\nvariable_paths : 0\nbitmap_cvg     : 0.89%\nunique_crashes : 0\nunique_hangs   : 18\nlast_path      : 1500075211\nlast_crash     : 0\nlast_hang      : 1500076638\nexec_timeout   : 20\nafl_banner     : fuzzer-master\nafl_version    : 1.85b\ncommand_line   : /home/skaramcheti/.virtualenvs/afl/bin/afl-unix/afl-fuzz -i /dev/shm/work/Character_Statistics/input -o /dev/shm/work/Character_Statistics/sync -m 4G -Q -M fuzzer-master -x /dev/shm/work/Character_Statistics/Character_Statistics.dict -- data/linux/processed-challenges/Character_Statistics/bin/Character_Statistics\n'
p161
I0
tp162
a(I9720
S'start_time     : 1500068569\nlast_update    : 1500078244\nfuzzer_pid     : 18615\ncycles_done    : 1\nexecs_done     : 2098698\nexecs_per_sec  : 105.77\npaths_total    : 153\npaths_favored  : 13\npaths_found    : 152\npaths_imported : 0\nmax_depth      : 6\ncur_path       : 152\npending_favs   : 0\npending_total  : 105\nvariable_paths : 0\nbitmap_cvg     : 0.89%\nunique_crashes : 0\nunique_hangs   : 18\nlast_path      : 1500075211\nlast_crash     : 0\nlast_hang      : 1500076638\nexec_timeout   : 20\nafl_banner     : fuzzer-master\nafl_version    : 1.85b\ncommand_line   : /home/skaramcheti/.virtualenvs/afl/bin/afl-unix/afl-fuzz -i /dev/shm/work/Character_Statistics/input -o /dev/shm/work/Character_Statistics/sync -m 4G -Q -M fuzzer-master -x /dev/shm/work/Character_Statistics/Character_Statistics.dict -- data/linux/processed-challenges/Character_Statistics/bin/Character_Statistics\n'
p163
I0
tp164
a(I9840
S'start_time     : 1500068569\nlast_update    : 1500078365\nfuzzer_pid     : 18615\ncycles_done    : 1\nexecs_done     : 2111624\nexecs_per_sec  : 107.24\npaths_total    : 153\npaths_favored  : 13\npaths_found    : 152\npaths_imported : 0\nmax_depth      : 6\ncur_path       : 152\npending_favs   : 0\npending_total  : 105\nvariable_paths : 0\nbitmap_cvg     : 0.89%\nunique_crashes : 0\nunique_hangs   : 19\nlast_path      : 1500075211\nlast_crash     : 0\nlast_hang      : 1500078258\nexec_timeout   : 20\nafl_banner     : fuzzer-master\nafl_version    : 1.85b\ncommand_line   : /home/skaramcheti/.virtualenvs/afl/bin/afl-unix/afl-fuzz -i /dev/shm/work/Character_Statistics/input -o /dev/shm/work/Character_Statistics/sync -m 4G -Q -M fuzzer-master -x /dev/shm/work/Character_Statistics/Character_Statistics.dict -- data/linux/processed-challenges/Character_Statistics/bin/Character_Statistics\n'
p165
I0
tp166
a(I9960
S'start_time     : 1500068569\nlast_update    : 1500078485\nfuzzer_pid     : 18615\ncycles_done    : 1\nexecs_done     : 2125926\nexecs_per_sec  : 126.84\npaths_total    : 153\npaths_favored  : 13\npaths_found    : 152\npaths_imported : 0\nmax_depth      : 6\ncur_path       : 152\npending_favs   : 0\npending_total  : 105\nvariable_paths : 0\nbitmap_cvg     : 0.89%\nunique_crashes : 0\nunique_hangs   : 19\nlast_path      : 1500075211\nlast_crash     : 0\nlast_hang      : 1500078258\nexec_timeout   : 20\nafl_banner     : fuzzer-master\nafl_version    : 1.85b\ncommand_line   : /home/skaramcheti/.virtualenvs/afl/bin/afl-unix/afl-fuzz -i /dev/shm/work/Character_Statistics/input -o /dev/shm/work/Character_Statistics/sync -m 4G -Q -M fuzzer-master -x /dev/shm/work/Character_Statistics/Character_Statistics.dict -- data/linux/processed-challenges/Character_Statistics/bin/Character_Statistics\n'
p167
I0
tp168
a(I10080
S'start_time     : 1500068569\nlast_update    : 1500078605\nfuzzer_pid     : 18615\ncycles_done    : 2\nexecs_done     : 2197672\nexecs_per_sec  : 609.87\npaths_total    : 153\npaths_favored  : 13\npaths_found    : 152\npaths_imported : 0\nmax_depth      : 6\ncur_path       : 32\npending_favs   : 0\npending_total  : 99\nvariable_paths : 0\nbitmap_cvg     : 0.89%\nunique_crashes : 0\nunique_hangs   : 19\nlast_path      : 1500075211\nlast_crash     : 0\nlast_hang      : 1500078258\nexec_timeout   : 20\nafl_banner     : fuzzer-master\nafl_version    : 1.85b\ncommand_line   : /home/skaramcheti/.virtualenvs/afl/bin/afl-unix/afl-fuzz -i /dev/shm/work/Character_Statistics/input -o /dev/shm/work/Character_Statistics/sync -m 4G -Q -M fuzzer-master -x /dev/shm/work/Character_Statistics/Character_Statistics.dict -- data/linux/processed-challenges/Character_Statistics/bin/Character_Statistics\n'
p169
I0
tp170
a(I10200
S'start_time     : 1500068569\nlast_update    : 1500078725\nfuzzer_pid     : 18615\ncycles_done    : 2\nexecs_done     : 2268899\nexecs_per_sec  : 585.65\npaths_total    : 153\npaths_favored  : 13\npaths_found    : 152\npaths_imported : 0\nmax_depth      : 6\ncur_path       : 55\npending_favs   : 0\npending_total  : 97\nvariable_paths : 0\nbitmap_cvg     : 0.89%\nunique_crashes : 0\nunique_hangs   : 20\nlast_path      : 1500075211\nlast_crash     : 0\nlast_hang      : 1500078696\nexec_timeout   : 20\nafl_banner     : fuzzer-master\nafl_version    : 1.85b\ncommand_line   : /home/skaramcheti/.virtualenvs/afl/bin/afl-unix/afl-fuzz -i /dev/shm/work/Character_Statistics/input -o /dev/shm/work/Character_Statistics/sync -m 4G -Q -M fuzzer-master -x /dev/shm/work/Character_Statistics/Character_Statistics.dict -- data/linux/processed-challenges/Character_Statistics/bin/Character_Statistics\n'
p171
I0
tp172
a(I10320
S'start_time     : 1500068569\nlast_update    : 1500078845\nfuzzer_pid     : 18615\ncycles_done    : 2\nexecs_done     : 2322595\nexecs_per_sec  : 337.54\npaths_total    : 153\npaths_favored  : 13\npaths_found    : 152\npaths_imported : 0\nmax_depth      : 6\ncur_path       : 72\npending_favs   : 0\npending_total  : 94\nvariable_paths : 0\nbitmap_cvg     : 0.89%\nunique_crashes : 0\nunique_hangs   : 20\nlast_path      : 1500075211\nlast_crash     : 0\nlast_hang      : 1500078696\nexec_timeout   : 20\nafl_banner     : fuzzer-master\nafl_version    : 1.85b\ncommand_line   : /home/skaramcheti/.virtualenvs/afl/bin/afl-unix/afl-fuzz -i /dev/shm/work/Character_Statistics/input -o /dev/shm/work/Character_Statistics/sync -m 4G -Q -M fuzzer-master -x /dev/shm/work/Character_Statistics/Character_Statistics.dict -- data/linux/processed-challenges/Character_Statistics/bin/Character_Statistics\n'
p173
I0
tp174
a(I10440
S'start_time     : 1500068569\nlast_update    : 1500078966\nfuzzer_pid     : 18615\ncycles_done    : 2\nexecs_done     : 2363425\nexecs_per_sec  : 382.63\npaths_total    : 153\npaths_favored  : 13\npaths_found    : 152\npaths_imported : 0\nmax_depth      : 6\ncur_path       : 88\npending_favs   : 0\npending_total  : 93\nvariable_paths : 0\nbitmap_cvg     : 0.89%\nunique_crashes : 0\nunique_hangs   : 20\nlast_path      : 1500075211\nlast_crash     : 0\nlast_hang      : 1500078696\nexec_timeout   : 20\nafl_banner     : fuzzer-master\nafl_version    : 1.85b\ncommand_line   : /home/skaramcheti/.virtualenvs/afl/bin/afl-unix/afl-fuzz -i /dev/shm/work/Character_Statistics/input -o /dev/shm/work/Character_Statistics/sync -m 4G -Q -M fuzzer-master -x /dev/shm/work/Character_Statistics/Character_Statistics.dict -- data/linux/processed-challenges/Character_Statistics/bin/Character_Statistics\n'
p175
I0
tp176
a(I10560
S'start_time     : 1500068569\nlast_update    : 1500079086\nfuzzer_pid     : 18615\ncycles_done    : 2\nexecs_done     : 2405680\nexecs_per_sec  : 235.26\npaths_total    : 153\npaths_favored  : 13\npaths_found    : 152\npaths_imported : 0\nmax_depth      : 6\ncur_path       : 95\npending_favs   : 0\npending_total  : 91\nvariable_paths : 0\nbitmap_cvg     : 0.89%\nunique_crashes : 0\nunique_hangs   : 21\nlast_path      : 1500075211\nlast_crash     : 0\nlast_hang      : 1500078972\nexec_timeout   : 20\nafl_banner     : fuzzer-master\nafl_version    : 1.85b\ncommand_line   : /home/skaramcheti/.virtualenvs/afl/bin/afl-unix/afl-fuzz -i /dev/shm/work/Character_Statistics/input -o /dev/shm/work/Character_Statistics/sync -m 4G -Q -M fuzzer-master -x /dev/shm/work/Character_Statistics/Character_Statistics.dict -- data/linux/processed-challenges/Character_Statistics/bin/Character_Statistics\n'
p177
I0
tp178
a(I10680
S'start_time     : 1500068569\nlast_update    : 1500079206\nfuzzer_pid     : 18615\ncycles_done    : 2\nexecs_done     : 2434637\nexecs_per_sec  : 312.15\npaths_total    : 153\npaths_favored  : 13\npaths_found    : 152\npaths_imported : 0\nmax_depth      : 6\ncur_path       : 95\npending_favs   : 0\npending_total  : 91\nvariable_paths : 0\nbitmap_cvg     : 0.89%\nunique_crashes : 0\nunique_hangs   : 21\nlast_path      : 1500075211\nlast_crash     : 0\nlast_hang      : 1500078972\nexec_timeout   : 20\nafl_banner     : fuzzer-master\nafl_version    : 1.85b\ncommand_line   : /home/skaramcheti/.virtualenvs/afl/bin/afl-unix/afl-fuzz -i /dev/shm/work/Character_Statistics/input -o /dev/shm/work/Character_Statistics/sync -m 4G -Q -M fuzzer-master -x /dev/shm/work/Character_Statistics/Character_Statistics.dict -- data/linux/processed-challenges/Character_Statistics/bin/Character_Statistics\n'
p179
I0
tp180
a.