(lp0
(I0
S'start_time     : 1499960411\nlast_update    : 1499960411\nfuzzer_pid     : 11122\ncycles_done    : 0\nexecs_done     : 10\nexecs_per_sec  : 192.31\npaths_total    : 1\npaths_favored  : 1\npaths_found    : 0\npaths_imported : 0\nmax_depth      : 1\ncur_path       : 0\npending_favs   : 1\npending_total  : 1\nvariable_paths : 0\nbitmap_cvg     : 0.09%\nunique_crashes : 0\nunique_hangs   : 0\nlast_path      : 0\nlast_crash     : 0\nlast_hang      : 0\nexec_timeout   : 20\nafl_banner     : fuzzer-master\nafl_version    : 1.85b\ncommand_line   : /home/skaramcheti/.virtualenvs/afl/bin/afl-unix/afl-fuzz -i /dev/shm/work/NoHiC/input -o /dev/shm/work/NoHiC/sync -m 4G -Q -M fuzzer-master -x /dev/shm/work/NoHiC/NoHiC.dict -- data/linux/processed-challenges/NoHiC/bin/NoHiC\n'
p1
I6
tp2
a(I120
S'start_time     : 1499960411\nlast_update    : 1499960531\nfuzzer_pid     : 11122\ncycles_done    : 2\nexecs_done     : 123999\nexecs_per_sec  : 1016.96\npaths_total    : 6\npaths_favored  : 2\npaths_found    : 5\npaths_imported : 0\nmax_depth      : 2\ncur_path       : 2\npending_favs   : 0\npending_total  : 0\nvariable_paths : 0\nbitmap_cvg     : 0.11%\nunique_crashes : 0\nunique_hangs   : 0\nlast_path      : 1499960411\nlast_crash     : 0\nlast_hang      : 0\nexec_timeout   : 20\nafl_banner     : fuzzer-master\nafl_version    : 1.85b\ncommand_line   : /home/skaramcheti/.virtualenvs/afl/bin/afl-unix/afl-fuzz -i /dev/shm/work/NoHiC/input -o /dev/shm/work/NoHiC/sync -m 4G -Q -M fuzzer-master -x /dev/shm/work/NoHiC/NoHiC.dict -- data/linux/processed-challenges/NoHiC/bin/NoHiC\n'
p3
I0
tp4
a(I240
S'start_time     : 1499960411\nlast_update    : 1499960651\nfuzzer_pid     : 11122\ncycles_done    : 4\nexecs_done     : 249879\nexecs_per_sec  : 1043.37\npaths_total    : 6\npaths_favored  : 2\npaths_found    : 5\npaths_imported : 0\nmax_depth      : 2\ncur_path       : 2\npending_favs   : 0\npending_total  : 0\nvariable_paths : 0\nbitmap_cvg     : 0.11%\nunique_crashes : 0\nunique_hangs   : 1\nlast_path      : 1499960411\nlast_crash     : 0\nlast_hang      : 1499960609\nexec_timeout   : 20\nafl_banner     : fuzzer-master\nafl_version    : 1.85b\ncommand_line   : /home/skaramcheti/.virtualenvs/afl/bin/afl-unix/afl-fuzz -i /dev/shm/work/NoHiC/input -o /dev/shm/work/NoHiC/sync -m 4G -Q -M fuzzer-master -x /dev/shm/work/NoHiC/NoHiC.dict -- data/linux/processed-challenges/NoHiC/bin/NoHiC\n'
p5
I0
tp6
a(I360
S'start_time     : 1499960411\nlast_update    : 1499960771\nfuzzer_pid     : 11122\ncycles_done    : 6\nexecs_done     : 378472\nexecs_per_sec  : 1066.17\npaths_total    : 6\npaths_favored  : 2\npaths_found    : 5\npaths_imported : 0\nmax_depth      : 2\ncur_path       : 4\npending_favs   : 0\npending_total  : 0\nvariable_paths : 0\nbitmap_cvg     : 0.11%\nunique_crashes : 0\nunique_hangs   : 1\nlast_path      : 1499960411\nlast_crash     : 0\nlast_hang      : 1499960609\nexec_timeout   : 20\nafl_banner     : fuzzer-master\nafl_version    : 1.85b\ncommand_line   : /home/skaramcheti/.virtualenvs/afl/bin/afl-unix/afl-fuzz -i /dev/shm/work/NoHiC/input -o /dev/shm/work/NoHiC/sync -m 4G -Q -M fuzzer-master -x /dev/shm/work/NoHiC/NoHiC.dict -- data/linux/processed-challenges/NoHiC/bin/NoHiC\n'
p7
I0
tp8
a(I480
S'start_time     : 1499960411\nlast_update    : 1499960891\nfuzzer_pid     : 11122\ncycles_done    : 8\nexecs_done     : 507948\nexecs_per_sec  : 1062.71\npaths_total    : 6\npaths_favored  : 2\npaths_found    : 5\npaths_imported : 0\nmax_depth      : 2\ncur_path       : 4\npending_favs   : 0\npending_total  : 0\nvariable_paths : 0\nbitmap_cvg     : 0.11%\nunique_crashes : 0\nunique_hangs   : 1\nlast_path      : 1499960411\nlast_crash     : 0\nlast_hang      : 1499960609\nexec_timeout   : 20\nafl_banner     : fuzzer-master\nafl_version    : 1.85b\ncommand_line   : /home/skaramcheti/.virtualenvs/afl/bin/afl-unix/afl-fuzz -i /dev/shm/work/NoHiC/input -o /dev/shm/work/NoHiC/sync -m 4G -Q -M fuzzer-master -x /dev/shm/work/NoHiC/NoHiC.dict -- data/linux/processed-challenges/NoHiC/bin/NoHiC\n'
p9
I0
tp10
a(I600
S'start_time     : 1499960411\nlast_update    : 1499961012\nfuzzer_pid     : 11122\ncycles_done    : 11\nexecs_done     : 637224\nexecs_per_sec  : 1095.26\npaths_total    : 6\npaths_favored  : 2\npaths_found    : 5\npaths_imported : 0\nmax_depth      : 2\ncur_path       : 0\npending_favs   : 0\npending_total  : 0\nvariable_paths : 0\nbitmap_cvg     : 0.11%\nunique_crashes : 0\nunique_hangs   : 1\nlast_path      : 1499960411\nlast_crash     : 0\nlast_hang      : 1499960609\nexec_timeout   : 20\nafl_banner     : fuzzer-master\nafl_version    : 1.85b\ncommand_line   : /home/skaramcheti/.virtualenvs/afl/bin/afl-unix/afl-fuzz -i /dev/shm/work/NoHiC/input -o /dev/shm/work/NoHiC/sync -m 4G -Q -M fuzzer-master -x /dev/shm/work/NoHiC/NoHiC.dict -- data/linux/processed-challenges/NoHiC/bin/NoHiC\n'
p11
I0
tp12
a(I720
S'start_time     : 1499960411\nlast_update    : 1499961132\nfuzzer_pid     : 11122\ncycles_done    : 13\nexecs_done     : 766179\nexecs_per_sec  : 1056.59\npaths_total    : 6\npaths_favored  : 2\npaths_found    : 5\npaths_imported : 0\nmax_depth      : 2\ncur_path       : 0\npending_favs   : 0\npending_total  : 0\nvariable_paths : 0\nbitmap_cvg     : 0.11%\nunique_crashes : 0\nunique_hangs   : 1\nlast_path      : 1499960411\nlast_crash     : 0\nlast_hang      : 1499960609\nexec_timeout   : 20\nafl_banner     : fuzzer-master\nafl_version    : 1.85b\ncommand_line   : /home/skaramcheti/.virtualenvs/afl/bin/afl-unix/afl-fuzz -i /dev/shm/work/NoHiC/input -o /dev/shm/work/NoHiC/sync -m 4G -Q -M fuzzer-master -x /dev/shm/work/NoHiC/NoHiC.dict -- data/linux/processed-challenges/NoHiC/bin/NoHiC\n'
p13
I0
tp14
a(I840
S'start_time     : 1499960411\nlast_update    : 1499961252\nfuzzer_pid     : 11122\ncycles_done    : 15\nexecs_done     : 895123\nexecs_per_sec  : 1068.80\npaths_total    : 6\npaths_favored  : 2\npaths_found    : 5\npaths_imported : 0\nmax_depth      : 2\ncur_path       : 1\npending_favs   : 0\npending_total  : 0\nvariable_paths : 0\nbitmap_cvg     : 0.11%\nunique_crashes : 0\nunique_hangs   : 1\nlast_path      : 1499960411\nlast_crash     : 0\nlast_hang      : 1499960609\nexec_timeout   : 20\nafl_banner     : fuzzer-master\nafl_version    : 1.85b\ncommand_line   : /home/skaramcheti/.virtualenvs/afl/bin/afl-unix/afl-fuzz -i /dev/shm/work/NoHiC/input -o /dev/shm/work/NoHiC/sync -m 4G -Q -M fuzzer-master -x /dev/shm/work/NoHiC/NoHiC.dict -- data/linux/processed-challenges/NoHiC/bin/NoHiC\n'
p15
I0
tp16
a(I960
S'start_time     : 1499960411\nlast_update    : 1499961372\nfuzzer_pid     : 11122\ncycles_done    : 17\nexecs_done     : 1024574\nexecs_per_sec  : 1082.87\npaths_total    : 6\npaths_favored  : 2\npaths_found    : 5\npaths_imported : 0\nmax_depth      : 2\ncur_path       : 1\npending_favs   : 0\npending_total  : 0\nvariable_paths : 0\nbitmap_cvg     : 0.11%\nunique_crashes : 0\nunique_hangs   : 1\nlast_path      : 1499960411\nlast_crash     : 0\nlast_hang      : 1499960609\nexec_timeout   : 20\nafl_banner     : fuzzer-master\nafl_version    : 1.85b\ncommand_line   : /home/skaramcheti/.virtualenvs/afl/bin/afl-unix/afl-fuzz -i /dev/shm/work/NoHiC/input -o /dev/shm/work/NoHiC/sync -m 4G -Q -M fuzzer-master -x /dev/shm/work/NoHiC/NoHiC.dict -- data/linux/processed-challenges/NoHiC/bin/NoHiC\n'
p17
I0
tp18
a(I1080
S'start_time     : 1499960411\nlast_update    : 1499961492\nfuzzer_pid     : 11122\ncycles_done    : 19\nexecs_done     : 1153885\nexecs_per_sec  : 1090.54\npaths_total    : 6\npaths_favored  : 2\npaths_found    : 5\npaths_imported : 0\nmax_depth      : 2\ncur_path       : 2\npending_favs   : 0\npending_total  : 0\nvariable_paths : 0\nbitmap_cvg     : 0.11%\nunique_crashes : 0\nunique_hangs   : 1\nlast_path      : 1499960411\nlast_crash     : 0\nlast_hang      : 1499960609\nexec_timeout   : 20\nafl_banner     : fuzzer-master\nafl_version    : 1.85b\ncommand_line   : /home/skaramcheti/.virtualenvs/afl/bin/afl-unix/afl-fuzz -i /dev/shm/work/NoHiC/input -o /dev/shm/work/NoHiC/sync -m 4G -Q -M fuzzer-master -x /dev/shm/work/NoHiC/NoHiC.dict -- data/linux/processed-challenges/NoHiC/bin/NoHiC\n'
p19
I0
tp20
a(I1200
S'start_time     : 1499960411\nlast_update    : 1499961612\nfuzzer_pid     : 11122\ncycles_done    : 21\nexecs_done     : 1283585\nexecs_per_sec  : 1074.76\npaths_total    : 6\npaths_favored  : 2\npaths_found    : 5\npaths_imported : 0\nmax_depth      : 2\ncur_path       : 4\npending_favs   : 0\npending_total  : 0\nvariable_paths : 0\nbitmap_cvg     : 0.11%\nunique_crashes : 0\nunique_hangs   : 1\nlast_path      : 1499960411\nlast_crash     : 0\nlast_hang      : 1499960609\nexec_timeout   : 20\nafl_banner     : fuzzer-master\nafl_version    : 1.85b\ncommand_line   : /home/skaramcheti/.virtualenvs/afl/bin/afl-unix/afl-fuzz -i /dev/shm/work/NoHiC/input -o /dev/shm/work/NoHiC/sync -m 4G -Q -M fuzzer-master -x /dev/shm/work/NoHiC/NoHiC.dict -- data/linux/processed-challenges/NoHiC/bin/NoHiC\n'
p21
I0
tp22
a(I1320
S'start_time     : 1499960411\nlast_update    : 1499961733\nfuzzer_pid     : 11122\ncycles_done    : 24\nexecs_done     : 1412864\nexecs_per_sec  : 1083.40\npaths_total    : 6\npaths_favored  : 2\npaths_found    : 5\npaths_imported : 0\nmax_depth      : 2\ncur_path       : 0\npending_favs   : 0\npending_total  : 0\nvariable_paths : 0\nbitmap_cvg     : 0.11%\nunique_crashes : 0\nunique_hangs   : 1\nlast_path      : 1499960411\nlast_crash     : 0\nlast_hang      : 1499960609\nexec_timeout   : 20\nafl_banner     : fuzzer-master\nafl_version    : 1.85b\ncommand_line   : /home/skaramcheti/.virtualenvs/afl/bin/afl-unix/afl-fuzz -i /dev/shm/work/NoHiC/input -o /dev/shm/work/NoHiC/sync -m 4G -Q -M fuzzer-master -x /dev/shm/work/NoHiC/NoHiC.dict -- data/linux/processed-challenges/NoHiC/bin/NoHiC\n'
p23
I0
tp24
a(I1440
S'start_time     : 1499960411\nlast_update    : 1499961853\nfuzzer_pid     : 11122\ncycles_done    : 26\nexecs_done     : 1542280\nexecs_per_sec  : 1053.65\npaths_total    : 6\npaths_favored  : 2\npaths_found    : 5\npaths_imported : 0\nmax_depth      : 2\ncur_path       : 0\npending_favs   : 0\npending_total  : 0\nvariable_paths : 0\nbitmap_cvg     : 0.11%\nunique_crashes : 0\nunique_hangs   : 1\nlast_path      : 1499960411\nlast_crash     : 0\nlast_hang      : 1499960609\nexec_timeout   : 20\nafl_banner     : fuzzer-master\nafl_version    : 1.85b\ncommand_line   : /home/skaramcheti/.virtualenvs/afl/bin/afl-unix/afl-fuzz -i /dev/shm/work/NoHiC/input -o /dev/shm/work/NoHiC/sync -m 4G -Q -M fuzzer-master -x /dev/shm/work/NoHiC/NoHiC.dict -- data/linux/processed-challenges/NoHiC/bin/NoHiC\n'
p25
I0
tp26
a(I1560
S'start_time     : 1499960411\nlast_update    : 1499961973\nfuzzer_pid     : 11122\ncycles_done    : 28\nexecs_done     : 1669801\nexecs_per_sec  : 1065.95\npaths_total    : 6\npaths_favored  : 2\npaths_found    : 5\npaths_imported : 0\nmax_depth      : 2\ncur_path       : 1\npending_favs   : 0\npending_total  : 0\nvariable_paths : 0\nbitmap_cvg     : 0.11%\nunique_crashes : 0\nunique_hangs   : 1\nlast_path      : 1499960411\nlast_crash     : 0\nlast_hang      : 1499960609\nexec_timeout   : 20\nafl_banner     : fuzzer-master\nafl_version    : 1.85b\ncommand_line   : /home/skaramcheti/.virtualenvs/afl/bin/afl-unix/afl-fuzz -i /dev/shm/work/NoHiC/input -o /dev/shm/work/NoHiC/sync -m 4G -Q -M fuzzer-master -x /dev/shm/work/NoHiC/NoHiC.dict -- data/linux/processed-challenges/NoHiC/bin/NoHiC\n'
p27
I0
tp28
a(I1680
S'start_time     : 1499960411\nlast_update    : 1499962093\nfuzzer_pid     : 11122\ncycles_done    : 30\nexecs_done     : 1799616\nexecs_per_sec  : 1071.66\npaths_total    : 6\npaths_favored  : 2\npaths_found    : 5\npaths_imported : 0\nmax_depth      : 2\ncur_path       : 2\npending_favs   : 0\npending_total  : 0\nvariable_paths : 0\nbitmap_cvg     : 0.11%\nunique_crashes : 0\nunique_hangs   : 1\nlast_path      : 1499960411\nlast_crash     : 0\nlast_hang      : 1499960609\nexec_timeout   : 20\nafl_banner     : fuzzer-master\nafl_version    : 1.85b\ncommand_line   : /home/skaramcheti/.virtualenvs/afl/bin/afl-unix/afl-fuzz -i /dev/shm/work/NoHiC/input -o /dev/shm/work/NoHiC/sync -m 4G -Q -M fuzzer-master -x /dev/shm/work/NoHiC/NoHiC.dict -- data/linux/processed-challenges/NoHiC/bin/NoHiC\n'
p29
I0
tp30
a(I1800
S'start_time     : 1499960411\nlast_update    : 1499962213\nfuzzer_pid     : 11122\ncycles_done    : 32\nexecs_done     : 1927448\nexecs_per_sec  : 1069.82\npaths_total    : 6\npaths_favored  : 2\npaths_found    : 5\npaths_imported : 0\nmax_depth      : 2\ncur_path       : 2\npending_favs   : 0\npending_total  : 0\nvariable_paths : 0\nbitmap_cvg     : 0.11%\nunique_crashes : 0\nunique_hangs   : 1\nlast_path      : 1499960411\nlast_crash     : 0\nlast_hang      : 1499960609\nexec_timeout   : 20\nafl_banner     : fuzzer-master\nafl_version    : 1.85b\ncommand_line   : /home/skaramcheti/.virtualenvs/afl/bin/afl-unix/afl-fuzz -i /dev/shm/work/NoHiC/input -o /dev/shm/work/NoHiC/sync -m 4G -Q -M fuzzer-master -x /dev/shm/work/NoHiC/NoHiC.dict -- data/linux/processed-challenges/NoHiC/bin/NoHiC\n'
p31
I0
tp32
a(I1920
S'start_time     : 1499960411\nlast_update    : 1499962333\nfuzzer_pid     : 11122\ncycles_done    : 34\nexecs_done     : 2056236\nexecs_per_sec  : 1062.96\npaths_total    : 6\npaths_favored  : 2\npaths_found    : 5\npaths_imported : 0\nmax_depth      : 2\ncur_path       : 3\npending_favs   : 0\npending_total  : 0\nvariable_paths : 0\nbitmap_cvg     : 0.11%\nunique_crashes : 0\nunique_hangs   : 1\nlast_path      : 1499960411\nlast_crash     : 0\nlast_hang      : 1499960609\nexec_timeout   : 20\nafl_banner     : fuzzer-master\nafl_version    : 1.85b\ncommand_line   : /home/skaramcheti/.virtualenvs/afl/bin/afl-unix/afl-fuzz -i /dev/shm/work/NoHiC/input -o /dev/shm/work/NoHiC/sync -m 4G -Q -M fuzzer-master -x /dev/shm/work/NoHiC/NoHiC.dict -- data/linux/processed-challenges/NoHiC/bin/NoHiC\n'
p33
I0
tp34
a(I2040
S'start_time     : 1499960411\nlast_update    : 1499962454\nfuzzer_pid     : 11122\ncycles_done    : 36\nexecs_done     : 2185677\nexecs_per_sec  : 1098.02\npaths_total    : 6\npaths_favored  : 2\npaths_found    : 5\npaths_imported : 0\nmax_depth      : 2\ncur_path       : 4\npending_favs   : 0\npending_total  : 0\nvariable_paths : 0\nbitmap_cvg     : 0.11%\nunique_crashes : 0\nunique_hangs   : 1\nlast_path      : 1499960411\nlast_crash     : 0\nlast_hang      : 1499960609\nexec_timeout   : 20\nafl_banner     : fuzzer-master\nafl_version    : 1.85b\ncommand_line   : /home/skaramcheti/.virtualenvs/afl/bin/afl-unix/afl-fuzz -i /dev/shm/work/NoHiC/input -o /dev/shm/work/NoHiC/sync -m 4G -Q -M fuzzer-master -x /dev/shm/work/NoHiC/NoHiC.dict -- data/linux/processed-challenges/NoHiC/bin/NoHiC\n'
p35
I0
tp36
a(I2160
S'start_time     : 1499960411\nlast_update    : 1499962574\nfuzzer_pid     : 11122\ncycles_done    : 39\nexecs_done     : 2315851\nexecs_per_sec  : 1092.58\npaths_total    : 6\npaths_favored  : 2\npaths_found    : 5\npaths_imported : 0\nmax_depth      : 2\ncur_path       : 0\npending_favs   : 0\npending_total  : 0\nvariable_paths : 0\nbitmap_cvg     : 0.11%\nunique_crashes : 0\nunique_hangs   : 1\nlast_path      : 1499960411\nlast_crash     : 0\nlast_hang      : 1499960609\nexec_timeout   : 20\nafl_banner     : fuzzer-master\nafl_version    : 1.85b\ncommand_line   : /home/skaramcheti/.virtualenvs/afl/bin/afl-unix/afl-fuzz -i /dev/shm/work/NoHiC/input -o /dev/shm/work/NoHiC/sync -m 4G -Q -M fuzzer-master -x /dev/shm/work/NoHiC/NoHiC.dict -- data/linux/processed-challenges/NoHiC/bin/NoHiC\n'
p37
I0
tp38
a(I2280
S'start_time     : 1499960411\nlast_update    : 1499962694\nfuzzer_pid     : 11122\ncycles_done    : 41\nexecs_done     : 2444721\nexecs_per_sec  : 1073.74\npaths_total    : 6\npaths_favored  : 2\npaths_found    : 5\npaths_imported : 0\nmax_depth      : 2\ncur_path       : 0\npending_favs   : 0\npending_total  : 0\nvariable_paths : 0\nbitmap_cvg     : 0.11%\nunique_crashes : 0\nunique_hangs   : 1\nlast_path      : 1499960411\nlast_crash     : 0\nlast_hang      : 1499960609\nexec_timeout   : 20\nafl_banner     : fuzzer-master\nafl_version    : 1.85b\ncommand_line   : /home/skaramcheti/.virtualenvs/afl/bin/afl-unix/afl-fuzz -i /dev/shm/work/NoHiC/input -o /dev/shm/work/NoHiC/sync -m 4G -Q -M fuzzer-master -x /dev/shm/work/NoHiC/NoHiC.dict -- data/linux/processed-challenges/NoHiC/bin/NoHiC\n'
p39
I0
tp40
a(I2400
S'start_time     : 1499960411\nlast_update    : 1499962814\nfuzzer_pid     : 11122\ncycles_done    : 43\nexecs_done     : 2574864\nexecs_per_sec  : 1087.08\npaths_total    : 6\npaths_favored  : 2\npaths_found    : 5\npaths_imported : 0\nmax_depth      : 2\ncur_path       : 1\npending_favs   : 0\npending_total  : 0\nvariable_paths : 0\nbitmap_cvg     : 0.11%\nunique_crashes : 0\nunique_hangs   : 1\nlast_path      : 1499960411\nlast_crash     : 0\nlast_hang      : 1499960609\nexec_timeout   : 20\nafl_banner     : fuzzer-master\nafl_version    : 1.85b\ncommand_line   : /home/skaramcheti/.virtualenvs/afl/bin/afl-unix/afl-fuzz -i /dev/shm/work/NoHiC/input -o /dev/shm/work/NoHiC/sync -m 4G -Q -M fuzzer-master -x /dev/shm/work/NoHiC/NoHiC.dict -- data/linux/processed-challenges/NoHiC/bin/NoHiC\n'
p41
I0
tp42
a(I2520
S'start_time     : 1499960411\nlast_update    : 1499962934\nfuzzer_pid     : 11122\ncycles_done    : 45\nexecs_done     : 2703456\nexecs_per_sec  : 1069.28\npaths_total    : 6\npaths_favored  : 2\npaths_found    : 5\npaths_imported : 0\nmax_depth      : 2\ncur_path       : 2\npending_favs   : 0\npending_total  : 0\nvariable_paths : 0\nbitmap_cvg     : 0.11%\nunique_crashes : 0\nunique_hangs   : 1\nlast_path      : 1499960411\nlast_crash     : 0\nlast_hang      : 1499960609\nexec_timeout   : 20\nafl_banner     : fuzzer-master\nafl_version    : 1.85b\ncommand_line   : /home/skaramcheti/.virtualenvs/afl/bin/afl-unix/afl-fuzz -i /dev/shm/work/NoHiC/input -o /dev/shm/work/NoHiC/sync -m 4G -Q -M fuzzer-master -x /dev/shm/work/NoHiC/NoHiC.dict -- data/linux/processed-challenges/NoHiC/bin/NoHiC\n'
p43
I0
tp44
a(I2640
S'start_time     : 1499960411\nlast_update    : 1499963054\nfuzzer_pid     : 11122\ncycles_done    : 47\nexecs_done     : 2832053\nexecs_per_sec  : 1078.56\npaths_total    : 6\npaths_favored  : 2\npaths_found    : 5\npaths_imported : 0\nmax_depth      : 2\ncur_path       : 2\npending_favs   : 0\npending_total  : 0\nvariable_paths : 0\nbitmap_cvg     : 0.11%\nunique_crashes : 0\nunique_hangs   : 1\nlast_path      : 1499960411\nlast_crash     : 0\nlast_hang      : 1499960609\nexec_timeout   : 20\nafl_banner     : fuzzer-master\nafl_version    : 1.85b\ncommand_line   : /home/skaramcheti/.virtualenvs/afl/bin/afl-unix/afl-fuzz -i /dev/shm/work/NoHiC/input -o /dev/shm/work/NoHiC/sync -m 4G -Q -M fuzzer-master -x /dev/shm/work/NoHiC/NoHiC.dict -- data/linux/processed-challenges/NoHiC/bin/NoHiC\n'
p45
I0
tp46
a(I2760
S'start_time     : 1499960411\nlast_update    : 1499963175\nfuzzer_pid     : 11122\ncycles_done    : 49\nexecs_done     : 2960780\nexecs_per_sec  : 1062.74\npaths_total    : 6\npaths_favored  : 2\npaths_found    : 5\npaths_imported : 0\nmax_depth      : 2\ncur_path       : 4\npending_favs   : 0\npending_total  : 0\nvariable_paths : 0\nbitmap_cvg     : 0.11%\nunique_crashes : 0\nunique_hangs   : 1\nlast_path      : 1499960411\nlast_crash     : 0\nlast_hang      : 1499960609\nexec_timeout   : 20\nafl_banner     : fuzzer-master\nafl_version    : 1.85b\ncommand_line   : /home/skaramcheti/.virtualenvs/afl/bin/afl-unix/afl-fuzz -i /dev/shm/work/NoHiC/input -o /dev/shm/work/NoHiC/sync -m 4G -Q -M fuzzer-master -x /dev/shm/work/NoHiC/NoHiC.dict -- data/linux/processed-challenges/NoHiC/bin/NoHiC\n'
p47
I0
tp48
a(I2880
S'start_time     : 1499960411\nlast_update    : 1499963295\nfuzzer_pid     : 11122\ncycles_done    : 52\nexecs_done     : 3089990\nexecs_per_sec  : 1088.63\npaths_total    : 6\npaths_favored  : 2\npaths_found    : 5\npaths_imported : 0\nmax_depth      : 2\ncur_path       : 0\npending_favs   : 0\npending_total  : 0\nvariable_paths : 0\nbitmap_cvg     : 0.11%\nunique_crashes : 0\nunique_hangs   : 1\nlast_path      : 1499960411\nlast_crash     : 0\nlast_hang      : 1499960609\nexec_timeout   : 20\nafl_banner     : fuzzer-master\nafl_version    : 1.85b\ncommand_line   : /home/skaramcheti/.virtualenvs/afl/bin/afl-unix/afl-fuzz -i /dev/shm/work/NoHiC/input -o /dev/shm/work/NoHiC/sync -m 4G -Q -M fuzzer-master -x /dev/shm/work/NoHiC/NoHiC.dict -- data/linux/processed-challenges/NoHiC/bin/NoHiC\n'
p49
I0
tp50
a(I3000
S'start_time     : 1499960411\nlast_update    : 1499963416\nfuzzer_pid     : 11122\ncycles_done    : 54\nexecs_done     : 3219741\nexecs_per_sec  : 1070.51\npaths_total    : 6\npaths_favored  : 2\npaths_found    : 5\npaths_imported : 0\nmax_depth      : 2\ncur_path       : 1\npending_favs   : 0\npending_total  : 0\nvariable_paths : 0\nbitmap_cvg     : 0.11%\nunique_crashes : 0\nunique_hangs   : 1\nlast_path      : 1499960411\nlast_crash     : 0\nlast_hang      : 1499960609\nexec_timeout   : 20\nafl_banner     : fuzzer-master\nafl_version    : 1.85b\ncommand_line   : /home/skaramcheti/.virtualenvs/afl/bin/afl-unix/afl-fuzz -i /dev/shm/work/NoHiC/input -o /dev/shm/work/NoHiC/sync -m 4G -Q -M fuzzer-master -x /dev/shm/work/NoHiC/NoHiC.dict -- data/linux/processed-challenges/NoHiC/bin/NoHiC\n'
p51
I0
tp52
a(I3120
S'start_time     : 1499960411\nlast_update    : 1499963536\nfuzzer_pid     : 11122\ncycles_done    : 56\nexecs_done     : 3349011\nexecs_per_sec  : 1063.68\npaths_total    : 6\npaths_favored  : 2\npaths_found    : 5\npaths_imported : 0\nmax_depth      : 2\ncur_path       : 1\npending_favs   : 0\npending_total  : 0\nvariable_paths : 0\nbitmap_cvg     : 0.11%\nunique_crashes : 0\nunique_hangs   : 1\nlast_path      : 1499960411\nlast_crash     : 0\nlast_hang      : 1499960609\nexec_timeout   : 20\nafl_banner     : fuzzer-master\nafl_version    : 1.85b\ncommand_line   : /home/skaramcheti/.virtualenvs/afl/bin/afl-unix/afl-fuzz -i /dev/shm/work/NoHiC/input -o /dev/shm/work/NoHiC/sync -m 4G -Q -M fuzzer-master -x /dev/shm/work/NoHiC/NoHiC.dict -- data/linux/processed-challenges/NoHiC/bin/NoHiC\n'
p53
I0
tp54
a(I3240
S'start_time     : 1499960411\nlast_update    : 1499963656\nfuzzer_pid     : 11122\ncycles_done    : 58\nexecs_done     : 3477463\nexecs_per_sec  : 1068.18\npaths_total    : 6\npaths_favored  : 2\npaths_found    : 5\npaths_imported : 0\nmax_depth      : 2\ncur_path       : 2\npending_favs   : 0\npending_total  : 0\nvariable_paths : 0\nbitmap_cvg     : 0.11%\nunique_crashes : 0\nunique_hangs   : 1\nlast_path      : 1499960411\nlast_crash     : 0\nlast_hang      : 1499960609\nexec_timeout   : 20\nafl_banner     : fuzzer-master\nafl_version    : 1.85b\ncommand_line   : /home/skaramcheti/.virtualenvs/afl/bin/afl-unix/afl-fuzz -i /dev/shm/work/NoHiC/input -o /dev/shm/work/NoHiC/sync -m 4G -Q -M fuzzer-master -x /dev/shm/work/NoHiC/NoHiC.dict -- data/linux/processed-challenges/NoHiC/bin/NoHiC\n'
p55
I0
tp56
a(I3360
S'start_time     : 1499960411\nlast_update    : 1499963776\nfuzzer_pid     : 11122\ncycles_done    : 60\nexecs_done     : 3604242\nexecs_per_sec  : 1055.88\npaths_total    : 6\npaths_favored  : 2\npaths_found    : 5\npaths_imported : 0\nmax_depth      : 2\ncur_path       : 2\npending_favs   : 0\npending_total  : 0\nvariable_paths : 0\nbitmap_cvg     : 0.11%\nunique_crashes : 0\nunique_hangs   : 1\nlast_path      : 1499960411\nlast_crash     : 0\nlast_hang      : 1499960609\nexec_timeout   : 20\nafl_banner     : fuzzer-master\nafl_version    : 1.85b\ncommand_line   : /home/skaramcheti/.virtualenvs/afl/bin/afl-unix/afl-fuzz -i /dev/shm/work/NoHiC/input -o /dev/shm/work/NoHiC/sync -m 4G -Q -M fuzzer-master -x /dev/shm/work/NoHiC/NoHiC.dict -- data/linux/processed-challenges/NoHiC/bin/NoHiC\n'
p57
I0
tp58
a(I3480
S'start_time     : 1499960411\nlast_update    : 1499963897\nfuzzer_pid     : 11122\ncycles_done    : 62\nexecs_done     : 3733098\nexecs_per_sec  : 1066.46\npaths_total    : 6\npaths_favored  : 2\npaths_found    : 5\npaths_imported : 0\nmax_depth      : 2\ncur_path       : 3\npending_favs   : 0\npending_total  : 0\nvariable_paths : 0\nbitmap_cvg     : 0.11%\nunique_crashes : 0\nunique_hangs   : 1\nlast_path      : 1499960411\nlast_crash     : 0\nlast_hang      : 1499960609\nexec_timeout   : 20\nafl_banner     : fuzzer-master\nafl_version    : 1.85b\ncommand_line   : /home/skaramcheti/.virtualenvs/afl/bin/afl-unix/afl-fuzz -i /dev/shm/work/NoHiC/input -o /dev/shm/work/NoHiC/sync -m 4G -Q -M fuzzer-master -x /dev/shm/work/NoHiC/NoHiC.dict -- data/linux/processed-challenges/NoHiC/bin/NoHiC\n'
p59
I0
tp60
a(I3600
S'start_time     : 1499960411\nlast_update    : 1499964017\nfuzzer_pid     : 11122\ncycles_done    : 64\nexecs_done     : 3861574\nexecs_per_sec  : 1069.34\npaths_total    : 6\npaths_favored  : 2\npaths_found    : 5\npaths_imported : 0\nmax_depth      : 2\ncur_path       : 4\npending_favs   : 0\npending_total  : 0\nvariable_paths : 0\nbitmap_cvg     : 0.11%\nunique_crashes : 0\nunique_hangs   : 1\nlast_path      : 1499960411\nlast_crash     : 0\nlast_hang      : 1499960609\nexec_timeout   : 20\nafl_banner     : fuzzer-master\nafl_version    : 1.85b\ncommand_line   : /home/skaramcheti/.virtualenvs/afl/bin/afl-unix/afl-fuzz -i /dev/shm/work/NoHiC/input -o /dev/shm/work/NoHiC/sync -m 4G -Q -M fuzzer-master -x /dev/shm/work/NoHiC/NoHiC.dict -- data/linux/processed-challenges/NoHiC/bin/NoHiC\n'
p61
I0
tp62
a(I3720
S'start_time     : 1499960411\nlast_update    : 1499964137\nfuzzer_pid     : 11122\ncycles_done    : 66\nexecs_done     : 3987559\nexecs_per_sec  : 1040.10\npaths_total    : 6\npaths_favored  : 2\npaths_found    : 5\npaths_imported : 0\nmax_depth      : 2\ncur_path       : 5\npending_favs   : 0\npending_total  : 0\nvariable_paths : 0\nbitmap_cvg     : 0.11%\nunique_crashes : 0\nunique_hangs   : 1\nlast_path      : 1499960411\nlast_crash     : 0\nlast_hang      : 1499960609\nexec_timeout   : 20\nafl_banner     : fuzzer-master\nafl_version    : 1.85b\ncommand_line   : /home/skaramcheti/.virtualenvs/afl/bin/afl-unix/afl-fuzz -i /dev/shm/work/NoHiC/input -o /dev/shm/work/NoHiC/sync -m 4G -Q -M fuzzer-master -x /dev/shm/work/NoHiC/NoHiC.dict -- data/linux/processed-challenges/NoHiC/bin/NoHiC\n'
p63
I0
tp64
a(I3840
S'start_time     : 1499960411\nlast_update    : 1499964257\nfuzzer_pid     : 11122\ncycles_done    : 69\nexecs_done     : 4112839\nexecs_per_sec  : 1047.61\npaths_total    : 6\npaths_favored  : 2\npaths_found    : 5\npaths_imported : 0\nmax_depth      : 2\ncur_path       : 0\npending_favs   : 0\npending_total  : 0\nvariable_paths : 0\nbitmap_cvg     : 0.11%\nunique_crashes : 0\nunique_hangs   : 1\nlast_path      : 1499960411\nlast_crash     : 0\nlast_hang      : 1499960609\nexec_timeout   : 20\nafl_banner     : fuzzer-master\nafl_version    : 1.85b\ncommand_line   : /home/skaramcheti/.virtualenvs/afl/bin/afl-unix/afl-fuzz -i /dev/shm/work/NoHiC/input -o /dev/shm/work/NoHiC/sync -m 4G -Q -M fuzzer-master -x /dev/shm/work/NoHiC/NoHiC.dict -- data/linux/processed-challenges/NoHiC/bin/NoHiC\n'
p65
I0
tp66
a(I3960
S'start_time     : 1499960411\nlast_update    : 1499964377\nfuzzer_pid     : 11122\ncycles_done    : 71\nexecs_done     : 4238599\nexecs_per_sec  : 1035.50\npaths_total    : 6\npaths_favored  : 2\npaths_found    : 5\npaths_imported : 0\nmax_depth      : 2\ncur_path       : 0\npending_favs   : 0\npending_total  : 0\nvariable_paths : 0\nbitmap_cvg     : 0.11%\nunique_crashes : 0\nunique_hangs   : 1\nlast_path      : 1499960411\nlast_crash     : 0\nlast_hang      : 1499960609\nexec_timeout   : 20\nafl_banner     : fuzzer-master\nafl_version    : 1.85b\ncommand_line   : /home/skaramcheti/.virtualenvs/afl/bin/afl-unix/afl-fuzz -i /dev/shm/work/NoHiC/input -o /dev/shm/work/NoHiC/sync -m 4G -Q -M fuzzer-master -x /dev/shm/work/NoHiC/NoHiC.dict -- data/linux/processed-challenges/NoHiC/bin/NoHiC\n'
p67
I0
tp68
a(I4080
S'start_time     : 1499960411\nlast_update    : 1499964498\nfuzzer_pid     : 11122\ncycles_done    : 73\nexecs_done     : 4364843\nexecs_per_sec  : 1090.88\npaths_total    : 6\npaths_favored  : 2\npaths_found    : 5\npaths_imported : 0\nmax_depth      : 2\ncur_path       : 0\npending_favs   : 0\npending_total  : 0\nvariable_paths : 0\nbitmap_cvg     : 0.11%\nunique_crashes : 0\nunique_hangs   : 1\nlast_path      : 1499960411\nlast_crash     : 0\nlast_hang      : 1499960609\nexec_timeout   : 20\nafl_banner     : fuzzer-master\nafl_version    : 1.85b\ncommand_line   : /home/skaramcheti/.virtualenvs/afl/bin/afl-unix/afl-fuzz -i /dev/shm/work/NoHiC/input -o /dev/shm/work/NoHiC/sync -m 4G -Q -M fuzzer-master -x /dev/shm/work/NoHiC/NoHiC.dict -- data/linux/processed-challenges/NoHiC/bin/NoHiC\n'
p69
I0
tp70
a(I4200
S'start_time     : 1499960411\nlast_update    : 1499964618\nfuzzer_pid     : 11122\ncycles_done    : 75\nexecs_done     : 4492258\nexecs_per_sec  : 1040.28\npaths_total    : 6\npaths_favored  : 2\npaths_found    : 5\npaths_imported : 0\nmax_depth      : 2\ncur_path       : 0\npending_favs   : 0\npending_total  : 0\nvariable_paths : 0\nbitmap_cvg     : 0.11%\nunique_crashes : 0\nunique_hangs   : 1\nlast_path      : 1499960411\nlast_crash     : 0\nlast_hang      : 1499960609\nexec_timeout   : 20\nafl_banner     : fuzzer-master\nafl_version    : 1.85b\ncommand_line   : /home/skaramcheti/.virtualenvs/afl/bin/afl-unix/afl-fuzz -i /dev/shm/work/NoHiC/input -o /dev/shm/work/NoHiC/sync -m 4G -Q -M fuzzer-master -x /dev/shm/work/NoHiC/NoHiC.dict -- data/linux/processed-challenges/NoHiC/bin/NoHiC\n'
p71
I0
tp72
a(I4320
S'start_time     : 1499960411\nlast_update    : 1499964738\nfuzzer_pid     : 11122\ncycles_done    : 77\nexecs_done     : 4619573\nexecs_per_sec  : 1069.69\npaths_total    : 6\npaths_favored  : 2\npaths_found    : 5\npaths_imported : 0\nmax_depth      : 2\ncur_path       : 1\npending_favs   : 0\npending_total  : 0\nvariable_paths : 0\nbitmap_cvg     : 0.11%\nunique_crashes : 0\nunique_hangs   : 1\nlast_path      : 1499960411\nlast_crash     : 0\nlast_hang      : 1499960609\nexec_timeout   : 20\nafl_banner     : fuzzer-master\nafl_version    : 1.85b\ncommand_line   : /home/skaramcheti/.virtualenvs/afl/bin/afl-unix/afl-fuzz -i /dev/shm/work/NoHiC/input -o /dev/shm/work/NoHiC/sync -m 4G -Q -M fuzzer-master -x /dev/shm/work/NoHiC/NoHiC.dict -- data/linux/processed-challenges/NoHiC/bin/NoHiC\n'
p73
I0
tp74
a(I4440
S'start_time     : 1499960411\nlast_update    : 1499964858\nfuzzer_pid     : 11122\ncycles_done    : 79\nexecs_done     : 4747885\nexecs_per_sec  : 1046.34\npaths_total    : 6\npaths_favored  : 2\npaths_found    : 5\npaths_imported : 0\nmax_depth      : 2\ncur_path       : 1\npending_favs   : 0\npending_total  : 0\nvariable_paths : 0\nbitmap_cvg     : 0.11%\nunique_crashes : 0\nunique_hangs   : 1\nlast_path      : 1499960411\nlast_crash     : 0\nlast_hang      : 1499960609\nexec_timeout   : 20\nafl_banner     : fuzzer-master\nafl_version    : 1.85b\ncommand_line   : /home/skaramcheti/.virtualenvs/afl/bin/afl-unix/afl-fuzz -i /dev/shm/work/NoHiC/input -o /dev/shm/work/NoHiC/sync -m 4G -Q -M fuzzer-master -x /dev/shm/work/NoHiC/NoHiC.dict -- data/linux/processed-challenges/NoHiC/bin/NoHiC\n'
p75
I0
tp76
a(I4560
S'start_time     : 1499960411\nlast_update    : 1499964978\nfuzzer_pid     : 11122\ncycles_done    : 81\nexecs_done     : 4873059\nexecs_per_sec  : 1043.95\npaths_total    : 6\npaths_favored  : 2\npaths_found    : 5\npaths_imported : 0\nmax_depth      : 2\ncur_path       : 1\npending_favs   : 0\npending_total  : 0\nvariable_paths : 0\nbitmap_cvg     : 0.11%\nunique_crashes : 0\nunique_hangs   : 1\nlast_path      : 1499960411\nlast_crash     : 0\nlast_hang      : 1499960609\nexec_timeout   : 20\nafl_banner     : fuzzer-master\nafl_version    : 1.85b\ncommand_line   : /home/skaramcheti/.virtualenvs/afl/bin/afl-unix/afl-fuzz -i /dev/shm/work/NoHiC/input -o /dev/shm/work/NoHiC/sync -m 4G -Q -M fuzzer-master -x /dev/shm/work/NoHiC/NoHiC.dict -- data/linux/processed-challenges/NoHiC/bin/NoHiC\n'
p77
I0
tp78
a(I4680
S'start_time     : 1499960411\nlast_update    : 1499965098\nfuzzer_pid     : 11122\ncycles_done    : 83\nexecs_done     : 4997700\nexecs_per_sec  : 1051.66\npaths_total    : 6\npaths_favored  : 2\npaths_found    : 5\npaths_imported : 0\nmax_depth      : 2\ncur_path       : 1\npending_favs   : 0\npending_total  : 0\nvariable_paths : 0\nbitmap_cvg     : 0.11%\nunique_crashes : 0\nunique_hangs   : 1\nlast_path      : 1499960411\nlast_crash     : 0\nlast_hang      : 1499960609\nexec_timeout   : 20\nafl_banner     : fuzzer-master\nafl_version    : 1.85b\ncommand_line   : /home/skaramcheti/.virtualenvs/afl/bin/afl-unix/afl-fuzz -i /dev/shm/work/NoHiC/input -o /dev/shm/work/NoHiC/sync -m 4G -Q -M fuzzer-master -x /dev/shm/work/NoHiC/NoHiC.dict -- data/linux/processed-challenges/NoHiC/bin/NoHiC\n'
p79
I0
tp80
a(I4800
S'start_time     : 1499960411\nlast_update    : 1499965219\nfuzzer_pid     : 11122\ncycles_done    : 85\nexecs_done     : 5123280\nexecs_per_sec  : 1054.29\npaths_total    : 6\npaths_favored  : 2\npaths_found    : 5\npaths_imported : 0\nmax_depth      : 2\ncur_path       : 2\npending_favs   : 0\npending_total  : 0\nvariable_paths : 0\nbitmap_cvg     : 0.11%\nunique_crashes : 0\nunique_hangs   : 1\nlast_path      : 1499960411\nlast_crash     : 0\nlast_hang      : 1499960609\nexec_timeout   : 20\nafl_banner     : fuzzer-master\nafl_version    : 1.85b\ncommand_line   : /home/skaramcheti/.virtualenvs/afl/bin/afl-unix/afl-fuzz -i /dev/shm/work/NoHiC/input -o /dev/shm/work/NoHiC/sync -m 4G -Q -M fuzzer-master -x /dev/shm/work/NoHiC/NoHiC.dict -- data/linux/processed-challenges/NoHiC/bin/NoHiC\n'
p81
I0
tp82
a(I4920
S'start_time     : 1499960411\nlast_update    : 1499965339\nfuzzer_pid     : 11122\ncycles_done    : 87\nexecs_done     : 5249799\nexecs_per_sec  : 1033.55\npaths_total    : 6\npaths_favored  : 2\npaths_found    : 5\npaths_imported : 0\nmax_depth      : 2\ncur_path       : 2\npending_favs   : 0\npending_total  : 0\nvariable_paths : 0\nbitmap_cvg     : 0.11%\nunique_crashes : 0\nunique_hangs   : 1\nlast_path      : 1499960411\nlast_crash     : 0\nlast_hang      : 1499960609\nexec_timeout   : 20\nafl_banner     : fuzzer-master\nafl_version    : 1.85b\ncommand_line   : /home/skaramcheti/.virtualenvs/afl/bin/afl-unix/afl-fuzz -i /dev/shm/work/NoHiC/input -o /dev/shm/work/NoHiC/sync -m 4G -Q -M fuzzer-master -x /dev/shm/work/NoHiC/NoHiC.dict -- data/linux/processed-challenges/NoHiC/bin/NoHiC\n'
p83
I0
tp84
a(I5040
S'start_time     : 1499960411\nlast_update    : 1499965459\nfuzzer_pid     : 11122\ncycles_done    : 89\nexecs_done     : 5374819\nexecs_per_sec  : 1034.84\npaths_total    : 6\npaths_favored  : 2\npaths_found    : 5\npaths_imported : 0\nmax_depth      : 2\ncur_path       : 3\npending_favs   : 0\npending_total  : 0\nvariable_paths : 0\nbitmap_cvg     : 0.11%\nunique_crashes : 0\nunique_hangs   : 1\nlast_path      : 1499960411\nlast_crash     : 0\nlast_hang      : 1499960609\nexec_timeout   : 20\nafl_banner     : fuzzer-master\nafl_version    : 1.85b\ncommand_line   : /home/skaramcheti/.virtualenvs/afl/bin/afl-unix/afl-fuzz -i /dev/shm/work/NoHiC/input -o /dev/shm/work/NoHiC/sync -m 4G -Q -M fuzzer-master -x /dev/shm/work/NoHiC/NoHiC.dict -- data/linux/processed-challenges/NoHiC/bin/NoHiC\n'
p85
I0
tp86
a(I5160
S'start_time     : 1499960411\nlast_update    : 1499965579\nfuzzer_pid     : 11122\ncycles_done    : 91\nexecs_done     : 5500719\nexecs_per_sec  : 1035.93\npaths_total    : 6\npaths_favored  : 2\npaths_found    : 5\npaths_imported : 0\nmax_depth      : 2\ncur_path       : 4\npending_favs   : 0\npending_total  : 0\nvariable_paths : 0\nbitmap_cvg     : 0.11%\nunique_crashes : 0\nunique_hangs   : 1\nlast_path      : 1499960411\nlast_crash     : 0\nlast_hang      : 1499960609\nexec_timeout   : 20\nafl_banner     : fuzzer-master\nafl_version    : 1.85b\ncommand_line   : /home/skaramcheti/.virtualenvs/afl/bin/afl-unix/afl-fuzz -i /dev/shm/work/NoHiC/input -o /dev/shm/work/NoHiC/sync -m 4G -Q -M fuzzer-master -x /dev/shm/work/NoHiC/NoHiC.dict -- data/linux/processed-challenges/NoHiC/bin/NoHiC\n'
p87
I0
tp88
a(I5280
S'start_time     : 1499960411\nlast_update    : 1499965700\nfuzzer_pid     : 11122\ncycles_done    : 93\nexecs_done     : 5628417\nexecs_per_sec  : 1063.70\npaths_total    : 6\npaths_favored  : 2\npaths_found    : 5\npaths_imported : 0\nmax_depth      : 2\ncur_path       : 5\npending_favs   : 0\npending_total  : 0\nvariable_paths : 0\nbitmap_cvg     : 0.11%\nunique_crashes : 0\nunique_hangs   : 1\nlast_path      : 1499960411\nlast_crash     : 0\nlast_hang      : 1499960609\nexec_timeout   : 20\nafl_banner     : fuzzer-master\nafl_version    : 1.85b\ncommand_line   : /home/skaramcheti/.virtualenvs/afl/bin/afl-unix/afl-fuzz -i /dev/shm/work/NoHiC/input -o /dev/shm/work/NoHiC/sync -m 4G -Q -M fuzzer-master -x /dev/shm/work/NoHiC/NoHiC.dict -- data/linux/processed-challenges/NoHiC/bin/NoHiC\n'
p89
I0
tp90
a(I5400
S'start_time     : 1499960411\nlast_update    : 1499965820\nfuzzer_pid     : 11122\ncycles_done    : 96\nexecs_done     : 5755619\nexecs_per_sec  : 1039.71\npaths_total    : 6\npaths_favored  : 2\npaths_found    : 5\npaths_imported : 0\nmax_depth      : 2\ncur_path       : 0\npending_favs   : 0\npending_total  : 0\nvariable_paths : 0\nbitmap_cvg     : 0.11%\nunique_crashes : 0\nunique_hangs   : 1\nlast_path      : 1499960411\nlast_crash     : 0\nlast_hang      : 1499960609\nexec_timeout   : 20\nafl_banner     : fuzzer-master\nafl_version    : 1.85b\ncommand_line   : /home/skaramcheti/.virtualenvs/afl/bin/afl-unix/afl-fuzz -i /dev/shm/work/NoHiC/input -o /dev/shm/work/NoHiC/sync -m 4G -Q -M fuzzer-master -x /dev/shm/work/NoHiC/NoHiC.dict -- data/linux/processed-challenges/NoHiC/bin/NoHiC\n'
p91
I0
tp92
a(I5520
S'start_time     : 1499960411\nlast_update    : 1499965940\nfuzzer_pid     : 11122\ncycles_done    : 98\nexecs_done     : 5882469\nexecs_per_sec  : 1057.05\npaths_total    : 6\npaths_favored  : 2\npaths_found    : 5\npaths_imported : 0\nmax_depth      : 2\ncur_path       : 0\npending_favs   : 0\npending_total  : 0\nvariable_paths : 0\nbitmap_cvg     : 0.11%\nunique_crashes : 0\nunique_hangs   : 1\nlast_path      : 1499960411\nlast_crash     : 0\nlast_hang      : 1499960609\nexec_timeout   : 20\nafl_banner     : fuzzer-master\nafl_version    : 1.85b\ncommand_line   : /home/skaramcheti/.virtualenvs/afl/bin/afl-unix/afl-fuzz -i /dev/shm/work/NoHiC/input -o /dev/shm/work/NoHiC/sync -m 4G -Q -M fuzzer-master -x /dev/shm/work/NoHiC/NoHiC.dict -- data/linux/processed-challenges/NoHiC/bin/NoHiC\n'
p93
I0
tp94
a(I5640
S'start_time     : 1499960411\nlast_update    : 1499966060\nfuzzer_pid     : 11122\ncycles_done    : 100\nexecs_done     : 6010035\nexecs_per_sec  : 1060.03\npaths_total    : 6\npaths_favored  : 2\npaths_found    : 5\npaths_imported : 0\nmax_depth      : 2\ncur_path       : 1\npending_favs   : 0\npending_total  : 0\nvariable_paths : 0\nbitmap_cvg     : 0.11%\nunique_crashes : 0\nunique_hangs   : 1\nlast_path      : 1499960411\nlast_crash     : 0\nlast_hang      : 1499960609\nexec_timeout   : 20\nafl_banner     : fuzzer-master\nafl_version    : 1.85b\ncommand_line   : /home/skaramcheti/.virtualenvs/afl/bin/afl-unix/afl-fuzz -i /dev/shm/work/NoHiC/input -o /dev/shm/work/NoHiC/sync -m 4G -Q -M fuzzer-master -x /dev/shm/work/NoHiC/NoHiC.dict -- data/linux/processed-challenges/NoHiC/bin/NoHiC\n'
p95
I0
tp96
a(I5760
S'start_time     : 1499960411\nlast_update    : 1499966181\nfuzzer_pid     : 11122\ncycles_done    : 102\nexecs_done     : 6138885\nexecs_per_sec  : 1062.59\npaths_total    : 6\npaths_favored  : 2\npaths_found    : 5\npaths_imported : 0\nmax_depth      : 2\ncur_path       : 1\npending_favs   : 0\npending_total  : 0\nvariable_paths : 0\nbitmap_cvg     : 0.11%\nunique_crashes : 0\nunique_hangs   : 1\nlast_path      : 1499960411\nlast_crash     : 0\nlast_hang      : 1499960609\nexec_timeout   : 20\nafl_banner     : fuzzer-master\nafl_version    : 1.85b\ncommand_line   : /home/skaramcheti/.virtualenvs/afl/bin/afl-unix/afl-fuzz -i /dev/shm/work/NoHiC/input -o /dev/shm/work/NoHiC/sync -m 4G -Q -M fuzzer-master -x /dev/shm/work/NoHiC/NoHiC.dict -- data/linux/processed-challenges/NoHiC/bin/NoHiC\n'
p97
I0
tp98
a(I5880
S'start_time     : 1499960411\nlast_update    : 1499966301\nfuzzer_pid     : 11122\ncycles_done    : 104\nexecs_done     : 6268406\nexecs_per_sec  : 1069.20\npaths_total    : 6\npaths_favored  : 2\npaths_found    : 5\npaths_imported : 0\nmax_depth      : 2\ncur_path       : 2\npending_favs   : 0\npending_total  : 0\nvariable_paths : 0\nbitmap_cvg     : 0.11%\nunique_crashes : 0\nunique_hangs   : 1\nlast_path      : 1499960411\nlast_crash     : 0\nlast_hang      : 1499960609\nexec_timeout   : 20\nafl_banner     : fuzzer-master\nafl_version    : 1.85b\ncommand_line   : /home/skaramcheti/.virtualenvs/afl/bin/afl-unix/afl-fuzz -i /dev/shm/work/NoHiC/input -o /dev/shm/work/NoHiC/sync -m 4G -Q -M fuzzer-master -x /dev/shm/work/NoHiC/NoHiC.dict -- data/linux/processed-challenges/NoHiC/bin/NoHiC\n'
p99
I0
tp100
a(I6000
S'start_time     : 1499960411\nlast_update    : 1499966421\nfuzzer_pid     : 11122\ncycles_done    : 106\nexecs_done     : 6397385\nexecs_per_sec  : 1067.78\npaths_total    : 6\npaths_favored  : 2\npaths_found    : 5\npaths_imported : 0\nmax_depth      : 2\ncur_path       : 2\npending_favs   : 0\npending_total  : 0\nvariable_paths : 0\nbitmap_cvg     : 0.11%\nunique_crashes : 0\nunique_hangs   : 1\nlast_path      : 1499960411\nlast_crash     : 0\nlast_hang      : 1499960609\nexec_timeout   : 20\nafl_banner     : fuzzer-master\nafl_version    : 1.85b\ncommand_line   : /home/skaramcheti/.virtualenvs/afl/bin/afl-unix/afl-fuzz -i /dev/shm/work/NoHiC/input -o /dev/shm/work/NoHiC/sync -m 4G -Q -M fuzzer-master -x /dev/shm/work/NoHiC/NoHiC.dict -- data/linux/processed-challenges/NoHiC/bin/NoHiC\n'
p101
I0
tp102
a(I6120
S'start_time     : 1499960411\nlast_update    : 1499966482\nfuzzer_pid     : 11122\ncycles_done    : 107\nexecs_done     : 6461579\nexecs_per_sec  : 1049.80\npaths_total    : 6\npaths_favored  : 2\npaths_found    : 5\npaths_imported : 0\nmax_depth      : 2\ncur_path       : 3\npending_favs   : 0\npending_total  : 0\nvariable_paths : 0\nbitmap_cvg     : 0.11%\nunique_crashes : 0\nunique_hangs   : 1\nlast_path      : 1499960411\nlast_crash     : 0\nlast_hang      : 1499960609\nexec_timeout   : 20\nafl_banner     : fuzzer-master\nafl_version    : 1.85b\ncommand_line   : /home/skaramcheti/.virtualenvs/afl/bin/afl-unix/afl-fuzz -i /dev/shm/work/NoHiC/input -o /dev/shm/work/NoHiC/sync -m 4G -Q -M fuzzer-master -x /dev/shm/work/NoHiC/NoHiC.dict -- data/linux/processed-challenges/NoHiC/bin/NoHiC\n'
p103
I0
tp104
a(I6240
S'start_time     : 1499960411\nlast_update    : 1499966602\nfuzzer_pid     : 11122\ncycles_done    : 109\nexecs_done     : 6590137\nexecs_per_sec  : 1070.85\npaths_total    : 6\npaths_favored  : 2\npaths_found    : 5\npaths_imported : 0\nmax_depth      : 2\ncur_path       : 4\npending_favs   : 0\npending_total  : 0\nvariable_paths : 0\nbitmap_cvg     : 0.11%\nunique_crashes : 0\nunique_hangs   : 1\nlast_path      : 1499960411\nlast_crash     : 0\nlast_hang      : 1499960609\nexec_timeout   : 20\nafl_banner     : fuzzer-master\nafl_version    : 1.85b\ncommand_line   : /home/skaramcheti/.virtualenvs/afl/bin/afl-unix/afl-fuzz -i /dev/shm/work/NoHiC/input -o /dev/shm/work/NoHiC/sync -m 4G -Q -M fuzzer-master -x /dev/shm/work/NoHiC/NoHiC.dict -- data/linux/processed-challenges/NoHiC/bin/NoHiC\n'
p105
I0
tp106
a(I6360
S'start_time     : 1499960411\nlast_update    : 1499966722\nfuzzer_pid     : 11122\ncycles_done    : 111\nexecs_done     : 6719075\nexecs_per_sec  : 1098.95\npaths_total    : 6\npaths_favored  : 2\npaths_found    : 5\npaths_imported : 0\nmax_depth      : 2\ncur_path       : 5\npending_favs   : 0\npending_total  : 0\nvariable_paths : 0\nbitmap_cvg     : 0.11%\nunique_crashes : 0\nunique_hangs   : 1\nlast_path      : 1499960411\nlast_crash     : 0\nlast_hang      : 1499960609\nexec_timeout   : 20\nafl_banner     : fuzzer-master\nafl_version    : 1.85b\ncommand_line   : /home/skaramcheti/.virtualenvs/afl/bin/afl-unix/afl-fuzz -i /dev/shm/work/NoHiC/input -o /dev/shm/work/NoHiC/sync -m 4G -Q -M fuzzer-master -x /dev/shm/work/NoHiC/NoHiC.dict -- data/linux/processed-challenges/NoHiC/bin/NoHiC\n'
p107
I0
tp108
a(I6480
S'start_time     : 1499960411\nlast_update    : 1499966842\nfuzzer_pid     : 11122\ncycles_done    : 114\nexecs_done     : 6848742\nexecs_per_sec  : 1068.39\npaths_total    : 6\npaths_favored  : 2\npaths_found    : 5\npaths_imported : 0\nmax_depth      : 2\ncur_path       : 0\npending_favs   : 0\npending_total  : 0\nvariable_paths : 0\nbitmap_cvg     : 0.11%\nunique_crashes : 0\nunique_hangs   : 1\nlast_path      : 1499960411\nlast_crash     : 0\nlast_hang      : 1499960609\nexec_timeout   : 20\nafl_banner     : fuzzer-master\nafl_version    : 1.85b\ncommand_line   : /home/skaramcheti/.virtualenvs/afl/bin/afl-unix/afl-fuzz -i /dev/shm/work/NoHiC/input -o /dev/shm/work/NoHiC/sync -m 4G -Q -M fuzzer-master -x /dev/shm/work/NoHiC/NoHiC.dict -- data/linux/processed-challenges/NoHiC/bin/NoHiC\n'
p109
I0
tp110
a(I6600
S'start_time     : 1499960411\nlast_update    : 1499966963\nfuzzer_pid     : 11122\ncycles_done    : 116\nexecs_done     : 6977969\nexecs_per_sec  : 1058.56\npaths_total    : 6\npaths_favored  : 2\npaths_found    : 5\npaths_imported : 0\nmax_depth      : 2\ncur_path       : 1\npending_favs   : 0\npending_total  : 0\nvariable_paths : 0\nbitmap_cvg     : 0.11%\nunique_crashes : 0\nunique_hangs   : 1\nlast_path      : 1499960411\nlast_crash     : 0\nlast_hang      : 1499960609\nexec_timeout   : 20\nafl_banner     : fuzzer-master\nafl_version    : 1.85b\ncommand_line   : /home/skaramcheti/.virtualenvs/afl/bin/afl-unix/afl-fuzz -i /dev/shm/work/NoHiC/input -o /dev/shm/work/NoHiC/sync -m 4G -Q -M fuzzer-master -x /dev/shm/work/NoHiC/NoHiC.dict -- data/linux/processed-challenges/NoHiC/bin/NoHiC\n'
p111
I0
tp112
a(I6720
S'start_time     : 1499960411\nlast_update    : 1499967083\nfuzzer_pid     : 11122\ncycles_done    : 118\nexecs_done     : 7105819\nexecs_per_sec  : 1041.60\npaths_total    : 6\npaths_favored  : 2\npaths_found    : 5\npaths_imported : 0\nmax_depth      : 2\ncur_path       : 1\npending_favs   : 0\npending_total  : 0\nvariable_paths : 0\nbitmap_cvg     : 0.11%\nunique_crashes : 0\nunique_hangs   : 1\nlast_path      : 1499960411\nlast_crash     : 0\nlast_hang      : 1499960609\nexec_timeout   : 20\nafl_banner     : fuzzer-master\nafl_version    : 1.85b\ncommand_line   : /home/skaramcheti/.virtualenvs/afl/bin/afl-unix/afl-fuzz -i /dev/shm/work/NoHiC/input -o /dev/shm/work/NoHiC/sync -m 4G -Q -M fuzzer-master -x /dev/shm/work/NoHiC/NoHiC.dict -- data/linux/processed-challenges/NoHiC/bin/NoHiC\n'
p113
I0
tp114
a(I6840
S'start_time     : 1499960411\nlast_update    : 1499967203\nfuzzer_pid     : 11122\ncycles_done    : 120\nexecs_done     : 7234421\nexecs_per_sec  : 1066.45\npaths_total    : 6\npaths_favored  : 2\npaths_found    : 5\npaths_imported : 0\nmax_depth      : 2\ncur_path       : 2\npending_favs   : 0\npending_total  : 0\nvariable_paths : 0\nbitmap_cvg     : 0.11%\nunique_crashes : 0\nunique_hangs   : 1\nlast_path      : 1499960411\nlast_crash     : 0\nlast_hang      : 1499960609\nexec_timeout   : 20\nafl_banner     : fuzzer-master\nafl_version    : 1.85b\ncommand_line   : /home/skaramcheti/.virtualenvs/afl/bin/afl-unix/afl-fuzz -i /dev/shm/work/NoHiC/input -o /dev/shm/work/NoHiC/sync -m 4G -Q -M fuzzer-master -x /dev/shm/work/NoHiC/NoHiC.dict -- data/linux/processed-challenges/NoHiC/bin/NoHiC\n'
p115
I0
tp116
a(I6960
S'start_time     : 1499960411\nlast_update    : 1499967323\nfuzzer_pid     : 11122\ncycles_done    : 122\nexecs_done     : 7364581\nexecs_per_sec  : 1105.39\npaths_total    : 6\npaths_favored  : 2\npaths_found    : 5\npaths_imported : 0\nmax_depth      : 2\ncur_path       : 3\npending_favs   : 0\npending_total  : 0\nvariable_paths : 0\nbitmap_cvg     : 0.11%\nunique_crashes : 0\nunique_hangs   : 1\nlast_path      : 1499960411\nlast_crash     : 0\nlast_hang      : 1499960609\nexec_timeout   : 20\nafl_banner     : fuzzer-master\nafl_version    : 1.85b\ncommand_line   : /home/skaramcheti/.virtualenvs/afl/bin/afl-unix/afl-fuzz -i /dev/shm/work/NoHiC/input -o /dev/shm/work/NoHiC/sync -m 4G -Q -M fuzzer-master -x /dev/shm/work/NoHiC/NoHiC.dict -- data/linux/processed-challenges/NoHiC/bin/NoHiC\n'
p117
I0
tp118
a(I7080
S'start_time     : 1499960411\nlast_update    : 1499967443\nfuzzer_pid     : 11122\ncycles_done    : 124\nexecs_done     : 7494258\nexecs_per_sec  : 1054.68\npaths_total    : 6\npaths_favored  : 2\npaths_found    : 5\npaths_imported : 0\nmax_depth      : 2\ncur_path       : 4\npending_favs   : 0\npending_total  : 0\nvariable_paths : 0\nbitmap_cvg     : 0.11%\nunique_crashes : 0\nunique_hangs   : 1\nlast_path      : 1499960411\nlast_crash     : 0\nlast_hang      : 1499960609\nexec_timeout   : 20\nafl_banner     : fuzzer-master\nafl_version    : 1.85b\ncommand_line   : /home/skaramcheti/.virtualenvs/afl/bin/afl-unix/afl-fuzz -i /dev/shm/work/NoHiC/input -o /dev/shm/work/NoHiC/sync -m 4G -Q -M fuzzer-master -x /dev/shm/work/NoHiC/NoHiC.dict -- data/linux/processed-challenges/NoHiC/bin/NoHiC\n'
p119
I0
tp120
a(I7200
S'start_time     : 1499960411\nlast_update    : 1499967564\nfuzzer_pid     : 11122\ncycles_done    : 126\nexecs_done     : 7623682\nexecs_per_sec  : 1092.59\npaths_total    : 6\npaths_favored  : 2\npaths_found    : 5\npaths_imported : 0\nmax_depth      : 2\ncur_path       : 5\npending_favs   : 0\npending_total  : 0\nvariable_paths : 0\nbitmap_cvg     : 0.11%\nunique_crashes : 0\nunique_hangs   : 1\nlast_path      : 1499960411\nlast_crash     : 0\nlast_hang      : 1499960609\nexec_timeout   : 20\nafl_banner     : fuzzer-master\nafl_version    : 1.85b\ncommand_line   : /home/skaramcheti/.virtualenvs/afl/bin/afl-unix/afl-fuzz -i /dev/shm/work/NoHiC/input -o /dev/shm/work/NoHiC/sync -m 4G -Q -M fuzzer-master -x /dev/shm/work/NoHiC/NoHiC.dict -- data/linux/processed-challenges/NoHiC/bin/NoHiC\n'
p121
I0
tp122
a(I7320
S'start_time     : 1499960411\nlast_update    : 1499967684\nfuzzer_pid     : 11122\ncycles_done    : 129\nexecs_done     : 7752859\nexecs_per_sec  : 1051.65\npaths_total    : 6\npaths_favored  : 2\npaths_found    : 5\npaths_imported : 0\nmax_depth      : 2\ncur_path       : 0\npending_favs   : 0\npending_total  : 0\nvariable_paths : 0\nbitmap_cvg     : 0.11%\nunique_crashes : 0\nunique_hangs   : 1\nlast_path      : 1499960411\nlast_crash     : 0\nlast_hang      : 1499960609\nexec_timeout   : 20\nafl_banner     : fuzzer-master\nafl_version    : 1.85b\ncommand_line   : /home/skaramcheti/.virtualenvs/afl/bin/afl-unix/afl-fuzz -i /dev/shm/work/NoHiC/input -o /dev/shm/work/NoHiC/sync -m 4G -Q -M fuzzer-master -x /dev/shm/work/NoHiC/NoHiC.dict -- data/linux/processed-challenges/NoHiC/bin/NoHiC\n'
p123
I0
tp124
a(I7440
S'start_time     : 1499960411\nlast_update    : 1499967804\nfuzzer_pid     : 11122\ncycles_done    : 131\nexecs_done     : 7880585\nexecs_per_sec  : 1084.84\npaths_total    : 6\npaths_favored  : 2\npaths_found    : 5\npaths_imported : 0\nmax_depth      : 2\ncur_path       : 1\npending_favs   : 0\npending_total  : 0\nvariable_paths : 0\nbitmap_cvg     : 0.11%\nunique_crashes : 0\nunique_hangs   : 1\nlast_path      : 1499960411\nlast_crash     : 0\nlast_hang      : 1499960609\nexec_timeout   : 20\nafl_banner     : fuzzer-master\nafl_version    : 1.85b\ncommand_line   : /home/skaramcheti/.virtualenvs/afl/bin/afl-unix/afl-fuzz -i /dev/shm/work/NoHiC/input -o /dev/shm/work/NoHiC/sync -m 4G -Q -M fuzzer-master -x /dev/shm/work/NoHiC/NoHiC.dict -- data/linux/processed-challenges/NoHiC/bin/NoHiC\n'
p125
I0
tp126
a(I7560
S'start_time     : 1499960411\nlast_update    : 1499967924\nfuzzer_pid     : 11122\ncycles_done    : 133\nexecs_done     : 8009179\nexecs_per_sec  : 1072.16\npaths_total    : 6\npaths_favored  : 2\npaths_found    : 5\npaths_imported : 0\nmax_depth      : 2\ncur_path       : 1\npending_favs   : 0\npending_total  : 0\nvariable_paths : 0\nbitmap_cvg     : 0.11%\nunique_crashes : 0\nunique_hangs   : 1\nlast_path      : 1499960411\nlast_crash     : 0\nlast_hang      : 1499960609\nexec_timeout   : 20\nafl_banner     : fuzzer-master\nafl_version    : 1.85b\ncommand_line   : /home/skaramcheti/.virtualenvs/afl/bin/afl-unix/afl-fuzz -i /dev/shm/work/NoHiC/input -o /dev/shm/work/NoHiC/sync -m 4G -Q -M fuzzer-master -x /dev/shm/work/NoHiC/NoHiC.dict -- data/linux/processed-challenges/NoHiC/bin/NoHiC\n'
p127
I0
tp128
a(I7680
S'start_time     : 1499960411\nlast_update    : 1499968044\nfuzzer_pid     : 11122\ncycles_done    : 135\nexecs_done     : 8137397\nexecs_per_sec  : 1080.02\npaths_total    : 6\npaths_favored  : 2\npaths_found    : 5\npaths_imported : 0\nmax_depth      : 2\ncur_path       : 2\npending_favs   : 0\npending_total  : 0\nvariable_paths : 0\nbitmap_cvg     : 0.11%\nunique_crashes : 0\nunique_hangs   : 1\nlast_path      : 1499960411\nlast_crash     : 0\nlast_hang      : 1499960609\nexec_timeout   : 20\nafl_banner     : fuzzer-master\nafl_version    : 1.85b\ncommand_line   : /home/skaramcheti/.virtualenvs/afl/bin/afl-unix/afl-fuzz -i /dev/shm/work/NoHiC/input -o /dev/shm/work/NoHiC/sync -m 4G -Q -M fuzzer-master -x /dev/shm/work/NoHiC/NoHiC.dict -- data/linux/processed-challenges/NoHiC/bin/NoHiC\n'
p129
I0
tp130
a(I7800
S'start_time     : 1499960411\nlast_update    : 1499968165\nfuzzer_pid     : 11122\ncycles_done    : 137\nexecs_done     : 8267120\nexecs_per_sec  : 1099.73\npaths_total    : 6\npaths_favored  : 2\npaths_found    : 5\npaths_imported : 0\nmax_depth      : 2\ncur_path       : 3\npending_favs   : 0\npending_total  : 0\nvariable_paths : 0\nbitmap_cvg     : 0.11%\nunique_crashes : 0\nunique_hangs   : 1\nlast_path      : 1499960411\nlast_crash     : 0\nlast_hang      : 1499960609\nexec_timeout   : 20\nafl_banner     : fuzzer-master\nafl_version    : 1.85b\ncommand_line   : /home/skaramcheti/.virtualenvs/afl/bin/afl-unix/afl-fuzz -i /dev/shm/work/NoHiC/input -o /dev/shm/work/NoHiC/sync -m 4G -Q -M fuzzer-master -x /dev/shm/work/NoHiC/NoHiC.dict -- data/linux/processed-challenges/NoHiC/bin/NoHiC\n'
p131
I0
tp132
a(I7920
S'start_time     : 1499960411\nlast_update    : 1499968285\nfuzzer_pid     : 11122\ncycles_done    : 139\nexecs_done     : 8394301\nexecs_per_sec  : 1058.22\npaths_total    : 6\npaths_favored  : 2\npaths_found    : 5\npaths_imported : 0\nmax_depth      : 2\ncur_path       : 4\npending_favs   : 0\npending_total  : 0\nvariable_paths : 0\nbitmap_cvg     : 0.11%\nunique_crashes : 0\nunique_hangs   : 1\nlast_path      : 1499960411\nlast_crash     : 0\nlast_hang      : 1499960609\nexec_timeout   : 20\nafl_banner     : fuzzer-master\nafl_version    : 1.85b\ncommand_line   : /home/skaramcheti/.virtualenvs/afl/bin/afl-unix/afl-fuzz -i /dev/shm/work/NoHiC/input -o /dev/shm/work/NoHiC/sync -m 4G -Q -M fuzzer-master -x /dev/shm/work/NoHiC/NoHiC.dict -- data/linux/processed-challenges/NoHiC/bin/NoHiC\n'
p133
I0
tp134
a(I8040
S'start_time     : 1499960411\nlast_update    : 1499968405\nfuzzer_pid     : 11122\ncycles_done    : 141\nexecs_done     : 8522639\nexecs_per_sec  : 1051.36\npaths_total    : 6\npaths_favored  : 2\npaths_found    : 5\npaths_imported : 0\nmax_depth      : 2\ncur_path       : 4\npending_favs   : 0\npending_total  : 0\nvariable_paths : 0\nbitmap_cvg     : 0.11%\nunique_crashes : 0\nunique_hangs   : 1\nlast_path      : 1499960411\nlast_crash     : 0\nlast_hang      : 1499960609\nexec_timeout   : 20\nafl_banner     : fuzzer-master\nafl_version    : 1.85b\ncommand_line   : /home/skaramcheti/.virtualenvs/afl/bin/afl-unix/afl-fuzz -i /dev/shm/work/NoHiC/input -o /dev/shm/work/NoHiC/sync -m 4G -Q -M fuzzer-master -x /dev/shm/work/NoHiC/NoHiC.dict -- data/linux/processed-challenges/NoHiC/bin/NoHiC\n'
p135
I0
tp136
a(I8160
S'start_time     : 1499960411\nlast_update    : 1499968525\nfuzzer_pid     : 11122\ncycles_done    : 144\nexecs_done     : 8650868\nexecs_per_sec  : 1097.42\npaths_total    : 6\npaths_favored  : 2\npaths_found    : 5\npaths_imported : 0\nmax_depth      : 2\ncur_path       : 0\npending_favs   : 0\npending_total  : 0\nvariable_paths : 0\nbitmap_cvg     : 0.11%\nunique_crashes : 0\nunique_hangs   : 1\nlast_path      : 1499960411\nlast_crash     : 0\nlast_hang      : 1499960609\nexec_timeout   : 20\nafl_banner     : fuzzer-master\nafl_version    : 1.85b\ncommand_line   : /home/skaramcheti/.virtualenvs/afl/bin/afl-unix/afl-fuzz -i /dev/shm/work/NoHiC/input -o /dev/shm/work/NoHiC/sync -m 4G -Q -M fuzzer-master -x /dev/shm/work/NoHiC/NoHiC.dict -- data/linux/processed-challenges/NoHiC/bin/NoHiC\n'
p137
I0
tp138
a(I8280
S'start_time     : 1499960411\nlast_update    : 1499968645\nfuzzer_pid     : 11122\ncycles_done    : 146\nexecs_done     : 8779758\nexecs_per_sec  : 1057.44\npaths_total    : 6\npaths_favored  : 2\npaths_found    : 5\npaths_imported : 0\nmax_depth      : 2\ncur_path       : 0\npending_favs   : 0\npending_total  : 0\nvariable_paths : 0\nbitmap_cvg     : 0.11%\nunique_crashes : 0\nunique_hangs   : 1\nlast_path      : 1499960411\nlast_crash     : 0\nlast_hang      : 1499960609\nexec_timeout   : 20\nafl_banner     : fuzzer-master\nafl_version    : 1.85b\ncommand_line   : /home/skaramcheti/.virtualenvs/afl/bin/afl-unix/afl-fuzz -i /dev/shm/work/NoHiC/input -o /dev/shm/work/NoHiC/sync -m 4G -Q -M fuzzer-master -x /dev/shm/work/NoHiC/NoHiC.dict -- data/linux/processed-challenges/NoHiC/bin/NoHiC\n'
p139
I0
tp140
a(I8400
S'start_time     : 1499960411\nlast_update    : 1499968766\nfuzzer_pid     : 11122\ncycles_done    : 148\nexecs_done     : 8909980\nexecs_per_sec  : 1077.42\npaths_total    : 6\npaths_favored  : 2\npaths_found    : 5\npaths_imported : 0\nmax_depth      : 2\ncur_path       : 1\npending_favs   : 0\npending_total  : 0\nvariable_paths : 0\nbitmap_cvg     : 0.11%\nunique_crashes : 0\nunique_hangs   : 1\nlast_path      : 1499960411\nlast_crash     : 0\nlast_hang      : 1499960609\nexec_timeout   : 20\nafl_banner     : fuzzer-master\nafl_version    : 1.85b\ncommand_line   : /home/skaramcheti/.virtualenvs/afl/bin/afl-unix/afl-fuzz -i /dev/shm/work/NoHiC/input -o /dev/shm/work/NoHiC/sync -m 4G -Q -M fuzzer-master -x /dev/shm/work/NoHiC/NoHiC.dict -- data/linux/processed-challenges/NoHiC/bin/NoHiC\n'
p141
I0
tp142
a(I8520
S'start_time     : 1499960411\nlast_update    : 1499968886\nfuzzer_pid     : 11122\ncycles_done    : 150\nexecs_done     : 9040990\nexecs_per_sec  : 1078.31\npaths_total    : 6\npaths_favored  : 2\npaths_found    : 5\npaths_imported : 0\nmax_depth      : 2\ncur_path       : 2\npending_favs   : 0\npending_total  : 0\nvariable_paths : 0\nbitmap_cvg     : 0.11%\nunique_crashes : 0\nunique_hangs   : 1\nlast_path      : 1499960411\nlast_crash     : 0\nlast_hang      : 1499960609\nexec_timeout   : 20\nafl_banner     : fuzzer-master\nafl_version    : 1.85b\ncommand_line   : /home/skaramcheti/.virtualenvs/afl/bin/afl-unix/afl-fuzz -i /dev/shm/work/NoHiC/input -o /dev/shm/work/NoHiC/sync -m 4G -Q -M fuzzer-master -x /dev/shm/work/NoHiC/NoHiC.dict -- data/linux/processed-challenges/NoHiC/bin/NoHiC\n'
p143
I0
tp144
a(I8640
S'start_time     : 1499960411\nlast_update    : 1499969006\nfuzzer_pid     : 11122\ncycles_done    : 152\nexecs_done     : 9171586\nexecs_per_sec  : 1089.60\npaths_total    : 6\npaths_favored  : 2\npaths_found    : 5\npaths_imported : 0\nmax_depth      : 2\ncur_path       : 3\npending_favs   : 0\npending_total  : 0\nvariable_paths : 0\nbitmap_cvg     : 0.11%\nunique_crashes : 0\nunique_hangs   : 1\nlast_path      : 1499960411\nlast_crash     : 0\nlast_hang      : 1499960609\nexec_timeout   : 20\nafl_banner     : fuzzer-master\nafl_version    : 1.85b\ncommand_line   : /home/skaramcheti/.virtualenvs/afl/bin/afl-unix/afl-fuzz -i /dev/shm/work/NoHiC/input -o /dev/shm/work/NoHiC/sync -m 4G -Q -M fuzzer-master -x /dev/shm/work/NoHiC/NoHiC.dict -- data/linux/processed-challenges/NoHiC/bin/NoHiC\n'
p145
I0
tp146
a(I8760
S'start_time     : 1499960411\nlast_update    : 1499969126\nfuzzer_pid     : 11122\ncycles_done    : 154\nexecs_done     : 9301913\nexecs_per_sec  : 1115.29\npaths_total    : 6\npaths_favored  : 2\npaths_found    : 5\npaths_imported : 0\nmax_depth      : 2\ncur_path       : 4\npending_favs   : 0\npending_total  : 0\nvariable_paths : 0\nbitmap_cvg     : 0.11%\nunique_crashes : 0\nunique_hangs   : 1\nlast_path      : 1499960411\nlast_crash     : 0\nlast_hang      : 1499960609\nexec_timeout   : 20\nafl_banner     : fuzzer-master\nafl_version    : 1.85b\ncommand_line   : /home/skaramcheti/.virtualenvs/afl/bin/afl-unix/afl-fuzz -i /dev/shm/work/NoHiC/input -o /dev/shm/work/NoHiC/sync -m 4G -Q -M fuzzer-master -x /dev/shm/work/NoHiC/NoHiC.dict -- data/linux/processed-challenges/NoHiC/bin/NoHiC\n'
p147
I0
tp148
a(I8880
S'start_time     : 1499960411\nlast_update    : 1499969246\nfuzzer_pid     : 11122\ncycles_done    : 156\nexecs_done     : 9430519\nexecs_per_sec  : 1045.99\npaths_total    : 6\npaths_favored  : 2\npaths_found    : 5\npaths_imported : 0\nmax_depth      : 2\ncur_path       : 5\npending_favs   : 0\npending_total  : 0\nvariable_paths : 0\nbitmap_cvg     : 0.11%\nunique_crashes : 0\nunique_hangs   : 1\nlast_path      : 1499960411\nlast_crash     : 0\nlast_hang      : 1499960609\nexec_timeout   : 20\nafl_banner     : fuzzer-master\nafl_version    : 1.85b\ncommand_line   : /home/skaramcheti/.virtualenvs/afl/bin/afl-unix/afl-fuzz -i /dev/shm/work/NoHiC/input -o /dev/shm/work/NoHiC/sync -m 4G -Q -M fuzzer-master -x /dev/shm/work/NoHiC/NoHiC.dict -- data/linux/processed-challenges/NoHiC/bin/NoHiC\n'
p149
I0
tp150
a(I9000
S'start_time     : 1499960411\nlast_update    : 1499969366\nfuzzer_pid     : 11122\ncycles_done    : 159\nexecs_done     : 9561807\nexecs_per_sec  : 1111.92\npaths_total    : 6\npaths_favored  : 2\npaths_found    : 5\npaths_imported : 0\nmax_depth      : 2\ncur_path       : 0\npending_favs   : 0\npending_total  : 0\nvariable_paths : 0\nbitmap_cvg     : 0.11%\nunique_crashes : 0\nunique_hangs   : 1\nlast_path      : 1499960411\nlast_crash     : 0\nlast_hang      : 1499960609\nexec_timeout   : 20\nafl_banner     : fuzzer-master\nafl_version    : 1.85b\ncommand_line   : /home/skaramcheti/.virtualenvs/afl/bin/afl-unix/afl-fuzz -i /dev/shm/work/NoHiC/input -o /dev/shm/work/NoHiC/sync -m 4G -Q -M fuzzer-master -x /dev/shm/work/NoHiC/NoHiC.dict -- data/linux/processed-challenges/NoHiC/bin/NoHiC\n'
p151
I0
tp152
a(I9120
S'start_time     : 1499960411\nlast_update    : 1499969487\nfuzzer_pid     : 11122\ncycles_done    : 161\nexecs_done     : 9691574\nexecs_per_sec  : 1093.81\npaths_total    : 6\npaths_favored  : 2\npaths_found    : 5\npaths_imported : 0\nmax_depth      : 2\ncur_path       : 0\npending_favs   : 0\npending_total  : 0\nvariable_paths : 0\nbitmap_cvg     : 0.11%\nunique_crashes : 0\nunique_hangs   : 1\nlast_path      : 1499960411\nlast_crash     : 0\nlast_hang      : 1499960609\nexec_timeout   : 20\nafl_banner     : fuzzer-master\nafl_version    : 1.85b\ncommand_line   : /home/skaramcheti/.virtualenvs/afl/bin/afl-unix/afl-fuzz -i /dev/shm/work/NoHiC/input -o /dev/shm/work/NoHiC/sync -m 4G -Q -M fuzzer-master -x /dev/shm/work/NoHiC/NoHiC.dict -- data/linux/processed-challenges/NoHiC/bin/NoHiC\n'
p153
I0
tp154
a(I9240
S'start_time     : 1499960411\nlast_update    : 1499969607\nfuzzer_pid     : 11122\ncycles_done    : 163\nexecs_done     : 9823435\nexecs_per_sec  : 1122.28\npaths_total    : 6\npaths_favored  : 2\npaths_found    : 5\npaths_imported : 0\nmax_depth      : 2\ncur_path       : 1\npending_favs   : 0\npending_total  : 0\nvariable_paths : 0\nbitmap_cvg     : 0.11%\nunique_crashes : 0\nunique_hangs   : 1\nlast_path      : 1499960411\nlast_crash     : 0\nlast_hang      : 1499960609\nexec_timeout   : 20\nafl_banner     : fuzzer-master\nafl_version    : 1.85b\ncommand_line   : /home/skaramcheti/.virtualenvs/afl/bin/afl-unix/afl-fuzz -i /dev/shm/work/NoHiC/input -o /dev/shm/work/NoHiC/sync -m 4G -Q -M fuzzer-master -x /dev/shm/work/NoHiC/NoHiC.dict -- data/linux/processed-challenges/NoHiC/bin/NoHiC\n'
p155
I0
tp156
a(I9360
S'start_time     : 1499960411\nlast_update    : 1499969727\nfuzzer_pid     : 11122\ncycles_done    : 165\nexecs_done     : 9954817\nexecs_per_sec  : 1085.48\npaths_total    : 6\npaths_favored  : 2\npaths_found    : 5\npaths_imported : 0\nmax_depth      : 2\ncur_path       : 2\npending_favs   : 0\npending_total  : 0\nvariable_paths : 0\nbitmap_cvg     : 0.11%\nunique_crashes : 0\nunique_hangs   : 1\nlast_path      : 1499960411\nlast_crash     : 0\nlast_hang      : 1499960609\nexec_timeout   : 20\nafl_banner     : fuzzer-master\nafl_version    : 1.85b\ncommand_line   : /home/skaramcheti/.virtualenvs/afl/bin/afl-unix/afl-fuzz -i /dev/shm/work/NoHiC/input -o /dev/shm/work/NoHiC/sync -m 4G -Q -M fuzzer-master -x /dev/shm/work/NoHiC/NoHiC.dict -- data/linux/processed-challenges/NoHiC/bin/NoHiC\n'
p157
I0
tp158
a(I9480
S'start_time     : 1499960411\nlast_update    : 1499969847\nfuzzer_pid     : 11122\ncycles_done    : 167\nexecs_done     : 10087043\nexecs_per_sec  : 1117.67\npaths_total    : 6\npaths_favored  : 2\npaths_found    : 5\npaths_imported : 0\nmax_depth      : 2\ncur_path       : 3\npending_favs   : 0\npending_total  : 0\nvariable_paths : 0\nbitmap_cvg     : 0.11%\nunique_crashes : 0\nunique_hangs   : 1\nlast_path      : 1499960411\nlast_crash     : 0\nlast_hang      : 1499960609\nexec_timeout   : 20\nafl_banner     : fuzzer-master\nafl_version    : 1.85b\ncommand_line   : /home/skaramcheti/.virtualenvs/afl/bin/afl-unix/afl-fuzz -i /dev/shm/work/NoHiC/input -o /dev/shm/work/NoHiC/sync -m 4G -Q -M fuzzer-master -x /dev/shm/work/NoHiC/NoHiC.dict -- data/linux/processed-challenges/NoHiC/bin/NoHiC\n'
p159
I0
tp160
a(I9600
S'start_time     : 1499960411\nlast_update    : 1499969967\nfuzzer_pid     : 11122\ncycles_done    : 169\nexecs_done     : 10219132\nexecs_per_sec  : 1100.57\npaths_total    : 6\npaths_favored  : 2\npaths_found    : 5\npaths_imported : 0\nmax_depth      : 2\ncur_path       : 5\npending_favs   : 0\npending_total  : 0\nvariable_paths : 0\nbitmap_cvg     : 0.11%\nunique_crashes : 0\nunique_hangs   : 1\nlast_path      : 1499960411\nlast_crash     : 0\nlast_hang      : 1499960609\nexec_timeout   : 20\nafl_banner     : fuzzer-master\nafl_version    : 1.85b\ncommand_line   : /home/skaramcheti/.virtualenvs/afl/bin/afl-unix/afl-fuzz -i /dev/shm/work/NoHiC/input -o /dev/shm/work/NoHiC/sync -m 4G -Q -M fuzzer-master -x /dev/shm/work/NoHiC/NoHiC.dict -- data/linux/processed-challenges/NoHiC/bin/NoHiC\n'
p161
I0
tp162
a(I9720
S'start_time     : 1499960411\nlast_update    : 1499970088\nfuzzer_pid     : 11122\ncycles_done    : 172\nexecs_done     : 10350413\nexecs_per_sec  : 1094.46\npaths_total    : 6\npaths_favored  : 2\npaths_found    : 5\npaths_imported : 0\nmax_depth      : 2\ncur_path       : 0\npending_favs   : 0\npending_total  : 0\nvariable_paths : 0\nbitmap_cvg     : 0.11%\nunique_crashes : 0\nunique_hangs   : 1\nlast_path      : 1499960411\nlast_crash     : 0\nlast_hang      : 1499960609\nexec_timeout   : 20\nafl_banner     : fuzzer-master\nafl_version    : 1.85b\ncommand_line   : /home/skaramcheti/.virtualenvs/afl/bin/afl-unix/afl-fuzz -i /dev/shm/work/NoHiC/input -o /dev/shm/work/NoHiC/sync -m 4G -Q -M fuzzer-master -x /dev/shm/work/NoHiC/NoHiC.dict -- data/linux/processed-challenges/NoHiC/bin/NoHiC\n'
p163
I0
tp164
a(I9840
S'start_time     : 1499960411\nlast_update    : 1499970208\nfuzzer_pid     : 11122\ncycles_done    : 174\nexecs_done     : 10480577\nexecs_per_sec  : 1083.14\npaths_total    : 6\npaths_favored  : 2\npaths_found    : 5\npaths_imported : 0\nmax_depth      : 2\ncur_path       : 1\npending_favs   : 0\npending_total  : 0\nvariable_paths : 0\nbitmap_cvg     : 0.11%\nunique_crashes : 0\nunique_hangs   : 1\nlast_path      : 1499960411\nlast_crash     : 0\nlast_hang      : 1499960609\nexec_timeout   : 20\nafl_banner     : fuzzer-master\nafl_version    : 1.85b\ncommand_line   : /home/skaramcheti/.virtualenvs/afl/bin/afl-unix/afl-fuzz -i /dev/shm/work/NoHiC/input -o /dev/shm/work/NoHiC/sync -m 4G -Q -M fuzzer-master -x /dev/shm/work/NoHiC/NoHiC.dict -- data/linux/processed-challenges/NoHiC/bin/NoHiC\n'
p165
I0
tp166
a(I9960
S'start_time     : 1499960411\nlast_update    : 1499970328\nfuzzer_pid     : 11122\ncycles_done    : 176\nexecs_done     : 10611537\nexecs_per_sec  : 1110.83\npaths_total    : 6\npaths_favored  : 2\npaths_found    : 5\npaths_imported : 0\nmax_depth      : 2\ncur_path       : 2\npending_favs   : 0\npending_total  : 0\nvariable_paths : 0\nbitmap_cvg     : 0.11%\nunique_crashes : 0\nunique_hangs   : 1\nlast_path      : 1499960411\nlast_crash     : 0\nlast_hang      : 1499960609\nexec_timeout   : 20\nafl_banner     : fuzzer-master\nafl_version    : 1.85b\ncommand_line   : /home/skaramcheti/.virtualenvs/afl/bin/afl-unix/afl-fuzz -i /dev/shm/work/NoHiC/input -o /dev/shm/work/NoHiC/sync -m 4G -Q -M fuzzer-master -x /dev/shm/work/NoHiC/NoHiC.dict -- data/linux/processed-challenges/NoHiC/bin/NoHiC\n'
p167
I0
tp168
a(I10080
S'start_time     : 1499960411\nlast_update    : 1499970448\nfuzzer_pid     : 11122\ncycles_done    : 178\nexecs_done     : 10742893\nexecs_per_sec  : 1077.80\npaths_total    : 6\npaths_favored  : 2\npaths_found    : 5\npaths_imported : 0\nmax_depth      : 2\ncur_path       : 4\npending_favs   : 0\npending_total  : 0\nvariable_paths : 0\nbitmap_cvg     : 0.11%\nunique_crashes : 0\nunique_hangs   : 1\nlast_path      : 1499960411\nlast_crash     : 0\nlast_hang      : 1499960609\nexec_timeout   : 20\nafl_banner     : fuzzer-master\nafl_version    : 1.85b\ncommand_line   : /home/skaramcheti/.virtualenvs/afl/bin/afl-unix/afl-fuzz -i /dev/shm/work/NoHiC/input -o /dev/shm/work/NoHiC/sync -m 4G -Q -M fuzzer-master -x /dev/shm/work/NoHiC/NoHiC.dict -- data/linux/processed-challenges/NoHiC/bin/NoHiC\n'
p169
I0
tp170
a(I10200
S'start_time     : 1499960411\nlast_update    : 1499970568\nfuzzer_pid     : 11122\ncycles_done    : 180\nexecs_done     : 10873758\nexecs_per_sec  : 1066.13\npaths_total    : 6\npaths_favored  : 2\npaths_found    : 5\npaths_imported : 0\nmax_depth      : 2\ncur_path       : 4\npending_favs   : 0\npending_total  : 0\nvariable_paths : 0\nbitmap_cvg     : 0.11%\nunique_crashes : 0\nunique_hangs   : 1\nlast_path      : 1499960411\nlast_crash     : 0\nlast_hang      : 1499960609\nexec_timeout   : 20\nafl_banner     : fuzzer-master\nafl_version    : 1.85b\ncommand_line   : /home/skaramcheti/.virtualenvs/afl/bin/afl-unix/afl-fuzz -i /dev/shm/work/NoHiC/input -o /dev/shm/work/NoHiC/sync -m 4G -Q -M fuzzer-master -x /dev/shm/work/NoHiC/NoHiC.dict -- data/linux/processed-challenges/NoHiC/bin/NoHiC\n'
p171
I0
tp172
a(I10320
S'start_time     : 1499960411\nlast_update    : 1499970688\nfuzzer_pid     : 11122\ncycles_done    : 183\nexecs_done     : 11004939\nexecs_per_sec  : 1104.05\npaths_total    : 6\npaths_favored  : 2\npaths_found    : 5\npaths_imported : 0\nmax_depth      : 2\ncur_path       : 0\npending_favs   : 0\npending_total  : 0\nvariable_paths : 0\nbitmap_cvg     : 0.11%\nunique_crashes : 0\nunique_hangs   : 1\nlast_path      : 1499960411\nlast_crash     : 0\nlast_hang      : 1499960609\nexec_timeout   : 20\nafl_banner     : fuzzer-master\nafl_version    : 1.85b\ncommand_line   : /home/skaramcheti/.virtualenvs/afl/bin/afl-unix/afl-fuzz -i /dev/shm/work/NoHiC/input -o /dev/shm/work/NoHiC/sync -m 4G -Q -M fuzzer-master -x /dev/shm/work/NoHiC/NoHiC.dict -- data/linux/processed-challenges/NoHiC/bin/NoHiC\n'
p173
I0
tp174
a(I10440
S'start_time     : 1499960411\nlast_update    : 1499970809\nfuzzer_pid     : 11122\ncycles_done    : 185\nexecs_done     : 11136233\nexecs_per_sec  : 1071.53\npaths_total    : 6\npaths_favored  : 2\npaths_found    : 5\npaths_imported : 0\nmax_depth      : 2\ncur_path       : 1\npending_favs   : 0\npending_total  : 0\nvariable_paths : 0\nbitmap_cvg     : 0.11%\nunique_crashes : 0\nunique_hangs   : 1\nlast_path      : 1499960411\nlast_crash     : 0\nlast_hang      : 1499960609\nexec_timeout   : 20\nafl_banner     : fuzzer-master\nafl_version    : 1.85b\ncommand_line   : /home/skaramcheti/.virtualenvs/afl/bin/afl-unix/afl-fuzz -i /dev/shm/work/NoHiC/input -o /dev/shm/work/NoHiC/sync -m 4G -Q -M fuzzer-master -x /dev/shm/work/NoHiC/NoHiC.dict -- data/linux/processed-challenges/NoHiC/bin/NoHiC\n'
p175
I0
tp176
a(I10560
S'start_time     : 1499960411\nlast_update    : 1499970929\nfuzzer_pid     : 11122\ncycles_done    : 187\nexecs_done     : 11268811\nexecs_per_sec  : 1113.60\npaths_total    : 6\npaths_favored  : 2\npaths_found    : 5\npaths_imported : 0\nmax_depth      : 2\ncur_path       : 2\npending_favs   : 0\npending_total  : 0\nvariable_paths : 0\nbitmap_cvg     : 0.11%\nunique_crashes : 0\nunique_hangs   : 2\nlast_path      : 1499960411\nlast_crash     : 0\nlast_hang      : 1499970859\nexec_timeout   : 20\nafl_banner     : fuzzer-master\nafl_version    : 1.85b\ncommand_line   : /home/skaramcheti/.virtualenvs/afl/bin/afl-unix/afl-fuzz -i /dev/shm/work/NoHiC/input -o /dev/shm/work/NoHiC/sync -m 4G -Q -M fuzzer-master -x /dev/shm/work/NoHiC/NoHiC.dict -- data/linux/processed-challenges/NoHiC/bin/NoHiC\n'
p177
I0
tp178
a(I10680
S'start_time     : 1499960411\nlast_update    : 1499971049\nfuzzer_pid     : 11122\ncycles_done    : 189\nexecs_done     : 11400843\nexecs_per_sec  : 1098.78\npaths_total    : 6\npaths_favored  : 2\npaths_found    : 5\npaths_imported : 0\nmax_depth      : 2\ncur_path       : 2\npending_favs   : 0\npending_total  : 0\nvariable_paths : 0\nbitmap_cvg     : 0.11%\nunique_crashes : 0\nunique_hangs   : 3\nlast_path      : 1499960411\nlast_crash     : 0\nlast_hang      : 1499970951\nexec_timeout   : 20\nafl_banner     : fuzzer-master\nafl_version    : 1.85b\ncommand_line   : /home/skaramcheti/.virtualenvs/afl/bin/afl-unix/afl-fuzz -i /dev/shm/work/NoHiC/input -o /dev/shm/work/NoHiC/sync -m 4G -Q -M fuzzer-master -x /dev/shm/work/NoHiC/NoHiC.dict -- data/linux/processed-challenges/NoHiC/bin/NoHiC\n'
p179
I0
tp180
a.