(lp0
(I0
S'start_time     : 1499819769\nlast_update    : 1499819769\nfuzzer_pid     : 6376\ncycles_done    : 0\nexecs_done     : 10\nexecs_per_sec  : 188.68\npaths_total    : 1\npaths_favored  : 1\npaths_found    : 0\npaths_imported : 0\nmax_depth      : 1\ncur_path       : 0\npending_favs   : 1\npending_total  : 1\nvariable_paths : 0\nbitmap_cvg     : 0.86%\nunique_crashes : 0\nunique_hangs   : 0\nlast_path      : 0\nlast_crash     : 0\nlast_hang      : 0\nexec_timeout   : 20\nafl_banner     : fuzzer-master\nafl_version    : 1.85b\ncommand_line   : /home/skaramcheti/.virtualenvs/afl/bin/afl-unix/afl-fuzz -i /dev/shm/work/Multi_Arena_Pursuit_Simulator/input -o /dev/shm/work/Multi_Arena_Pursuit_Simulator/sync -m 4G -Q -M fuzzer-master -x /dev/shm/work/Multi_Arena_Pursuit_Simulator/Multi_Arena_Pursuit_Simulator.dict -- data/linux/processed-challenges/Multi_Arena_Pursuit_Simulator/bin/Multi_Arena_Pursuit_Simulator\n'
p1
I27
tp2
a(I120
S'start_time     : 1499819769\nlast_update    : 1499819889\nfuzzer_pid     : 6376\ncycles_done    : 0\nexecs_done     : 90772\nexecs_per_sec  : 754.46\npaths_total    : 39\npaths_favored  : 1\npaths_found    : 38\npaths_imported : 0\nmax_depth      : 2\ncur_path       : 0\npending_favs   : 1\npending_total  : 39\nvariable_paths : 0\nbitmap_cvg     : 1.03%\nunique_crashes : 0\nunique_hangs   : 0\nlast_path      : 1499819875\nlast_crash     : 0\nlast_hang      : 0\nexec_timeout   : 20\nafl_banner     : fuzzer-master\nafl_version    : 1.85b\ncommand_line   : /home/skaramcheti/.virtualenvs/afl/bin/afl-unix/afl-fuzz -i /dev/shm/work/Multi_Arena_Pursuit_Simulator/input -o /dev/shm/work/Multi_Arena_Pursuit_Simulator/sync -m 4G -Q -M fuzzer-master -x /dev/shm/work/Multi_Arena_Pursuit_Simulator/Multi_Arena_Pursuit_Simulator.dict -- data/linux/processed-challenges/Multi_Arena_Pursuit_Simulator/bin/Multi_Arena_Pursuit_Simulator\n'
p3
I12
tp4
a(I240
S'start_time     : 1499819769\nlast_update    : 1499820009\nfuzzer_pid     : 6376\ncycles_done    : 0\nexecs_done     : 180738\nexecs_per_sec  : 736.09\npaths_total    : 46\npaths_favored  : 13\npaths_found    : 45\npaths_imported : 0\nmax_depth      : 3\ncur_path       : 1\npending_favs   : 13\npending_total  : 45\nvariable_paths : 0\nbitmap_cvg     : 1.06%\nunique_crashes : 0\nunique_hangs   : 0\nlast_path      : 1499820005\nlast_crash     : 0\nlast_hang      : 0\nexec_timeout   : 20\nafl_banner     : fuzzer-master\nafl_version    : 1.85b\ncommand_line   : /home/skaramcheti/.virtualenvs/afl/bin/afl-unix/afl-fuzz -i /dev/shm/work/Multi_Arena_Pursuit_Simulator/input -o /dev/shm/work/Multi_Arena_Pursuit_Simulator/sync -m 4G -Q -M fuzzer-master -x /dev/shm/work/Multi_Arena_Pursuit_Simulator/Multi_Arena_Pursuit_Simulator.dict -- data/linux/processed-challenges/Multi_Arena_Pursuit_Simulator/bin/Multi_Arena_Pursuit_Simulator\n'
p5
I7
tp6
a(I360
S'start_time     : 1499819769\nlast_update    : 1499820130\nfuzzer_pid     : 6376\ncycles_done    : 0\nexecs_done     : 266654\nexecs_per_sec  : 712.65\npaths_total    : 50\npaths_favored  : 13\npaths_found    : 49\npaths_imported : 0\nmax_depth      : 3\ncur_path       : 1\npending_favs   : 13\npending_total  : 49\nvariable_paths : 0\nbitmap_cvg     : 1.06%\nunique_crashes : 0\nunique_hangs   : 0\nlast_path      : 1499820061\nlast_crash     : 0\nlast_hang      : 0\nexec_timeout   : 20\nafl_banner     : fuzzer-master\nafl_version    : 1.85b\ncommand_line   : /home/skaramcheti/.virtualenvs/afl/bin/afl-unix/afl-fuzz -i /dev/shm/work/Multi_Arena_Pursuit_Simulator/input -o /dev/shm/work/Multi_Arena_Pursuit_Simulator/sync -m 4G -Q -M fuzzer-master -x /dev/shm/work/Multi_Arena_Pursuit_Simulator/Multi_Arena_Pursuit_Simulator.dict -- data/linux/processed-challenges/Multi_Arena_Pursuit_Simulator/bin/Multi_Arena_Pursuit_Simulator\n'
p7
I4
tp8
a(I480
S'start_time     : 1499819769\nlast_update    : 1499820250\nfuzzer_pid     : 6376\ncycles_done    : 0\nexecs_done     : 353584\nexecs_per_sec  : 739.18\npaths_total    : 51\npaths_favored  : 11\npaths_found    : 50\npaths_imported : 0\nmax_depth      : 3\ncur_path       : 27\npending_favs   : 6\npending_total  : 44\nvariable_paths : 0\nbitmap_cvg     : 1.06%\nunique_crashes : 0\nunique_hangs   : 0\nlast_path      : 1499820185\nlast_crash     : 0\nlast_hang      : 0\nexec_timeout   : 20\nafl_banner     : fuzzer-master\nafl_version    : 1.85b\ncommand_line   : /home/skaramcheti/.virtualenvs/afl/bin/afl-unix/afl-fuzz -i /dev/shm/work/Multi_Arena_Pursuit_Simulator/input -o /dev/shm/work/Multi_Arena_Pursuit_Simulator/sync -m 4G -Q -M fuzzer-master -x /dev/shm/work/Multi_Arena_Pursuit_Simulator/Multi_Arena_Pursuit_Simulator.dict -- data/linux/processed-challenges/Multi_Arena_Pursuit_Simulator/bin/Multi_Arena_Pursuit_Simulator\n'
p9
I2
tp10
a(I600
S'start_time     : 1499819769\nlast_update    : 1499820370\nfuzzer_pid     : 6376\ncycles_done    : 0\nexecs_done     : 433330\nexecs_per_sec  : 664.58\npaths_total    : 76\npaths_favored  : 11\npaths_found    : 75\npaths_imported : 0\nmax_depth      : 3\ncur_path       : 40\npending_favs   : 5\npending_total  : 68\nvariable_paths : 0\nbitmap_cvg     : 1.08%\nunique_crashes : 0\nunique_hangs   : 0\nlast_path      : 1499820366\nlast_crash     : 0\nlast_hang      : 0\nexec_timeout   : 20\nafl_banner     : fuzzer-master\nafl_version    : 1.85b\ncommand_line   : /home/skaramcheti/.virtualenvs/afl/bin/afl-unix/afl-fuzz -i /dev/shm/work/Multi_Arena_Pursuit_Simulator/input -o /dev/shm/work/Multi_Arena_Pursuit_Simulator/sync -m 4G -Q -M fuzzer-master -x /dev/shm/work/Multi_Arena_Pursuit_Simulator/Multi_Arena_Pursuit_Simulator.dict -- data/linux/processed-challenges/Multi_Arena_Pursuit_Simulator/bin/Multi_Arena_Pursuit_Simulator\n'
p11
I24
tp12
a(I720
S'start_time     : 1499819769\nlast_update    : 1499820490\nfuzzer_pid     : 6376\ncycles_done    : 0\nexecs_done     : 512397\nexecs_per_sec  : 662.92\npaths_total    : 80\npaths_favored  : 11\npaths_found    : 79\npaths_imported : 0\nmax_depth      : 3\ncur_path       : 40\npending_favs   : 5\npending_total  : 72\nvariable_paths : 0\nbitmap_cvg     : 1.08%\nunique_crashes : 0\nunique_hangs   : 0\nlast_path      : 1499820475\nlast_crash     : 0\nlast_hang      : 0\nexec_timeout   : 20\nafl_banner     : fuzzer-master\nafl_version    : 1.85b\ncommand_line   : /home/skaramcheti/.virtualenvs/afl/bin/afl-unix/afl-fuzz -i /dev/shm/work/Multi_Arena_Pursuit_Simulator/input -o /dev/shm/work/Multi_Arena_Pursuit_Simulator/sync -m 4G -Q -M fuzzer-master -x /dev/shm/work/Multi_Arena_Pursuit_Simulator/Multi_Arena_Pursuit_Simulator.dict -- data/linux/processed-challenges/Multi_Arena_Pursuit_Simulator/bin/Multi_Arena_Pursuit_Simulator\n'
p13
I4
tp14
a(I840
S'start_time     : 1499819769\nlast_update    : 1499820610\nfuzzer_pid     : 6376\ncycles_done    : 0\nexecs_done     : 593120\nexecs_per_sec  : 680.17\npaths_total    : 83\npaths_favored  : 11\npaths_found    : 82\npaths_imported : 0\nmax_depth      : 4\ncur_path       : 52\npending_favs   : 5\npending_total  : 72\nvariable_paths : 0\nbitmap_cvg     : 1.08%\nunique_crashes : 0\nunique_hangs   : 0\nlast_path      : 1499820570\nlast_crash     : 0\nlast_hang      : 0\nexec_timeout   : 20\nafl_banner     : fuzzer-master\nafl_version    : 1.85b\ncommand_line   : /home/skaramcheti/.virtualenvs/afl/bin/afl-unix/afl-fuzz -i /dev/shm/work/Multi_Arena_Pursuit_Simulator/input -o /dev/shm/work/Multi_Arena_Pursuit_Simulator/sync -m 4G -Q -M fuzzer-master -x /dev/shm/work/Multi_Arena_Pursuit_Simulator/Multi_Arena_Pursuit_Simulator.dict -- data/linux/processed-challenges/Multi_Arena_Pursuit_Simulator/bin/Multi_Arena_Pursuit_Simulator\n'
p15
I3
tp16
a(I960
S'start_time     : 1499819769\nlast_update    : 1499820731\nfuzzer_pid     : 6376\ncycles_done    : 0\nexecs_done     : 663259\nexecs_per_sec  : 559.29\npaths_total    : 86\npaths_favored  : 11\npaths_found    : 85\npaths_imported : 0\nmax_depth      : 4\ncur_path       : 67\npending_favs   : 3\npending_total  : 73\nvariable_paths : 0\nbitmap_cvg     : 1.08%\nunique_crashes : 0\nunique_hangs   : 0\nlast_path      : 1499820727\nlast_crash     : 0\nlast_hang      : 0\nexec_timeout   : 20\nafl_banner     : fuzzer-master\nafl_version    : 1.85b\ncommand_line   : /home/skaramcheti/.virtualenvs/afl/bin/afl-unix/afl-fuzz -i /dev/shm/work/Multi_Arena_Pursuit_Simulator/input -o /dev/shm/work/Multi_Arena_Pursuit_Simulator/sync -m 4G -Q -M fuzzer-master -x /dev/shm/work/Multi_Arena_Pursuit_Simulator/Multi_Arena_Pursuit_Simulator.dict -- data/linux/processed-challenges/Multi_Arena_Pursuit_Simulator/bin/Multi_Arena_Pursuit_Simulator\n'
p17
I5
tp18
a(I1080
S'start_time     : 1499819769\nlast_update    : 1499820851\nfuzzer_pid     : 6376\ncycles_done    : 0\nexecs_done     : 730209\nexecs_per_sec  : 542.12\npaths_total    : 89\npaths_favored  : 11\npaths_found    : 88\npaths_imported : 0\nmax_depth      : 4\ncur_path       : 67\npending_favs   : 3\npending_total  : 76\nvariable_paths : 0\nbitmap_cvg     : 1.08%\nunique_crashes : 0\nunique_hangs   : 0\nlast_path      : 1499820741\nlast_crash     : 0\nlast_hang      : 0\nexec_timeout   : 20\nafl_banner     : fuzzer-master\nafl_version    : 1.85b\ncommand_line   : /home/skaramcheti/.virtualenvs/afl/bin/afl-unix/afl-fuzz -i /dev/shm/work/Multi_Arena_Pursuit_Simulator/input -o /dev/shm/work/Multi_Arena_Pursuit_Simulator/sync -m 4G -Q -M fuzzer-master -x /dev/shm/work/Multi_Arena_Pursuit_Simulator/Multi_Arena_Pursuit_Simulator.dict -- data/linux/processed-challenges/Multi_Arena_Pursuit_Simulator/bin/Multi_Arena_Pursuit_Simulator\n'
p19
I1
tp20
a(I1200
S'start_time     : 1499819769\nlast_update    : 1499820971\nfuzzer_pid     : 6376\ncycles_done    : 0\nexecs_done     : 797235\nexecs_per_sec  : 575.63\npaths_total    : 90\npaths_favored  : 11\npaths_found    : 89\npaths_imported : 0\nmax_depth      : 4\ncur_path       : 67\npending_favs   : 3\npending_total  : 77\nvariable_paths : 0\nbitmap_cvg     : 1.08%\nunique_crashes : 0\nunique_hangs   : 0\nlast_path      : 1499820922\nlast_crash     : 0\nlast_hang      : 0\nexec_timeout   : 20\nafl_banner     : fuzzer-master\nafl_version    : 1.85b\ncommand_line   : /home/skaramcheti/.virtualenvs/afl/bin/afl-unix/afl-fuzz -i /dev/shm/work/Multi_Arena_Pursuit_Simulator/input -o /dev/shm/work/Multi_Arena_Pursuit_Simulator/sync -m 4G -Q -M fuzzer-master -x /dev/shm/work/Multi_Arena_Pursuit_Simulator/Multi_Arena_Pursuit_Simulator.dict -- data/linux/processed-challenges/Multi_Arena_Pursuit_Simulator/bin/Multi_Arena_Pursuit_Simulator\n'
p21
I1
tp22
a(I1320
S'start_time     : 1499819769\nlast_update    : 1499821091\nfuzzer_pid     : 6376\ncycles_done    : 0\nexecs_done     : 864720\nexecs_per_sec  : 586.18\npaths_total    : 93\npaths_favored  : 12\npaths_found    : 92\npaths_imported : 0\nmax_depth      : 4\ncur_path       : 74\npending_favs   : 3\npending_total  : 78\nvariable_paths : 0\nbitmap_cvg     : 1.08%\nunique_crashes : 0\nunique_hangs   : 0\nlast_path      : 1499821091\nlast_crash     : 0\nlast_hang      : 0\nexec_timeout   : 20\nafl_banner     : fuzzer-master\nafl_version    : 1.85b\ncommand_line   : /home/skaramcheti/.virtualenvs/afl/bin/afl-unix/afl-fuzz -i /dev/shm/work/Multi_Arena_Pursuit_Simulator/input -o /dev/shm/work/Multi_Arena_Pursuit_Simulator/sync -m 4G -Q -M fuzzer-master -x /dev/shm/work/Multi_Arena_Pursuit_Simulator/Multi_Arena_Pursuit_Simulator.dict -- data/linux/processed-challenges/Multi_Arena_Pursuit_Simulator/bin/Multi_Arena_Pursuit_Simulator\n'
p23
I3
tp24
a(I1440
S'start_time     : 1499819769\nlast_update    : 1499821211\nfuzzer_pid     : 6376\ncycles_done    : 0\nexecs_done     : 927369\nexecs_per_sec  : 528.15\npaths_total    : 96\npaths_favored  : 12\npaths_found    : 95\npaths_imported : 0\nmax_depth      : 5\ncur_path       : 84\npending_favs   : 2\npending_total  : 80\nvariable_paths : 0\nbitmap_cvg     : 1.09%\nunique_crashes : 0\nunique_hangs   : 0\nlast_path      : 1499821204\nlast_crash     : 0\nlast_hang      : 0\nexec_timeout   : 20\nafl_banner     : fuzzer-master\nafl_version    : 1.85b\ncommand_line   : /home/skaramcheti/.virtualenvs/afl/bin/afl-unix/afl-fuzz -i /dev/shm/work/Multi_Arena_Pursuit_Simulator/input -o /dev/shm/work/Multi_Arena_Pursuit_Simulator/sync -m 4G -Q -M fuzzer-master -x /dev/shm/work/Multi_Arena_Pursuit_Simulator/Multi_Arena_Pursuit_Simulator.dict -- data/linux/processed-challenges/Multi_Arena_Pursuit_Simulator/bin/Multi_Arena_Pursuit_Simulator\n'
p25
I4
tp26
a(I1560
S'start_time     : 1499819769\nlast_update    : 1499821331\nfuzzer_pid     : 6376\ncycles_done    : 0\nexecs_done     : 990399\nexecs_per_sec  : 535.52\npaths_total    : 99\npaths_favored  : 12\npaths_found    : 98\npaths_imported : 0\nmax_depth      : 5\ncur_path       : 84\npending_favs   : 2\npending_total  : 83\nvariable_paths : 0\nbitmap_cvg     : 1.09%\nunique_crashes : 0\nunique_hangs   : 0\nlast_path      : 1499821294\nlast_crash     : 0\nlast_hang      : 0\nexec_timeout   : 20\nafl_banner     : fuzzer-master\nafl_version    : 1.85b\ncommand_line   : /home/skaramcheti/.virtualenvs/afl/bin/afl-unix/afl-fuzz -i /dev/shm/work/Multi_Arena_Pursuit_Simulator/input -o /dev/shm/work/Multi_Arena_Pursuit_Simulator/sync -m 4G -Q -M fuzzer-master -x /dev/shm/work/Multi_Arena_Pursuit_Simulator/Multi_Arena_Pursuit_Simulator.dict -- data/linux/processed-challenges/Multi_Arena_Pursuit_Simulator/bin/Multi_Arena_Pursuit_Simulator\n'
p27
I2
tp28
a(I1680
S'start_time     : 1499819769\nlast_update    : 1499821452\nfuzzer_pid     : 6376\ncycles_done    : 0\nexecs_done     : 1054259\nexecs_per_sec  : 527.82\npaths_total    : 99\npaths_favored  : 12\npaths_found    : 98\npaths_imported : 0\nmax_depth      : 5\ncur_path       : 84\npending_favs   : 2\npending_total  : 83\nvariable_paths : 0\nbitmap_cvg     : 1.09%\nunique_crashes : 0\nunique_hangs   : 0\nlast_path      : 1499821294\nlast_crash     : 0\nlast_hang      : 0\nexec_timeout   : 20\nafl_banner     : fuzzer-master\nafl_version    : 1.85b\ncommand_line   : /home/skaramcheti/.virtualenvs/afl/bin/afl-unix/afl-fuzz -i /dev/shm/work/Multi_Arena_Pursuit_Simulator/input -o /dev/shm/work/Multi_Arena_Pursuit_Simulator/sync -m 4G -Q -M fuzzer-master -x /dev/shm/work/Multi_Arena_Pursuit_Simulator/Multi_Arena_Pursuit_Simulator.dict -- data/linux/processed-challenges/Multi_Arena_Pursuit_Simulator/bin/Multi_Arena_Pursuit_Simulator\n'
p29
I0
tp30
a(I1800
S'start_time     : 1499819769\nlast_update    : 1499821572\nfuzzer_pid     : 6376\ncycles_done    : 0\nexecs_done     : 1114899\nexecs_per_sec  : 443.86\npaths_total    : 99\npaths_favored  : 13\npaths_found    : 98\npaths_imported : 0\nmax_depth      : 5\ncur_path       : 95\npending_favs   : 1\npending_total  : 81\nvariable_paths : 0\nbitmap_cvg     : 1.09%\nunique_crashes : 0\nunique_hangs   : 0\nlast_path      : 1499821294\nlast_crash     : 0\nlast_hang      : 0\nexec_timeout   : 20\nafl_banner     : fuzzer-master\nafl_version    : 1.85b\ncommand_line   : /home/skaramcheti/.virtualenvs/afl/bin/afl-unix/afl-fuzz -i /dev/shm/work/Multi_Arena_Pursuit_Simulator/input -o /dev/shm/work/Multi_Arena_Pursuit_Simulator/sync -m 4G -Q -M fuzzer-master -x /dev/shm/work/Multi_Arena_Pursuit_Simulator/Multi_Arena_Pursuit_Simulator.dict -- data/linux/processed-challenges/Multi_Arena_Pursuit_Simulator/bin/Multi_Arena_Pursuit_Simulator\n'
p31
I0
tp32
a(I1920
S'start_time     : 1499819769\nlast_update    : 1499821692\nfuzzer_pid     : 6376\ncycles_done    : 0\nexecs_done     : 1169571\nexecs_per_sec  : 458.55\npaths_total    : 107\npaths_favored  : 13\npaths_found    : 106\npaths_imported : 0\nmax_depth      : 6\ncur_path       : 95\npending_favs   : 1\npending_total  : 89\nvariable_paths : 0\nbitmap_cvg     : 1.09%\nunique_crashes : 0\nunique_hangs   : 0\nlast_path      : 1499821686\nlast_crash     : 0\nlast_hang      : 0\nexec_timeout   : 20\nafl_banner     : fuzzer-master\nafl_version    : 1.85b\ncommand_line   : /home/skaramcheti/.virtualenvs/afl/bin/afl-unix/afl-fuzz -i /dev/shm/work/Multi_Arena_Pursuit_Simulator/input -o /dev/shm/work/Multi_Arena_Pursuit_Simulator/sync -m 4G -Q -M fuzzer-master -x /dev/shm/work/Multi_Arena_Pursuit_Simulator/Multi_Arena_Pursuit_Simulator.dict -- data/linux/processed-challenges/Multi_Arena_Pursuit_Simulator/bin/Multi_Arena_Pursuit_Simulator\n'
p33
I8
tp34
a(I2040
S'start_time     : 1499819769\nlast_update    : 1499821813\nfuzzer_pid     : 6376\ncycles_done    : 0\nexecs_done     : 1224949\nexecs_per_sec  : 454.05\npaths_total    : 108\npaths_favored  : 13\npaths_found    : 107\npaths_imported : 0\nmax_depth      : 6\ncur_path       : 95\npending_favs   : 1\npending_total  : 90\nvariable_paths : 0\nbitmap_cvg     : 1.09%\nunique_crashes : 0\nunique_hangs   : 0\nlast_path      : 1499821767\nlast_crash     : 0\nlast_hang      : 0\nexec_timeout   : 20\nafl_banner     : fuzzer-master\nafl_version    : 1.85b\ncommand_line   : /home/skaramcheti/.virtualenvs/afl/bin/afl-unix/afl-fuzz -i /dev/shm/work/Multi_Arena_Pursuit_Simulator/input -o /dev/shm/work/Multi_Arena_Pursuit_Simulator/sync -m 4G -Q -M fuzzer-master -x /dev/shm/work/Multi_Arena_Pursuit_Simulator/Multi_Arena_Pursuit_Simulator.dict -- data/linux/processed-challenges/Multi_Arena_Pursuit_Simulator/bin/Multi_Arena_Pursuit_Simulator\n'
p35
I1
tp36
a(I2160
S'start_time     : 1499819769\nlast_update    : 1499821933\nfuzzer_pid     : 6376\ncycles_done    : 0\nexecs_done     : 1279054\nexecs_per_sec  : 434.10\npaths_total    : 108\npaths_favored  : 13\npaths_found    : 107\npaths_imported : 0\nmax_depth      : 6\ncur_path       : 101\npending_favs   : 1\npending_total  : 89\nvariable_paths : 0\nbitmap_cvg     : 1.09%\nunique_crashes : 0\nunique_hangs   : 0\nlast_path      : 1499821767\nlast_crash     : 0\nlast_hang      : 0\nexec_timeout   : 20\nafl_banner     : fuzzer-master\nafl_version    : 1.85b\ncommand_line   : /home/skaramcheti/.virtualenvs/afl/bin/afl-unix/afl-fuzz -i /dev/shm/work/Multi_Arena_Pursuit_Simulator/input -o /dev/shm/work/Multi_Arena_Pursuit_Simulator/sync -m 4G -Q -M fuzzer-master -x /dev/shm/work/Multi_Arena_Pursuit_Simulator/Multi_Arena_Pursuit_Simulator.dict -- data/linux/processed-challenges/Multi_Arena_Pursuit_Simulator/bin/Multi_Arena_Pursuit_Simulator\n'
p37
I0
tp38
a(I2280
S'start_time     : 1499819769\nlast_update    : 1499822053\nfuzzer_pid     : 6376\ncycles_done    : 0\nexecs_done     : 1331652\nexecs_per_sec  : 399.33\npaths_total    : 110\npaths_favored  : 13\npaths_found    : 109\npaths_imported : 0\nmax_depth      : 7\ncur_path       : 106\npending_favs   : 0\npending_total  : 90\nvariable_paths : 0\nbitmap_cvg     : 1.09%\nunique_crashes : 0\nunique_hangs   : 0\nlast_path      : 1499821982\nlast_crash     : 0\nlast_hang      : 0\nexec_timeout   : 20\nafl_banner     : fuzzer-master\nafl_version    : 1.85b\ncommand_line   : /home/skaramcheti/.virtualenvs/afl/bin/afl-unix/afl-fuzz -i /dev/shm/work/Multi_Arena_Pursuit_Simulator/input -o /dev/shm/work/Multi_Arena_Pursuit_Simulator/sync -m 4G -Q -M fuzzer-master -x /dev/shm/work/Multi_Arena_Pursuit_Simulator/Multi_Arena_Pursuit_Simulator.dict -- data/linux/processed-challenges/Multi_Arena_Pursuit_Simulator/bin/Multi_Arena_Pursuit_Simulator\n'
p39
I2
tp40
a(I2400
S'start_time     : 1499819769\nlast_update    : 1499822173\nfuzzer_pid     : 6376\ncycles_done    : 1\nexecs_done     : 1392500\nexecs_per_sec  : 709.48\npaths_total    : 110\npaths_favored  : 13\npaths_found    : 109\npaths_imported : 0\nmax_depth      : 7\ncur_path       : 13\npending_favs   : 0\npending_total  : 87\nvariable_paths : 0\nbitmap_cvg     : 1.09%\nunique_crashes : 0\nunique_hangs   : 0\nlast_path      : 1499821982\nlast_crash     : 0\nlast_hang      : 0\nexec_timeout   : 20\nafl_banner     : fuzzer-master\nafl_version    : 1.85b\ncommand_line   : /home/skaramcheti/.virtualenvs/afl/bin/afl-unix/afl-fuzz -i /dev/shm/work/Multi_Arena_Pursuit_Simulator/input -o /dev/shm/work/Multi_Arena_Pursuit_Simulator/sync -m 4G -Q -M fuzzer-master -x /dev/shm/work/Multi_Arena_Pursuit_Simulator/Multi_Arena_Pursuit_Simulator.dict -- data/linux/processed-challenges/Multi_Arena_Pursuit_Simulator/bin/Multi_Arena_Pursuit_Simulator\n'
p41
I0
tp42
a(I2520
S'start_time     : 1499819769\nlast_update    : 1499822293\nfuzzer_pid     : 6376\ncycles_done    : 1\nexecs_done     : 1476229\nexecs_per_sec  : 714.44\npaths_total    : 110\npaths_favored  : 13\npaths_found    : 109\npaths_imported : 0\nmax_depth      : 7\ncur_path       : 31\npending_favs   : 0\npending_total  : 81\nvariable_paths : 0\nbitmap_cvg     : 1.09%\nunique_crashes : 0\nunique_hangs   : 0\nlast_path      : 1499821982\nlast_crash     : 0\nlast_hang      : 0\nexec_timeout   : 20\nafl_banner     : fuzzer-master\nafl_version    : 1.85b\ncommand_line   : /home/skaramcheti/.virtualenvs/afl/bin/afl-unix/afl-fuzz -i /dev/shm/work/Multi_Arena_Pursuit_Simulator/input -o /dev/shm/work/Multi_Arena_Pursuit_Simulator/sync -m 4G -Q -M fuzzer-master -x /dev/shm/work/Multi_Arena_Pursuit_Simulator/Multi_Arena_Pursuit_Simulator.dict -- data/linux/processed-challenges/Multi_Arena_Pursuit_Simulator/bin/Multi_Arena_Pursuit_Simulator\n'
p43
I0
tp44
a(I2640
S'start_time     : 1499819769\nlast_update    : 1499822414\nfuzzer_pid     : 6376\ncycles_done    : 1\nexecs_done     : 1557169\nexecs_per_sec  : 641.23\npaths_total    : 110\npaths_favored  : 13\npaths_found    : 109\npaths_imported : 0\nmax_depth      : 7\ncur_path       : 54\npending_favs   : 0\npending_total  : 76\nvariable_paths : 0\nbitmap_cvg     : 1.09%\nunique_crashes : 0\nunique_hangs   : 0\nlast_path      : 1499821982\nlast_crash     : 0\nlast_hang      : 0\nexec_timeout   : 20\nafl_banner     : fuzzer-master\nafl_version    : 1.85b\ncommand_line   : /home/skaramcheti/.virtualenvs/afl/bin/afl-unix/afl-fuzz -i /dev/shm/work/Multi_Arena_Pursuit_Simulator/input -o /dev/shm/work/Multi_Arena_Pursuit_Simulator/sync -m 4G -Q -M fuzzer-master -x /dev/shm/work/Multi_Arena_Pursuit_Simulator/Multi_Arena_Pursuit_Simulator.dict -- data/linux/processed-challenges/Multi_Arena_Pursuit_Simulator/bin/Multi_Arena_Pursuit_Simulator\n'
p45
I0
tp46
a(I2760
S'start_time     : 1499819769\nlast_update    : 1499822534\nfuzzer_pid     : 6376\ncycles_done    : 1\nexecs_done     : 1632290\nexecs_per_sec  : 590.06\npaths_total    : 110\npaths_favored  : 13\npaths_found    : 109\npaths_imported : 0\nmax_depth      : 7\ncur_path       : 65\npending_favs   : 0\npending_total  : 73\nvariable_paths : 0\nbitmap_cvg     : 1.09%\nunique_crashes : 0\nunique_hangs   : 0\nlast_path      : 1499821982\nlast_crash     : 0\nlast_hang      : 0\nexec_timeout   : 20\nafl_banner     : fuzzer-master\nafl_version    : 1.85b\ncommand_line   : /home/skaramcheti/.virtualenvs/afl/bin/afl-unix/afl-fuzz -i /dev/shm/work/Multi_Arena_Pursuit_Simulator/input -o /dev/shm/work/Multi_Arena_Pursuit_Simulator/sync -m 4G -Q -M fuzzer-master -x /dev/shm/work/Multi_Arena_Pursuit_Simulator/Multi_Arena_Pursuit_Simulator.dict -- data/linux/processed-challenges/Multi_Arena_Pursuit_Simulator/bin/Multi_Arena_Pursuit_Simulator\n'
p47
I0
tp48
a(I2880
S'start_time     : 1499819769\nlast_update    : 1499822654\nfuzzer_pid     : 6376\ncycles_done    : 1\nexecs_done     : 1700331\nexecs_per_sec  : 527.51\npaths_total    : 112\npaths_favored  : 13\npaths_found    : 111\npaths_imported : 0\nmax_depth      : 7\ncur_path       : 78\npending_favs   : 0\npending_total  : 73\nvariable_paths : 0\nbitmap_cvg     : 1.09%\nunique_crashes : 0\nunique_hangs   : 0\nlast_path      : 1499822652\nlast_crash     : 0\nlast_hang      : 0\nexec_timeout   : 20\nafl_banner     : fuzzer-master\nafl_version    : 1.85b\ncommand_line   : /home/skaramcheti/.virtualenvs/afl/bin/afl-unix/afl-fuzz -i /dev/shm/work/Multi_Arena_Pursuit_Simulator/input -o /dev/shm/work/Multi_Arena_Pursuit_Simulator/sync -m 4G -Q -M fuzzer-master -x /dev/shm/work/Multi_Arena_Pursuit_Simulator/Multi_Arena_Pursuit_Simulator.dict -- data/linux/processed-challenges/Multi_Arena_Pursuit_Simulator/bin/Multi_Arena_Pursuit_Simulator\n'
p49
I2
tp50
a(I3000
S'start_time     : 1499819769\nlast_update    : 1499822775\nfuzzer_pid     : 6376\ncycles_done    : 1\nexecs_done     : 1766714\nexecs_per_sec  : 572.81\npaths_total    : 112\npaths_favored  : 13\npaths_found    : 111\npaths_imported : 0\nmax_depth      : 7\ncur_path       : 92\npending_favs   : 0\npending_total  : 71\nvariable_paths : 0\nbitmap_cvg     : 1.09%\nunique_crashes : 0\nunique_hangs   : 0\nlast_path      : 1499822652\nlast_crash     : 0\nlast_hang      : 0\nexec_timeout   : 20\nafl_banner     : fuzzer-master\nafl_version    : 1.85b\ncommand_line   : /home/skaramcheti/.virtualenvs/afl/bin/afl-unix/afl-fuzz -i /dev/shm/work/Multi_Arena_Pursuit_Simulator/input -o /dev/shm/work/Multi_Arena_Pursuit_Simulator/sync -m 4G -Q -M fuzzer-master -x /dev/shm/work/Multi_Arena_Pursuit_Simulator/Multi_Arena_Pursuit_Simulator.dict -- data/linux/processed-challenges/Multi_Arena_Pursuit_Simulator/bin/Multi_Arena_Pursuit_Simulator\n'
p51
I0
tp52
a(I3120
S'start_time     : 1499819769\nlast_update    : 1499822895\nfuzzer_pid     : 6376\ncycles_done    : 1\nexecs_done     : 1832584\nexecs_per_sec  : 578.58\npaths_total    : 114\npaths_favored  : 13\npaths_found    : 113\npaths_imported : 0\nmax_depth      : 7\ncur_path       : 97\npending_favs   : 0\npending_total  : 72\nvariable_paths : 0\nbitmap_cvg     : 1.09%\nunique_crashes : 0\nunique_hangs   : 0\nlast_path      : 1499822890\nlast_crash     : 0\nlast_hang      : 0\nexec_timeout   : 20\nafl_banner     : fuzzer-master\nafl_version    : 1.85b\ncommand_line   : /home/skaramcheti/.virtualenvs/afl/bin/afl-unix/afl-fuzz -i /dev/shm/work/Multi_Arena_Pursuit_Simulator/input -o /dev/shm/work/Multi_Arena_Pursuit_Simulator/sync -m 4G -Q -M fuzzer-master -x /dev/shm/work/Multi_Arena_Pursuit_Simulator/Multi_Arena_Pursuit_Simulator.dict -- data/linux/processed-challenges/Multi_Arena_Pursuit_Simulator/bin/Multi_Arena_Pursuit_Simulator\n'
p53
I2
tp54
a(I3240
S'start_time     : 1499819769\nlast_update    : 1499823015\nfuzzer_pid     : 6376\ncycles_done    : 1\nexecs_done     : 1900397\nexecs_per_sec  : 564.26\npaths_total    : 116\npaths_favored  : 13\npaths_found    : 115\npaths_imported : 0\nmax_depth      : 7\ncur_path       : 97\npending_favs   : 0\npending_total  : 74\nvariable_paths : 0\nbitmap_cvg     : 1.09%\nunique_crashes : 0\nunique_hangs   : 0\nlast_path      : 1499822926\nlast_crash     : 0\nlast_hang      : 0\nexec_timeout   : 20\nafl_banner     : fuzzer-master\nafl_version    : 1.85b\ncommand_line   : /home/skaramcheti/.virtualenvs/afl/bin/afl-unix/afl-fuzz -i /dev/shm/work/Multi_Arena_Pursuit_Simulator/input -o /dev/shm/work/Multi_Arena_Pursuit_Simulator/sync -m 4G -Q -M fuzzer-master -x /dev/shm/work/Multi_Arena_Pursuit_Simulator/Multi_Arena_Pursuit_Simulator.dict -- data/linux/processed-challenges/Multi_Arena_Pursuit_Simulator/bin/Multi_Arena_Pursuit_Simulator\n'
p55
I2
tp56
a(I3360
S'start_time     : 1499819769\nlast_update    : 1499823135\nfuzzer_pid     : 6376\ncycles_done    : 1\nexecs_done     : 1968960\nexecs_per_sec  : 560.88\npaths_total    : 116\npaths_favored  : 13\npaths_found    : 115\npaths_imported : 0\nmax_depth      : 7\ncur_path       : 97\npending_favs   : 0\npending_total  : 74\nvariable_paths : 0\nbitmap_cvg     : 1.09%\nunique_crashes : 0\nunique_hangs   : 0\nlast_path      : 1499822926\nlast_crash     : 0\nlast_hang      : 0\nexec_timeout   : 20\nafl_banner     : fuzzer-master\nafl_version    : 1.85b\ncommand_line   : /home/skaramcheti/.virtualenvs/afl/bin/afl-unix/afl-fuzz -i /dev/shm/work/Multi_Arena_Pursuit_Simulator/input -o /dev/shm/work/Multi_Arena_Pursuit_Simulator/sync -m 4G -Q -M fuzzer-master -x /dev/shm/work/Multi_Arena_Pursuit_Simulator/Multi_Arena_Pursuit_Simulator.dict -- data/linux/processed-challenges/Multi_Arena_Pursuit_Simulator/bin/Multi_Arena_Pursuit_Simulator\n'
p57
I0
tp58
a(I3480
S'start_time     : 1499819769\nlast_update    : 1499823255\nfuzzer_pid     : 6376\ncycles_done    : 1\nexecs_done     : 2020881\nexecs_per_sec  : 405.13\npaths_total    : 116\npaths_favored  : 13\npaths_found    : 115\npaths_imported : 0\nmax_depth      : 7\ncur_path       : 100\npending_favs   : 1\npending_total  : 73\nvariable_paths : 0\nbitmap_cvg     : 1.09%\nunique_crashes : 0\nunique_hangs   : 0\nlast_path      : 1499822926\nlast_crash     : 0\nlast_hang      : 0\nexec_timeout   : 20\nafl_banner     : fuzzer-master\nafl_version    : 1.85b\ncommand_line   : /home/skaramcheti/.virtualenvs/afl/bin/afl-unix/afl-fuzz -i /dev/shm/work/Multi_Arena_Pursuit_Simulator/input -o /dev/shm/work/Multi_Arena_Pursuit_Simulator/sync -m 4G -Q -M fuzzer-master -x /dev/shm/work/Multi_Arena_Pursuit_Simulator/Multi_Arena_Pursuit_Simulator.dict -- data/linux/processed-challenges/Multi_Arena_Pursuit_Simulator/bin/Multi_Arena_Pursuit_Simulator\n'
p59
I0
tp60
a(I3600
S'start_time     : 1499819769\nlast_update    : 1499823376\nfuzzer_pid     : 6376\ncycles_done    : 1\nexecs_done     : 2074114\nexecs_per_sec  : 451.45\npaths_total    : 122\npaths_favored  : 13\npaths_found    : 121\npaths_imported : 0\nmax_depth      : 7\ncur_path       : 100\npending_favs   : 1\npending_total  : 79\nvariable_paths : 0\nbitmap_cvg     : 1.09%\nunique_crashes : 0\nunique_hangs   : 0\nlast_path      : 1499823299\nlast_crash     : 0\nlast_hang      : 0\nexec_timeout   : 20\nafl_banner     : fuzzer-master\nafl_version    : 1.85b\ncommand_line   : /home/skaramcheti/.virtualenvs/afl/bin/afl-unix/afl-fuzz -i /dev/shm/work/Multi_Arena_Pursuit_Simulator/input -o /dev/shm/work/Multi_Arena_Pursuit_Simulator/sync -m 4G -Q -M fuzzer-master -x /dev/shm/work/Multi_Arena_Pursuit_Simulator/Multi_Arena_Pursuit_Simulator.dict -- data/linux/processed-challenges/Multi_Arena_Pursuit_Simulator/bin/Multi_Arena_Pursuit_Simulator\n'
p61
I6
tp62
a(I3720
S'start_time     : 1499819769\nlast_update    : 1499823496\nfuzzer_pid     : 6376\ncycles_done    : 1\nexecs_done     : 2127941\nexecs_per_sec  : 448.55\npaths_total    : 123\npaths_favored  : 13\npaths_found    : 122\npaths_imported : 0\nmax_depth      : 7\ncur_path       : 100\npending_favs   : 1\npending_total  : 80\nvariable_paths : 0\nbitmap_cvg     : 1.09%\nunique_crashes : 0\nunique_hangs   : 0\nlast_path      : 1499823384\nlast_crash     : 0\nlast_hang      : 0\nexec_timeout   : 20\nafl_banner     : fuzzer-master\nafl_version    : 1.85b\ncommand_line   : /home/skaramcheti/.virtualenvs/afl/bin/afl-unix/afl-fuzz -i /dev/shm/work/Multi_Arena_Pursuit_Simulator/input -o /dev/shm/work/Multi_Arena_Pursuit_Simulator/sync -m 4G -Q -M fuzzer-master -x /dev/shm/work/Multi_Arena_Pursuit_Simulator/Multi_Arena_Pursuit_Simulator.dict -- data/linux/processed-challenges/Multi_Arena_Pursuit_Simulator/bin/Multi_Arena_Pursuit_Simulator\n'
p63
I1
tp64
a(I3840
S'start_time     : 1499819769\nlast_update    : 1499823616\nfuzzer_pid     : 6376\ncycles_done    : 1\nexecs_done     : 2178428\nexecs_per_sec  : 396.72\npaths_total    : 124\npaths_favored  : 13\npaths_found    : 123\npaths_imported : 0\nmax_depth      : 7\ncur_path       : 107\npending_favs   : 1\npending_total  : 80\nvariable_paths : 0\nbitmap_cvg     : 1.09%\nunique_crashes : 0\nunique_hangs   : 0\nlast_path      : 1499823501\nlast_crash     : 0\nlast_hang      : 0\nexec_timeout   : 20\nafl_banner     : fuzzer-master\nafl_version    : 1.85b\ncommand_line   : /home/skaramcheti/.virtualenvs/afl/bin/afl-unix/afl-fuzz -i /dev/shm/work/Multi_Arena_Pursuit_Simulator/input -o /dev/shm/work/Multi_Arena_Pursuit_Simulator/sync -m 4G -Q -M fuzzer-master -x /dev/shm/work/Multi_Arena_Pursuit_Simulator/Multi_Arena_Pursuit_Simulator.dict -- data/linux/processed-challenges/Multi_Arena_Pursuit_Simulator/bin/Multi_Arena_Pursuit_Simulator\n'
p65
I1
tp66
a(I3960
S'start_time     : 1499819769\nlast_update    : 1499823736\nfuzzer_pid     : 6376\ncycles_done    : 1\nexecs_done     : 2228971\nexecs_per_sec  : 433.41\npaths_total    : 125\npaths_favored  : 13\npaths_found    : 124\npaths_imported : 0\nmax_depth      : 7\ncur_path       : 113\npending_favs   : 1\npending_total  : 80\nvariable_paths : 0\nbitmap_cvg     : 1.09%\nunique_crashes : 0\nunique_hangs   : 0\nlast_path      : 1499823684\nlast_crash     : 0\nlast_hang      : 0\nexec_timeout   : 20\nafl_banner     : fuzzer-master\nafl_version    : 1.85b\ncommand_line   : /home/skaramcheti/.virtualenvs/afl/bin/afl-unix/afl-fuzz -i /dev/shm/work/Multi_Arena_Pursuit_Simulator/input -o /dev/shm/work/Multi_Arena_Pursuit_Simulator/sync -m 4G -Q -M fuzzer-master -x /dev/shm/work/Multi_Arena_Pursuit_Simulator/Multi_Arena_Pursuit_Simulator.dict -- data/linux/processed-challenges/Multi_Arena_Pursuit_Simulator/bin/Multi_Arena_Pursuit_Simulator\n'
p67
I1
tp68
a(I4080
S'start_time     : 1499819769\nlast_update    : 1499823856\nfuzzer_pid     : 6376\ncycles_done    : 1\nexecs_done     : 2280758\nexecs_per_sec  : 430.66\npaths_total    : 125\npaths_favored  : 13\npaths_found    : 124\npaths_imported : 0\nmax_depth      : 7\ncur_path       : 113\npending_favs   : 1\npending_total  : 80\nvariable_paths : 0\nbitmap_cvg     : 1.09%\nunique_crashes : 0\nunique_hangs   : 0\nlast_path      : 1499823684\nlast_crash     : 0\nlast_hang      : 0\nexec_timeout   : 20\nafl_banner     : fuzzer-master\nafl_version    : 1.85b\ncommand_line   : /home/skaramcheti/.virtualenvs/afl/bin/afl-unix/afl-fuzz -i /dev/shm/work/Multi_Arena_Pursuit_Simulator/input -o /dev/shm/work/Multi_Arena_Pursuit_Simulator/sync -m 4G -Q -M fuzzer-master -x /dev/shm/work/Multi_Arena_Pursuit_Simulator/Multi_Arena_Pursuit_Simulator.dict -- data/linux/processed-challenges/Multi_Arena_Pursuit_Simulator/bin/Multi_Arena_Pursuit_Simulator\n'
p69
I0
tp70
a(I4200
S'start_time     : 1499819769\nlast_update    : 1499823976\nfuzzer_pid     : 6376\ncycles_done    : 1\nexecs_done     : 2338001\nexecs_per_sec  : 477.60\npaths_total    : 129\npaths_favored  : 13\npaths_found    : 128\npaths_imported : 0\nmax_depth      : 7\ncur_path       : 113\npending_favs   : 1\npending_total  : 84\nvariable_paths : 0\nbitmap_cvg     : 1.09%\nunique_crashes : 0\nunique_hangs   : 0\nlast_path      : 1499823952\nlast_crash     : 0\nlast_hang      : 0\nexec_timeout   : 20\nafl_banner     : fuzzer-master\nafl_version    : 1.85b\ncommand_line   : /home/skaramcheti/.virtualenvs/afl/bin/afl-unix/afl-fuzz -i /dev/shm/work/Multi_Arena_Pursuit_Simulator/input -o /dev/shm/work/Multi_Arena_Pursuit_Simulator/sync -m 4G -Q -M fuzzer-master -x /dev/shm/work/Multi_Arena_Pursuit_Simulator/Multi_Arena_Pursuit_Simulator.dict -- data/linux/processed-challenges/Multi_Arena_Pursuit_Simulator/bin/Multi_Arena_Pursuit_Simulator\n'
p71
I4
tp72
a(I4320
S'start_time     : 1499819769\nlast_update    : 1499824097\nfuzzer_pid     : 6376\ncycles_done    : 1\nexecs_done     : 2395766\nexecs_per_sec  : 477.53\npaths_total    : 132\npaths_favored  : 13\npaths_found    : 131\npaths_imported : 0\nmax_depth      : 7\ncur_path       : 113\npending_favs   : 1\npending_total  : 87\nvariable_paths : 0\nbitmap_cvg     : 1.09%\nunique_crashes : 0\nunique_hangs   : 0\nlast_path      : 1499824071\nlast_crash     : 0\nlast_hang      : 0\nexec_timeout   : 20\nafl_banner     : fuzzer-master\nafl_version    : 1.85b\ncommand_line   : /home/skaramcheti/.virtualenvs/afl/bin/afl-unix/afl-fuzz -i /dev/shm/work/Multi_Arena_Pursuit_Simulator/input -o /dev/shm/work/Multi_Arena_Pursuit_Simulator/sync -m 4G -Q -M fuzzer-master -x /dev/shm/work/Multi_Arena_Pursuit_Simulator/Multi_Arena_Pursuit_Simulator.dict -- data/linux/processed-challenges/Multi_Arena_Pursuit_Simulator/bin/Multi_Arena_Pursuit_Simulator\n'
p73
I3
tp74
a(I4440
S'start_time     : 1499819769\nlast_update    : 1499824217\nfuzzer_pid     : 6376\ncycles_done    : 1\nexecs_done     : 2452971\nexecs_per_sec  : 442.10\npaths_total    : 132\npaths_favored  : 13\npaths_found    : 131\npaths_imported : 0\nmax_depth      : 7\ncur_path       : 115\npending_favs   : 0\npending_total  : 86\nvariable_paths : 0\nbitmap_cvg     : 1.09%\nunique_crashes : 0\nunique_hangs   : 0\nlast_path      : 1499824071\nlast_crash     : 0\nlast_hang      : 0\nexec_timeout   : 20\nafl_banner     : fuzzer-master\nafl_version    : 1.85b\ncommand_line   : /home/skaramcheti/.virtualenvs/afl/bin/afl-unix/afl-fuzz -i /dev/shm/work/Multi_Arena_Pursuit_Simulator/input -o /dev/shm/work/Multi_Arena_Pursuit_Simulator/sync -m 4G -Q -M fuzzer-master -x /dev/shm/work/Multi_Arena_Pursuit_Simulator/Multi_Arena_Pursuit_Simulator.dict -- data/linux/processed-challenges/Multi_Arena_Pursuit_Simulator/bin/Multi_Arena_Pursuit_Simulator\n'
p75
I0
tp76
a(I4560
S'start_time     : 1499819769\nlast_update    : 1499824337\nfuzzer_pid     : 6376\ncycles_done    : 1\nexecs_done     : 2507070\nexecs_per_sec  : 490.38\npaths_total    : 132\npaths_favored  : 13\npaths_found    : 131\npaths_imported : 0\nmax_depth      : 7\ncur_path       : 115\npending_favs   : 0\npending_total  : 86\nvariable_paths : 0\nbitmap_cvg     : 1.09%\nunique_crashes : 0\nunique_hangs   : 0\nlast_path      : 1499824071\nlast_crash     : 0\nlast_hang      : 0\nexec_timeout   : 20\nafl_banner     : fuzzer-master\nafl_version    : 1.85b\ncommand_line   : /home/skaramcheti/.virtualenvs/afl/bin/afl-unix/afl-fuzz -i /dev/shm/work/Multi_Arena_Pursuit_Simulator/input -o /dev/shm/work/Multi_Arena_Pursuit_Simulator/sync -m 4G -Q -M fuzzer-master -x /dev/shm/work/Multi_Arena_Pursuit_Simulator/Multi_Arena_Pursuit_Simulator.dict -- data/linux/processed-challenges/Multi_Arena_Pursuit_Simulator/bin/Multi_Arena_Pursuit_Simulator\n'
p77
I0
tp78
a(I4680
S'start_time     : 1499819769\nlast_update    : 1499824457\nfuzzer_pid     : 6376\ncycles_done    : 1\nexecs_done     : 2551133\nexecs_per_sec  : 334.78\npaths_total    : 132\npaths_favored  : 13\npaths_found    : 131\npaths_imported : 0\nmax_depth      : 7\ncur_path       : 116\npending_favs   : 0\npending_total  : 85\nvariable_paths : 0\nbitmap_cvg     : 1.09%\nunique_crashes : 0\nunique_hangs   : 0\nlast_path      : 1499824071\nlast_crash     : 0\nlast_hang      : 0\nexec_timeout   : 20\nafl_banner     : fuzzer-master\nafl_version    : 1.85b\ncommand_line   : /home/skaramcheti/.virtualenvs/afl/bin/afl-unix/afl-fuzz -i /dev/shm/work/Multi_Arena_Pursuit_Simulator/input -o /dev/shm/work/Multi_Arena_Pursuit_Simulator/sync -m 4G -Q -M fuzzer-master -x /dev/shm/work/Multi_Arena_Pursuit_Simulator/Multi_Arena_Pursuit_Simulator.dict -- data/linux/processed-challenges/Multi_Arena_Pursuit_Simulator/bin/Multi_Arena_Pursuit_Simulator\n'
p79
I0
tp80
a(I4800
S'start_time     : 1499819769\nlast_update    : 1499824517\nfuzzer_pid     : 6376\ncycles_done    : 1\nexecs_done     : 2571405\nexecs_per_sec  : 335.25\npaths_total    : 132\npaths_favored  : 13\npaths_found    : 131\npaths_imported : 0\nmax_depth      : 7\ncur_path       : 116\npending_favs   : 0\npending_total  : 85\nvariable_paths : 0\nbitmap_cvg     : 1.09%\nunique_crashes : 0\nunique_hangs   : 0\nlast_path      : 1499824071\nlast_crash     : 0\nlast_hang      : 0\nexec_timeout   : 20\nafl_banner     : fuzzer-master\nafl_version    : 1.85b\ncommand_line   : /home/skaramcheti/.virtualenvs/afl/bin/afl-unix/afl-fuzz -i /dev/shm/work/Multi_Arena_Pursuit_Simulator/input -o /dev/shm/work/Multi_Arena_Pursuit_Simulator/sync -m 4G -Q -M fuzzer-master -x /dev/shm/work/Multi_Arena_Pursuit_Simulator/Multi_Arena_Pursuit_Simulator.dict -- data/linux/processed-challenges/Multi_Arena_Pursuit_Simulator/bin/Multi_Arena_Pursuit_Simulator\n'
p81
I0
tp82
a(I4920
S'start_time     : 1499819769\nlast_update    : 1499824638\nfuzzer_pid     : 6376\ncycles_done    : 1\nexecs_done     : 2613803\nexecs_per_sec  : 358.12\npaths_total    : 132\npaths_favored  : 13\npaths_found    : 131\npaths_imported : 0\nmax_depth      : 7\ncur_path       : 118\npending_favs   : 0\npending_total  : 84\nvariable_paths : 0\nbitmap_cvg     : 1.09%\nunique_crashes : 0\nunique_hangs   : 0\nlast_path      : 1499824071\nlast_crash     : 0\nlast_hang      : 0\nexec_timeout   : 20\nafl_banner     : fuzzer-master\nafl_version    : 1.85b\ncommand_line   : /home/skaramcheti/.virtualenvs/afl/bin/afl-unix/afl-fuzz -i /dev/shm/work/Multi_Arena_Pursuit_Simulator/input -o /dev/shm/work/Multi_Arena_Pursuit_Simulator/sync -m 4G -Q -M fuzzer-master -x /dev/shm/work/Multi_Arena_Pursuit_Simulator/Multi_Arena_Pursuit_Simulator.dict -- data/linux/processed-challenges/Multi_Arena_Pursuit_Simulator/bin/Multi_Arena_Pursuit_Simulator\n'
p83
I0
tp84
a(I5040
S'start_time     : 1499819769\nlast_update    : 1499824758\nfuzzer_pid     : 6376\ncycles_done    : 1\nexecs_done     : 2655588\nexecs_per_sec  : 344.88\npaths_total    : 132\npaths_favored  : 13\npaths_found    : 131\npaths_imported : 0\nmax_depth      : 7\ncur_path       : 118\npending_favs   : 0\npending_total  : 84\nvariable_paths : 0\nbitmap_cvg     : 1.09%\nunique_crashes : 0\nunique_hangs   : 0\nlast_path      : 1499824071\nlast_crash     : 0\nlast_hang      : 0\nexec_timeout   : 20\nafl_banner     : fuzzer-master\nafl_version    : 1.85b\ncommand_line   : /home/skaramcheti/.virtualenvs/afl/bin/afl-unix/afl-fuzz -i /dev/shm/work/Multi_Arena_Pursuit_Simulator/input -o /dev/shm/work/Multi_Arena_Pursuit_Simulator/sync -m 4G -Q -M fuzzer-master -x /dev/shm/work/Multi_Arena_Pursuit_Simulator/Multi_Arena_Pursuit_Simulator.dict -- data/linux/processed-challenges/Multi_Arena_Pursuit_Simulator/bin/Multi_Arena_Pursuit_Simulator\n'
p85
I0
tp86
a(I5160
S'start_time     : 1499819769\nlast_update    : 1499824878\nfuzzer_pid     : 6376\ncycles_done    : 1\nexecs_done     : 2702985\nexecs_per_sec  : 417.75\npaths_total    : 132\npaths_favored  : 13\npaths_found    : 131\npaths_imported : 0\nmax_depth      : 7\ncur_path       : 121\npending_favs   : 0\npending_total  : 83\nvariable_paths : 0\nbitmap_cvg     : 1.09%\nunique_crashes : 0\nunique_hangs   : 0\nlast_path      : 1499824071\nlast_crash     : 0\nlast_hang      : 0\nexec_timeout   : 20\nafl_banner     : fuzzer-master\nafl_version    : 1.85b\ncommand_line   : /home/skaramcheti/.virtualenvs/afl/bin/afl-unix/afl-fuzz -i /dev/shm/work/Multi_Arena_Pursuit_Simulator/input -o /dev/shm/work/Multi_Arena_Pursuit_Simulator/sync -m 4G -Q -M fuzzer-master -x /dev/shm/work/Multi_Arena_Pursuit_Simulator/Multi_Arena_Pursuit_Simulator.dict -- data/linux/processed-challenges/Multi_Arena_Pursuit_Simulator/bin/Multi_Arena_Pursuit_Simulator\n'
p87
I0
tp88
a(I5280
S'start_time     : 1499819769\nlast_update    : 1499824998\nfuzzer_pid     : 6376\ncycles_done    : 1\nexecs_done     : 2750237\nexecs_per_sec  : 279.16\npaths_total    : 132\npaths_favored  : 13\npaths_found    : 131\npaths_imported : 0\nmax_depth      : 7\ncur_path       : 124\npending_favs   : 0\npending_total  : 82\nvariable_paths : 0\nbitmap_cvg     : 1.09%\nunique_crashes : 0\nunique_hangs   : 0\nlast_path      : 1499824071\nlast_crash     : 0\nlast_hang      : 0\nexec_timeout   : 20\nafl_banner     : fuzzer-master\nafl_version    : 1.85b\ncommand_line   : /home/skaramcheti/.virtualenvs/afl/bin/afl-unix/afl-fuzz -i /dev/shm/work/Multi_Arena_Pursuit_Simulator/input -o /dev/shm/work/Multi_Arena_Pursuit_Simulator/sync -m 4G -Q -M fuzzer-master -x /dev/shm/work/Multi_Arena_Pursuit_Simulator/Multi_Arena_Pursuit_Simulator.dict -- data/linux/processed-challenges/Multi_Arena_Pursuit_Simulator/bin/Multi_Arena_Pursuit_Simulator\n'
p89
I0
tp90
a(I5400
S'start_time     : 1499819769\nlast_update    : 1499825118\nfuzzer_pid     : 6376\ncycles_done    : 1\nexecs_done     : 2782956\nexecs_per_sec  : 274.58\npaths_total    : 132\npaths_favored  : 13\npaths_found    : 131\npaths_imported : 0\nmax_depth      : 7\ncur_path       : 124\npending_favs   : 0\npending_total  : 82\nvariable_paths : 0\nbitmap_cvg     : 1.09%\nunique_crashes : 0\nunique_hangs   : 0\nlast_path      : 1499824071\nlast_crash     : 0\nlast_hang      : 0\nexec_timeout   : 20\nafl_banner     : fuzzer-master\nafl_version    : 1.85b\ncommand_line   : /home/skaramcheti/.virtualenvs/afl/bin/afl-unix/afl-fuzz -i /dev/shm/work/Multi_Arena_Pursuit_Simulator/input -o /dev/shm/work/Multi_Arena_Pursuit_Simulator/sync -m 4G -Q -M fuzzer-master -x /dev/shm/work/Multi_Arena_Pursuit_Simulator/Multi_Arena_Pursuit_Simulator.dict -- data/linux/processed-challenges/Multi_Arena_Pursuit_Simulator/bin/Multi_Arena_Pursuit_Simulator\n'
p91
I0
tp92
a(I5520
S'start_time     : 1499819769\nlast_update    : 1499825239\nfuzzer_pid     : 6376\ncycles_done    : 1\nexecs_done     : 2815608\nexecs_per_sec  : 271.80\npaths_total    : 132\npaths_favored  : 13\npaths_found    : 131\npaths_imported : 0\nmax_depth      : 7\ncur_path       : 124\npending_favs   : 0\npending_total  : 82\nvariable_paths : 0\nbitmap_cvg     : 1.09%\nunique_crashes : 0\nunique_hangs   : 0\nlast_path      : 1499824071\nlast_crash     : 0\nlast_hang      : 0\nexec_timeout   : 20\nafl_banner     : fuzzer-master\nafl_version    : 1.85b\ncommand_line   : /home/skaramcheti/.virtualenvs/afl/bin/afl-unix/afl-fuzz -i /dev/shm/work/Multi_Arena_Pursuit_Simulator/input -o /dev/shm/work/Multi_Arena_Pursuit_Simulator/sync -m 4G -Q -M fuzzer-master -x /dev/shm/work/Multi_Arena_Pursuit_Simulator/Multi_Arena_Pursuit_Simulator.dict -- data/linux/processed-challenges/Multi_Arena_Pursuit_Simulator/bin/Multi_Arena_Pursuit_Simulator\n'
p93
I4
tp94
a(I5640
S'start_time     : 1499819769\nlast_update    : 1499825359\nfuzzer_pid     : 6376\ncycles_done    : 1\nexecs_done     : 2849642\nexecs_per_sec  : 293.28\npaths_total    : 137\npaths_favored  : 13\npaths_found    : 136\npaths_imported : 0\nmax_depth      : 8\ncur_path       : 124\npending_favs   : 0\npending_total  : 87\nvariable_paths : 0\nbitmap_cvg     : 1.09%\nunique_crashes : 0\nunique_hangs   : 0\nlast_path      : 1499825349\nlast_crash     : 0\nlast_hang      : 0\nexec_timeout   : 20\nafl_banner     : fuzzer-master\nafl_version    : 1.85b\ncommand_line   : /home/skaramcheti/.virtualenvs/afl/bin/afl-unix/afl-fuzz -i /dev/shm/work/Multi_Arena_Pursuit_Simulator/input -o /dev/shm/work/Multi_Arena_Pursuit_Simulator/sync -m 4G -Q -M fuzzer-master -x /dev/shm/work/Multi_Arena_Pursuit_Simulator/Multi_Arena_Pursuit_Simulator.dict -- data/linux/processed-challenges/Multi_Arena_Pursuit_Simulator/bin/Multi_Arena_Pursuit_Simulator\n'
p95
I1
tp96
a(I5760
S'start_time     : 1499819769\nlast_update    : 1499825479\nfuzzer_pid     : 6376\ncycles_done    : 1\nexecs_done     : 2884317\nexecs_per_sec  : 285.28\npaths_total    : 137\npaths_favored  : 13\npaths_found    : 136\npaths_imported : 0\nmax_depth      : 8\ncur_path       : 124\npending_favs   : 0\npending_total  : 87\nvariable_paths : 0\nbitmap_cvg     : 1.09%\nunique_crashes : 0\nunique_hangs   : 0\nlast_path      : 1499825349\nlast_crash     : 0\nlast_hang      : 0\nexec_timeout   : 20\nafl_banner     : fuzzer-master\nafl_version    : 1.85b\ncommand_line   : /home/skaramcheti/.virtualenvs/afl/bin/afl-unix/afl-fuzz -i /dev/shm/work/Multi_Arena_Pursuit_Simulator/input -o /dev/shm/work/Multi_Arena_Pursuit_Simulator/sync -m 4G -Q -M fuzzer-master -x /dev/shm/work/Multi_Arena_Pursuit_Simulator/Multi_Arena_Pursuit_Simulator.dict -- data/linux/processed-challenges/Multi_Arena_Pursuit_Simulator/bin/Multi_Arena_Pursuit_Simulator\n'
p97
I1
tp98
a(I5880
S'start_time     : 1499819769\nlast_update    : 1499825599\nfuzzer_pid     : 6376\ncycles_done    : 1\nexecs_done     : 2919037\nexecs_per_sec  : 293.60\npaths_total    : 138\npaths_favored  : 13\npaths_found    : 137\npaths_imported : 0\nmax_depth      : 8\ncur_path       : 124\npending_favs   : 0\npending_total  : 88\nvariable_paths : 0\nbitmap_cvg     : 1.09%\nunique_crashes : 0\nunique_hangs   : 0\nlast_path      : 1499825498\nlast_crash     : 0\nlast_hang      : 0\nexec_timeout   : 20\nafl_banner     : fuzzer-master\nafl_version    : 1.85b\ncommand_line   : /home/skaramcheti/.virtualenvs/afl/bin/afl-unix/afl-fuzz -i /dev/shm/work/Multi_Arena_Pursuit_Simulator/input -o /dev/shm/work/Multi_Arena_Pursuit_Simulator/sync -m 4G -Q -M fuzzer-master -x /dev/shm/work/Multi_Arena_Pursuit_Simulator/Multi_Arena_Pursuit_Simulator.dict -- data/linux/processed-challenges/Multi_Arena_Pursuit_Simulator/bin/Multi_Arena_Pursuit_Simulator\n'
p99
I0
tp100
a(I6000
S'start_time     : 1499819769\nlast_update    : 1499825720\nfuzzer_pid     : 6376\ncycles_done    : 1\nexecs_done     : 2954098\nexecs_per_sec  : 304.52\npaths_total    : 138\npaths_favored  : 13\npaths_found    : 137\npaths_imported : 0\nmax_depth      : 8\ncur_path       : 127\npending_favs   : 0\npending_total  : 87\nvariable_paths : 0\nbitmap_cvg     : 1.09%\nunique_crashes : 0\nunique_hangs   : 0\nlast_path      : 1499825498\nlast_crash     : 0\nlast_hang      : 0\nexec_timeout   : 20\nafl_banner     : fuzzer-master\nafl_version    : 1.85b\ncommand_line   : /home/skaramcheti/.virtualenvs/afl/bin/afl-unix/afl-fuzz -i /dev/shm/work/Multi_Arena_Pursuit_Simulator/input -o /dev/shm/work/Multi_Arena_Pursuit_Simulator/sync -m 4G -Q -M fuzzer-master -x /dev/shm/work/Multi_Arena_Pursuit_Simulator/Multi_Arena_Pursuit_Simulator.dict -- data/linux/processed-challenges/Multi_Arena_Pursuit_Simulator/bin/Multi_Arena_Pursuit_Simulator\n'
p101
I0
tp102
a(I6120
S'start_time     : 1499819769\nlast_update    : 1499825840\nfuzzer_pid     : 6376\ncycles_done    : 1\nexecs_done     : 2990635\nexecs_per_sec  : 307.91\npaths_total    : 138\npaths_favored  : 13\npaths_found    : 137\npaths_imported : 0\nmax_depth      : 8\ncur_path       : 127\npending_favs   : 0\npending_total  : 87\nvariable_paths : 0\nbitmap_cvg     : 1.09%\nunique_crashes : 0\nunique_hangs   : 0\nlast_path      : 1499825498\nlast_crash     : 0\nlast_hang      : 0\nexec_timeout   : 20\nafl_banner     : fuzzer-master\nafl_version    : 1.85b\ncommand_line   : /home/skaramcheti/.virtualenvs/afl/bin/afl-unix/afl-fuzz -i /dev/shm/work/Multi_Arena_Pursuit_Simulator/input -o /dev/shm/work/Multi_Arena_Pursuit_Simulator/sync -m 4G -Q -M fuzzer-master -x /dev/shm/work/Multi_Arena_Pursuit_Simulator/Multi_Arena_Pursuit_Simulator.dict -- data/linux/processed-challenges/Multi_Arena_Pursuit_Simulator/bin/Multi_Arena_Pursuit_Simulator\n'
p103
I0
tp104
a(I6240
S'start_time     : 1499819769\nlast_update    : 1499825960\nfuzzer_pid     : 6376\ncycles_done    : 1\nexecs_done     : 3027244\nexecs_per_sec  : 309.28\npaths_total    : 138\npaths_favored  : 13\npaths_found    : 137\npaths_imported : 0\nmax_depth      : 8\ncur_path       : 127\npending_favs   : 0\npending_total  : 87\nvariable_paths : 0\nbitmap_cvg     : 1.09%\nunique_crashes : 0\nunique_hangs   : 0\nlast_path      : 1499825498\nlast_crash     : 0\nlast_hang      : 0\nexec_timeout   : 20\nafl_banner     : fuzzer-master\nafl_version    : 1.85b\ncommand_line   : /home/skaramcheti/.virtualenvs/afl/bin/afl-unix/afl-fuzz -i /dev/shm/work/Multi_Arena_Pursuit_Simulator/input -o /dev/shm/work/Multi_Arena_Pursuit_Simulator/sync -m 4G -Q -M fuzzer-master -x /dev/shm/work/Multi_Arena_Pursuit_Simulator/Multi_Arena_Pursuit_Simulator.dict -- data/linux/processed-challenges/Multi_Arena_Pursuit_Simulator/bin/Multi_Arena_Pursuit_Simulator\n'
p105
I0
tp106
a(I6360
S'start_time     : 1499819769\nlast_update    : 1499826080\nfuzzer_pid     : 6376\ncycles_done    : 1\nexecs_done     : 3063935\nexecs_per_sec  : 327.42\npaths_total    : 138\npaths_favored  : 13\npaths_found    : 137\npaths_imported : 0\nmax_depth      : 8\ncur_path       : 127\npending_favs   : 0\npending_total  : 87\nvariable_paths : 0\nbitmap_cvg     : 1.09%\nunique_crashes : 0\nunique_hangs   : 0\nlast_path      : 1499825498\nlast_crash     : 0\nlast_hang      : 0\nexec_timeout   : 20\nafl_banner     : fuzzer-master\nafl_version    : 1.85b\ncommand_line   : /home/skaramcheti/.virtualenvs/afl/bin/afl-unix/afl-fuzz -i /dev/shm/work/Multi_Arena_Pursuit_Simulator/input -o /dev/shm/work/Multi_Arena_Pursuit_Simulator/sync -m 4G -Q -M fuzzer-master -x /dev/shm/work/Multi_Arena_Pursuit_Simulator/Multi_Arena_Pursuit_Simulator.dict -- data/linux/processed-challenges/Multi_Arena_Pursuit_Simulator/bin/Multi_Arena_Pursuit_Simulator\n'
p107
I0
tp108
a(I6480
S'start_time     : 1499819769\nlast_update    : 1499826200\nfuzzer_pid     : 6376\ncycles_done    : 1\nexecs_done     : 3096299\nexecs_per_sec  : 233.55\npaths_total    : 138\npaths_favored  : 13\npaths_found    : 137\npaths_imported : 0\nmax_depth      : 8\ncur_path       : 134\npending_favs   : 0\npending_total  : 86\nvariable_paths : 0\nbitmap_cvg     : 1.09%\nunique_crashes : 0\nunique_hangs   : 0\nlast_path      : 1499825498\nlast_crash     : 0\nlast_hang      : 0\nexec_timeout   : 20\nafl_banner     : fuzzer-master\nafl_version    : 1.85b\ncommand_line   : /home/skaramcheti/.virtualenvs/afl/bin/afl-unix/afl-fuzz -i /dev/shm/work/Multi_Arena_Pursuit_Simulator/input -o /dev/shm/work/Multi_Arena_Pursuit_Simulator/sync -m 4G -Q -M fuzzer-master -x /dev/shm/work/Multi_Arena_Pursuit_Simulator/Multi_Arena_Pursuit_Simulator.dict -- data/linux/processed-challenges/Multi_Arena_Pursuit_Simulator/bin/Multi_Arena_Pursuit_Simulator\n'
p109
I0
tp110
a(I6600
S'start_time     : 1499819769\nlast_update    : 1499826321\nfuzzer_pid     : 6376\ncycles_done    : 1\nexecs_done     : 3123913\nexecs_per_sec  : 232.14\npaths_total    : 138\npaths_favored  : 13\npaths_found    : 137\npaths_imported : 0\nmax_depth      : 8\ncur_path       : 134\npending_favs   : 0\npending_total  : 86\nvariable_paths : 0\nbitmap_cvg     : 1.09%\nunique_crashes : 0\nunique_hangs   : 0\nlast_path      : 1499825498\nlast_crash     : 0\nlast_hang      : 0\nexec_timeout   : 20\nafl_banner     : fuzzer-master\nafl_version    : 1.85b\ncommand_line   : /home/skaramcheti/.virtualenvs/afl/bin/afl-unix/afl-fuzz -i /dev/shm/work/Multi_Arena_Pursuit_Simulator/input -o /dev/shm/work/Multi_Arena_Pursuit_Simulator/sync -m 4G -Q -M fuzzer-master -x /dev/shm/work/Multi_Arena_Pursuit_Simulator/Multi_Arena_Pursuit_Simulator.dict -- data/linux/processed-challenges/Multi_Arena_Pursuit_Simulator/bin/Multi_Arena_Pursuit_Simulator\n'
p111
I0
tp112
a(I6720
S'start_time     : 1499819769\nlast_update    : 1499826441\nfuzzer_pid     : 6376\ncycles_done    : 1\nexecs_done     : 3152097\nexecs_per_sec  : 232.75\npaths_total    : 138\npaths_favored  : 13\npaths_found    : 137\npaths_imported : 0\nmax_depth      : 8\ncur_path       : 134\npending_favs   : 0\npending_total  : 86\nvariable_paths : 0\nbitmap_cvg     : 1.09%\nunique_crashes : 0\nunique_hangs   : 0\nlast_path      : 1499825498\nlast_crash     : 0\nlast_hang      : 0\nexec_timeout   : 20\nafl_banner     : fuzzer-master\nafl_version    : 1.85b\ncommand_line   : /home/skaramcheti/.virtualenvs/afl/bin/afl-unix/afl-fuzz -i /dev/shm/work/Multi_Arena_Pursuit_Simulator/input -o /dev/shm/work/Multi_Arena_Pursuit_Simulator/sync -m 4G -Q -M fuzzer-master -x /dev/shm/work/Multi_Arena_Pursuit_Simulator/Multi_Arena_Pursuit_Simulator.dict -- data/linux/processed-challenges/Multi_Arena_Pursuit_Simulator/bin/Multi_Arena_Pursuit_Simulator\n'
p113
I0
tp114
a(I6840
S'start_time     : 1499819769\nlast_update    : 1499826561\nfuzzer_pid     : 6376\ncycles_done    : 1\nexecs_done     : 3180157\nexecs_per_sec  : 232.87\npaths_total    : 138\npaths_favored  : 13\npaths_found    : 137\npaths_imported : 0\nmax_depth      : 8\ncur_path       : 134\npending_favs   : 0\npending_total  : 86\nvariable_paths : 0\nbitmap_cvg     : 1.09%\nunique_crashes : 0\nunique_hangs   : 0\nlast_path      : 1499825498\nlast_crash     : 0\nlast_hang      : 0\nexec_timeout   : 20\nafl_banner     : fuzzer-master\nafl_version    : 1.85b\ncommand_line   : /home/skaramcheti/.virtualenvs/afl/bin/afl-unix/afl-fuzz -i /dev/shm/work/Multi_Arena_Pursuit_Simulator/input -o /dev/shm/work/Multi_Arena_Pursuit_Simulator/sync -m 4G -Q -M fuzzer-master -x /dev/shm/work/Multi_Arena_Pursuit_Simulator/Multi_Arena_Pursuit_Simulator.dict -- data/linux/processed-challenges/Multi_Arena_Pursuit_Simulator/bin/Multi_Arena_Pursuit_Simulator\n'
p115
I1
tp116
a(I6960
S'start_time     : 1499819769\nlast_update    : 1499826681\nfuzzer_pid     : 6376\ncycles_done    : 1\nexecs_done     : 3209630\nexecs_per_sec  : 254.24\npaths_total    : 141\npaths_favored  : 13\npaths_found    : 140\npaths_imported : 0\nmax_depth      : 9\ncur_path       : 134\npending_favs   : 0\npending_total  : 89\nvariable_paths : 0\nbitmap_cvg     : 1.09%\nunique_crashes : 0\nunique_hangs   : 0\nlast_path      : 1499826631\nlast_crash     : 0\nlast_hang      : 0\nexec_timeout   : 20\nafl_banner     : fuzzer-master\nafl_version    : 1.85b\ncommand_line   : /home/skaramcheti/.virtualenvs/afl/bin/afl-unix/afl-fuzz -i /dev/shm/work/Multi_Arena_Pursuit_Simulator/input -o /dev/shm/work/Multi_Arena_Pursuit_Simulator/sync -m 4G -Q -M fuzzer-master -x /dev/shm/work/Multi_Arena_Pursuit_Simulator/Multi_Arena_Pursuit_Simulator.dict -- data/linux/processed-challenges/Multi_Arena_Pursuit_Simulator/bin/Multi_Arena_Pursuit_Simulator\n'
p117
I3
tp118
a(I7080
S'start_time     : 1499819769\nlast_update    : 1499826802\nfuzzer_pid     : 6376\ncycles_done    : 1\nexecs_done     : 3239387\nexecs_per_sec  : 249.99\npaths_total    : 142\npaths_favored  : 13\npaths_found    : 141\npaths_imported : 0\nmax_depth      : 9\ncur_path       : 134\npending_favs   : 0\npending_total  : 90\nvariable_paths : 0\nbitmap_cvg     : 1.09%\nunique_crashes : 0\nunique_hangs   : 0\nlast_path      : 1499826683\nlast_crash     : 0\nlast_hang      : 0\nexec_timeout   : 20\nafl_banner     : fuzzer-master\nafl_version    : 1.85b\ncommand_line   : /home/skaramcheti/.virtualenvs/afl/bin/afl-unix/afl-fuzz -i /dev/shm/work/Multi_Arena_Pursuit_Simulator/input -o /dev/shm/work/Multi_Arena_Pursuit_Simulator/sync -m 4G -Q -M fuzzer-master -x /dev/shm/work/Multi_Arena_Pursuit_Simulator/Multi_Arena_Pursuit_Simulator.dict -- data/linux/processed-challenges/Multi_Arena_Pursuit_Simulator/bin/Multi_Arena_Pursuit_Simulator\n'
p119
I0
tp120
a(I7200
S'start_time     : 1499819769\nlast_update    : 1499826922\nfuzzer_pid     : 6376\ncycles_done    : 1\nexecs_done     : 3269059\nexecs_per_sec  : 244.36\npaths_total    : 142\npaths_favored  : 13\npaths_found    : 141\npaths_imported : 0\nmax_depth      : 9\ncur_path       : 134\npending_favs   : 0\npending_total  : 90\nvariable_paths : 0\nbitmap_cvg     : 1.09%\nunique_crashes : 0\nunique_hangs   : 0\nlast_path      : 1499826683\nlast_crash     : 0\nlast_hang      : 0\nexec_timeout   : 20\nafl_banner     : fuzzer-master\nafl_version    : 1.85b\ncommand_line   : /home/skaramcheti/.virtualenvs/afl/bin/afl-unix/afl-fuzz -i /dev/shm/work/Multi_Arena_Pursuit_Simulator/input -o /dev/shm/work/Multi_Arena_Pursuit_Simulator/sync -m 4G -Q -M fuzzer-master -x /dev/shm/work/Multi_Arena_Pursuit_Simulator/Multi_Arena_Pursuit_Simulator.dict -- data/linux/processed-challenges/Multi_Arena_Pursuit_Simulator/bin/Multi_Arena_Pursuit_Simulator\n'
p121
I0
tp122
a(I7320
S'start_time     : 1499819769\nlast_update    : 1499827042\nfuzzer_pid     : 6376\ncycles_done    : 1\nexecs_done     : 3298655\nexecs_per_sec  : 249.68\npaths_total    : 142\npaths_favored  : 13\npaths_found    : 141\npaths_imported : 0\nmax_depth      : 9\ncur_path       : 134\npending_favs   : 0\npending_total  : 90\nvariable_paths : 0\nbitmap_cvg     : 1.09%\nunique_crashes : 0\nunique_hangs   : 0\nlast_path      : 1499826683\nlast_crash     : 0\nlast_hang      : 0\nexec_timeout   : 20\nafl_banner     : fuzzer-master\nafl_version    : 1.85b\ncommand_line   : /home/skaramcheti/.virtualenvs/afl/bin/afl-unix/afl-fuzz -i /dev/shm/work/Multi_Arena_Pursuit_Simulator/input -o /dev/shm/work/Multi_Arena_Pursuit_Simulator/sync -m 4G -Q -M fuzzer-master -x /dev/shm/work/Multi_Arena_Pursuit_Simulator/Multi_Arena_Pursuit_Simulator.dict -- data/linux/processed-challenges/Multi_Arena_Pursuit_Simulator/bin/Multi_Arena_Pursuit_Simulator\n'
p123
I0
tp124
a(I7440
S'start_time     : 1499819769\nlast_update    : 1499827162\nfuzzer_pid     : 6376\ncycles_done    : 1\nexecs_done     : 3328771\nexecs_per_sec  : 245.60\npaths_total    : 142\npaths_favored  : 13\npaths_found    : 141\npaths_imported : 0\nmax_depth      : 9\ncur_path       : 134\npending_favs   : 0\npending_total  : 90\nvariable_paths : 0\nbitmap_cvg     : 1.09%\nunique_crashes : 0\nunique_hangs   : 0\nlast_path      : 1499826683\nlast_crash     : 0\nlast_hang      : 0\nexec_timeout   : 20\nafl_banner     : fuzzer-master\nafl_version    : 1.85b\ncommand_line   : /home/skaramcheti/.virtualenvs/afl/bin/afl-unix/afl-fuzz -i /dev/shm/work/Multi_Arena_Pursuit_Simulator/input -o /dev/shm/work/Multi_Arena_Pursuit_Simulator/sync -m 4G -Q -M fuzzer-master -x /dev/shm/work/Multi_Arena_Pursuit_Simulator/Multi_Arena_Pursuit_Simulator.dict -- data/linux/processed-challenges/Multi_Arena_Pursuit_Simulator/bin/Multi_Arena_Pursuit_Simulator\n'
p125
I0
tp126
a(I7560
S'start_time     : 1499819769\nlast_update    : 1499827283\nfuzzer_pid     : 6376\ncycles_done    : 1\nexecs_done     : 3359135\nexecs_per_sec  : 266.71\npaths_total    : 142\npaths_favored  : 13\npaths_found    : 141\npaths_imported : 0\nmax_depth      : 9\ncur_path       : 136\npending_favs   : 0\npending_total  : 89\nvariable_paths : 0\nbitmap_cvg     : 1.09%\nunique_crashes : 0\nunique_hangs   : 0\nlast_path      : 1499826683\nlast_crash     : 0\nlast_hang      : 0\nexec_timeout   : 20\nafl_banner     : fuzzer-master\nafl_version    : 1.85b\ncommand_line   : /home/skaramcheti/.virtualenvs/afl/bin/afl-unix/afl-fuzz -i /dev/shm/work/Multi_Arena_Pursuit_Simulator/input -o /dev/shm/work/Multi_Arena_Pursuit_Simulator/sync -m 4G -Q -M fuzzer-master -x /dev/shm/work/Multi_Arena_Pursuit_Simulator/Multi_Arena_Pursuit_Simulator.dict -- data/linux/processed-challenges/Multi_Arena_Pursuit_Simulator/bin/Multi_Arena_Pursuit_Simulator\n'
p127
I0
tp128
a(I7680
S'start_time     : 1499819769\nlast_update    : 1499827403\nfuzzer_pid     : 6376\ncycles_done    : 1\nexecs_done     : 3390913\nexecs_per_sec  : 257.32\npaths_total    : 142\npaths_favored  : 13\npaths_found    : 141\npaths_imported : 0\nmax_depth      : 9\ncur_path       : 136\npending_favs   : 0\npending_total  : 89\nvariable_paths : 0\nbitmap_cvg     : 1.09%\nunique_crashes : 0\nunique_hangs   : 0\nlast_path      : 1499826683\nlast_crash     : 0\nlast_hang      : 0\nexec_timeout   : 20\nafl_banner     : fuzzer-master\nafl_version    : 1.85b\ncommand_line   : /home/skaramcheti/.virtualenvs/afl/bin/afl-unix/afl-fuzz -i /dev/shm/work/Multi_Arena_Pursuit_Simulator/input -o /dev/shm/work/Multi_Arena_Pursuit_Simulator/sync -m 4G -Q -M fuzzer-master -x /dev/shm/work/Multi_Arena_Pursuit_Simulator/Multi_Arena_Pursuit_Simulator.dict -- data/linux/processed-challenges/Multi_Arena_Pursuit_Simulator/bin/Multi_Arena_Pursuit_Simulator\n'
p129
I0
tp130
a(I7800
S'start_time     : 1499819769\nlast_update    : 1499827523\nfuzzer_pid     : 6376\ncycles_done    : 1\nexecs_done     : 3423025\nexecs_per_sec  : 264.99\npaths_total    : 142\npaths_favored  : 13\npaths_found    : 141\npaths_imported : 0\nmax_depth      : 9\ncur_path       : 136\npending_favs   : 0\npending_total  : 89\nvariable_paths : 0\nbitmap_cvg     : 1.09%\nunique_crashes : 0\nunique_hangs   : 0\nlast_path      : 1499826683\nlast_crash     : 0\nlast_hang      : 0\nexec_timeout   : 20\nafl_banner     : fuzzer-master\nafl_version    : 1.85b\ncommand_line   : /home/skaramcheti/.virtualenvs/afl/bin/afl-unix/afl-fuzz -i /dev/shm/work/Multi_Arena_Pursuit_Simulator/input -o /dev/shm/work/Multi_Arena_Pursuit_Simulator/sync -m 4G -Q -M fuzzer-master -x /dev/shm/work/Multi_Arena_Pursuit_Simulator/Multi_Arena_Pursuit_Simulator.dict -- data/linux/processed-challenges/Multi_Arena_Pursuit_Simulator/bin/Multi_Arena_Pursuit_Simulator\n'
p131
I0
tp132
a(I7920
S'start_time     : 1499819769\nlast_update    : 1499827643\nfuzzer_pid     : 6376\ncycles_done    : 1\nexecs_done     : 3456191\nexecs_per_sec  : 282.66\npaths_total    : 142\npaths_favored  : 13\npaths_found    : 141\npaths_imported : 0\nmax_depth      : 9\ncur_path       : 136\npending_favs   : 0\npending_total  : 89\nvariable_paths : 0\nbitmap_cvg     : 1.09%\nunique_crashes : 0\nunique_hangs   : 0\nlast_path      : 1499826683\nlast_crash     : 0\nlast_hang      : 0\nexec_timeout   : 20\nafl_banner     : fuzzer-master\nafl_version    : 1.85b\ncommand_line   : /home/skaramcheti/.virtualenvs/afl/bin/afl-unix/afl-fuzz -i /dev/shm/work/Multi_Arena_Pursuit_Simulator/input -o /dev/shm/work/Multi_Arena_Pursuit_Simulator/sync -m 4G -Q -M fuzzer-master -x /dev/shm/work/Multi_Arena_Pursuit_Simulator/Multi_Arena_Pursuit_Simulator.dict -- data/linux/processed-challenges/Multi_Arena_Pursuit_Simulator/bin/Multi_Arena_Pursuit_Simulator\n'
p133
I0
tp134
a(I8040
S'start_time     : 1499819769\nlast_update    : 1499827763\nfuzzer_pid     : 6376\ncycles_done    : 1\nexecs_done     : 3483616\nexecs_per_sec  : 207.27\npaths_total    : 142\npaths_favored  : 13\npaths_found    : 141\npaths_imported : 0\nmax_depth      : 9\ncur_path       : 139\npending_favs   : 0\npending_total  : 88\nvariable_paths : 0\nbitmap_cvg     : 1.09%\nunique_crashes : 0\nunique_hangs   : 0\nlast_path      : 1499826683\nlast_crash     : 0\nlast_hang      : 0\nexec_timeout   : 20\nafl_banner     : fuzzer-master\nafl_version    : 1.85b\ncommand_line   : /home/skaramcheti/.virtualenvs/afl/bin/afl-unix/afl-fuzz -i /dev/shm/work/Multi_Arena_Pursuit_Simulator/input -o /dev/shm/work/Multi_Arena_Pursuit_Simulator/sync -m 4G -Q -M fuzzer-master -x /dev/shm/work/Multi_Arena_Pursuit_Simulator/Multi_Arena_Pursuit_Simulator.dict -- data/linux/processed-challenges/Multi_Arena_Pursuit_Simulator/bin/Multi_Arena_Pursuit_Simulator\n'
p135
I0
tp136
a(I8160
S'start_time     : 1499819769\nlast_update    : 1499827884\nfuzzer_pid     : 6376\ncycles_done    : 1\nexecs_done     : 3508275\nexecs_per_sec  : 203.21\npaths_total    : 142\npaths_favored  : 13\npaths_found    : 141\npaths_imported : 0\nmax_depth      : 9\ncur_path       : 139\npending_favs   : 0\npending_total  : 88\nvariable_paths : 0\nbitmap_cvg     : 1.09%\nunique_crashes : 0\nunique_hangs   : 0\nlast_path      : 1499826683\nlast_crash     : 0\nlast_hang      : 0\nexec_timeout   : 20\nafl_banner     : fuzzer-master\nafl_version    : 1.85b\ncommand_line   : /home/skaramcheti/.virtualenvs/afl/bin/afl-unix/afl-fuzz -i /dev/shm/work/Multi_Arena_Pursuit_Simulator/input -o /dev/shm/work/Multi_Arena_Pursuit_Simulator/sync -m 4G -Q -M fuzzer-master -x /dev/shm/work/Multi_Arena_Pursuit_Simulator/Multi_Arena_Pursuit_Simulator.dict -- data/linux/processed-challenges/Multi_Arena_Pursuit_Simulator/bin/Multi_Arena_Pursuit_Simulator\n'
p137
I0
tp138
a(I8280
S'start_time     : 1499819769\nlast_update    : 1499828004\nfuzzer_pid     : 6376\ncycles_done    : 1\nexecs_done     : 3532829\nexecs_per_sec  : 208.91\npaths_total    : 142\npaths_favored  : 13\npaths_found    : 141\npaths_imported : 0\nmax_depth      : 9\ncur_path       : 139\npending_favs   : 0\npending_total  : 88\nvariable_paths : 0\nbitmap_cvg     : 1.09%\nunique_crashes : 0\nunique_hangs   : 0\nlast_path      : 1499826683\nlast_crash     : 0\nlast_hang      : 0\nexec_timeout   : 20\nafl_banner     : fuzzer-master\nafl_version    : 1.85b\ncommand_line   : /home/skaramcheti/.virtualenvs/afl/bin/afl-unix/afl-fuzz -i /dev/shm/work/Multi_Arena_Pursuit_Simulator/input -o /dev/shm/work/Multi_Arena_Pursuit_Simulator/sync -m 4G -Q -M fuzzer-master -x /dev/shm/work/Multi_Arena_Pursuit_Simulator/Multi_Arena_Pursuit_Simulator.dict -- data/linux/processed-challenges/Multi_Arena_Pursuit_Simulator/bin/Multi_Arena_Pursuit_Simulator\n'
p139
I0
tp140
a(I8400
S'start_time     : 1499819769\nlast_update    : 1499828124\nfuzzer_pid     : 6376\ncycles_done    : 1\nexecs_done     : 3557515\nexecs_per_sec  : 209.33\npaths_total    : 142\npaths_favored  : 13\npaths_found    : 141\npaths_imported : 0\nmax_depth      : 9\ncur_path       : 139\npending_favs   : 0\npending_total  : 88\nvariable_paths : 0\nbitmap_cvg     : 1.09%\nunique_crashes : 0\nunique_hangs   : 0\nlast_path      : 1499826683\nlast_crash     : 0\nlast_hang      : 0\nexec_timeout   : 20\nafl_banner     : fuzzer-master\nafl_version    : 1.85b\ncommand_line   : /home/skaramcheti/.virtualenvs/afl/bin/afl-unix/afl-fuzz -i /dev/shm/work/Multi_Arena_Pursuit_Simulator/input -o /dev/shm/work/Multi_Arena_Pursuit_Simulator/sync -m 4G -Q -M fuzzer-master -x /dev/shm/work/Multi_Arena_Pursuit_Simulator/Multi_Arena_Pursuit_Simulator.dict -- data/linux/processed-challenges/Multi_Arena_Pursuit_Simulator/bin/Multi_Arena_Pursuit_Simulator\n'
p141
I0
tp142
a(I8520
S'start_time     : 1499819769\nlast_update    : 1499828244\nfuzzer_pid     : 6376\ncycles_done    : 1\nexecs_done     : 3582267\nexecs_per_sec  : 203.85\npaths_total    : 142\npaths_favored  : 13\npaths_found    : 141\npaths_imported : 0\nmax_depth      : 9\ncur_path       : 139\npending_favs   : 0\npending_total  : 88\nvariable_paths : 0\nbitmap_cvg     : 1.09%\nunique_crashes : 0\nunique_hangs   : 0\nlast_path      : 1499826683\nlast_crash     : 0\nlast_hang      : 0\nexec_timeout   : 20\nafl_banner     : fuzzer-master\nafl_version    : 1.85b\ncommand_line   : /home/skaramcheti/.virtualenvs/afl/bin/afl-unix/afl-fuzz -i /dev/shm/work/Multi_Arena_Pursuit_Simulator/input -o /dev/shm/work/Multi_Arena_Pursuit_Simulator/sync -m 4G -Q -M fuzzer-master -x /dev/shm/work/Multi_Arena_Pursuit_Simulator/Multi_Arena_Pursuit_Simulator.dict -- data/linux/processed-challenges/Multi_Arena_Pursuit_Simulator/bin/Multi_Arena_Pursuit_Simulator\n'
p143
I0
tp144
a(I8640
S'start_time     : 1499819769\nlast_update    : 1499828364\nfuzzer_pid     : 6376\ncycles_done    : 1\nexecs_done     : 3608394\nexecs_per_sec  : 180.33\npaths_total    : 142\npaths_favored  : 13\npaths_found    : 141\npaths_imported : 0\nmax_depth      : 9\ncur_path       : 141\npending_favs   : 0\npending_total  : 87\nvariable_paths : 0\nbitmap_cvg     : 1.09%\nunique_crashes : 0\nunique_hangs   : 0\nlast_path      : 1499826683\nlast_crash     : 0\nlast_hang      : 0\nexec_timeout   : 20\nafl_banner     : fuzzer-master\nafl_version    : 1.85b\ncommand_line   : /home/skaramcheti/.virtualenvs/afl/bin/afl-unix/afl-fuzz -i /dev/shm/work/Multi_Arena_Pursuit_Simulator/input -o /dev/shm/work/Multi_Arena_Pursuit_Simulator/sync -m 4G -Q -M fuzzer-master -x /dev/shm/work/Multi_Arena_Pursuit_Simulator/Multi_Arena_Pursuit_Simulator.dict -- data/linux/processed-challenges/Multi_Arena_Pursuit_Simulator/bin/Multi_Arena_Pursuit_Simulator\n'
p145
I0
tp146
a(I8760
S'start_time     : 1499819769\nlast_update    : 1499828485\nfuzzer_pid     : 6376\ncycles_done    : 1\nexecs_done     : 3629579\nexecs_per_sec  : 176.60\npaths_total    : 142\npaths_favored  : 13\npaths_found    : 141\npaths_imported : 0\nmax_depth      : 9\ncur_path       : 141\npending_favs   : 0\npending_total  : 87\nvariable_paths : 0\nbitmap_cvg     : 1.09%\nunique_crashes : 0\nunique_hangs   : 0\nlast_path      : 1499826683\nlast_crash     : 0\nlast_hang      : 0\nexec_timeout   : 20\nafl_banner     : fuzzer-master\nafl_version    : 1.85b\ncommand_line   : /home/skaramcheti/.virtualenvs/afl/bin/afl-unix/afl-fuzz -i /dev/shm/work/Multi_Arena_Pursuit_Simulator/input -o /dev/shm/work/Multi_Arena_Pursuit_Simulator/sync -m 4G -Q -M fuzzer-master -x /dev/shm/work/Multi_Arena_Pursuit_Simulator/Multi_Arena_Pursuit_Simulator.dict -- data/linux/processed-challenges/Multi_Arena_Pursuit_Simulator/bin/Multi_Arena_Pursuit_Simulator\n'
p147
I0
tp148
a(I8880
S'start_time     : 1499819769\nlast_update    : 1499828605\nfuzzer_pid     : 6376\ncycles_done    : 1\nexecs_done     : 3650721\nexecs_per_sec  : 171.64\npaths_total    : 142\npaths_favored  : 13\npaths_found    : 141\npaths_imported : 0\nmax_depth      : 9\ncur_path       : 141\npending_favs   : 0\npending_total  : 87\nvariable_paths : 0\nbitmap_cvg     : 1.09%\nunique_crashes : 0\nunique_hangs   : 0\nlast_path      : 1499826683\nlast_crash     : 0\nlast_hang      : 0\nexec_timeout   : 20\nafl_banner     : fuzzer-master\nafl_version    : 1.85b\ncommand_line   : /home/skaramcheti/.virtualenvs/afl/bin/afl-unix/afl-fuzz -i /dev/shm/work/Multi_Arena_Pursuit_Simulator/input -o /dev/shm/work/Multi_Arena_Pursuit_Simulator/sync -m 4G -Q -M fuzzer-master -x /dev/shm/work/Multi_Arena_Pursuit_Simulator/Multi_Arena_Pursuit_Simulator.dict -- data/linux/processed-challenges/Multi_Arena_Pursuit_Simulator/bin/Multi_Arena_Pursuit_Simulator\n'
p149
I0
tp150
a(I9000
S'start_time     : 1499819769\nlast_update    : 1499828725\nfuzzer_pid     : 6376\ncycles_done    : 1\nexecs_done     : 3671954\nexecs_per_sec  : 178.26\npaths_total    : 142\npaths_favored  : 13\npaths_found    : 141\npaths_imported : 0\nmax_depth      : 9\ncur_path       : 141\npending_favs   : 0\npending_total  : 87\nvariable_paths : 0\nbitmap_cvg     : 1.09%\nunique_crashes : 0\nunique_hangs   : 0\nlast_path      : 1499826683\nlast_crash     : 0\nlast_hang      : 0\nexec_timeout   : 20\nafl_banner     : fuzzer-master\nafl_version    : 1.85b\ncommand_line   : /home/skaramcheti/.virtualenvs/afl/bin/afl-unix/afl-fuzz -i /dev/shm/work/Multi_Arena_Pursuit_Simulator/input -o /dev/shm/work/Multi_Arena_Pursuit_Simulator/sync -m 4G -Q -M fuzzer-master -x /dev/shm/work/Multi_Arena_Pursuit_Simulator/Multi_Arena_Pursuit_Simulator.dict -- data/linux/processed-challenges/Multi_Arena_Pursuit_Simulator/bin/Multi_Arena_Pursuit_Simulator\n'
p151
I0
tp152
a(I9120
S'start_time     : 1499819769\nlast_update    : 1499828845\nfuzzer_pid     : 6376\ncycles_done    : 1\nexecs_done     : 3693269\nexecs_per_sec  : 178.57\npaths_total    : 142\npaths_favored  : 13\npaths_found    : 141\npaths_imported : 0\nmax_depth      : 9\ncur_path       : 141\npending_favs   : 0\npending_total  : 87\nvariable_paths : 0\nbitmap_cvg     : 1.09%\nunique_crashes : 0\nunique_hangs   : 0\nlast_path      : 1499826683\nlast_crash     : 0\nlast_hang      : 0\nexec_timeout   : 20\nafl_banner     : fuzzer-master\nafl_version    : 1.85b\ncommand_line   : /home/skaramcheti/.virtualenvs/afl/bin/afl-unix/afl-fuzz -i /dev/shm/work/Multi_Arena_Pursuit_Simulator/input -o /dev/shm/work/Multi_Arena_Pursuit_Simulator/sync -m 4G -Q -M fuzzer-master -x /dev/shm/work/Multi_Arena_Pursuit_Simulator/Multi_Arena_Pursuit_Simulator.dict -- data/linux/processed-challenges/Multi_Arena_Pursuit_Simulator/bin/Multi_Arena_Pursuit_Simulator\n'
p153
I0
tp154
a(I9240
S'start_time     : 1499819769\nlast_update    : 1499828965\nfuzzer_pid     : 6376\ncycles_done    : 1\nexecs_done     : 3714508\nexecs_per_sec  : 174.88\npaths_total    : 142\npaths_favored  : 13\npaths_found    : 141\npaths_imported : 0\nmax_depth      : 9\ncur_path       : 141\npending_favs   : 0\npending_total  : 87\nvariable_paths : 0\nbitmap_cvg     : 1.09%\nunique_crashes : 0\nunique_hangs   : 0\nlast_path      : 1499826683\nlast_crash     : 0\nlast_hang      : 0\nexec_timeout   : 20\nafl_banner     : fuzzer-master\nafl_version    : 1.85b\ncommand_line   : /home/skaramcheti/.virtualenvs/afl/bin/afl-unix/afl-fuzz -i /dev/shm/work/Multi_Arena_Pursuit_Simulator/input -o /dev/shm/work/Multi_Arena_Pursuit_Simulator/sync -m 4G -Q -M fuzzer-master -x /dev/shm/work/Multi_Arena_Pursuit_Simulator/Multi_Arena_Pursuit_Simulator.dict -- data/linux/processed-challenges/Multi_Arena_Pursuit_Simulator/bin/Multi_Arena_Pursuit_Simulator\n'
p155
I0
tp156
a(I9360
S'start_time     : 1499819769\nlast_update    : 1499829086\nfuzzer_pid     : 6376\ncycles_done    : 1\nexecs_done     : 3735808\nexecs_per_sec  : 178.52\npaths_total    : 142\npaths_favored  : 13\npaths_found    : 141\npaths_imported : 0\nmax_depth      : 9\ncur_path       : 141\npending_favs   : 0\npending_total  : 87\nvariable_paths : 0\nbitmap_cvg     : 1.09%\nunique_crashes : 0\nunique_hangs   : 0\nlast_path      : 1499826683\nlast_crash     : 0\nlast_hang      : 0\nexec_timeout   : 20\nafl_banner     : fuzzer-master\nafl_version    : 1.85b\ncommand_line   : /home/skaramcheti/.virtualenvs/afl/bin/afl-unix/afl-fuzz -i /dev/shm/work/Multi_Arena_Pursuit_Simulator/input -o /dev/shm/work/Multi_Arena_Pursuit_Simulator/sync -m 4G -Q -M fuzzer-master -x /dev/shm/work/Multi_Arena_Pursuit_Simulator/Multi_Arena_Pursuit_Simulator.dict -- data/linux/processed-challenges/Multi_Arena_Pursuit_Simulator/bin/Multi_Arena_Pursuit_Simulator\n'
p157
I0
tp158
a(I9480
S'start_time     : 1499819769\nlast_update    : 1499829206\nfuzzer_pid     : 6376\ncycles_done    : 1\nexecs_done     : 3757122\nexecs_per_sec  : 176.84\npaths_total    : 142\npaths_favored  : 13\npaths_found    : 141\npaths_imported : 0\nmax_depth      : 9\ncur_path       : 141\npending_favs   : 0\npending_total  : 87\nvariable_paths : 0\nbitmap_cvg     : 1.09%\nunique_crashes : 0\nunique_hangs   : 0\nlast_path      : 1499826683\nlast_crash     : 0\nlast_hang      : 0\nexec_timeout   : 20\nafl_banner     : fuzzer-master\nafl_version    : 1.85b\ncommand_line   : /home/skaramcheti/.virtualenvs/afl/bin/afl-unix/afl-fuzz -i /dev/shm/work/Multi_Arena_Pursuit_Simulator/input -o /dev/shm/work/Multi_Arena_Pursuit_Simulator/sync -m 4G -Q -M fuzzer-master -x /dev/shm/work/Multi_Arena_Pursuit_Simulator/Multi_Arena_Pursuit_Simulator.dict -- data/linux/processed-challenges/Multi_Arena_Pursuit_Simulator/bin/Multi_Arena_Pursuit_Simulator\n'
p159
I0
tp160
a(I9600
S'start_time     : 1499819769\nlast_update    : 1499829326\nfuzzer_pid     : 6376\ncycles_done    : 1\nexecs_done     : 3778548\nexecs_per_sec  : 176.71\npaths_total    : 142\npaths_favored  : 13\npaths_found    : 141\npaths_imported : 0\nmax_depth      : 9\ncur_path       : 141\npending_favs   : 0\npending_total  : 87\nvariable_paths : 0\nbitmap_cvg     : 1.09%\nunique_crashes : 0\nunique_hangs   : 0\nlast_path      : 1499826683\nlast_crash     : 0\nlast_hang      : 0\nexec_timeout   : 20\nafl_banner     : fuzzer-master\nafl_version    : 1.85b\ncommand_line   : /home/skaramcheti/.virtualenvs/afl/bin/afl-unix/afl-fuzz -i /dev/shm/work/Multi_Arena_Pursuit_Simulator/input -o /dev/shm/work/Multi_Arena_Pursuit_Simulator/sync -m 4G -Q -M fuzzer-master -x /dev/shm/work/Multi_Arena_Pursuit_Simulator/Multi_Arena_Pursuit_Simulator.dict -- data/linux/processed-challenges/Multi_Arena_Pursuit_Simulator/bin/Multi_Arena_Pursuit_Simulator\n'
p161
I0
tp162
a(I9720
S'start_time     : 1499819769\nlast_update    : 1499829446\nfuzzer_pid     : 6376\ncycles_done    : 1\nexecs_done     : 3800182\nexecs_per_sec  : 182.37\npaths_total    : 145\npaths_favored  : 13\npaths_found    : 144\npaths_imported : 0\nmax_depth      : 10\ncur_path       : 141\npending_favs   : 0\npending_total  : 90\nvariable_paths : 0\nbitmap_cvg     : 1.09%\nunique_crashes : 0\nunique_hangs   : 0\nlast_path      : 1499829445\nlast_crash     : 0\nlast_hang      : 0\nexec_timeout   : 20\nafl_banner     : fuzzer-master\nafl_version    : 1.85b\ncommand_line   : /home/skaramcheti/.virtualenvs/afl/bin/afl-unix/afl-fuzz -i /dev/shm/work/Multi_Arena_Pursuit_Simulator/input -o /dev/shm/work/Multi_Arena_Pursuit_Simulator/sync -m 4G -Q -M fuzzer-master -x /dev/shm/work/Multi_Arena_Pursuit_Simulator/Multi_Arena_Pursuit_Simulator.dict -- data/linux/processed-challenges/Multi_Arena_Pursuit_Simulator/bin/Multi_Arena_Pursuit_Simulator\n'
p163
I4
tp164
a(I9840
S'start_time     : 1499819769\nlast_update    : 1499829566\nfuzzer_pid     : 6376\ncycles_done    : 1\nexecs_done     : 3822614\nexecs_per_sec  : 187.36\npaths_total    : 146\npaths_favored  : 13\npaths_found    : 145\npaths_imported : 0\nmax_depth      : 10\ncur_path       : 141\npending_favs   : 0\npending_total  : 91\nvariable_paths : 0\nbitmap_cvg     : 1.09%\nunique_crashes : 0\nunique_hangs   : 0\nlast_path      : 1499829472\nlast_crash     : 0\nlast_hang      : 0\nexec_timeout   : 20\nafl_banner     : fuzzer-master\nafl_version    : 1.85b\ncommand_line   : /home/skaramcheti/.virtualenvs/afl/bin/afl-unix/afl-fuzz -i /dev/shm/work/Multi_Arena_Pursuit_Simulator/input -o /dev/shm/work/Multi_Arena_Pursuit_Simulator/sync -m 4G -Q -M fuzzer-master -x /dev/shm/work/Multi_Arena_Pursuit_Simulator/Multi_Arena_Pursuit_Simulator.dict -- data/linux/processed-challenges/Multi_Arena_Pursuit_Simulator/bin/Multi_Arena_Pursuit_Simulator\n'
p165
I0
tp166
a(I9960
S'start_time     : 1499819769\nlast_update    : 1499829687\nfuzzer_pid     : 6376\ncycles_done    : 1\nexecs_done     : 3845054\nexecs_per_sec  : 187.45\npaths_total    : 146\npaths_favored  : 13\npaths_found    : 145\npaths_imported : 0\nmax_depth      : 10\ncur_path       : 141\npending_favs   : 0\npending_total  : 91\nvariable_paths : 0\nbitmap_cvg     : 1.09%\nunique_crashes : 0\nunique_hangs   : 0\nlast_path      : 1499829472\nlast_crash     : 0\nlast_hang      : 0\nexec_timeout   : 20\nafl_banner     : fuzzer-master\nafl_version    : 1.85b\ncommand_line   : /home/skaramcheti/.virtualenvs/afl/bin/afl-unix/afl-fuzz -i /dev/shm/work/Multi_Arena_Pursuit_Simulator/input -o /dev/shm/work/Multi_Arena_Pursuit_Simulator/sync -m 4G -Q -M fuzzer-master -x /dev/shm/work/Multi_Arena_Pursuit_Simulator/Multi_Arena_Pursuit_Simulator.dict -- data/linux/processed-challenges/Multi_Arena_Pursuit_Simulator/bin/Multi_Arena_Pursuit_Simulator\n'
p167
I0
tp168
a(I10080
S'start_time     : 1499819769\nlast_update    : 1499829807\nfuzzer_pid     : 6376\ncycles_done    : 1\nexecs_done     : 3867455\nexecs_per_sec  : 188.33\npaths_total    : 146\npaths_favored  : 13\npaths_found    : 145\npaths_imported : 0\nmax_depth      : 10\ncur_path       : 141\npending_favs   : 0\npending_total  : 91\nvariable_paths : 0\nbitmap_cvg     : 1.09%\nunique_crashes : 0\nunique_hangs   : 0\nlast_path      : 1499829472\nlast_crash     : 0\nlast_hang      : 0\nexec_timeout   : 20\nafl_banner     : fuzzer-master\nafl_version    : 1.85b\ncommand_line   : /home/skaramcheti/.virtualenvs/afl/bin/afl-unix/afl-fuzz -i /dev/shm/work/Multi_Arena_Pursuit_Simulator/input -o /dev/shm/work/Multi_Arena_Pursuit_Simulator/sync -m 4G -Q -M fuzzer-master -x /dev/shm/work/Multi_Arena_Pursuit_Simulator/Multi_Arena_Pursuit_Simulator.dict -- data/linux/processed-challenges/Multi_Arena_Pursuit_Simulator/bin/Multi_Arena_Pursuit_Simulator\n'
p169
I0
tp170
a(I10200
S'start_time     : 1499819769\nlast_update    : 1499829927\nfuzzer_pid     : 6376\ncycles_done    : 1\nexecs_done     : 3889802\nexecs_per_sec  : 180.62\npaths_total    : 146\npaths_favored  : 13\npaths_found    : 145\npaths_imported : 0\nmax_depth      : 10\ncur_path       : 141\npending_favs   : 0\npending_total  : 91\nvariable_paths : 0\nbitmap_cvg     : 1.09%\nunique_crashes : 0\nunique_hangs   : 0\nlast_path      : 1499829472\nlast_crash     : 0\nlast_hang      : 0\nexec_timeout   : 20\nafl_banner     : fuzzer-master\nafl_version    : 1.85b\ncommand_line   : /home/skaramcheti/.virtualenvs/afl/bin/afl-unix/afl-fuzz -i /dev/shm/work/Multi_Arena_Pursuit_Simulator/input -o /dev/shm/work/Multi_Arena_Pursuit_Simulator/sync -m 4G -Q -M fuzzer-master -x /dev/shm/work/Multi_Arena_Pursuit_Simulator/Multi_Arena_Pursuit_Simulator.dict -- data/linux/processed-challenges/Multi_Arena_Pursuit_Simulator/bin/Multi_Arena_Pursuit_Simulator\n'
p171
I0
tp172
a(I10320
S'start_time     : 1499819769\nlast_update    : 1499830047\nfuzzer_pid     : 6376\ncycles_done    : 1\nexecs_done     : 3911834\nexecs_per_sec  : 186.19\npaths_total    : 146\npaths_favored  : 13\npaths_found    : 145\npaths_imported : 0\nmax_depth      : 10\ncur_path       : 141\npending_favs   : 0\npending_total  : 91\nvariable_paths : 0\nbitmap_cvg     : 1.09%\nunique_crashes : 0\nunique_hangs   : 0\nlast_path      : 1499829472\nlast_crash     : 0\nlast_hang      : 0\nexec_timeout   : 20\nafl_banner     : fuzzer-master\nafl_version    : 1.85b\ncommand_line   : /home/skaramcheti/.virtualenvs/afl/bin/afl-unix/afl-fuzz -i /dev/shm/work/Multi_Arena_Pursuit_Simulator/input -o /dev/shm/work/Multi_Arena_Pursuit_Simulator/sync -m 4G -Q -M fuzzer-master -x /dev/shm/work/Multi_Arena_Pursuit_Simulator/Multi_Arena_Pursuit_Simulator.dict -- data/linux/processed-challenges/Multi_Arena_Pursuit_Simulator/bin/Multi_Arena_Pursuit_Simulator\n'
p173
I0
tp174
a(I10440
S'start_time     : 1499819769\nlast_update    : 1499830167\nfuzzer_pid     : 6376\ncycles_done    : 1\nexecs_done     : 3934088\nexecs_per_sec  : 187.08\npaths_total    : 146\npaths_favored  : 13\npaths_found    : 145\npaths_imported : 0\nmax_depth      : 10\ncur_path       : 141\npending_favs   : 0\npending_total  : 91\nvariable_paths : 0\nbitmap_cvg     : 1.09%\nunique_crashes : 0\nunique_hangs   : 0\nlast_path      : 1499829472\nlast_crash     : 0\nlast_hang      : 0\nexec_timeout   : 20\nafl_banner     : fuzzer-master\nafl_version    : 1.85b\ncommand_line   : /home/skaramcheti/.virtualenvs/afl/bin/afl-unix/afl-fuzz -i /dev/shm/work/Multi_Arena_Pursuit_Simulator/input -o /dev/shm/work/Multi_Arena_Pursuit_Simulator/sync -m 4G -Q -M fuzzer-master -x /dev/shm/work/Multi_Arena_Pursuit_Simulator/Multi_Arena_Pursuit_Simulator.dict -- data/linux/processed-challenges/Multi_Arena_Pursuit_Simulator/bin/Multi_Arena_Pursuit_Simulator\n'
p175
I0
tp176
a(I10560
S'start_time     : 1499819769\nlast_update    : 1499830288\nfuzzer_pid     : 6376\ncycles_done    : 2\nexecs_done     : 3962451\nexecs_per_sec  : 715.27\npaths_total    : 146\npaths_favored  : 13\npaths_found    : 145\npaths_imported : 0\nmax_depth      : 10\ncur_path       : 9\npending_favs   : 0\npending_total  : 90\nvariable_paths : 0\nbitmap_cvg     : 1.09%\nunique_crashes : 0\nunique_hangs   : 0\nlast_path      : 1499829472\nlast_crash     : 0\nlast_hang      : 0\nexec_timeout   : 20\nafl_banner     : fuzzer-master\nafl_version    : 1.85b\ncommand_line   : /home/skaramcheti/.virtualenvs/afl/bin/afl-unix/afl-fuzz -i /dev/shm/work/Multi_Arena_Pursuit_Simulator/input -o /dev/shm/work/Multi_Arena_Pursuit_Simulator/sync -m 4G -Q -M fuzzer-master -x /dev/shm/work/Multi_Arena_Pursuit_Simulator/Multi_Arena_Pursuit_Simulator.dict -- data/linux/processed-challenges/Multi_Arena_Pursuit_Simulator/bin/Multi_Arena_Pursuit_Simulator\n'
p177
I0
tp178
a(I10680
S'start_time     : 1499819769\nlast_update    : 1499830408\nfuzzer_pid     : 6376\ncycles_done    : 2\nexecs_done     : 4046014\nexecs_per_sec  : 650.75\npaths_total    : 146\npaths_favored  : 13\npaths_found    : 145\npaths_imported : 0\nmax_depth      : 10\ncur_path       : 42\npending_favs   : 0\npending_total  : 85\nvariable_paths : 0\nbitmap_cvg     : 1.09%\nunique_crashes : 0\nunique_hangs   : 0\nlast_path      : 1499829472\nlast_crash     : 0\nlast_hang      : 0\nexec_timeout   : 20\nafl_banner     : fuzzer-master\nafl_version    : 1.85b\ncommand_line   : /home/skaramcheti/.virtualenvs/afl/bin/afl-unix/afl-fuzz -i /dev/shm/work/Multi_Arena_Pursuit_Simulator/input -o /dev/shm/work/Multi_Arena_Pursuit_Simulator/sync -m 4G -Q -M fuzzer-master -x /dev/shm/work/Multi_Arena_Pursuit_Simulator/Multi_Arena_Pursuit_Simulator.dict -- data/linux/processed-challenges/Multi_Arena_Pursuit_Simulator/bin/Multi_Arena_Pursuit_Simulator\n'
p179
I0
tp180
a.