(lp0
(I0
S'start_time     : 1500349899\nlast_update    : 1500349899\nfuzzer_pid     : 27904\ncycles_done    : 0\nexecs_done     : 10\nexecs_per_sec  : 196.08\npaths_total    : 1\npaths_favored  : 1\npaths_found    : 0\npaths_imported : 0\nmax_depth      : 1\ncur_path       : 0\npending_favs   : 1\npending_total  : 1\nvariable_paths : 0\nbitmap_cvg     : 0.07%\nunique_crashes : 0\nunique_hangs   : 0\nlast_path      : 0\nlast_crash     : 0\nlast_hang      : 0\nexec_timeout   : 20\nafl_banner     : fuzzer-master\nafl_version    : 1.85b\ncommand_line   : /home/skaramcheti/.virtualenvs/afl/bin/afl-unix/afl-fuzz -i /dev/shm/work/Modern_Family_Tree/input -o /dev/shm/work/Modern_Family_Tree/sync -m 4G -Q -M fuzzer-master -x /dev/shm/work/Modern_Family_Tree/Modern_Family_Tree.dict -- data/linux/processed-challenges/Modern_Family_Tree/bin/Modern_Family_Tree\n'
p1
I10
tp2
a(I120
S'start_time     : 1500349899\nlast_update    : 1500350019\nfuzzer_pid     : 27904\ncycles_done    : 0\nexecs_done     : 135879\nexecs_per_sec  : 1080.74\npaths_total    : 13\npaths_favored  : 1\npaths_found    : 12\npaths_imported : 0\nmax_depth      : 2\ncur_path       : 0\npending_favs   : 1\npending_total  : 13\nvariable_paths : 0\nbitmap_cvg     : 0.19%\nunique_crashes : 0\nunique_hangs   : 0\nlast_path      : 1500349910\nlast_crash     : 0\nlast_hang      : 0\nexec_timeout   : 20\nafl_banner     : fuzzer-master\nafl_version    : 1.85b\ncommand_line   : /home/skaramcheti/.virtualenvs/afl/bin/afl-unix/afl-fuzz -i /dev/shm/work/Modern_Family_Tree/input -o /dev/shm/work/Modern_Family_Tree/sync -m 4G -Q -M fuzzer-master -x /dev/shm/work/Modern_Family_Tree/Modern_Family_Tree.dict -- data/linux/processed-challenges/Modern_Family_Tree/bin/Modern_Family_Tree\n'
p3
I3
tp4
a(I240
S'start_time     : 1500349899\nlast_update    : 1500350139\nfuzzer_pid     : 27904\ncycles_done    : 1\nexecs_done     : 269151\nexecs_per_sec  : 1121.98\npaths_total    : 16\npaths_favored  : 10\npaths_found    : 15\npaths_imported : 0\nmax_depth      : 3\ncur_path       : 13\npending_favs   : 0\npending_total  : 5\nvariable_paths : 0\nbitmap_cvg     : 0.22%\nunique_crashes : 0\nunique_hangs   : 0\nlast_path      : 1500350079\nlast_crash     : 0\nlast_hang      : 0\nexec_timeout   : 20\nafl_banner     : fuzzer-master\nafl_version    : 1.85b\ncommand_line   : /home/skaramcheti/.virtualenvs/afl/bin/afl-unix/afl-fuzz -i /dev/shm/work/Modern_Family_Tree/input -o /dev/shm/work/Modern_Family_Tree/sync -m 4G -Q -M fuzzer-master -x /dev/shm/work/Modern_Family_Tree/Modern_Family_Tree.dict -- data/linux/processed-challenges/Modern_Family_Tree/bin/Modern_Family_Tree\n'
p5
I4
tp6
a(I360
S'start_time     : 1500349899\nlast_update    : 1500350259\nfuzzer_pid     : 27904\ncycles_done    : 3\nexecs_done     : 401641\nexecs_per_sec  : 1113.54\npaths_total    : 18\npaths_favored  : 13\npaths_found    : 17\npaths_imported : 0\nmax_depth      : 4\ncur_path       : 11\npending_favs   : 0\npending_total  : 4\nvariable_paths : 0\nbitmap_cvg     : 0.24%\nunique_crashes : 0\nunique_hangs   : 0\nlast_path      : 1500350197\nlast_crash     : 0\nlast_hang      : 0\nexec_timeout   : 20\nafl_banner     : fuzzer-master\nafl_version    : 1.85b\ncommand_line   : /home/skaramcheti/.virtualenvs/afl/bin/afl-unix/afl-fuzz -i /dev/shm/work/Modern_Family_Tree/input -o /dev/shm/work/Modern_Family_Tree/sync -m 4G -Q -M fuzzer-master -x /dev/shm/work/Modern_Family_Tree/Modern_Family_Tree.dict -- data/linux/processed-challenges/Modern_Family_Tree/bin/Modern_Family_Tree\n'
p7
I1
tp8
a(I480
S'start_time     : 1500349899\nlast_update    : 1500350379\nfuzzer_pid     : 27904\ncycles_done    : 4\nexecs_done     : 522911\nexecs_per_sec  : 775.93\npaths_total    : 18\npaths_favored  : 13\npaths_found    : 17\npaths_imported : 0\nmax_depth      : 4\ncur_path       : 9\npending_favs   : 0\npending_total  : 3\nvariable_paths : 0\nbitmap_cvg     : 0.24%\nunique_crashes : 0\nunique_hangs   : 3\nlast_path      : 1500350197\nlast_crash     : 0\nlast_hang      : 1500350379\nexec_timeout   : 20\nafl_banner     : fuzzer-master\nafl_version    : 1.85b\ncommand_line   : /home/skaramcheti/.virtualenvs/afl/bin/afl-unix/afl-fuzz -i /dev/shm/work/Modern_Family_Tree/input -o /dev/shm/work/Modern_Family_Tree/sync -m 4G -Q -M fuzzer-master -x /dev/shm/work/Modern_Family_Tree/Modern_Family_Tree.dict -- data/linux/processed-challenges/Modern_Family_Tree/bin/Modern_Family_Tree\n'
p9
I0
tp10
a(I600
S'start_time     : 1500349899\nlast_update    : 1500350500\nfuzzer_pid     : 27904\ncycles_done    : 4\nexecs_done     : 655531\nexecs_per_sec  : 1157.01\npaths_total    : 18\npaths_favored  : 13\npaths_found    : 17\npaths_imported : 0\nmax_depth      : 4\ncur_path       : 17\npending_favs   : 0\npending_total  : 3\nvariable_paths : 0\nbitmap_cvg     : 0.24%\nunique_crashes : 0\nunique_hangs   : 4\nlast_path      : 1500350197\nlast_crash     : 0\nlast_hang      : 1500350380\nexec_timeout   : 20\nafl_banner     : fuzzer-master\nafl_version    : 1.85b\ncommand_line   : /home/skaramcheti/.virtualenvs/afl/bin/afl-unix/afl-fuzz -i /dev/shm/work/Modern_Family_Tree/input -o /dev/shm/work/Modern_Family_Tree/sync -m 4G -Q -M fuzzer-master -x /dev/shm/work/Modern_Family_Tree/Modern_Family_Tree.dict -- data/linux/processed-challenges/Modern_Family_Tree/bin/Modern_Family_Tree\n'
p11
I0
tp12
a(I720
S'start_time     : 1500349899\nlast_update    : 1500350620\nfuzzer_pid     : 27904\ncycles_done    : 5\nexecs_done     : 795154\nexecs_per_sec  : 1130.16\npaths_total    : 18\npaths_favored  : 13\npaths_found    : 17\npaths_imported : 0\nmax_depth      : 4\ncur_path       : 12\npending_favs   : 0\npending_total  : 2\nvariable_paths : 0\nbitmap_cvg     : 0.24%\nunique_crashes : 0\nunique_hangs   : 4\nlast_path      : 1500350197\nlast_crash     : 0\nlast_hang      : 1500350380\nexec_timeout   : 20\nafl_banner     : fuzzer-master\nafl_version    : 1.85b\ncommand_line   : /home/skaramcheti/.virtualenvs/afl/bin/afl-unix/afl-fuzz -i /dev/shm/work/Modern_Family_Tree/input -o /dev/shm/work/Modern_Family_Tree/sync -m 4G -Q -M fuzzer-master -x /dev/shm/work/Modern_Family_Tree/Modern_Family_Tree.dict -- data/linux/processed-challenges/Modern_Family_Tree/bin/Modern_Family_Tree\n'
p13
I0
tp14
a(I840
S'start_time     : 1500349899\nlast_update    : 1500350740\nfuzzer_pid     : 27904\ncycles_done    : 5\nexecs_done     : 933469\nexecs_per_sec  : 1156.77\npaths_total    : 22\npaths_favored  : 14\npaths_found    : 21\npaths_imported : 0\nmax_depth      : 6\ncur_path       : 18\npending_favs   : 1\npending_total  : 6\nvariable_paths : 0\nbitmap_cvg     : 0.40%\nunique_crashes : 0\nunique_hangs   : 4\nlast_path      : 1500350706\nlast_crash     : 0\nlast_hang      : 1500350380\nexec_timeout   : 20\nafl_banner     : fuzzer-master\nafl_version    : 1.85b\ncommand_line   : /home/skaramcheti/.virtualenvs/afl/bin/afl-unix/afl-fuzz -i /dev/shm/work/Modern_Family_Tree/input -o /dev/shm/work/Modern_Family_Tree/sync -m 4G -Q -M fuzzer-master -x /dev/shm/work/Modern_Family_Tree/Modern_Family_Tree.dict -- data/linux/processed-challenges/Modern_Family_Tree/bin/Modern_Family_Tree\n'
p15
I4
tp16
a(I960
S'start_time     : 1500349899\nlast_update    : 1500350860\nfuzzer_pid     : 27904\ncycles_done    : 5\nexecs_done     : 1072502\nexecs_per_sec  : 1205.73\npaths_total    : 22\npaths_favored  : 14\npaths_found    : 21\npaths_imported : 0\nmax_depth      : 6\ncur_path       : 18\npending_favs   : 1\npending_total  : 6\nvariable_paths : 0\nbitmap_cvg     : 0.40%\nunique_crashes : 0\nunique_hangs   : 4\nlast_path      : 1500350706\nlast_crash     : 0\nlast_hang      : 1500350380\nexec_timeout   : 20\nafl_banner     : fuzzer-master\nafl_version    : 1.85b\ncommand_line   : /home/skaramcheti/.virtualenvs/afl/bin/afl-unix/afl-fuzz -i /dev/shm/work/Modern_Family_Tree/input -o /dev/shm/work/Modern_Family_Tree/sync -m 4G -Q -M fuzzer-master -x /dev/shm/work/Modern_Family_Tree/Modern_Family_Tree.dict -- data/linux/processed-challenges/Modern_Family_Tree/bin/Modern_Family_Tree\n'
p17
I0
tp18
a(I1080
S'start_time     : 1500349899\nlast_update    : 1500350981\nfuzzer_pid     : 27904\ncycles_done    : 5\nexecs_done     : 1211701\nexecs_per_sec  : 1138.63\npaths_total    : 23\npaths_favored  : 17\npaths_found    : 22\npaths_imported : 0\nmax_depth      : 7\ncur_path       : 19\npending_favs   : 3\npending_total  : 6\nvariable_paths : 0\nbitmap_cvg     : 0.42%\nunique_crashes : 0\nunique_hangs   : 5\nlast_path      : 1500350889\nlast_crash     : 0\nlast_hang      : 1500350866\nexec_timeout   : 20\nafl_banner     : fuzzer-master\nafl_version    : 1.85b\ncommand_line   : /home/skaramcheti/.virtualenvs/afl/bin/afl-unix/afl-fuzz -i /dev/shm/work/Modern_Family_Tree/input -o /dev/shm/work/Modern_Family_Tree/sync -m 4G -Q -M fuzzer-master -x /dev/shm/work/Modern_Family_Tree/Modern_Family_Tree.dict -- data/linux/processed-challenges/Modern_Family_Tree/bin/Modern_Family_Tree\n'
p19
I1
tp20
a(I1200
S'start_time     : 1500349899\nlast_update    : 1500351101\nfuzzer_pid     : 27904\ncycles_done    : 5\nexecs_done     : 1350506\nexecs_per_sec  : 1178.91\npaths_total    : 23\npaths_favored  : 18\npaths_found    : 22\npaths_imported : 0\nmax_depth      : 7\ncur_path       : 20\npending_favs   : 3\npending_total  : 5\nvariable_paths : 0\nbitmap_cvg     : 0.42%\nunique_crashes : 0\nunique_hangs   : 5\nlast_path      : 1500350889\nlast_crash     : 0\nlast_hang      : 1500350866\nexec_timeout   : 20\nafl_banner     : fuzzer-master\nafl_version    : 1.85b\ncommand_line   : /home/skaramcheti/.virtualenvs/afl/bin/afl-unix/afl-fuzz -i /dev/shm/work/Modern_Family_Tree/input -o /dev/shm/work/Modern_Family_Tree/sync -m 4G -Q -M fuzzer-master -x /dev/shm/work/Modern_Family_Tree/Modern_Family_Tree.dict -- data/linux/processed-challenges/Modern_Family_Tree/bin/Modern_Family_Tree\n'
p21
I0
tp22
a(I1320
S'start_time     : 1500349899\nlast_update    : 1500351221\nfuzzer_pid     : 27904\ncycles_done    : 5\nexecs_done     : 1488585\nexecs_per_sec  : 1147.04\npaths_total    : 23\npaths_favored  : 18\npaths_found    : 22\npaths_imported : 0\nmax_depth      : 7\ncur_path       : 21\npending_favs   : 2\npending_total  : 4\nvariable_paths : 0\nbitmap_cvg     : 0.42%\nunique_crashes : 0\nunique_hangs   : 5\nlast_path      : 1500350889\nlast_crash     : 0\nlast_hang      : 1500350866\nexec_timeout   : 20\nafl_banner     : fuzzer-master\nafl_version    : 1.85b\ncommand_line   : /home/skaramcheti/.virtualenvs/afl/bin/afl-unix/afl-fuzz -i /dev/shm/work/Modern_Family_Tree/input -o /dev/shm/work/Modern_Family_Tree/sync -m 4G -Q -M fuzzer-master -x /dev/shm/work/Modern_Family_Tree/Modern_Family_Tree.dict -- data/linux/processed-challenges/Modern_Family_Tree/bin/Modern_Family_Tree\n'
p23
I0
tp24
a(I1440
S'start_time     : 1500349899\nlast_update    : 1500351341\nfuzzer_pid     : 27904\ncycles_done    : 5\nexecs_done     : 1623397\nexecs_per_sec  : 1114.11\npaths_total    : 23\npaths_favored  : 18\npaths_found    : 22\npaths_imported : 0\nmax_depth      : 7\ncur_path       : 22\npending_favs   : 1\npending_total  : 3\nvariable_paths : 0\nbitmap_cvg     : 0.42%\nunique_crashes : 0\nunique_hangs   : 5\nlast_path      : 1500350889\nlast_crash     : 0\nlast_hang      : 1500350866\nexec_timeout   : 20\nafl_banner     : fuzzer-master\nafl_version    : 1.85b\ncommand_line   : /home/skaramcheti/.virtualenvs/afl/bin/afl-unix/afl-fuzz -i /dev/shm/work/Modern_Family_Tree/input -o /dev/shm/work/Modern_Family_Tree/sync -m 4G -Q -M fuzzer-master -x /dev/shm/work/Modern_Family_Tree/Modern_Family_Tree.dict -- data/linux/processed-challenges/Modern_Family_Tree/bin/Modern_Family_Tree\n'
p25
I0
tp26
a(I1560
S'start_time     : 1500349899\nlast_update    : 1500351462\nfuzzer_pid     : 27904\ncycles_done    : 6\nexecs_done     : 1760208\nexecs_per_sec  : 1137.73\npaths_total    : 23\npaths_favored  : 18\npaths_found    : 22\npaths_imported : 0\nmax_depth      : 7\ncur_path       : 0\npending_favs   : 0\npending_total  : 2\nvariable_paths : 0\nbitmap_cvg     : 0.42%\nunique_crashes : 0\nunique_hangs   : 5\nlast_path      : 1500350889\nlast_crash     : 0\nlast_hang      : 1500350866\nexec_timeout   : 20\nafl_banner     : fuzzer-master\nafl_version    : 1.85b\ncommand_line   : /home/skaramcheti/.virtualenvs/afl/bin/afl-unix/afl-fuzz -i /dev/shm/work/Modern_Family_Tree/input -o /dev/shm/work/Modern_Family_Tree/sync -m 4G -Q -M fuzzer-master -x /dev/shm/work/Modern_Family_Tree/Modern_Family_Tree.dict -- data/linux/processed-challenges/Modern_Family_Tree/bin/Modern_Family_Tree\n'
p27
I0
tp28
a(I1680
S'start_time     : 1500349899\nlast_update    : 1500351582\nfuzzer_pid     : 27904\ncycles_done    : 6\nexecs_done     : 1898717\nexecs_per_sec  : 1153.61\npaths_total    : 23\npaths_favored  : 18\npaths_found    : 22\npaths_imported : 0\nmax_depth      : 7\ncur_path       : 12\npending_favs   : 0\npending_total  : 0\nvariable_paths : 0\nbitmap_cvg     : 0.42%\nunique_crashes : 0\nunique_hangs   : 5\nlast_path      : 1500350889\nlast_crash     : 0\nlast_hang      : 1500350866\nexec_timeout   : 20\nafl_banner     : fuzzer-master\nafl_version    : 1.85b\ncommand_line   : /home/skaramcheti/.virtualenvs/afl/bin/afl-unix/afl-fuzz -i /dev/shm/work/Modern_Family_Tree/input -o /dev/shm/work/Modern_Family_Tree/sync -m 4G -Q -M fuzzer-master -x /dev/shm/work/Modern_Family_Tree/Modern_Family_Tree.dict -- data/linux/processed-challenges/Modern_Family_Tree/bin/Modern_Family_Tree\n'
p29
I0
tp30
a(I1800
S'start_time     : 1500349899\nlast_update    : 1500351702\nfuzzer_pid     : 27904\ncycles_done    : 6\nexecs_done     : 2036010\nexecs_per_sec  : 1110.86\npaths_total    : 25\npaths_favored  : 19\npaths_found    : 24\npaths_imported : 0\nmax_depth      : 7\ncur_path       : 23\npending_favs   : 2\npending_total  : 2\nvariable_paths : 0\nbitmap_cvg     : 0.45%\nunique_crashes : 0\nunique_hangs   : 5\nlast_path      : 1500351677\nlast_crash     : 0\nlast_hang      : 1500350866\nexec_timeout   : 20\nafl_banner     : fuzzer-master\nafl_version    : 1.85b\ncommand_line   : /home/skaramcheti/.virtualenvs/afl/bin/afl-unix/afl-fuzz -i /dev/shm/work/Modern_Family_Tree/input -o /dev/shm/work/Modern_Family_Tree/sync -m 4G -Q -M fuzzer-master -x /dev/shm/work/Modern_Family_Tree/Modern_Family_Tree.dict -- data/linux/processed-challenges/Modern_Family_Tree/bin/Modern_Family_Tree\n'
p31
I2
tp32
a(I1920
S'start_time     : 1500349899\nlast_update    : 1500351822\nfuzzer_pid     : 27904\ncycles_done    : 6\nexecs_done     : 2167652\nexecs_per_sec  : 1152.50\npaths_total    : 25\npaths_favored  : 19\npaths_found    : 24\npaths_imported : 0\nmax_depth      : 7\ncur_path       : 24\npending_favs   : 1\npending_total  : 1\nvariable_paths : 0\nbitmap_cvg     : 0.45%\nunique_crashes : 0\nunique_hangs   : 5\nlast_path      : 1500351677\nlast_crash     : 0\nlast_hang      : 1500350866\nexec_timeout   : 20\nafl_banner     : fuzzer-master\nafl_version    : 1.85b\ncommand_line   : /home/skaramcheti/.virtualenvs/afl/bin/afl-unix/afl-fuzz -i /dev/shm/work/Modern_Family_Tree/input -o /dev/shm/work/Modern_Family_Tree/sync -m 4G -Q -M fuzzer-master -x /dev/shm/work/Modern_Family_Tree/Modern_Family_Tree.dict -- data/linux/processed-challenges/Modern_Family_Tree/bin/Modern_Family_Tree\n'
p33
I0
tp34
a(I2040
S'start_time     : 1500349899\nlast_update    : 1500351942\nfuzzer_pid     : 27904\ncycles_done    : 6\nexecs_done     : 2305962\nexecs_per_sec  : 1142.59\npaths_total    : 25\npaths_favored  : 19\npaths_found    : 24\npaths_imported : 0\nmax_depth      : 7\ncur_path       : 24\npending_favs   : 1\npending_total  : 1\nvariable_paths : 0\nbitmap_cvg     : 0.45%\nunique_crashes : 0\nunique_hangs   : 5\nlast_path      : 1500351677\nlast_crash     : 0\nlast_hang      : 1500350866\nexec_timeout   : 20\nafl_banner     : fuzzer-master\nafl_version    : 1.85b\ncommand_line   : /home/skaramcheti/.virtualenvs/afl/bin/afl-unix/afl-fuzz -i /dev/shm/work/Modern_Family_Tree/input -o /dev/shm/work/Modern_Family_Tree/sync -m 4G -Q -M fuzzer-master -x /dev/shm/work/Modern_Family_Tree/Modern_Family_Tree.dict -- data/linux/processed-challenges/Modern_Family_Tree/bin/Modern_Family_Tree\n'
p35
I0
tp36
a(I2160
S'start_time     : 1500349899\nlast_update    : 1500352063\nfuzzer_pid     : 27904\ncycles_done    : 7\nexecs_done     : 2445182\nexecs_per_sec  : 1138.97\npaths_total    : 25\npaths_favored  : 19\npaths_found    : 24\npaths_imported : 0\nmax_depth      : 7\ncur_path       : 13\npending_favs   : 0\npending_total  : 0\nvariable_paths : 0\nbitmap_cvg     : 0.45%\nunique_crashes : 0\nunique_hangs   : 5\nlast_path      : 1500351677\nlast_crash     : 0\nlast_hang      : 1500350866\nexec_timeout   : 20\nafl_banner     : fuzzer-master\nafl_version    : 1.85b\ncommand_line   : /home/skaramcheti/.virtualenvs/afl/bin/afl-unix/afl-fuzz -i /dev/shm/work/Modern_Family_Tree/input -o /dev/shm/work/Modern_Family_Tree/sync -m 4G -Q -M fuzzer-master -x /dev/shm/work/Modern_Family_Tree/Modern_Family_Tree.dict -- data/linux/processed-challenges/Modern_Family_Tree/bin/Modern_Family_Tree\n'
p37
I0
tp38
a(I2280
S'start_time     : 1500349899\nlast_update    : 1500352183\nfuzzer_pid     : 27904\ncycles_done    : 7\nexecs_done     : 2583290\nexecs_per_sec  : 1125.04\npaths_total    : 25\npaths_favored  : 19\npaths_found    : 24\npaths_imported : 0\nmax_depth      : 7\ncur_path       : 18\npending_favs   : 0\npending_total  : 0\nvariable_paths : 0\nbitmap_cvg     : 0.45%\nunique_crashes : 0\nunique_hangs   : 5\nlast_path      : 1500351677\nlast_crash     : 0\nlast_hang      : 1500350866\nexec_timeout   : 20\nafl_banner     : fuzzer-master\nafl_version    : 1.85b\ncommand_line   : /home/skaramcheti/.virtualenvs/afl/bin/afl-unix/afl-fuzz -i /dev/shm/work/Modern_Family_Tree/input -o /dev/shm/work/Modern_Family_Tree/sync -m 4G -Q -M fuzzer-master -x /dev/shm/work/Modern_Family_Tree/Modern_Family_Tree.dict -- data/linux/processed-challenges/Modern_Family_Tree/bin/Modern_Family_Tree\n'
p39
I0
tp40
a(I2400
S'start_time     : 1500349899\nlast_update    : 1500352303\nfuzzer_pid     : 27904\ncycles_done    : 7\nexecs_done     : 2721089\nexecs_per_sec  : 1151.11\npaths_total    : 25\npaths_favored  : 19\npaths_found    : 24\npaths_imported : 0\nmax_depth      : 7\ncur_path       : 21\npending_favs   : 0\npending_total  : 0\nvariable_paths : 0\nbitmap_cvg     : 0.45%\nunique_crashes : 0\nunique_hangs   : 5\nlast_path      : 1500351677\nlast_crash     : 0\nlast_hang      : 1500350866\nexec_timeout   : 20\nafl_banner     : fuzzer-master\nafl_version    : 1.85b\ncommand_line   : /home/skaramcheti/.virtualenvs/afl/bin/afl-unix/afl-fuzz -i /dev/shm/work/Modern_Family_Tree/input -o /dev/shm/work/Modern_Family_Tree/sync -m 4G -Q -M fuzzer-master -x /dev/shm/work/Modern_Family_Tree/Modern_Family_Tree.dict -- data/linux/processed-challenges/Modern_Family_Tree/bin/Modern_Family_Tree\n'
p41
I0
tp42
a(I2520
S'start_time     : 1500349899\nlast_update    : 1500352423\nfuzzer_pid     : 27904\ncycles_done    : 7\nexecs_done     : 2857708\nexecs_per_sec  : 1114.06\npaths_total    : 25\npaths_favored  : 19\npaths_found    : 24\npaths_imported : 0\nmax_depth      : 7\ncur_path       : 24\npending_favs   : 0\npending_total  : 0\nvariable_paths : 0\nbitmap_cvg     : 0.45%\nunique_crashes : 0\nunique_hangs   : 5\nlast_path      : 1500351677\nlast_crash     : 0\nlast_hang      : 1500350866\nexec_timeout   : 20\nafl_banner     : fuzzer-master\nafl_version    : 1.85b\ncommand_line   : /home/skaramcheti/.virtualenvs/afl/bin/afl-unix/afl-fuzz -i /dev/shm/work/Modern_Family_Tree/input -o /dev/shm/work/Modern_Family_Tree/sync -m 4G -Q -M fuzzer-master -x /dev/shm/work/Modern_Family_Tree/Modern_Family_Tree.dict -- data/linux/processed-challenges/Modern_Family_Tree/bin/Modern_Family_Tree\n'
p43
I0
tp44
a(I2640
S'start_time     : 1500349899\nlast_update    : 1500352544\nfuzzer_pid     : 27904\ncycles_done    : 8\nexecs_done     : 2995816\nexecs_per_sec  : 1156.98\npaths_total    : 25\npaths_favored  : 19\npaths_found    : 24\npaths_imported : 0\nmax_depth      : 7\ncur_path       : 8\npending_favs   : 0\npending_total  : 0\nvariable_paths : 0\nbitmap_cvg     : 0.45%\nunique_crashes : 0\nunique_hangs   : 5\nlast_path      : 1500351677\nlast_crash     : 0\nlast_hang      : 1500350866\nexec_timeout   : 20\nafl_banner     : fuzzer-master\nafl_version    : 1.85b\ncommand_line   : /home/skaramcheti/.virtualenvs/afl/bin/afl-unix/afl-fuzz -i /dev/shm/work/Modern_Family_Tree/input -o /dev/shm/work/Modern_Family_Tree/sync -m 4G -Q -M fuzzer-master -x /dev/shm/work/Modern_Family_Tree/Modern_Family_Tree.dict -- data/linux/processed-challenges/Modern_Family_Tree/bin/Modern_Family_Tree\n'
p45
I0
tp46
a(I2760
S'start_time     : 1500349899\nlast_update    : 1500352664\nfuzzer_pid     : 27904\ncycles_done    : 8\nexecs_done     : 3134098\nexecs_per_sec  : 1131.53\npaths_total    : 25\npaths_favored  : 19\npaths_found    : 24\npaths_imported : 0\nmax_depth      : 7\ncur_path       : 17\npending_favs   : 0\npending_total  : 0\nvariable_paths : 0\nbitmap_cvg     : 0.45%\nunique_crashes : 0\nunique_hangs   : 5\nlast_path      : 1500351677\nlast_crash     : 0\nlast_hang      : 1500350866\nexec_timeout   : 20\nafl_banner     : fuzzer-master\nafl_version    : 1.85b\ncommand_line   : /home/skaramcheti/.virtualenvs/afl/bin/afl-unix/afl-fuzz -i /dev/shm/work/Modern_Family_Tree/input -o /dev/shm/work/Modern_Family_Tree/sync -m 4G -Q -M fuzzer-master -x /dev/shm/work/Modern_Family_Tree/Modern_Family_Tree.dict -- data/linux/processed-challenges/Modern_Family_Tree/bin/Modern_Family_Tree\n'
p47
I0
tp48
a(I2880
S'start_time     : 1500349899\nlast_update    : 1500352784\nfuzzer_pid     : 27904\ncycles_done    : 8\nexecs_done     : 3272379\nexecs_per_sec  : 1174.94\npaths_total    : 25\npaths_favored  : 19\npaths_found    : 24\npaths_imported : 0\nmax_depth      : 7\ncur_path       : 22\npending_favs   : 0\npending_total  : 0\nvariable_paths : 0\nbitmap_cvg     : 0.45%\nunique_crashes : 0\nunique_hangs   : 5\nlast_path      : 1500351677\nlast_crash     : 0\nlast_hang      : 1500350866\nexec_timeout   : 20\nafl_banner     : fuzzer-master\nafl_version    : 1.85b\ncommand_line   : /home/skaramcheti/.virtualenvs/afl/bin/afl-unix/afl-fuzz -i /dev/shm/work/Modern_Family_Tree/input -o /dev/shm/work/Modern_Family_Tree/sync -m 4G -Q -M fuzzer-master -x /dev/shm/work/Modern_Family_Tree/Modern_Family_Tree.dict -- data/linux/processed-challenges/Modern_Family_Tree/bin/Modern_Family_Tree\n'
p49
I0
tp50
a(I3000
S'start_time     : 1500349899\nlast_update    : 1500352904\nfuzzer_pid     : 27904\ncycles_done    : 8\nexecs_done     : 3409390\nexecs_per_sec  : 1133.63\npaths_total    : 25\npaths_favored  : 19\npaths_found    : 24\npaths_imported : 0\nmax_depth      : 7\ncur_path       : 24\npending_favs   : 0\npending_total  : 0\nvariable_paths : 0\nbitmap_cvg     : 0.45%\nunique_crashes : 0\nunique_hangs   : 5\nlast_path      : 1500351677\nlast_crash     : 0\nlast_hang      : 1500350866\nexec_timeout   : 20\nafl_banner     : fuzzer-master\nafl_version    : 1.85b\ncommand_line   : /home/skaramcheti/.virtualenvs/afl/bin/afl-unix/afl-fuzz -i /dev/shm/work/Modern_Family_Tree/input -o /dev/shm/work/Modern_Family_Tree/sync -m 4G -Q -M fuzzer-master -x /dev/shm/work/Modern_Family_Tree/Modern_Family_Tree.dict -- data/linux/processed-challenges/Modern_Family_Tree/bin/Modern_Family_Tree\n'
p51
I0
tp52
a(I3120
S'start_time     : 1500349899\nlast_update    : 1500353024\nfuzzer_pid     : 27904\ncycles_done    : 9\nexecs_done     : 3547499\nexecs_per_sec  : 1158.69\npaths_total    : 25\npaths_favored  : 19\npaths_found    : 24\npaths_imported : 0\nmax_depth      : 7\ncur_path       : 12\npending_favs   : 0\npending_total  : 0\nvariable_paths : 0\nbitmap_cvg     : 0.45%\nunique_crashes : 0\nunique_hangs   : 5\nlast_path      : 1500351677\nlast_crash     : 0\nlast_hang      : 1500350866\nexec_timeout   : 20\nafl_banner     : fuzzer-master\nafl_version    : 1.85b\ncommand_line   : /home/skaramcheti/.virtualenvs/afl/bin/afl-unix/afl-fuzz -i /dev/shm/work/Modern_Family_Tree/input -o /dev/shm/work/Modern_Family_Tree/sync -m 4G -Q -M fuzzer-master -x /dev/shm/work/Modern_Family_Tree/Modern_Family_Tree.dict -- data/linux/processed-challenges/Modern_Family_Tree/bin/Modern_Family_Tree\n'
p53
I0
tp54
a(I3240
S'start_time     : 1500349899\nlast_update    : 1500353145\nfuzzer_pid     : 27904\ncycles_done    : 9\nexecs_done     : 3686768\nexecs_per_sec  : 1162.52\npaths_total    : 25\npaths_favored  : 19\npaths_found    : 24\npaths_imported : 0\nmax_depth      : 7\ncur_path       : 19\npending_favs   : 0\npending_total  : 0\nvariable_paths : 0\nbitmap_cvg     : 0.45%\nunique_crashes : 0\nunique_hangs   : 5\nlast_path      : 1500351677\nlast_crash     : 0\nlast_hang      : 1500350866\nexec_timeout   : 20\nafl_banner     : fuzzer-master\nafl_version    : 1.85b\ncommand_line   : /home/skaramcheti/.virtualenvs/afl/bin/afl-unix/afl-fuzz -i /dev/shm/work/Modern_Family_Tree/input -o /dev/shm/work/Modern_Family_Tree/sync -m 4G -Q -M fuzzer-master -x /dev/shm/work/Modern_Family_Tree/Modern_Family_Tree.dict -- data/linux/processed-challenges/Modern_Family_Tree/bin/Modern_Family_Tree\n'
p55
I0
tp56
a(I3360
S'start_time     : 1500349899\nlast_update    : 1500353265\nfuzzer_pid     : 27904\ncycles_done    : 9\nexecs_done     : 3824538\nexecs_per_sec  : 1131.35\npaths_total    : 25\npaths_favored  : 19\npaths_found    : 24\npaths_imported : 0\nmax_depth      : 7\ncur_path       : 24\npending_favs   : 0\npending_total  : 0\nvariable_paths : 0\nbitmap_cvg     : 0.45%\nunique_crashes : 0\nunique_hangs   : 5\nlast_path      : 1500351677\nlast_crash     : 0\nlast_hang      : 1500350866\nexec_timeout   : 20\nafl_banner     : fuzzer-master\nafl_version    : 1.85b\ncommand_line   : /home/skaramcheti/.virtualenvs/afl/bin/afl-unix/afl-fuzz -i /dev/shm/work/Modern_Family_Tree/input -o /dev/shm/work/Modern_Family_Tree/sync -m 4G -Q -M fuzzer-master -x /dev/shm/work/Modern_Family_Tree/Modern_Family_Tree.dict -- data/linux/processed-challenges/Modern_Family_Tree/bin/Modern_Family_Tree\n'
p57
I0
tp58
a(I3480
S'start_time     : 1500349899\nlast_update    : 1500353385\nfuzzer_pid     : 27904\ncycles_done    : 10\nexecs_done     : 3963657\nexecs_per_sec  : 1174.70\npaths_total    : 25\npaths_favored  : 19\npaths_found    : 24\npaths_imported : 0\nmax_depth      : 7\ncur_path       : 12\npending_favs   : 0\npending_total  : 0\nvariable_paths : 0\nbitmap_cvg     : 0.45%\nunique_crashes : 0\nunique_hangs   : 5\nlast_path      : 1500351677\nlast_crash     : 0\nlast_hang      : 1500350866\nexec_timeout   : 20\nafl_banner     : fuzzer-master\nafl_version    : 1.85b\ncommand_line   : /home/skaramcheti/.virtualenvs/afl/bin/afl-unix/afl-fuzz -i /dev/shm/work/Modern_Family_Tree/input -o /dev/shm/work/Modern_Family_Tree/sync -m 4G -Q -M fuzzer-master -x /dev/shm/work/Modern_Family_Tree/Modern_Family_Tree.dict -- data/linux/processed-challenges/Modern_Family_Tree/bin/Modern_Family_Tree\n'
p59
I0
tp60
a(I3600
S'start_time     : 1500349899\nlast_update    : 1500353505\nfuzzer_pid     : 27904\ncycles_done    : 10\nexecs_done     : 4102285\nexecs_per_sec  : 1187.14\npaths_total    : 25\npaths_favored  : 19\npaths_found    : 24\npaths_imported : 0\nmax_depth      : 7\ncur_path       : 18\npending_favs   : 0\npending_total  : 0\nvariable_paths : 0\nbitmap_cvg     : 0.45%\nunique_crashes : 0\nunique_hangs   : 5\nlast_path      : 1500351677\nlast_crash     : 0\nlast_hang      : 1500350866\nexec_timeout   : 20\nafl_banner     : fuzzer-master\nafl_version    : 1.85b\ncommand_line   : /home/skaramcheti/.virtualenvs/afl/bin/afl-unix/afl-fuzz -i /dev/shm/work/Modern_Family_Tree/input -o /dev/shm/work/Modern_Family_Tree/sync -m 4G -Q -M fuzzer-master -x /dev/shm/work/Modern_Family_Tree/Modern_Family_Tree.dict -- data/linux/processed-challenges/Modern_Family_Tree/bin/Modern_Family_Tree\n'
p61
I0
tp62
a(I3720
S'start_time     : 1500349899\nlast_update    : 1500353625\nfuzzer_pid     : 27904\ncycles_done    : 10\nexecs_done     : 4241018\nexecs_per_sec  : 1156.47\npaths_total    : 25\npaths_favored  : 19\npaths_found    : 24\npaths_imported : 0\nmax_depth      : 7\ncur_path       : 23\npending_favs   : 0\npending_total  : 0\nvariable_paths : 0\nbitmap_cvg     : 0.45%\nunique_crashes : 0\nunique_hangs   : 5\nlast_path      : 1500351677\nlast_crash     : 0\nlast_hang      : 1500350866\nexec_timeout   : 20\nafl_banner     : fuzzer-master\nafl_version    : 1.85b\ncommand_line   : /home/skaramcheti/.virtualenvs/afl/bin/afl-unix/afl-fuzz -i /dev/shm/work/Modern_Family_Tree/input -o /dev/shm/work/Modern_Family_Tree/sync -m 4G -Q -M fuzzer-master -x /dev/shm/work/Modern_Family_Tree/Modern_Family_Tree.dict -- data/linux/processed-challenges/Modern_Family_Tree/bin/Modern_Family_Tree\n'
p63
I0
tp64
a(I3840
S'start_time     : 1500349899\nlast_update    : 1500353745\nfuzzer_pid     : 27904\ncycles_done    : 11\nexecs_done     : 4380265\nexecs_per_sec  : 1161.95\npaths_total    : 25\npaths_favored  : 19\npaths_found    : 24\npaths_imported : 0\nmax_depth      : 7\ncur_path       : 9\npending_favs   : 0\npending_total  : 0\nvariable_paths : 0\nbitmap_cvg     : 0.45%\nunique_crashes : 0\nunique_hangs   : 5\nlast_path      : 1500351677\nlast_crash     : 0\nlast_hang      : 1500350866\nexec_timeout   : 20\nafl_banner     : fuzzer-master\nafl_version    : 1.85b\ncommand_line   : /home/skaramcheti/.virtualenvs/afl/bin/afl-unix/afl-fuzz -i /dev/shm/work/Modern_Family_Tree/input -o /dev/shm/work/Modern_Family_Tree/sync -m 4G -Q -M fuzzer-master -x /dev/shm/work/Modern_Family_Tree/Modern_Family_Tree.dict -- data/linux/processed-challenges/Modern_Family_Tree/bin/Modern_Family_Tree\n'
p65
I0
tp66
a(I3960
S'start_time     : 1500349899\nlast_update    : 1500353866\nfuzzer_pid     : 27904\ncycles_done    : 11\nexecs_done     : 4519551\nexecs_per_sec  : 1198.96\npaths_total    : 25\npaths_favored  : 19\npaths_found    : 24\npaths_imported : 0\nmax_depth      : 7\ncur_path       : 18\npending_favs   : 0\npending_total  : 0\nvariable_paths : 0\nbitmap_cvg     : 0.45%\nunique_crashes : 0\nunique_hangs   : 5\nlast_path      : 1500351677\nlast_crash     : 0\nlast_hang      : 1500350866\nexec_timeout   : 20\nafl_banner     : fuzzer-master\nafl_version    : 1.85b\ncommand_line   : /home/skaramcheti/.virtualenvs/afl/bin/afl-unix/afl-fuzz -i /dev/shm/work/Modern_Family_Tree/input -o /dev/shm/work/Modern_Family_Tree/sync -m 4G -Q -M fuzzer-master -x /dev/shm/work/Modern_Family_Tree/Modern_Family_Tree.dict -- data/linux/processed-challenges/Modern_Family_Tree/bin/Modern_Family_Tree\n'
p67
I0
tp68
a(I4080
S'start_time     : 1500349899\nlast_update    : 1500353986\nfuzzer_pid     : 27904\ncycles_done    : 11\nexecs_done     : 4657560\nexecs_per_sec  : 1134.30\npaths_total    : 25\npaths_favored  : 19\npaths_found    : 24\npaths_imported : 0\nmax_depth      : 7\ncur_path       : 23\npending_favs   : 0\npending_total  : 0\nvariable_paths : 0\nbitmap_cvg     : 0.45%\nunique_crashes : 0\nunique_hangs   : 5\nlast_path      : 1500351677\nlast_crash     : 0\nlast_hang      : 1500350866\nexec_timeout   : 20\nafl_banner     : fuzzer-master\nafl_version    : 1.85b\ncommand_line   : /home/skaramcheti/.virtualenvs/afl/bin/afl-unix/afl-fuzz -i /dev/shm/work/Modern_Family_Tree/input -o /dev/shm/work/Modern_Family_Tree/sync -m 4G -Q -M fuzzer-master -x /dev/shm/work/Modern_Family_Tree/Modern_Family_Tree.dict -- data/linux/processed-challenges/Modern_Family_Tree/bin/Modern_Family_Tree\n'
p69
I0
tp70
a(I4200
S'start_time     : 1500349899\nlast_update    : 1500354106\nfuzzer_pid     : 27904\ncycles_done    : 12\nexecs_done     : 4796847\nexecs_per_sec  : 1183.84\npaths_total    : 25\npaths_favored  : 19\npaths_found    : 24\npaths_imported : 0\nmax_depth      : 7\ncur_path       : 9\npending_favs   : 0\npending_total  : 0\nvariable_paths : 0\nbitmap_cvg     : 0.45%\nunique_crashes : 0\nunique_hangs   : 5\nlast_path      : 1500351677\nlast_crash     : 0\nlast_hang      : 1500350866\nexec_timeout   : 20\nafl_banner     : fuzzer-master\nafl_version    : 1.85b\ncommand_line   : /home/skaramcheti/.virtualenvs/afl/bin/afl-unix/afl-fuzz -i /dev/shm/work/Modern_Family_Tree/input -o /dev/shm/work/Modern_Family_Tree/sync -m 4G -Q -M fuzzer-master -x /dev/shm/work/Modern_Family_Tree/Modern_Family_Tree.dict -- data/linux/processed-challenges/Modern_Family_Tree/bin/Modern_Family_Tree\n'
p71
I0
tp72
a(I4320
S'start_time     : 1500349899\nlast_update    : 1500354226\nfuzzer_pid     : 27904\ncycles_done    : 12\nexecs_done     : 4936787\nexecs_per_sec  : 1150.29\npaths_total    : 25\npaths_favored  : 19\npaths_found    : 24\npaths_imported : 0\nmax_depth      : 7\ncur_path       : 17\npending_favs   : 0\npending_total  : 0\nvariable_paths : 0\nbitmap_cvg     : 0.45%\nunique_crashes : 0\nunique_hangs   : 5\nlast_path      : 1500351677\nlast_crash     : 0\nlast_hang      : 1500350866\nexec_timeout   : 20\nafl_banner     : fuzzer-master\nafl_version    : 1.85b\ncommand_line   : /home/skaramcheti/.virtualenvs/afl/bin/afl-unix/afl-fuzz -i /dev/shm/work/Modern_Family_Tree/input -o /dev/shm/work/Modern_Family_Tree/sync -m 4G -Q -M fuzzer-master -x /dev/shm/work/Modern_Family_Tree/Modern_Family_Tree.dict -- data/linux/processed-challenges/Modern_Family_Tree/bin/Modern_Family_Tree\n'
p73
I0
tp74
a(I4440
S'start_time     : 1500349899\nlast_update    : 1500354347\nfuzzer_pid     : 27904\ncycles_done    : 12\nexecs_done     : 5077114\nexecs_per_sec  : 1171.50\npaths_total    : 25\npaths_favored  : 19\npaths_found    : 24\npaths_imported : 0\nmax_depth      : 7\ncur_path       : 22\npending_favs   : 0\npending_total  : 0\nvariable_paths : 0\nbitmap_cvg     : 0.45%\nunique_crashes : 0\nunique_hangs   : 5\nlast_path      : 1500351677\nlast_crash     : 0\nlast_hang      : 1500350866\nexec_timeout   : 20\nafl_banner     : fuzzer-master\nafl_version    : 1.85b\ncommand_line   : /home/skaramcheti/.virtualenvs/afl/bin/afl-unix/afl-fuzz -i /dev/shm/work/Modern_Family_Tree/input -o /dev/shm/work/Modern_Family_Tree/sync -m 4G -Q -M fuzzer-master -x /dev/shm/work/Modern_Family_Tree/Modern_Family_Tree.dict -- data/linux/processed-challenges/Modern_Family_Tree/bin/Modern_Family_Tree\n'
p75
I0
tp76
a(I4560
S'start_time     : 1500349899\nlast_update    : 1500354467\nfuzzer_pid     : 27904\ncycles_done    : 13\nexecs_done     : 5214618\nexecs_per_sec  : 1161.93\npaths_total    : 25\npaths_favored  : 19\npaths_found    : 24\npaths_imported : 0\nmax_depth      : 7\ncur_path       : 8\npending_favs   : 0\npending_total  : 0\nvariable_paths : 0\nbitmap_cvg     : 0.45%\nunique_crashes : 0\nunique_hangs   : 5\nlast_path      : 1500351677\nlast_crash     : 0\nlast_hang      : 1500350866\nexec_timeout   : 20\nafl_banner     : fuzzer-master\nafl_version    : 1.85b\ncommand_line   : /home/skaramcheti/.virtualenvs/afl/bin/afl-unix/afl-fuzz -i /dev/shm/work/Modern_Family_Tree/input -o /dev/shm/work/Modern_Family_Tree/sync -m 4G -Q -M fuzzer-master -x /dev/shm/work/Modern_Family_Tree/Modern_Family_Tree.dict -- data/linux/processed-challenges/Modern_Family_Tree/bin/Modern_Family_Tree\n'
p77
I0
tp78
a(I4680
S'start_time     : 1500349899\nlast_update    : 1500354587\nfuzzer_pid     : 27904\ncycles_done    : 13\nexecs_done     : 5353966\nexecs_per_sec  : 1158.46\npaths_total    : 25\npaths_favored  : 19\npaths_found    : 24\npaths_imported : 0\nmax_depth      : 7\ncur_path       : 17\npending_favs   : 0\npending_total  : 0\nvariable_paths : 0\nbitmap_cvg     : 0.45%\nunique_crashes : 0\nunique_hangs   : 5\nlast_path      : 1500351677\nlast_crash     : 0\nlast_hang      : 1500350866\nexec_timeout   : 20\nafl_banner     : fuzzer-master\nafl_version    : 1.85b\ncommand_line   : /home/skaramcheti/.virtualenvs/afl/bin/afl-unix/afl-fuzz -i /dev/shm/work/Modern_Family_Tree/input -o /dev/shm/work/Modern_Family_Tree/sync -m 4G -Q -M fuzzer-master -x /dev/shm/work/Modern_Family_Tree/Modern_Family_Tree.dict -- data/linux/processed-challenges/Modern_Family_Tree/bin/Modern_Family_Tree\n'
p79
I0
tp80
a(I4800
S'start_time     : 1500349899\nlast_update    : 1500354707\nfuzzer_pid     : 27904\ncycles_done    : 13\nexecs_done     : 5490822\nexecs_per_sec  : 1115.60\npaths_total    : 25\npaths_favored  : 19\npaths_found    : 24\npaths_imported : 0\nmax_depth      : 7\ncur_path       : 22\npending_favs   : 0\npending_total  : 0\nvariable_paths : 0\nbitmap_cvg     : 0.45%\nunique_crashes : 0\nunique_hangs   : 5\nlast_path      : 1500351677\nlast_crash     : 0\nlast_hang      : 1500350866\nexec_timeout   : 20\nafl_banner     : fuzzer-master\nafl_version    : 1.85b\ncommand_line   : /home/skaramcheti/.virtualenvs/afl/bin/afl-unix/afl-fuzz -i /dev/shm/work/Modern_Family_Tree/input -o /dev/shm/work/Modern_Family_Tree/sync -m 4G -Q -M fuzzer-master -x /dev/shm/work/Modern_Family_Tree/Modern_Family_Tree.dict -- data/linux/processed-challenges/Modern_Family_Tree/bin/Modern_Family_Tree\n'
p81
I0
tp82
a(I4920
S'start_time     : 1500349899\nlast_update    : 1500354827\nfuzzer_pid     : 27904\ncycles_done    : 14\nexecs_done     : 5628734\nexecs_per_sec  : 1147.52\npaths_total    : 25\npaths_favored  : 19\npaths_found    : 24\npaths_imported : 0\nmax_depth      : 7\ncur_path       : 4\npending_favs   : 0\npending_total  : 0\nvariable_paths : 0\nbitmap_cvg     : 0.45%\nunique_crashes : 0\nunique_hangs   : 5\nlast_path      : 1500351677\nlast_crash     : 0\nlast_hang      : 1500350866\nexec_timeout   : 20\nafl_banner     : fuzzer-master\nafl_version    : 1.85b\ncommand_line   : /home/skaramcheti/.virtualenvs/afl/bin/afl-unix/afl-fuzz -i /dev/shm/work/Modern_Family_Tree/input -o /dev/shm/work/Modern_Family_Tree/sync -m 4G -Q -M fuzzer-master -x /dev/shm/work/Modern_Family_Tree/Modern_Family_Tree.dict -- data/linux/processed-challenges/Modern_Family_Tree/bin/Modern_Family_Tree\n'
p83
I0
tp84
a(I5040
S'start_time     : 1500349899\nlast_update    : 1500354948\nfuzzer_pid     : 27904\ncycles_done    : 14\nexecs_done     : 5767902\nexecs_per_sec  : 1141.19\npaths_total    : 25\npaths_favored  : 19\npaths_found    : 24\npaths_imported : 0\nmax_depth      : 7\ncur_path       : 16\npending_favs   : 0\npending_total  : 0\nvariable_paths : 0\nbitmap_cvg     : 0.45%\nunique_crashes : 0\nunique_hangs   : 5\nlast_path      : 1500351677\nlast_crash     : 0\nlast_hang      : 1500350866\nexec_timeout   : 20\nafl_banner     : fuzzer-master\nafl_version    : 1.85b\ncommand_line   : /home/skaramcheti/.virtualenvs/afl/bin/afl-unix/afl-fuzz -i /dev/shm/work/Modern_Family_Tree/input -o /dev/shm/work/Modern_Family_Tree/sync -m 4G -Q -M fuzzer-master -x /dev/shm/work/Modern_Family_Tree/Modern_Family_Tree.dict -- data/linux/processed-challenges/Modern_Family_Tree/bin/Modern_Family_Tree\n'
p85
I0
tp86
a(I5160
S'start_time     : 1500349899\nlast_update    : 1500355068\nfuzzer_pid     : 27904\ncycles_done    : 14\nexecs_done     : 5906356\nexecs_per_sec  : 1153.84\npaths_total    : 25\npaths_favored  : 19\npaths_found    : 24\npaths_imported : 0\nmax_depth      : 7\ncur_path       : 21\npending_favs   : 0\npending_total  : 0\nvariable_paths : 0\nbitmap_cvg     : 0.45%\nunique_crashes : 0\nunique_hangs   : 5\nlast_path      : 1500351677\nlast_crash     : 0\nlast_hang      : 1500350866\nexec_timeout   : 20\nafl_banner     : fuzzer-master\nafl_version    : 1.85b\ncommand_line   : /home/skaramcheti/.virtualenvs/afl/bin/afl-unix/afl-fuzz -i /dev/shm/work/Modern_Family_Tree/input -o /dev/shm/work/Modern_Family_Tree/sync -m 4G -Q -M fuzzer-master -x /dev/shm/work/Modern_Family_Tree/Modern_Family_Tree.dict -- data/linux/processed-challenges/Modern_Family_Tree/bin/Modern_Family_Tree\n'
p87
I0
tp88
a(I5280
S'start_time     : 1500349899\nlast_update    : 1500355188\nfuzzer_pid     : 27904\ncycles_done    : 15\nexecs_done     : 6044864\nexecs_per_sec  : 1133.15\npaths_total    : 25\npaths_favored  : 19\npaths_found    : 24\npaths_imported : 0\nmax_depth      : 7\ncur_path       : 4\npending_favs   : 0\npending_total  : 0\nvariable_paths : 0\nbitmap_cvg     : 0.45%\nunique_crashes : 0\nunique_hangs   : 5\nlast_path      : 1500351677\nlast_crash     : 0\nlast_hang      : 1500350866\nexec_timeout   : 20\nafl_banner     : fuzzer-master\nafl_version    : 1.85b\ncommand_line   : /home/skaramcheti/.virtualenvs/afl/bin/afl-unix/afl-fuzz -i /dev/shm/work/Modern_Family_Tree/input -o /dev/shm/work/Modern_Family_Tree/sync -m 4G -Q -M fuzzer-master -x /dev/shm/work/Modern_Family_Tree/Modern_Family_Tree.dict -- data/linux/processed-challenges/Modern_Family_Tree/bin/Modern_Family_Tree\n'
p89
I0
tp90
a(I5400
S'start_time     : 1500349899\nlast_update    : 1500355308\nfuzzer_pid     : 27904\ncycles_done    : 15\nexecs_done     : 6184086\nexecs_per_sec  : 1149.07\npaths_total    : 25\npaths_favored  : 19\npaths_found    : 24\npaths_imported : 0\nmax_depth      : 7\ncur_path       : 15\npending_favs   : 0\npending_total  : 0\nvariable_paths : 0\nbitmap_cvg     : 0.45%\nunique_crashes : 0\nunique_hangs   : 5\nlast_path      : 1500351677\nlast_crash     : 0\nlast_hang      : 1500350866\nexec_timeout   : 20\nafl_banner     : fuzzer-master\nafl_version    : 1.85b\ncommand_line   : /home/skaramcheti/.virtualenvs/afl/bin/afl-unix/afl-fuzz -i /dev/shm/work/Modern_Family_Tree/input -o /dev/shm/work/Modern_Family_Tree/sync -m 4G -Q -M fuzzer-master -x /dev/shm/work/Modern_Family_Tree/Modern_Family_Tree.dict -- data/linux/processed-challenges/Modern_Family_Tree/bin/Modern_Family_Tree\n'
p91
I0
tp92
a(I5520
S'start_time     : 1500349899\nlast_update    : 1500355429\nfuzzer_pid     : 27904\ncycles_done    : 15\nexecs_done     : 6321934\nexecs_per_sec  : 1141.21\npaths_total    : 25\npaths_favored  : 19\npaths_found    : 24\npaths_imported : 0\nmax_depth      : 7\ncur_path       : 21\npending_favs   : 0\npending_total  : 0\nvariable_paths : 0\nbitmap_cvg     : 0.45%\nunique_crashes : 0\nunique_hangs   : 5\nlast_path      : 1500351677\nlast_crash     : 0\nlast_hang      : 1500350866\nexec_timeout   : 20\nafl_banner     : fuzzer-master\nafl_version    : 1.85b\ncommand_line   : /home/skaramcheti/.virtualenvs/afl/bin/afl-unix/afl-fuzz -i /dev/shm/work/Modern_Family_Tree/input -o /dev/shm/work/Modern_Family_Tree/sync -m 4G -Q -M fuzzer-master -x /dev/shm/work/Modern_Family_Tree/Modern_Family_Tree.dict -- data/linux/processed-challenges/Modern_Family_Tree/bin/Modern_Family_Tree\n'
p93
I0
tp94
a(I5640
S'start_time     : 1500349899\nlast_update    : 1500355549\nfuzzer_pid     : 27904\ncycles_done    : 16\nexecs_done     : 6460235\nexecs_per_sec  : 1150.53\npaths_total    : 25\npaths_favored  : 19\npaths_found    : 24\npaths_imported : 0\nmax_depth      : 7\ncur_path       : 0\npending_favs   : 0\npending_total  : 0\nvariable_paths : 0\nbitmap_cvg     : 0.45%\nunique_crashes : 0\nunique_hangs   : 5\nlast_path      : 1500351677\nlast_crash     : 0\nlast_hang      : 1500350866\nexec_timeout   : 20\nafl_banner     : fuzzer-master\nafl_version    : 1.85b\ncommand_line   : /home/skaramcheti/.virtualenvs/afl/bin/afl-unix/afl-fuzz -i /dev/shm/work/Modern_Family_Tree/input -o /dev/shm/work/Modern_Family_Tree/sync -m 4G -Q -M fuzzer-master -x /dev/shm/work/Modern_Family_Tree/Modern_Family_Tree.dict -- data/linux/processed-challenges/Modern_Family_Tree/bin/Modern_Family_Tree\n'
p95
I0
tp96
a(I5760
S'start_time     : 1500349899\nlast_update    : 1500355669\nfuzzer_pid     : 27904\ncycles_done    : 16\nexecs_done     : 6599906\nexecs_per_sec  : 1148.38\npaths_total    : 25\npaths_favored  : 19\npaths_found    : 24\npaths_imported : 0\nmax_depth      : 7\ncur_path       : 14\npending_favs   : 0\npending_total  : 0\nvariable_paths : 0\nbitmap_cvg     : 0.45%\nunique_crashes : 0\nunique_hangs   : 5\nlast_path      : 1500351677\nlast_crash     : 0\nlast_hang      : 1500350866\nexec_timeout   : 20\nafl_banner     : fuzzer-master\nafl_version    : 1.85b\ncommand_line   : /home/skaramcheti/.virtualenvs/afl/bin/afl-unix/afl-fuzz -i /dev/shm/work/Modern_Family_Tree/input -o /dev/shm/work/Modern_Family_Tree/sync -m 4G -Q -M fuzzer-master -x /dev/shm/work/Modern_Family_Tree/Modern_Family_Tree.dict -- data/linux/processed-challenges/Modern_Family_Tree/bin/Modern_Family_Tree\n'
p97
I0
tp98
a(I5880
S'start_time     : 1500349899\nlast_update    : 1500355729\nfuzzer_pid     : 27904\ncycles_done    : 16\nexecs_done     : 6668682\nexecs_per_sec  : 1131.57\npaths_total    : 25\npaths_favored  : 19\npaths_found    : 24\npaths_imported : 0\nmax_depth      : 7\ncur_path       : 17\npending_favs   : 0\npending_total  : 0\nvariable_paths : 0\nbitmap_cvg     : 0.45%\nunique_crashes : 0\nunique_hangs   : 5\nlast_path      : 1500351677\nlast_crash     : 0\nlast_hang      : 1500350866\nexec_timeout   : 20\nafl_banner     : fuzzer-master\nafl_version    : 1.85b\ncommand_line   : /home/skaramcheti/.virtualenvs/afl/bin/afl-unix/afl-fuzz -i /dev/shm/work/Modern_Family_Tree/input -o /dev/shm/work/Modern_Family_Tree/sync -m 4G -Q -M fuzzer-master -x /dev/shm/work/Modern_Family_Tree/Modern_Family_Tree.dict -- data/linux/processed-challenges/Modern_Family_Tree/bin/Modern_Family_Tree\n'
p99
I0
tp100
a(I6000
S'start_time     : 1500349899\nlast_update    : 1500355849\nfuzzer_pid     : 27904\ncycles_done    : 16\nexecs_done     : 6806440\nexecs_per_sec  : 1114.75\npaths_total    : 25\npaths_favored  : 19\npaths_found    : 24\npaths_imported : 0\nmax_depth      : 7\ncur_path       : 22\npending_favs   : 0\npending_total  : 0\nvariable_paths : 0\nbitmap_cvg     : 0.45%\nunique_crashes : 0\nunique_hangs   : 5\nlast_path      : 1500351677\nlast_crash     : 0\nlast_hang      : 1500350866\nexec_timeout   : 20\nafl_banner     : fuzzer-master\nafl_version    : 1.85b\ncommand_line   : /home/skaramcheti/.virtualenvs/afl/bin/afl-unix/afl-fuzz -i /dev/shm/work/Modern_Family_Tree/input -o /dev/shm/work/Modern_Family_Tree/sync -m 4G -Q -M fuzzer-master -x /dev/shm/work/Modern_Family_Tree/Modern_Family_Tree.dict -- data/linux/processed-challenges/Modern_Family_Tree/bin/Modern_Family_Tree\n'
p101
I0
tp102
a(I6120
S'start_time     : 1500349899\nlast_update    : 1500355970\nfuzzer_pid     : 27904\ncycles_done    : 17\nexecs_done     : 6944215\nexecs_per_sec  : 1128.05\npaths_total    : 25\npaths_favored  : 19\npaths_found    : 24\npaths_imported : 0\nmax_depth      : 7\ncur_path       : 7\npending_favs   : 0\npending_total  : 0\nvariable_paths : 0\nbitmap_cvg     : 0.45%\nunique_crashes : 0\nunique_hangs   : 5\nlast_path      : 1500351677\nlast_crash     : 0\nlast_hang      : 1500350866\nexec_timeout   : 20\nafl_banner     : fuzzer-master\nafl_version    : 1.85b\ncommand_line   : /home/skaramcheti/.virtualenvs/afl/bin/afl-unix/afl-fuzz -i /dev/shm/work/Modern_Family_Tree/input -o /dev/shm/work/Modern_Family_Tree/sync -m 4G -Q -M fuzzer-master -x /dev/shm/work/Modern_Family_Tree/Modern_Family_Tree.dict -- data/linux/processed-challenges/Modern_Family_Tree/bin/Modern_Family_Tree\n'
p103
I0
tp104
a(I6240
S'start_time     : 1500349899\nlast_update    : 1500356090\nfuzzer_pid     : 27904\ncycles_done    : 17\nexecs_done     : 7082070\nexecs_per_sec  : 1129.97\npaths_total    : 27\npaths_favored  : 20\npaths_found    : 26\npaths_imported : 0\nmax_depth      : 7\ncur_path       : 25\npending_favs   : 1\npending_total  : 2\nvariable_paths : 0\nbitmap_cvg     : 0.48%\nunique_crashes : 0\nunique_hangs   : 5\nlast_path      : 1500356049\nlast_crash     : 0\nlast_hang      : 1500350866\nexec_timeout   : 20\nafl_banner     : fuzzer-master\nafl_version    : 1.85b\ncommand_line   : /home/skaramcheti/.virtualenvs/afl/bin/afl-unix/afl-fuzz -i /dev/shm/work/Modern_Family_Tree/input -o /dev/shm/work/Modern_Family_Tree/sync -m 4G -Q -M fuzzer-master -x /dev/shm/work/Modern_Family_Tree/Modern_Family_Tree.dict -- data/linux/processed-challenges/Modern_Family_Tree/bin/Modern_Family_Tree\n'
p105
I2
tp106
a(I6360
S'start_time     : 1500349899\nlast_update    : 1500356210\nfuzzer_pid     : 27904\ncycles_done    : 17\nexecs_done     : 7218628\nexecs_per_sec  : 1120.09\npaths_total    : 27\npaths_favored  : 21\npaths_found    : 26\npaths_imported : 0\nmax_depth      : 7\ncur_path       : 26\npending_favs   : 1\npending_total  : 1\nvariable_paths : 0\nbitmap_cvg     : 0.48%\nunique_crashes : 0\nunique_hangs   : 5\nlast_path      : 1500356049\nlast_crash     : 0\nlast_hang      : 1500350866\nexec_timeout   : 20\nafl_banner     : fuzzer-master\nafl_version    : 1.85b\ncommand_line   : /home/skaramcheti/.virtualenvs/afl/bin/afl-unix/afl-fuzz -i /dev/shm/work/Modern_Family_Tree/input -o /dev/shm/work/Modern_Family_Tree/sync -m 4G -Q -M fuzzer-master -x /dev/shm/work/Modern_Family_Tree/Modern_Family_Tree.dict -- data/linux/processed-challenges/Modern_Family_Tree/bin/Modern_Family_Tree\n'
p107
I0
tp108
a(I6480
S'start_time     : 1500349899\nlast_update    : 1500356330\nfuzzer_pid     : 27904\ncycles_done    : 18\nexecs_done     : 7356150\nexecs_per_sec  : 1147.84\npaths_total    : 27\npaths_favored  : 21\npaths_found    : 26\npaths_imported : 0\nmax_depth      : 7\ncur_path       : 3\npending_favs   : 0\npending_total  : 0\nvariable_paths : 0\nbitmap_cvg     : 0.48%\nunique_crashes : 0\nunique_hangs   : 5\nlast_path      : 1500356049\nlast_crash     : 0\nlast_hang      : 1500350866\nexec_timeout   : 20\nafl_banner     : fuzzer-master\nafl_version    : 1.85b\ncommand_line   : /home/skaramcheti/.virtualenvs/afl/bin/afl-unix/afl-fuzz -i /dev/shm/work/Modern_Family_Tree/input -o /dev/shm/work/Modern_Family_Tree/sync -m 4G -Q -M fuzzer-master -x /dev/shm/work/Modern_Family_Tree/Modern_Family_Tree.dict -- data/linux/processed-challenges/Modern_Family_Tree/bin/Modern_Family_Tree\n'
p109
I0
tp110
a(I6600
S'start_time     : 1500349899\nlast_update    : 1500356450\nfuzzer_pid     : 27904\ncycles_done    : 18\nexecs_done     : 7494041\nexecs_per_sec  : 1144.66\npaths_total    : 29\npaths_favored  : 23\npaths_found    : 28\npaths_imported : 0\nmax_depth      : 7\ncur_path       : 27\npending_favs   : 2\npending_total  : 2\nvariable_paths : 0\nbitmap_cvg     : 0.52%\nunique_crashes : 0\nunique_hangs   : 5\nlast_path      : 1500356446\nlast_crash     : 0\nlast_hang      : 1500350866\nexec_timeout   : 20\nafl_banner     : fuzzer-master\nafl_version    : 1.85b\ncommand_line   : /home/skaramcheti/.virtualenvs/afl/bin/afl-unix/afl-fuzz -i /dev/shm/work/Modern_Family_Tree/input -o /dev/shm/work/Modern_Family_Tree/sync -m 4G -Q -M fuzzer-master -x /dev/shm/work/Modern_Family_Tree/Modern_Family_Tree.dict -- data/linux/processed-challenges/Modern_Family_Tree/bin/Modern_Family_Tree\n'
p111
I2
tp112
a(I6720
S'start_time     : 1500349899\nlast_update    : 1500356571\nfuzzer_pid     : 27904\ncycles_done    : 18\nexecs_done     : 7630633\nexecs_per_sec  : 1143.30\npaths_total    : 29\npaths_favored  : 23\npaths_found    : 28\npaths_imported : 0\nmax_depth      : 7\ncur_path       : 27\npending_favs   : 2\npending_total  : 2\nvariable_paths : 0\nbitmap_cvg     : 0.52%\nunique_crashes : 0\nunique_hangs   : 5\nlast_path      : 1500356446\nlast_crash     : 0\nlast_hang      : 1500350866\nexec_timeout   : 20\nafl_banner     : fuzzer-master\nafl_version    : 1.85b\ncommand_line   : /home/skaramcheti/.virtualenvs/afl/bin/afl-unix/afl-fuzz -i /dev/shm/work/Modern_Family_Tree/input -o /dev/shm/work/Modern_Family_Tree/sync -m 4G -Q -M fuzzer-master -x /dev/shm/work/Modern_Family_Tree/Modern_Family_Tree.dict -- data/linux/processed-challenges/Modern_Family_Tree/bin/Modern_Family_Tree\n'
p113
I0
tp114
a(I6840
S'start_time     : 1500349899\nlast_update    : 1500356691\nfuzzer_pid     : 27904\ncycles_done    : 18\nexecs_done     : 7768144\nexecs_per_sec  : 1151.43\npaths_total    : 29\npaths_favored  : 23\npaths_found    : 28\npaths_imported : 0\nmax_depth      : 7\ncur_path       : 28\npending_favs   : 1\npending_total  : 1\nvariable_paths : 0\nbitmap_cvg     : 0.52%\nunique_crashes : 0\nunique_hangs   : 5\nlast_path      : 1500356446\nlast_crash     : 0\nlast_hang      : 1500350866\nexec_timeout   : 20\nafl_banner     : fuzzer-master\nafl_version    : 1.85b\ncommand_line   : /home/skaramcheti/.virtualenvs/afl/bin/afl-unix/afl-fuzz -i /dev/shm/work/Modern_Family_Tree/input -o /dev/shm/work/Modern_Family_Tree/sync -m 4G -Q -M fuzzer-master -x /dev/shm/work/Modern_Family_Tree/Modern_Family_Tree.dict -- data/linux/processed-challenges/Modern_Family_Tree/bin/Modern_Family_Tree\n'
p115
I0
tp116
a(I6960
S'start_time     : 1500349899\nlast_update    : 1500356811\nfuzzer_pid     : 27904\ncycles_done    : 19\nexecs_done     : 7905753\nexecs_per_sec  : 1168.46\npaths_total    : 29\npaths_favored  : 23\npaths_found    : 28\npaths_imported : 0\nmax_depth      : 7\ncur_path       : 12\npending_favs   : 0\npending_total  : 0\nvariable_paths : 0\nbitmap_cvg     : 0.52%\nunique_crashes : 0\nunique_hangs   : 5\nlast_path      : 1500356446\nlast_crash     : 0\nlast_hang      : 1500350866\nexec_timeout   : 20\nafl_banner     : fuzzer-master\nafl_version    : 1.85b\ncommand_line   : /home/skaramcheti/.virtualenvs/afl/bin/afl-unix/afl-fuzz -i /dev/shm/work/Modern_Family_Tree/input -o /dev/shm/work/Modern_Family_Tree/sync -m 4G -Q -M fuzzer-master -x /dev/shm/work/Modern_Family_Tree/Modern_Family_Tree.dict -- data/linux/processed-challenges/Modern_Family_Tree/bin/Modern_Family_Tree\n'
p117
I0
tp118
a(I7080
S'start_time     : 1500349899\nlast_update    : 1500356931\nfuzzer_pid     : 27904\ncycles_done    : 19\nexecs_done     : 8043655\nexecs_per_sec  : 1142.58\npaths_total    : 29\npaths_favored  : 23\npaths_found    : 28\npaths_imported : 0\nmax_depth      : 7\ncur_path       : 19\npending_favs   : 0\npending_total  : 0\nvariable_paths : 0\nbitmap_cvg     : 0.52%\nunique_crashes : 0\nunique_hangs   : 5\nlast_path      : 1500356446\nlast_crash     : 0\nlast_hang      : 1500350866\nexec_timeout   : 20\nafl_banner     : fuzzer-master\nafl_version    : 1.85b\ncommand_line   : /home/skaramcheti/.virtualenvs/afl/bin/afl-unix/afl-fuzz -i /dev/shm/work/Modern_Family_Tree/input -o /dev/shm/work/Modern_Family_Tree/sync -m 4G -Q -M fuzzer-master -x /dev/shm/work/Modern_Family_Tree/Modern_Family_Tree.dict -- data/linux/processed-challenges/Modern_Family_Tree/bin/Modern_Family_Tree\n'
p119
I0
tp120
a(I7200
S'start_time     : 1500349899\nlast_update    : 1500357051\nfuzzer_pid     : 27904\ncycles_done    : 19\nexecs_done     : 8180939\nexecs_per_sec  : 1153.87\npaths_total    : 29\npaths_favored  : 23\npaths_found    : 28\npaths_imported : 0\nmax_depth      : 7\ncur_path       : 24\npending_favs   : 0\npending_total  : 0\nvariable_paths : 0\nbitmap_cvg     : 0.52%\nunique_crashes : 0\nunique_hangs   : 5\nlast_path      : 1500356446\nlast_crash     : 0\nlast_hang      : 1500350866\nexec_timeout   : 20\nafl_banner     : fuzzer-master\nafl_version    : 1.85b\ncommand_line   : /home/skaramcheti/.virtualenvs/afl/bin/afl-unix/afl-fuzz -i /dev/shm/work/Modern_Family_Tree/input -o /dev/shm/work/Modern_Family_Tree/sync -m 4G -Q -M fuzzer-master -x /dev/shm/work/Modern_Family_Tree/Modern_Family_Tree.dict -- data/linux/processed-challenges/Modern_Family_Tree/bin/Modern_Family_Tree\n'
p121
I0
tp122
a(I7320
S'start_time     : 1500349899\nlast_update    : 1500357172\nfuzzer_pid     : 27904\ncycles_done    : 19\nexecs_done     : 8319227\nexecs_per_sec  : 1133.34\npaths_total    : 29\npaths_favored  : 23\npaths_found    : 28\npaths_imported : 0\nmax_depth      : 7\ncur_path       : 25\npending_favs   : 0\npending_total  : 0\nvariable_paths : 0\nbitmap_cvg     : 0.52%\nunique_crashes : 0\nunique_hangs   : 5\nlast_path      : 1500356446\nlast_crash     : 0\nlast_hang      : 1500350866\nexec_timeout   : 20\nafl_banner     : fuzzer-master\nafl_version    : 1.85b\ncommand_line   : /home/skaramcheti/.virtualenvs/afl/bin/afl-unix/afl-fuzz -i /dev/shm/work/Modern_Family_Tree/input -o /dev/shm/work/Modern_Family_Tree/sync -m 4G -Q -M fuzzer-master -x /dev/shm/work/Modern_Family_Tree/Modern_Family_Tree.dict -- data/linux/processed-challenges/Modern_Family_Tree/bin/Modern_Family_Tree\n'
p123
I0
tp124
a(I7440
S'start_time     : 1500349899\nlast_update    : 1500357292\nfuzzer_pid     : 27904\ncycles_done    : 19\nexecs_done     : 8456787\nexecs_per_sec  : 1147.22\npaths_total    : 29\npaths_favored  : 23\npaths_found    : 28\npaths_imported : 0\nmax_depth      : 7\ncur_path       : 26\npending_favs   : 0\npending_total  : 0\nvariable_paths : 0\nbitmap_cvg     : 0.52%\nunique_crashes : 0\nunique_hangs   : 5\nlast_path      : 1500356446\nlast_crash     : 0\nlast_hang      : 1500350866\nexec_timeout   : 20\nafl_banner     : fuzzer-master\nafl_version    : 1.85b\ncommand_line   : /home/skaramcheti/.virtualenvs/afl/bin/afl-unix/afl-fuzz -i /dev/shm/work/Modern_Family_Tree/input -o /dev/shm/work/Modern_Family_Tree/sync -m 4G -Q -M fuzzer-master -x /dev/shm/work/Modern_Family_Tree/Modern_Family_Tree.dict -- data/linux/processed-challenges/Modern_Family_Tree/bin/Modern_Family_Tree\n'
p125
I0
tp126
a(I7560
S'start_time     : 1500349899\nlast_update    : 1500357412\nfuzzer_pid     : 27904\ncycles_done    : 19\nexecs_done     : 8592939\nexecs_per_sec  : 1130.89\npaths_total    : 29\npaths_favored  : 23\npaths_found    : 28\npaths_imported : 0\nmax_depth      : 7\ncur_path       : 27\npending_favs   : 0\npending_total  : 0\nvariable_paths : 0\nbitmap_cvg     : 0.52%\nunique_crashes : 0\nunique_hangs   : 5\nlast_path      : 1500356446\nlast_crash     : 0\nlast_hang      : 1500350866\nexec_timeout   : 20\nafl_banner     : fuzzer-master\nafl_version    : 1.85b\ncommand_line   : /home/skaramcheti/.virtualenvs/afl/bin/afl-unix/afl-fuzz -i /dev/shm/work/Modern_Family_Tree/input -o /dev/shm/work/Modern_Family_Tree/sync -m 4G -Q -M fuzzer-master -x /dev/shm/work/Modern_Family_Tree/Modern_Family_Tree.dict -- data/linux/processed-challenges/Modern_Family_Tree/bin/Modern_Family_Tree\n'
p127
I0
tp128
a(I7680
S'start_time     : 1500349899\nlast_update    : 1500357532\nfuzzer_pid     : 27904\ncycles_done    : 19\nexecs_done     : 8729209\nexecs_per_sec  : 1126.32\npaths_total    : 29\npaths_favored  : 23\npaths_found    : 28\npaths_imported : 0\nmax_depth      : 7\ncur_path       : 28\npending_favs   : 0\npending_total  : 0\nvariable_paths : 0\nbitmap_cvg     : 0.52%\nunique_crashes : 0\nunique_hangs   : 5\nlast_path      : 1500356446\nlast_crash     : 0\nlast_hang      : 1500350866\nexec_timeout   : 20\nafl_banner     : fuzzer-master\nafl_version    : 1.85b\ncommand_line   : /home/skaramcheti/.virtualenvs/afl/bin/afl-unix/afl-fuzz -i /dev/shm/work/Modern_Family_Tree/input -o /dev/shm/work/Modern_Family_Tree/sync -m 4G -Q -M fuzzer-master -x /dev/shm/work/Modern_Family_Tree/Modern_Family_Tree.dict -- data/linux/processed-challenges/Modern_Family_Tree/bin/Modern_Family_Tree\n'
p129
I0
tp130
a(I7800
S'start_time     : 1500349899\nlast_update    : 1500357652\nfuzzer_pid     : 27904\ncycles_done    : 20\nexecs_done     : 8866433\nexecs_per_sec  : 1144.34\npaths_total    : 29\npaths_favored  : 23\npaths_found    : 28\npaths_imported : 0\nmax_depth      : 7\ncur_path       : 7\npending_favs   : 0\npending_total  : 0\nvariable_paths : 0\nbitmap_cvg     : 0.52%\nunique_crashes : 0\nunique_hangs   : 5\nlast_path      : 1500356446\nlast_crash     : 0\nlast_hang      : 1500350866\nexec_timeout   : 20\nafl_banner     : fuzzer-master\nafl_version    : 1.85b\ncommand_line   : /home/skaramcheti/.virtualenvs/afl/bin/afl-unix/afl-fuzz -i /dev/shm/work/Modern_Family_Tree/input -o /dev/shm/work/Modern_Family_Tree/sync -m 4G -Q -M fuzzer-master -x /dev/shm/work/Modern_Family_Tree/Modern_Family_Tree.dict -- data/linux/processed-challenges/Modern_Family_Tree/bin/Modern_Family_Tree\n'
p131
I0
tp132
a(I7920
S'start_time     : 1500349899\nlast_update    : 1500357773\nfuzzer_pid     : 27904\ncycles_done    : 20\nexecs_done     : 9003271\nexecs_per_sec  : 1119.08\npaths_total    : 29\npaths_favored  : 23\npaths_found    : 28\npaths_imported : 0\nmax_depth      : 7\ncur_path       : 16\npending_favs   : 0\npending_total  : 0\nvariable_paths : 0\nbitmap_cvg     : 0.52%\nunique_crashes : 0\nunique_hangs   : 5\nlast_path      : 1500356446\nlast_crash     : 0\nlast_hang      : 1500350866\nexec_timeout   : 20\nafl_banner     : fuzzer-master\nafl_version    : 1.85b\ncommand_line   : /home/skaramcheti/.virtualenvs/afl/bin/afl-unix/afl-fuzz -i /dev/shm/work/Modern_Family_Tree/input -o /dev/shm/work/Modern_Family_Tree/sync -m 4G -Q -M fuzzer-master -x /dev/shm/work/Modern_Family_Tree/Modern_Family_Tree.dict -- data/linux/processed-challenges/Modern_Family_Tree/bin/Modern_Family_Tree\n'
p133
I0
tp134
a(I8040
S'start_time     : 1500349899\nlast_update    : 1500357893\nfuzzer_pid     : 27904\ncycles_done    : 20\nexecs_done     : 9140503\nexecs_per_sec  : 1149.42\npaths_total    : 29\npaths_favored  : 23\npaths_found    : 28\npaths_imported : 0\nmax_depth      : 7\ncur_path       : 20\npending_favs   : 0\npending_total  : 0\nvariable_paths : 0\nbitmap_cvg     : 0.52%\nunique_crashes : 0\nunique_hangs   : 5\nlast_path      : 1500356446\nlast_crash     : 0\nlast_hang      : 1500350866\nexec_timeout   : 20\nafl_banner     : fuzzer-master\nafl_version    : 1.85b\ncommand_line   : /home/skaramcheti/.virtualenvs/afl/bin/afl-unix/afl-fuzz -i /dev/shm/work/Modern_Family_Tree/input -o /dev/shm/work/Modern_Family_Tree/sync -m 4G -Q -M fuzzer-master -x /dev/shm/work/Modern_Family_Tree/Modern_Family_Tree.dict -- data/linux/processed-challenges/Modern_Family_Tree/bin/Modern_Family_Tree\n'
p135
I0
tp136
a(I8160
S'start_time     : 1500349899\nlast_update    : 1500358013\nfuzzer_pid     : 27904\ncycles_done    : 20\nexecs_done     : 9278543\nexecs_per_sec  : 1115.28\npaths_total    : 29\npaths_favored  : 23\npaths_found    : 28\npaths_imported : 0\nmax_depth      : 7\ncur_path       : 24\npending_favs   : 0\npending_total  : 0\nvariable_paths : 0\nbitmap_cvg     : 0.52%\nunique_crashes : 0\nunique_hangs   : 5\nlast_path      : 1500356446\nlast_crash     : 0\nlast_hang      : 1500350866\nexec_timeout   : 20\nafl_banner     : fuzzer-master\nafl_version    : 1.85b\ncommand_line   : /home/skaramcheti/.virtualenvs/afl/bin/afl-unix/afl-fuzz -i /dev/shm/work/Modern_Family_Tree/input -o /dev/shm/work/Modern_Family_Tree/sync -m 4G -Q -M fuzzer-master -x /dev/shm/work/Modern_Family_Tree/Modern_Family_Tree.dict -- data/linux/processed-challenges/Modern_Family_Tree/bin/Modern_Family_Tree\n'
p137
I0
tp138
a(I8280
S'start_time     : 1500349899\nlast_update    : 1500358133\nfuzzer_pid     : 27904\ncycles_done    : 20\nexecs_done     : 9415903\nexecs_per_sec  : 1141.53\npaths_total    : 29\npaths_favored  : 23\npaths_found    : 28\npaths_imported : 0\nmax_depth      : 7\ncur_path       : 25\npending_favs   : 0\npending_total  : 0\nvariable_paths : 0\nbitmap_cvg     : 0.52%\nunique_crashes : 0\nunique_hangs   : 5\nlast_path      : 1500356446\nlast_crash     : 0\nlast_hang      : 1500350866\nexec_timeout   : 20\nafl_banner     : fuzzer-master\nafl_version    : 1.85b\ncommand_line   : /home/skaramcheti/.virtualenvs/afl/bin/afl-unix/afl-fuzz -i /dev/shm/work/Modern_Family_Tree/input -o /dev/shm/work/Modern_Family_Tree/sync -m 4G -Q -M fuzzer-master -x /dev/shm/work/Modern_Family_Tree/Modern_Family_Tree.dict -- data/linux/processed-challenges/Modern_Family_Tree/bin/Modern_Family_Tree\n'
p139
I0
tp140
a(I8400
S'start_time     : 1500349899\nlast_update    : 1500358253\nfuzzer_pid     : 27904\ncycles_done    : 20\nexecs_done     : 9552955\nexecs_per_sec  : 1123.16\npaths_total    : 29\npaths_favored  : 23\npaths_found    : 28\npaths_imported : 0\nmax_depth      : 7\ncur_path       : 26\npending_favs   : 0\npending_total  : 0\nvariable_paths : 0\nbitmap_cvg     : 0.52%\nunique_crashes : 0\nunique_hangs   : 5\nlast_path      : 1500356446\nlast_crash     : 0\nlast_hang      : 1500350866\nexec_timeout   : 20\nafl_banner     : fuzzer-master\nafl_version    : 1.85b\ncommand_line   : /home/skaramcheti/.virtualenvs/afl/bin/afl-unix/afl-fuzz -i /dev/shm/work/Modern_Family_Tree/input -o /dev/shm/work/Modern_Family_Tree/sync -m 4G -Q -M fuzzer-master -x /dev/shm/work/Modern_Family_Tree/Modern_Family_Tree.dict -- data/linux/processed-challenges/Modern_Family_Tree/bin/Modern_Family_Tree\n'
p141
I0
tp142
a(I8520
S'start_time     : 1500349899\nlast_update    : 1500358373\nfuzzer_pid     : 27904\ncycles_done    : 20\nexecs_done     : 9690319\nexecs_per_sec  : 1157.03\npaths_total    : 29\npaths_favored  : 23\npaths_found    : 28\npaths_imported : 0\nmax_depth      : 7\ncur_path       : 27\npending_favs   : 0\npending_total  : 0\nvariable_paths : 0\nbitmap_cvg     : 0.52%\nunique_crashes : 0\nunique_hangs   : 5\nlast_path      : 1500356446\nlast_crash     : 0\nlast_hang      : 1500350866\nexec_timeout   : 20\nafl_banner     : fuzzer-master\nafl_version    : 1.85b\ncommand_line   : /home/skaramcheti/.virtualenvs/afl/bin/afl-unix/afl-fuzz -i /dev/shm/work/Modern_Family_Tree/input -o /dev/shm/work/Modern_Family_Tree/sync -m 4G -Q -M fuzzer-master -x /dev/shm/work/Modern_Family_Tree/Modern_Family_Tree.dict -- data/linux/processed-challenges/Modern_Family_Tree/bin/Modern_Family_Tree\n'
p143
I0
tp144
a(I8640
S'start_time     : 1500349899\nlast_update    : 1500358493\nfuzzer_pid     : 27904\ncycles_done    : 20\nexecs_done     : 9827177\nexecs_per_sec  : 1128.36\npaths_total    : 29\npaths_favored  : 23\npaths_found    : 28\npaths_imported : 0\nmax_depth      : 7\ncur_path       : 28\npending_favs   : 0\npending_total  : 0\nvariable_paths : 0\nbitmap_cvg     : 0.52%\nunique_crashes : 0\nunique_hangs   : 5\nlast_path      : 1500356446\nlast_crash     : 0\nlast_hang      : 1500350866\nexec_timeout   : 20\nafl_banner     : fuzzer-master\nafl_version    : 1.85b\ncommand_line   : /home/skaramcheti/.virtualenvs/afl/bin/afl-unix/afl-fuzz -i /dev/shm/work/Modern_Family_Tree/input -o /dev/shm/work/Modern_Family_Tree/sync -m 4G -Q -M fuzzer-master -x /dev/shm/work/Modern_Family_Tree/Modern_Family_Tree.dict -- data/linux/processed-challenges/Modern_Family_Tree/bin/Modern_Family_Tree\n'
p145
I0
tp146
a(I8760
S'start_time     : 1500349899\nlast_update    : 1500358614\nfuzzer_pid     : 27904\ncycles_done    : 21\nexecs_done     : 9964759\nexecs_per_sec  : 1157.88\npaths_total    : 29\npaths_favored  : 23\npaths_found    : 28\npaths_imported : 0\nmax_depth      : 7\ncur_path       : 8\npending_favs   : 0\npending_total  : 0\nvariable_paths : 0\nbitmap_cvg     : 0.52%\nunique_crashes : 0\nunique_hangs   : 5\nlast_path      : 1500356446\nlast_crash     : 0\nlast_hang      : 1500350866\nexec_timeout   : 20\nafl_banner     : fuzzer-master\nafl_version    : 1.85b\ncommand_line   : /home/skaramcheti/.virtualenvs/afl/bin/afl-unix/afl-fuzz -i /dev/shm/work/Modern_Family_Tree/input -o /dev/shm/work/Modern_Family_Tree/sync -m 4G -Q -M fuzzer-master -x /dev/shm/work/Modern_Family_Tree/Modern_Family_Tree.dict -- data/linux/processed-challenges/Modern_Family_Tree/bin/Modern_Family_Tree\n'
p147
I0
tp148
a(I8880
S'start_time     : 1500349899\nlast_update    : 1500358734\nfuzzer_pid     : 27904\ncycles_done    : 21\nexecs_done     : 10104940\nexecs_per_sec  : 1179.79\npaths_total    : 29\npaths_favored  : 23\npaths_found    : 28\npaths_imported : 0\nmax_depth      : 7\ncur_path       : 17\npending_favs   : 0\npending_total  : 0\nvariable_paths : 0\nbitmap_cvg     : 0.52%\nunique_crashes : 0\nunique_hangs   : 5\nlast_path      : 1500356446\nlast_crash     : 0\nlast_hang      : 1500350866\nexec_timeout   : 20\nafl_banner     : fuzzer-master\nafl_version    : 1.85b\ncommand_line   : /home/skaramcheti/.virtualenvs/afl/bin/afl-unix/afl-fuzz -i /dev/shm/work/Modern_Family_Tree/input -o /dev/shm/work/Modern_Family_Tree/sync -m 4G -Q -M fuzzer-master -x /dev/shm/work/Modern_Family_Tree/Modern_Family_Tree.dict -- data/linux/processed-challenges/Modern_Family_Tree/bin/Modern_Family_Tree\n'
p149
I0
tp150
a(I9000
S'start_time     : 1500349899\nlast_update    : 1500358854\nfuzzer_pid     : 27904\ncycles_done    : 21\nexecs_done     : 10244025\nexecs_per_sec  : 1140.38\npaths_total    : 29\npaths_favored  : 23\npaths_found    : 28\npaths_imported : 0\nmax_depth      : 7\ncur_path       : 22\npending_favs   : 0\npending_total  : 0\nvariable_paths : 0\nbitmap_cvg     : 0.52%\nunique_crashes : 0\nunique_hangs   : 5\nlast_path      : 1500356446\nlast_crash     : 0\nlast_hang      : 1500350866\nexec_timeout   : 20\nafl_banner     : fuzzer-master\nafl_version    : 1.85b\ncommand_line   : /home/skaramcheti/.virtualenvs/afl/bin/afl-unix/afl-fuzz -i /dev/shm/work/Modern_Family_Tree/input -o /dev/shm/work/Modern_Family_Tree/sync -m 4G -Q -M fuzzer-master -x /dev/shm/work/Modern_Family_Tree/Modern_Family_Tree.dict -- data/linux/processed-challenges/Modern_Family_Tree/bin/Modern_Family_Tree\n'
p151
I0
tp152
a(I9120
S'start_time     : 1500349899\nlast_update    : 1500358974\nfuzzer_pid     : 27904\ncycles_done    : 21\nexecs_done     : 10381294\nexecs_per_sec  : 1150.86\npaths_total    : 29\npaths_favored  : 23\npaths_found    : 28\npaths_imported : 0\nmax_depth      : 7\ncur_path       : 25\npending_favs   : 0\npending_total  : 0\nvariable_paths : 0\nbitmap_cvg     : 0.52%\nunique_crashes : 0\nunique_hangs   : 5\nlast_path      : 1500356446\nlast_crash     : 0\nlast_hang      : 1500350866\nexec_timeout   : 20\nafl_banner     : fuzzer-master\nafl_version    : 1.85b\ncommand_line   : /home/skaramcheti/.virtualenvs/afl/bin/afl-unix/afl-fuzz -i /dev/shm/work/Modern_Family_Tree/input -o /dev/shm/work/Modern_Family_Tree/sync -m 4G -Q -M fuzzer-master -x /dev/shm/work/Modern_Family_Tree/Modern_Family_Tree.dict -- data/linux/processed-challenges/Modern_Family_Tree/bin/Modern_Family_Tree\n'
p153
I0
tp154
a(I9240
S'start_time     : 1500349899\nlast_update    : 1500359094\nfuzzer_pid     : 27904\ncycles_done    : 21\nexecs_done     : 10518628\nexecs_per_sec  : 1167.66\npaths_total    : 29\npaths_favored  : 23\npaths_found    : 28\npaths_imported : 0\nmax_depth      : 7\ncur_path       : 26\npending_favs   : 0\npending_total  : 0\nvariable_paths : 0\nbitmap_cvg     : 0.52%\nunique_crashes : 0\nunique_hangs   : 5\nlast_path      : 1500356446\nlast_crash     : 0\nlast_hang      : 1500350866\nexec_timeout   : 20\nafl_banner     : fuzzer-master\nafl_version    : 1.85b\ncommand_line   : /home/skaramcheti/.virtualenvs/afl/bin/afl-unix/afl-fuzz -i /dev/shm/work/Modern_Family_Tree/input -o /dev/shm/work/Modern_Family_Tree/sync -m 4G -Q -M fuzzer-master -x /dev/shm/work/Modern_Family_Tree/Modern_Family_Tree.dict -- data/linux/processed-challenges/Modern_Family_Tree/bin/Modern_Family_Tree\n'
p155
I0
tp156
a(I9360
S'start_time     : 1500349899\nlast_update    : 1500359215\nfuzzer_pid     : 27904\ncycles_done    : 21\nexecs_done     : 10655655\nexecs_per_sec  : 1127.12\npaths_total    : 30\npaths_favored  : 23\npaths_found    : 29\npaths_imported : 0\nmax_depth      : 7\ncur_path       : 27\npending_favs   : 0\npending_total  : 1\nvariable_paths : 0\nbitmap_cvg     : 0.53%\nunique_crashes : 0\nunique_hangs   : 5\nlast_path      : 1500359212\nlast_crash     : 0\nlast_hang      : 1500350866\nexec_timeout   : 20\nafl_banner     : fuzzer-master\nafl_version    : 1.85b\ncommand_line   : /home/skaramcheti/.virtualenvs/afl/bin/afl-unix/afl-fuzz -i /dev/shm/work/Modern_Family_Tree/input -o /dev/shm/work/Modern_Family_Tree/sync -m 4G -Q -M fuzzer-master -x /dev/shm/work/Modern_Family_Tree/Modern_Family_Tree.dict -- data/linux/processed-challenges/Modern_Family_Tree/bin/Modern_Family_Tree\n'
p157
I1
tp158
a(I9480
S'start_time     : 1500349899\nlast_update    : 1500359335\nfuzzer_pid     : 27904\ncycles_done    : 21\nexecs_done     : 10790551\nexecs_per_sec  : 1140.53\npaths_total    : 30\npaths_favored  : 23\npaths_found    : 29\npaths_imported : 0\nmax_depth      : 7\ncur_path       : 27\npending_favs   : 0\npending_total  : 1\nvariable_paths : 0\nbitmap_cvg     : 0.53%\nunique_crashes : 0\nunique_hangs   : 5\nlast_path      : 1500359212\nlast_crash     : 0\nlast_hang      : 1500350866\nexec_timeout   : 20\nafl_banner     : fuzzer-master\nafl_version    : 1.85b\ncommand_line   : /home/skaramcheti/.virtualenvs/afl/bin/afl-unix/afl-fuzz -i /dev/shm/work/Modern_Family_Tree/input -o /dev/shm/work/Modern_Family_Tree/sync -m 4G -Q -M fuzzer-master -x /dev/shm/work/Modern_Family_Tree/Modern_Family_Tree.dict -- data/linux/processed-challenges/Modern_Family_Tree/bin/Modern_Family_Tree\n'
p159
I0
tp160
a(I9600
S'start_time     : 1500349899\nlast_update    : 1500359455\nfuzzer_pid     : 27904\ncycles_done    : 21\nexecs_done     : 10928218\nexecs_per_sec  : 1132.14\npaths_total    : 30\npaths_favored  : 23\npaths_found    : 29\npaths_imported : 0\nmax_depth      : 7\ncur_path       : 29\npending_favs   : 1\npending_total  : 1\nvariable_paths : 0\nbitmap_cvg     : 0.53%\nunique_crashes : 0\nunique_hangs   : 5\nlast_path      : 1500359212\nlast_crash     : 0\nlast_hang      : 1500350866\nexec_timeout   : 20\nafl_banner     : fuzzer-master\nafl_version    : 1.85b\ncommand_line   : /home/skaramcheti/.virtualenvs/afl/bin/afl-unix/afl-fuzz -i /dev/shm/work/Modern_Family_Tree/input -o /dev/shm/work/Modern_Family_Tree/sync -m 4G -Q -M fuzzer-master -x /dev/shm/work/Modern_Family_Tree/Modern_Family_Tree.dict -- data/linux/processed-challenges/Modern_Family_Tree/bin/Modern_Family_Tree\n'
p161
I0
tp162
a(I9720
S'start_time     : 1500349899\nlast_update    : 1500359575\nfuzzer_pid     : 27904\ncycles_done    : 22\nexecs_done     : 11065974\nexecs_per_sec  : 1166.14\npaths_total    : 30\npaths_favored  : 23\npaths_found    : 29\npaths_imported : 0\nmax_depth      : 7\ncur_path       : 9\npending_favs   : 0\npending_total  : 0\nvariable_paths : 0\nbitmap_cvg     : 0.53%\nunique_crashes : 0\nunique_hangs   : 5\nlast_path      : 1500359212\nlast_crash     : 0\nlast_hang      : 1500350866\nexec_timeout   : 20\nafl_banner     : fuzzer-master\nafl_version    : 1.85b\ncommand_line   : /home/skaramcheti/.virtualenvs/afl/bin/afl-unix/afl-fuzz -i /dev/shm/work/Modern_Family_Tree/input -o /dev/shm/work/Modern_Family_Tree/sync -m 4G -Q -M fuzzer-master -x /dev/shm/work/Modern_Family_Tree/Modern_Family_Tree.dict -- data/linux/processed-challenges/Modern_Family_Tree/bin/Modern_Family_Tree\n'
p163
I0
tp164
a(I9840
S'start_time     : 1500349899\nlast_update    : 1500359695\nfuzzer_pid     : 27904\ncycles_done    : 22\nexecs_done     : 11203847\nexecs_per_sec  : 1162.87\npaths_total    : 30\npaths_favored  : 23\npaths_found    : 29\npaths_imported : 0\nmax_depth      : 7\ncur_path       : 18\npending_favs   : 0\npending_total  : 0\nvariable_paths : 0\nbitmap_cvg     : 0.53%\nunique_crashes : 0\nunique_hangs   : 5\nlast_path      : 1500359212\nlast_crash     : 0\nlast_hang      : 1500350866\nexec_timeout   : 20\nafl_banner     : fuzzer-master\nafl_version    : 1.85b\ncommand_line   : /home/skaramcheti/.virtualenvs/afl/bin/afl-unix/afl-fuzz -i /dev/shm/work/Modern_Family_Tree/input -o /dev/shm/work/Modern_Family_Tree/sync -m 4G -Q -M fuzzer-master -x /dev/shm/work/Modern_Family_Tree/Modern_Family_Tree.dict -- data/linux/processed-challenges/Modern_Family_Tree/bin/Modern_Family_Tree\n'
p165
I0
tp166
a(I9960
S'start_time     : 1500349899\nlast_update    : 1500359816\nfuzzer_pid     : 27904\ncycles_done    : 22\nexecs_done     : 11341604\nexecs_per_sec  : 1146.05\npaths_total    : 30\npaths_favored  : 23\npaths_found    : 29\npaths_imported : 0\nmax_depth      : 7\ncur_path       : 23\npending_favs   : 0\npending_total  : 0\nvariable_paths : 0\nbitmap_cvg     : 0.53%\nunique_crashes : 0\nunique_hangs   : 5\nlast_path      : 1500359212\nlast_crash     : 0\nlast_hang      : 1500350866\nexec_timeout   : 20\nafl_banner     : fuzzer-master\nafl_version    : 1.85b\ncommand_line   : /home/skaramcheti/.virtualenvs/afl/bin/afl-unix/afl-fuzz -i /dev/shm/work/Modern_Family_Tree/input -o /dev/shm/work/Modern_Family_Tree/sync -m 4G -Q -M fuzzer-master -x /dev/shm/work/Modern_Family_Tree/Modern_Family_Tree.dict -- data/linux/processed-challenges/Modern_Family_Tree/bin/Modern_Family_Tree\n'
p167
I0
tp168
a(I10080
S'start_time     : 1500349899\nlast_update    : 1500359936\nfuzzer_pid     : 27904\ncycles_done    : 22\nexecs_done     : 11480423\nexecs_per_sec  : 1145.54\npaths_total    : 30\npaths_favored  : 23\npaths_found    : 29\npaths_imported : 0\nmax_depth      : 7\ncur_path       : 26\npending_favs   : 0\npending_total  : 0\nvariable_paths : 0\nbitmap_cvg     : 0.53%\nunique_crashes : 0\nunique_hangs   : 5\nlast_path      : 1500359212\nlast_crash     : 0\nlast_hang      : 1500350866\nexec_timeout   : 20\nafl_banner     : fuzzer-master\nafl_version    : 1.85b\ncommand_line   : /home/skaramcheti/.virtualenvs/afl/bin/afl-unix/afl-fuzz -i /dev/shm/work/Modern_Family_Tree/input -o /dev/shm/work/Modern_Family_Tree/sync -m 4G -Q -M fuzzer-master -x /dev/shm/work/Modern_Family_Tree/Modern_Family_Tree.dict -- data/linux/processed-challenges/Modern_Family_Tree/bin/Modern_Family_Tree\n'
p169
I0
tp170
a(I10200
S'start_time     : 1500349899\nlast_update    : 1500360056\nfuzzer_pid     : 27904\ncycles_done    : 22\nexecs_done     : 11618785\nexecs_per_sec  : 1161.07\npaths_total    : 30\npaths_favored  : 23\npaths_found    : 29\npaths_imported : 0\nmax_depth      : 7\ncur_path       : 27\npending_favs   : 0\npending_total  : 0\nvariable_paths : 0\nbitmap_cvg     : 0.53%\nunique_crashes : 0\nunique_hangs   : 5\nlast_path      : 1500359212\nlast_crash     : 0\nlast_hang      : 1500350866\nexec_timeout   : 20\nafl_banner     : fuzzer-master\nafl_version    : 1.85b\ncommand_line   : /home/skaramcheti/.virtualenvs/afl/bin/afl-unix/afl-fuzz -i /dev/shm/work/Modern_Family_Tree/input -o /dev/shm/work/Modern_Family_Tree/sync -m 4G -Q -M fuzzer-master -x /dev/shm/work/Modern_Family_Tree/Modern_Family_Tree.dict -- data/linux/processed-challenges/Modern_Family_Tree/bin/Modern_Family_Tree\n'
p171
I0
tp172
a(I10320
S'start_time     : 1500349899\nlast_update    : 1500360176\nfuzzer_pid     : 27904\ncycles_done    : 22\nexecs_done     : 11756923\nexecs_per_sec  : 1157.30\npaths_total    : 30\npaths_favored  : 23\npaths_found    : 29\npaths_imported : 0\nmax_depth      : 7\ncur_path       : 28\npending_favs   : 0\npending_total  : 0\nvariable_paths : 0\nbitmap_cvg     : 0.53%\nunique_crashes : 0\nunique_hangs   : 5\nlast_path      : 1500359212\nlast_crash     : 0\nlast_hang      : 1500350866\nexec_timeout   : 20\nafl_banner     : fuzzer-master\nafl_version    : 1.85b\ncommand_line   : /home/skaramcheti/.virtualenvs/afl/bin/afl-unix/afl-fuzz -i /dev/shm/work/Modern_Family_Tree/input -o /dev/shm/work/Modern_Family_Tree/sync -m 4G -Q -M fuzzer-master -x /dev/shm/work/Modern_Family_Tree/Modern_Family_Tree.dict -- data/linux/processed-challenges/Modern_Family_Tree/bin/Modern_Family_Tree\n'
p173
I1
tp174
a(I10440
S'start_time     : 1500349899\nlast_update    : 1500360296\nfuzzer_pid     : 27904\ncycles_done    : 22\nexecs_done     : 11894732\nexecs_per_sec  : 1170.74\npaths_total    : 32\npaths_favored  : 24\npaths_found    : 31\npaths_imported : 0\nmax_depth      : 7\ncur_path       : 30\npending_favs   : 1\npending_total  : 2\nvariable_paths : 0\nbitmap_cvg     : 0.56%\nunique_crashes : 0\nunique_hangs   : 5\nlast_path      : 1500360294\nlast_crash     : 0\nlast_hang      : 1500350866\nexec_timeout   : 20\nafl_banner     : fuzzer-master\nafl_version    : 1.85b\ncommand_line   : /home/skaramcheti/.virtualenvs/afl/bin/afl-unix/afl-fuzz -i /dev/shm/work/Modern_Family_Tree/input -o /dev/shm/work/Modern_Family_Tree/sync -m 4G -Q -M fuzzer-master -x /dev/shm/work/Modern_Family_Tree/Modern_Family_Tree.dict -- data/linux/processed-challenges/Modern_Family_Tree/bin/Modern_Family_Tree\n'
p175
I1
tp176
a(I10560
S'start_time     : 1500349899\nlast_update    : 1500360416\nfuzzer_pid     : 27904\ncycles_done    : 22\nexecs_done     : 12032027\nexecs_per_sec  : 1136.83\npaths_total    : 32\npaths_favored  : 25\npaths_found    : 31\npaths_imported : 0\nmax_depth      : 7\ncur_path       : 31\npending_favs   : 1\npending_total  : 1\nvariable_paths : 0\nbitmap_cvg     : 0.56%\nunique_crashes : 0\nunique_hangs   : 5\nlast_path      : 1500360294\nlast_crash     : 0\nlast_hang      : 1500350866\nexec_timeout   : 20\nafl_banner     : fuzzer-master\nafl_version    : 1.85b\ncommand_line   : /home/skaramcheti/.virtualenvs/afl/bin/afl-unix/afl-fuzz -i /dev/shm/work/Modern_Family_Tree/input -o /dev/shm/work/Modern_Family_Tree/sync -m 4G -Q -M fuzzer-master -x /dev/shm/work/Modern_Family_Tree/Modern_Family_Tree.dict -- data/linux/processed-challenges/Modern_Family_Tree/bin/Modern_Family_Tree\n'
p177
I0
tp178
a(I10680
S'start_time     : 1500349899\nlast_update    : 1500360537\nfuzzer_pid     : 27904\ncycles_done    : 22\nexecs_done     : 12169859\nexecs_per_sec  : 1166.97\npaths_total    : 32\npaths_favored  : 25\npaths_found    : 31\npaths_imported : 0\nmax_depth      : 7\ncur_path       : 31\npending_favs   : 1\npending_total  : 1\nvariable_paths : 0\nbitmap_cvg     : 0.56%\nunique_crashes : 0\nunique_hangs   : 5\nlast_path      : 1500360294\nlast_crash     : 0\nlast_hang      : 1500350866\nexec_timeout   : 20\nafl_banner     : fuzzer-master\nafl_version    : 1.85b\ncommand_line   : /home/skaramcheti/.virtualenvs/afl/bin/afl-unix/afl-fuzz -i /dev/shm/work/Modern_Family_Tree/input -o /dev/shm/work/Modern_Family_Tree/sync -m 4G -Q -M fuzzer-master -x /dev/shm/work/Modern_Family_Tree/Modern_Family_Tree.dict -- data/linux/processed-challenges/Modern_Family_Tree/bin/Modern_Family_Tree\n'
p179
I0
tp180
a.