(lp0
(I0
S'start_time     : 1500111840\nlast_update    : 1500111840\nfuzzer_pid     : 25289\ncycles_done    : 0\nexecs_done     : 10\nexecs_per_sec  : 181.82\npaths_total    : 1\npaths_favored  : 1\npaths_found    : 0\npaths_imported : 0\nmax_depth      : 1\ncur_path       : 0\npending_favs   : 1\npending_total  : 1\nvariable_paths : 0\nbitmap_cvg     : 0.10%\nunique_crashes : 0\nunique_hangs   : 0\nlast_path      : 0\nlast_crash     : 0\nlast_hang      : 0\nexec_timeout   : 20\nafl_banner     : fuzzer-master\nafl_version    : 1.85b\ncommand_line   : /home/skaramcheti/.virtualenvs/afl/bin/afl-unix/afl-fuzz -i /dev/shm/work/HIGHCOO/input -o /dev/shm/work/HIGHCOO/sync -m 4G -Q -M fuzzer-master -x /dev/shm/work/HIGHCOO/HIGHCOO.dict -- data/linux/processed-challenges/HIGHCOO/bin/HIGHCOO\n'
p1
I3
tp2
a(I120
S'start_time     : 1500111840\nlast_update    : 1500111960\nfuzzer_pid     : 25289\ncycles_done    : 5\nexecs_done     : 99229\nexecs_per_sec  : 787.41\npaths_total    : 3\npaths_favored  : 2\npaths_found    : 2\npaths_imported : 0\nmax_depth      : 2\ncur_path       : 1\npending_favs   : 0\npending_total  : 0\nvariable_paths : 0\nbitmap_cvg     : 0.11%\nunique_crashes : 0\nunique_hangs   : 0\nlast_path      : 1500111840\nlast_crash     : 0\nlast_hang      : 0\nexec_timeout   : 20\nafl_banner     : fuzzer-master\nafl_version    : 1.85b\ncommand_line   : /home/skaramcheti/.virtualenvs/afl/bin/afl-unix/afl-fuzz -i /dev/shm/work/HIGHCOO/input -o /dev/shm/work/HIGHCOO/sync -m 4G -Q -M fuzzer-master -x /dev/shm/work/HIGHCOO/HIGHCOO.dict -- data/linux/processed-challenges/HIGHCOO/bin/HIGHCOO\n'
p3
I0
tp4
a(I240
S'start_time     : 1500111840\nlast_update    : 1500112080\nfuzzer_pid     : 25289\ncycles_done    : 11\nexecs_done     : 193914\nexecs_per_sec  : 785.06\npaths_total    : 3\npaths_favored  : 2\npaths_found    : 2\npaths_imported : 0\nmax_depth      : 2\ncur_path       : 2\npending_favs   : 0\npending_total  : 0\nvariable_paths : 0\nbitmap_cvg     : 0.11%\nunique_crashes : 0\nunique_hangs   : 0\nlast_path      : 1500111840\nlast_crash     : 0\nlast_hang      : 0\nexec_timeout   : 20\nafl_banner     : fuzzer-master\nafl_version    : 1.85b\ncommand_line   : /home/skaramcheti/.virtualenvs/afl/bin/afl-unix/afl-fuzz -i /dev/shm/work/HIGHCOO/input -o /dev/shm/work/HIGHCOO/sync -m 4G -Q -M fuzzer-master -x /dev/shm/work/HIGHCOO/HIGHCOO.dict -- data/linux/processed-challenges/HIGHCOO/bin/HIGHCOO\n'
p5
I0
tp6
a(I360
S'start_time     : 1500111840\nlast_update    : 1500112200\nfuzzer_pid     : 25289\ncycles_done    : 18\nexecs_done     : 289919\nexecs_per_sec  : 785.19\npaths_total    : 3\npaths_favored  : 2\npaths_found    : 2\npaths_imported : 0\nmax_depth      : 2\ncur_path       : 0\npending_favs   : 0\npending_total  : 0\nvariable_paths : 0\nbitmap_cvg     : 0.11%\nunique_crashes : 0\nunique_hangs   : 0\nlast_path      : 1500111840\nlast_crash     : 0\nlast_hang      : 0\nexec_timeout   : 20\nafl_banner     : fuzzer-master\nafl_version    : 1.85b\ncommand_line   : /home/skaramcheti/.virtualenvs/afl/bin/afl-unix/afl-fuzz -i /dev/shm/work/HIGHCOO/input -o /dev/shm/work/HIGHCOO/sync -m 4G -Q -M fuzzer-master -x /dev/shm/work/HIGHCOO/HIGHCOO.dict -- data/linux/processed-challenges/HIGHCOO/bin/HIGHCOO\n'
p7
I0
tp8
a(I480
S'start_time     : 1500111840\nlast_update    : 1500112321\nfuzzer_pid     : 25289\ncycles_done    : 24\nexecs_done     : 384904\nexecs_per_sec  : 788.86\npaths_total    : 3\npaths_favored  : 2\npaths_found    : 2\npaths_imported : 0\nmax_depth      : 2\ncur_path       : 1\npending_favs   : 0\npending_total  : 0\nvariable_paths : 0\nbitmap_cvg     : 0.11%\nunique_crashes : 0\nunique_hangs   : 0\nlast_path      : 1500111840\nlast_crash     : 0\nlast_hang      : 0\nexec_timeout   : 20\nafl_banner     : fuzzer-master\nafl_version    : 1.85b\ncommand_line   : /home/skaramcheti/.virtualenvs/afl/bin/afl-unix/afl-fuzz -i /dev/shm/work/HIGHCOO/input -o /dev/shm/work/HIGHCOO/sync -m 4G -Q -M fuzzer-master -x /dev/shm/work/HIGHCOO/HIGHCOO.dict -- data/linux/processed-challenges/HIGHCOO/bin/HIGHCOO\n'
p9
I0
tp10
a(I600
S'start_time     : 1500111840\nlast_update    : 1500112441\nfuzzer_pid     : 25289\ncycles_done    : 30\nexecs_done     : 480689\nexecs_per_sec  : 812.67\npaths_total    : 3\npaths_favored  : 2\npaths_found    : 2\npaths_imported : 0\nmax_depth      : 2\ncur_path       : 2\npending_favs   : 0\npending_total  : 0\nvariable_paths : 0\nbitmap_cvg     : 0.11%\nunique_crashes : 0\nunique_hangs   : 0\nlast_path      : 1500111840\nlast_crash     : 0\nlast_hang      : 0\nexec_timeout   : 20\nafl_banner     : fuzzer-master\nafl_version    : 1.85b\ncommand_line   : /home/skaramcheti/.virtualenvs/afl/bin/afl-unix/afl-fuzz -i /dev/shm/work/HIGHCOO/input -o /dev/shm/work/HIGHCOO/sync -m 4G -Q -M fuzzer-master -x /dev/shm/work/HIGHCOO/HIGHCOO.dict -- data/linux/processed-challenges/HIGHCOO/bin/HIGHCOO\n'
p11
I0
tp12
a(I720
S'start_time     : 1500111840\nlast_update    : 1500112561\nfuzzer_pid     : 25289\ncycles_done    : 37\nexecs_done     : 575534\nexecs_per_sec  : 783.28\npaths_total    : 3\npaths_favored  : 2\npaths_found    : 2\npaths_imported : 0\nmax_depth      : 2\ncur_path       : 0\npending_favs   : 0\npending_total  : 0\nvariable_paths : 0\nbitmap_cvg     : 0.11%\nunique_crashes : 0\nunique_hangs   : 0\nlast_path      : 1500111840\nlast_crash     : 0\nlast_hang      : 0\nexec_timeout   : 20\nafl_banner     : fuzzer-master\nafl_version    : 1.85b\ncommand_line   : /home/skaramcheti/.virtualenvs/afl/bin/afl-unix/afl-fuzz -i /dev/shm/work/HIGHCOO/input -o /dev/shm/work/HIGHCOO/sync -m 4G -Q -M fuzzer-master -x /dev/shm/work/HIGHCOO/HIGHCOO.dict -- data/linux/processed-challenges/HIGHCOO/bin/HIGHCOO\n'
p13
I0
tp14
a(I840
S'start_time     : 1500111840\nlast_update    : 1500112681\nfuzzer_pid     : 25289\ncycles_done    : 43\nexecs_done     : 672473\nexecs_per_sec  : 806.90\npaths_total    : 3\npaths_favored  : 2\npaths_found    : 2\npaths_imported : 0\nmax_depth      : 2\ncur_path       : 2\npending_favs   : 0\npending_total  : 0\nvariable_paths : 0\nbitmap_cvg     : 0.11%\nunique_crashes : 0\nunique_hangs   : 0\nlast_path      : 1500111840\nlast_crash     : 0\nlast_hang      : 0\nexec_timeout   : 20\nafl_banner     : fuzzer-master\nafl_version    : 1.85b\ncommand_line   : /home/skaramcheti/.virtualenvs/afl/bin/afl-unix/afl-fuzz -i /dev/shm/work/HIGHCOO/input -o /dev/shm/work/HIGHCOO/sync -m 4G -Q -M fuzzer-master -x /dev/shm/work/HIGHCOO/HIGHCOO.dict -- data/linux/processed-challenges/HIGHCOO/bin/HIGHCOO\n'
p15
I0
tp16
a(I960
S'start_time     : 1500111840\nlast_update    : 1500112802\nfuzzer_pid     : 25289\ncycles_done    : 50\nexecs_done     : 767459\nexecs_per_sec  : 779.98\npaths_total    : 3\npaths_favored  : 2\npaths_found    : 2\npaths_imported : 0\nmax_depth      : 2\ncur_path       : 0\npending_favs   : 0\npending_total  : 0\nvariable_paths : 0\nbitmap_cvg     : 0.11%\nunique_crashes : 0\nunique_hangs   : 0\nlast_path      : 1500111840\nlast_crash     : 0\nlast_hang      : 0\nexec_timeout   : 20\nafl_banner     : fuzzer-master\nafl_version    : 1.85b\ncommand_line   : /home/skaramcheti/.virtualenvs/afl/bin/afl-unix/afl-fuzz -i /dev/shm/work/HIGHCOO/input -o /dev/shm/work/HIGHCOO/sync -m 4G -Q -M fuzzer-master -x /dev/shm/work/HIGHCOO/HIGHCOO.dict -- data/linux/processed-challenges/HIGHCOO/bin/HIGHCOO\n'
p17
I0
tp18
a(I1080
S'start_time     : 1500111840\nlast_update    : 1500112922\nfuzzer_pid     : 25289\ncycles_done    : 56\nexecs_done     : 862684\nexecs_per_sec  : 799.19\npaths_total    : 3\npaths_favored  : 2\npaths_found    : 2\npaths_imported : 0\nmax_depth      : 2\ncur_path       : 1\npending_favs   : 0\npending_total  : 0\nvariable_paths : 0\nbitmap_cvg     : 0.11%\nunique_crashes : 0\nunique_hangs   : 0\nlast_path      : 1500111840\nlast_crash     : 0\nlast_hang      : 0\nexec_timeout   : 20\nafl_banner     : fuzzer-master\nafl_version    : 1.85b\ncommand_line   : /home/skaramcheti/.virtualenvs/afl/bin/afl-unix/afl-fuzz -i /dev/shm/work/HIGHCOO/input -o /dev/shm/work/HIGHCOO/sync -m 4G -Q -M fuzzer-master -x /dev/shm/work/HIGHCOO/HIGHCOO.dict -- data/linux/processed-challenges/HIGHCOO/bin/HIGHCOO\n'
p19
I0
tp20
a(I1200
S'start_time     : 1500111840\nlast_update    : 1500113042\nfuzzer_pid     : 25289\ncycles_done    : 62\nexecs_done     : 958833\nexecs_per_sec  : 837.44\npaths_total    : 3\npaths_favored  : 2\npaths_found    : 2\npaths_imported : 0\nmax_depth      : 2\ncur_path       : 2\npending_favs   : 0\npending_total  : 0\nvariable_paths : 0\nbitmap_cvg     : 0.11%\nunique_crashes : 0\nunique_hangs   : 0\nlast_path      : 1500111840\nlast_crash     : 0\nlast_hang      : 0\nexec_timeout   : 20\nafl_banner     : fuzzer-master\nafl_version    : 1.85b\ncommand_line   : /home/skaramcheti/.virtualenvs/afl/bin/afl-unix/afl-fuzz -i /dev/shm/work/HIGHCOO/input -o /dev/shm/work/HIGHCOO/sync -m 4G -Q -M fuzzer-master -x /dev/shm/work/HIGHCOO/HIGHCOO.dict -- data/linux/processed-challenges/HIGHCOO/bin/HIGHCOO\n'
p21
I0
tp22
a(I1320
S'start_time     : 1500111840\nlast_update    : 1500113162\nfuzzer_pid     : 25289\ncycles_done    : 69\nexecs_done     : 1053074\nexecs_per_sec  : 793.98\npaths_total    : 3\npaths_favored  : 2\npaths_found    : 2\npaths_imported : 0\nmax_depth      : 2\ncur_path       : 0\npending_favs   : 0\npending_total  : 0\nvariable_paths : 0\nbitmap_cvg     : 0.11%\nunique_crashes : 0\nunique_hangs   : 0\nlast_path      : 1500111840\nlast_crash     : 0\nlast_hang      : 0\nexec_timeout   : 20\nafl_banner     : fuzzer-master\nafl_version    : 1.85b\ncommand_line   : /home/skaramcheti/.virtualenvs/afl/bin/afl-unix/afl-fuzz -i /dev/shm/work/HIGHCOO/input -o /dev/shm/work/HIGHCOO/sync -m 4G -Q -M fuzzer-master -x /dev/shm/work/HIGHCOO/HIGHCOO.dict -- data/linux/processed-challenges/HIGHCOO/bin/HIGHCOO\n'
p23
I0
tp24
a(I1440
S'start_time     : 1500111840\nlast_update    : 1500113283\nfuzzer_pid     : 25289\ncycles_done    : 75\nexecs_done     : 1147761\nexecs_per_sec  : 805.79\npaths_total    : 3\npaths_favored  : 2\npaths_found    : 2\npaths_imported : 0\nmax_depth      : 2\ncur_path       : 1\npending_favs   : 0\npending_total  : 0\nvariable_paths : 0\nbitmap_cvg     : 0.11%\nunique_crashes : 0\nunique_hangs   : 0\nlast_path      : 1500111840\nlast_crash     : 0\nlast_hang      : 0\nexec_timeout   : 20\nafl_banner     : fuzzer-master\nafl_version    : 1.85b\ncommand_line   : /home/skaramcheti/.virtualenvs/afl/bin/afl-unix/afl-fuzz -i /dev/shm/work/HIGHCOO/input -o /dev/shm/work/HIGHCOO/sync -m 4G -Q -M fuzzer-master -x /dev/shm/work/HIGHCOO/HIGHCOO.dict -- data/linux/processed-challenges/HIGHCOO/bin/HIGHCOO\n'
p25
I0
tp26
a(I1560
S'start_time     : 1500111840\nlast_update    : 1500113403\nfuzzer_pid     : 25289\ncycles_done    : 81\nexecs_done     : 1244004\nexecs_per_sec  : 784.49\npaths_total    : 3\npaths_favored  : 2\npaths_found    : 2\npaths_imported : 0\nmax_depth      : 2\ncur_path       : 2\npending_favs   : 0\npending_total  : 0\nvariable_paths : 0\nbitmap_cvg     : 0.11%\nunique_crashes : 0\nunique_hangs   : 0\nlast_path      : 1500111840\nlast_crash     : 0\nlast_hang      : 0\nexec_timeout   : 20\nafl_banner     : fuzzer-master\nafl_version    : 1.85b\ncommand_line   : /home/skaramcheti/.virtualenvs/afl/bin/afl-unix/afl-fuzz -i /dev/shm/work/HIGHCOO/input -o /dev/shm/work/HIGHCOO/sync -m 4G -Q -M fuzzer-master -x /dev/shm/work/HIGHCOO/HIGHCOO.dict -- data/linux/processed-challenges/HIGHCOO/bin/HIGHCOO\n'
p27
I0
tp28
a(I1680
S'start_time     : 1500111840\nlast_update    : 1500113523\nfuzzer_pid     : 25289\ncycles_done    : 88\nexecs_done     : 1340959\nexecs_per_sec  : 792.25\npaths_total    : 3\npaths_favored  : 2\npaths_found    : 2\npaths_imported : 0\nmax_depth      : 2\ncur_path       : 1\npending_favs   : 0\npending_total  : 0\nvariable_paths : 0\nbitmap_cvg     : 0.11%\nunique_crashes : 0\nunique_hangs   : 0\nlast_path      : 1500111840\nlast_crash     : 0\nlast_hang      : 0\nexec_timeout   : 20\nafl_banner     : fuzzer-master\nafl_version    : 1.85b\ncommand_line   : /home/skaramcheti/.virtualenvs/afl/bin/afl-unix/afl-fuzz -i /dev/shm/work/HIGHCOO/input -o /dev/shm/work/HIGHCOO/sync -m 4G -Q -M fuzzer-master -x /dev/shm/work/HIGHCOO/HIGHCOO.dict -- data/linux/processed-challenges/HIGHCOO/bin/HIGHCOO\n'
p29
I0
tp30
a(I1800
S'start_time     : 1500111840\nlast_update    : 1500113643\nfuzzer_pid     : 25289\ncycles_done    : 94\nexecs_done     : 1435384\nexecs_per_sec  : 801.06\npaths_total    : 3\npaths_favored  : 2\npaths_found    : 2\npaths_imported : 0\nmax_depth      : 2\ncur_path       : 1\npending_favs   : 0\npending_total  : 0\nvariable_paths : 0\nbitmap_cvg     : 0.11%\nunique_crashes : 0\nunique_hangs   : 0\nlast_path      : 1500111840\nlast_crash     : 0\nlast_hang      : 0\nexec_timeout   : 20\nafl_banner     : fuzzer-master\nafl_version    : 1.85b\ncommand_line   : /home/skaramcheti/.virtualenvs/afl/bin/afl-unix/afl-fuzz -i /dev/shm/work/HIGHCOO/input -o /dev/shm/work/HIGHCOO/sync -m 4G -Q -M fuzzer-master -x /dev/shm/work/HIGHCOO/HIGHCOO.dict -- data/linux/processed-challenges/HIGHCOO/bin/HIGHCOO\n'
p31
I0
tp32
a(I1920
S'start_time     : 1500111840\nlast_update    : 1500113763\nfuzzer_pid     : 25289\ncycles_done    : 100\nexecs_done     : 1529904\nexecs_per_sec  : 788.50\npaths_total    : 3\npaths_favored  : 2\npaths_found    : 2\npaths_imported : 0\nmax_depth      : 2\ncur_path       : 2\npending_favs   : 0\npending_total  : 0\nvariable_paths : 0\nbitmap_cvg     : 0.11%\nunique_crashes : 0\nunique_hangs   : 0\nlast_path      : 1500111840\nlast_crash     : 0\nlast_hang      : 0\nexec_timeout   : 20\nafl_banner     : fuzzer-master\nafl_version    : 1.85b\ncommand_line   : /home/skaramcheti/.virtualenvs/afl/bin/afl-unix/afl-fuzz -i /dev/shm/work/HIGHCOO/input -o /dev/shm/work/HIGHCOO/sync -m 4G -Q -M fuzzer-master -x /dev/shm/work/HIGHCOO/HIGHCOO.dict -- data/linux/processed-challenges/HIGHCOO/bin/HIGHCOO\n'
p33
I0
tp34
a(I2040
S'start_time     : 1500111840\nlast_update    : 1500113884\nfuzzer_pid     : 25289\ncycles_done    : 107\nexecs_done     : 1627681\nexecs_per_sec  : 795.03\npaths_total    : 3\npaths_favored  : 2\npaths_found    : 2\npaths_imported : 0\nmax_depth      : 2\ncur_path       : 1\npending_favs   : 0\npending_total  : 0\nvariable_paths : 0\nbitmap_cvg     : 0.11%\nunique_crashes : 0\nunique_hangs   : 0\nlast_path      : 1500111840\nlast_crash     : 0\nlast_hang      : 0\nexec_timeout   : 20\nafl_banner     : fuzzer-master\nafl_version    : 1.85b\ncommand_line   : /home/skaramcheti/.virtualenvs/afl/bin/afl-unix/afl-fuzz -i /dev/shm/work/HIGHCOO/input -o /dev/shm/work/HIGHCOO/sync -m 4G -Q -M fuzzer-master -x /dev/shm/work/HIGHCOO/HIGHCOO.dict -- data/linux/processed-challenges/HIGHCOO/bin/HIGHCOO\n'
p35
I0
tp36
a(I2160
S'start_time     : 1500111840\nlast_update    : 1500114004\nfuzzer_pid     : 25289\ncycles_done    : 113\nexecs_done     : 1723749\nexecs_per_sec  : 757.23\npaths_total    : 3\npaths_favored  : 2\npaths_found    : 2\npaths_imported : 0\nmax_depth      : 2\ncur_path       : 2\npending_favs   : 0\npending_total  : 0\nvariable_paths : 0\nbitmap_cvg     : 0.11%\nunique_crashes : 0\nunique_hangs   : 0\nlast_path      : 1500111840\nlast_crash     : 0\nlast_hang      : 0\nexec_timeout   : 20\nafl_banner     : fuzzer-master\nafl_version    : 1.85b\ncommand_line   : /home/skaramcheti/.virtualenvs/afl/bin/afl-unix/afl-fuzz -i /dev/shm/work/HIGHCOO/input -o /dev/shm/work/HIGHCOO/sync -m 4G -Q -M fuzzer-master -x /dev/shm/work/HIGHCOO/HIGHCOO.dict -- data/linux/processed-challenges/HIGHCOO/bin/HIGHCOO\n'
p37
I0
tp38
a(I2280
S'start_time     : 1500111840\nlast_update    : 1500114124\nfuzzer_pid     : 25289\ncycles_done    : 120\nexecs_done     : 1819304\nexecs_per_sec  : 802.83\npaths_total    : 3\npaths_favored  : 2\npaths_found    : 2\npaths_imported : 0\nmax_depth      : 2\ncur_path       : 0\npending_favs   : 0\npending_total  : 0\nvariable_paths : 0\nbitmap_cvg     : 0.11%\nunique_crashes : 0\nunique_hangs   : 0\nlast_path      : 1500111840\nlast_crash     : 0\nlast_hang      : 0\nexec_timeout   : 20\nafl_banner     : fuzzer-master\nafl_version    : 1.85b\ncommand_line   : /home/skaramcheti/.virtualenvs/afl/bin/afl-unix/afl-fuzz -i /dev/shm/work/HIGHCOO/input -o /dev/shm/work/HIGHCOO/sync -m 4G -Q -M fuzzer-master -x /dev/shm/work/HIGHCOO/HIGHCOO.dict -- data/linux/processed-challenges/HIGHCOO/bin/HIGHCOO\n'
p39
I0
tp40
a(I2400
S'start_time     : 1500111840\nlast_update    : 1500114244\nfuzzer_pid     : 25289\ncycles_done    : 126\nexecs_done     : 1915744\nexecs_per_sec  : 791.80\npaths_total    : 3\npaths_favored  : 2\npaths_found    : 2\npaths_imported : 0\nmax_depth      : 2\ncur_path       : 1\npending_favs   : 0\npending_total  : 0\nvariable_paths : 0\nbitmap_cvg     : 0.11%\nunique_crashes : 0\nunique_hangs   : 0\nlast_path      : 1500111840\nlast_crash     : 0\nlast_hang      : 0\nexec_timeout   : 20\nafl_banner     : fuzzer-master\nafl_version    : 1.85b\ncommand_line   : /home/skaramcheti/.virtualenvs/afl/bin/afl-unix/afl-fuzz -i /dev/shm/work/HIGHCOO/input -o /dev/shm/work/HIGHCOO/sync -m 4G -Q -M fuzzer-master -x /dev/shm/work/HIGHCOO/HIGHCOO.dict -- data/linux/processed-challenges/HIGHCOO/bin/HIGHCOO\n'
p41
I0
tp42
a(I2520
S'start_time     : 1500111840\nlast_update    : 1500114364\nfuzzer_pid     : 25289\ncycles_done    : 133\nexecs_done     : 2012073\nexecs_per_sec  : 801.22\npaths_total    : 3\npaths_favored  : 2\npaths_found    : 2\npaths_imported : 0\nmax_depth      : 2\ncur_path       : 0\npending_favs   : 0\npending_total  : 0\nvariable_paths : 0\nbitmap_cvg     : 0.11%\nunique_crashes : 0\nunique_hangs   : 0\nlast_path      : 1500111840\nlast_crash     : 0\nlast_hang      : 0\nexec_timeout   : 20\nafl_banner     : fuzzer-master\nafl_version    : 1.85b\ncommand_line   : /home/skaramcheti/.virtualenvs/afl/bin/afl-unix/afl-fuzz -i /dev/shm/work/HIGHCOO/input -o /dev/shm/work/HIGHCOO/sync -m 4G -Q -M fuzzer-master -x /dev/shm/work/HIGHCOO/HIGHCOO.dict -- data/linux/processed-challenges/HIGHCOO/bin/HIGHCOO\n'
p43
I0
tp44
a(I2640
S'start_time     : 1500111840\nlast_update    : 1500114485\nfuzzer_pid     : 25289\ncycles_done    : 139\nexecs_done     : 2107569\nexecs_per_sec  : 808.30\npaths_total    : 3\npaths_favored  : 2\npaths_found    : 2\npaths_imported : 0\nmax_depth      : 2\ncur_path       : 1\npending_favs   : 0\npending_total  : 0\nvariable_paths : 0\nbitmap_cvg     : 0.11%\nunique_crashes : 0\nunique_hangs   : 0\nlast_path      : 1500111840\nlast_crash     : 0\nlast_hang      : 0\nexec_timeout   : 20\nafl_banner     : fuzzer-master\nafl_version    : 1.85b\ncommand_line   : /home/skaramcheti/.virtualenvs/afl/bin/afl-unix/afl-fuzz -i /dev/shm/work/HIGHCOO/input -o /dev/shm/work/HIGHCOO/sync -m 4G -Q -M fuzzer-master -x /dev/shm/work/HIGHCOO/HIGHCOO.dict -- data/linux/processed-challenges/HIGHCOO/bin/HIGHCOO\n'
p45
I0
tp46
a(I2760
S'start_time     : 1500111840\nlast_update    : 1500114605\nfuzzer_pid     : 25289\ncycles_done    : 145\nexecs_done     : 2204425\nexecs_per_sec  : 848.13\npaths_total    : 3\npaths_favored  : 2\npaths_found    : 2\npaths_imported : 0\nmax_depth      : 2\ncur_path       : 2\npending_favs   : 0\npending_total  : 0\nvariable_paths : 0\nbitmap_cvg     : 0.11%\nunique_crashes : 0\nunique_hangs   : 0\nlast_path      : 1500111840\nlast_crash     : 0\nlast_hang      : 0\nexec_timeout   : 20\nafl_banner     : fuzzer-master\nafl_version    : 1.85b\ncommand_line   : /home/skaramcheti/.virtualenvs/afl/bin/afl-unix/afl-fuzz -i /dev/shm/work/HIGHCOO/input -o /dev/shm/work/HIGHCOO/sync -m 4G -Q -M fuzzer-master -x /dev/shm/work/HIGHCOO/HIGHCOO.dict -- data/linux/processed-challenges/HIGHCOO/bin/HIGHCOO\n'
p47
I0
tp48
a(I2880
S'start_time     : 1500111840\nlast_update    : 1500114725\nfuzzer_pid     : 25289\ncycles_done    : 152\nexecs_done     : 2302473\nexecs_per_sec  : 827.02\npaths_total    : 3\npaths_favored  : 2\npaths_found    : 2\npaths_imported : 0\nmax_depth      : 2\ncur_path       : 1\npending_favs   : 0\npending_total  : 0\nvariable_paths : 0\nbitmap_cvg     : 0.11%\nunique_crashes : 0\nunique_hangs   : 0\nlast_path      : 1500111840\nlast_crash     : 0\nlast_hang      : 0\nexec_timeout   : 20\nafl_banner     : fuzzer-master\nafl_version    : 1.85b\ncommand_line   : /home/skaramcheti/.virtualenvs/afl/bin/afl-unix/afl-fuzz -i /dev/shm/work/HIGHCOO/input -o /dev/shm/work/HIGHCOO/sync -m 4G -Q -M fuzzer-master -x /dev/shm/work/HIGHCOO/HIGHCOO.dict -- data/linux/processed-challenges/HIGHCOO/bin/HIGHCOO\n'
p49
I0
tp50
a(I3000
S'start_time     : 1500111840\nlast_update    : 1500114845\nfuzzer_pid     : 25289\ncycles_done    : 158\nexecs_done     : 2400065\nexecs_per_sec  : 805.07\npaths_total    : 3\npaths_favored  : 2\npaths_found    : 2\npaths_imported : 0\nmax_depth      : 2\ncur_path       : 2\npending_favs   : 0\npending_total  : 0\nvariable_paths : 0\nbitmap_cvg     : 0.11%\nunique_crashes : 0\nunique_hangs   : 0\nlast_path      : 1500111840\nlast_crash     : 0\nlast_hang      : 0\nexec_timeout   : 20\nafl_banner     : fuzzer-master\nafl_version    : 1.85b\ncommand_line   : /home/skaramcheti/.virtualenvs/afl/bin/afl-unix/afl-fuzz -i /dev/shm/work/HIGHCOO/input -o /dev/shm/work/HIGHCOO/sync -m 4G -Q -M fuzzer-master -x /dev/shm/work/HIGHCOO/HIGHCOO.dict -- data/linux/processed-challenges/HIGHCOO/bin/HIGHCOO\n'
p51
I0
tp52
a(I3120
S'start_time     : 1500111840\nlast_update    : 1500114965\nfuzzer_pid     : 25289\ncycles_done    : 165\nexecs_done     : 2495309\nexecs_per_sec  : 784.83\npaths_total    : 3\npaths_favored  : 2\npaths_found    : 2\npaths_imported : 0\nmax_depth      : 2\ncur_path       : 0\npending_favs   : 0\npending_total  : 0\nvariable_paths : 0\nbitmap_cvg     : 0.11%\nunique_crashes : 0\nunique_hangs   : 0\nlast_path      : 1500111840\nlast_crash     : 0\nlast_hang      : 0\nexec_timeout   : 20\nafl_banner     : fuzzer-master\nafl_version    : 1.85b\ncommand_line   : /home/skaramcheti/.virtualenvs/afl/bin/afl-unix/afl-fuzz -i /dev/shm/work/HIGHCOO/input -o /dev/shm/work/HIGHCOO/sync -m 4G -Q -M fuzzer-master -x /dev/shm/work/HIGHCOO/HIGHCOO.dict -- data/linux/processed-challenges/HIGHCOO/bin/HIGHCOO\n'
p53
I0
tp54
a(I3240
S'start_time     : 1500111840\nlast_update    : 1500115085\nfuzzer_pid     : 25289\ncycles_done    : 171\nexecs_done     : 2588961\nexecs_per_sec  : 814.22\npaths_total    : 3\npaths_favored  : 2\npaths_found    : 2\npaths_imported : 0\nmax_depth      : 2\ncur_path       : 1\npending_favs   : 0\npending_total  : 0\nvariable_paths : 0\nbitmap_cvg     : 0.11%\nunique_crashes : 0\nunique_hangs   : 0\nlast_path      : 1500111840\nlast_crash     : 0\nlast_hang      : 0\nexec_timeout   : 20\nafl_banner     : fuzzer-master\nafl_version    : 1.85b\ncommand_line   : /home/skaramcheti/.virtualenvs/afl/bin/afl-unix/afl-fuzz -i /dev/shm/work/HIGHCOO/input -o /dev/shm/work/HIGHCOO/sync -m 4G -Q -M fuzzer-master -x /dev/shm/work/HIGHCOO/HIGHCOO.dict -- data/linux/processed-challenges/HIGHCOO/bin/HIGHCOO\n'
p55
I0
tp56
a(I3360
S'start_time     : 1500111840\nlast_update    : 1500115205\nfuzzer_pid     : 25289\ncycles_done    : 178\nexecs_done     : 2686049\nexecs_per_sec  : 797.65\npaths_total    : 3\npaths_favored  : 2\npaths_found    : 2\npaths_imported : 0\nmax_depth      : 2\ncur_path       : 0\npending_favs   : 0\npending_total  : 0\nvariable_paths : 0\nbitmap_cvg     : 0.11%\nunique_crashes : 0\nunique_hangs   : 0\nlast_path      : 1500111840\nlast_crash     : 0\nlast_hang      : 0\nexec_timeout   : 20\nafl_banner     : fuzzer-master\nafl_version    : 1.85b\ncommand_line   : /home/skaramcheti/.virtualenvs/afl/bin/afl-unix/afl-fuzz -i /dev/shm/work/HIGHCOO/input -o /dev/shm/work/HIGHCOO/sync -m 4G -Q -M fuzzer-master -x /dev/shm/work/HIGHCOO/HIGHCOO.dict -- data/linux/processed-challenges/HIGHCOO/bin/HIGHCOO\n'
p57
I0
tp58
a(I3480
S'start_time     : 1500111840\nlast_update    : 1500115326\nfuzzer_pid     : 25289\ncycles_done    : 184\nexecs_done     : 2781694\nexecs_per_sec  : 771.52\npaths_total    : 3\npaths_favored  : 2\npaths_found    : 2\npaths_imported : 0\nmax_depth      : 2\ncur_path       : 1\npending_favs   : 0\npending_total  : 0\nvariable_paths : 0\nbitmap_cvg     : 0.11%\nunique_crashes : 0\nunique_hangs   : 0\nlast_path      : 1500111840\nlast_crash     : 0\nlast_hang      : 0\nexec_timeout   : 20\nafl_banner     : fuzzer-master\nafl_version    : 1.85b\ncommand_line   : /home/skaramcheti/.virtualenvs/afl/bin/afl-unix/afl-fuzz -i /dev/shm/work/HIGHCOO/input -o /dev/shm/work/HIGHCOO/sync -m 4G -Q -M fuzzer-master -x /dev/shm/work/HIGHCOO/HIGHCOO.dict -- data/linux/processed-challenges/HIGHCOO/bin/HIGHCOO\n'
p59
I0
tp60
a(I3600
S'start_time     : 1500111840\nlast_update    : 1500115446\nfuzzer_pid     : 25289\ncycles_done    : 190\nexecs_done     : 2877569\nexecs_per_sec  : 800.70\npaths_total    : 3\npaths_favored  : 2\npaths_found    : 2\npaths_imported : 0\nmax_depth      : 2\ncur_path       : 2\npending_favs   : 0\npending_total  : 0\nvariable_paths : 0\nbitmap_cvg     : 0.11%\nunique_crashes : 0\nunique_hangs   : 0\nlast_path      : 1500111840\nlast_crash     : 0\nlast_hang      : 0\nexec_timeout   : 20\nafl_banner     : fuzzer-master\nafl_version    : 1.85b\ncommand_line   : /home/skaramcheti/.virtualenvs/afl/bin/afl-unix/afl-fuzz -i /dev/shm/work/HIGHCOO/input -o /dev/shm/work/HIGHCOO/sync -m 4G -Q -M fuzzer-master -x /dev/shm/work/HIGHCOO/HIGHCOO.dict -- data/linux/processed-challenges/HIGHCOO/bin/HIGHCOO\n'
p61
I0
tp62
a(I3720
S'start_time     : 1500111840\nlast_update    : 1500115566\nfuzzer_pid     : 25289\ncycles_done    : 197\nexecs_done     : 2973417\nexecs_per_sec  : 810.63\npaths_total    : 3\npaths_favored  : 2\npaths_found    : 2\npaths_imported : 0\nmax_depth      : 2\ncur_path       : 0\npending_favs   : 0\npending_total  : 0\nvariable_paths : 0\nbitmap_cvg     : 0.11%\nunique_crashes : 0\nunique_hangs   : 0\nlast_path      : 1500111840\nlast_crash     : 0\nlast_hang      : 0\nexec_timeout   : 20\nafl_banner     : fuzzer-master\nafl_version    : 1.85b\ncommand_line   : /home/skaramcheti/.virtualenvs/afl/bin/afl-unix/afl-fuzz -i /dev/shm/work/HIGHCOO/input -o /dev/shm/work/HIGHCOO/sync -m 4G -Q -M fuzzer-master -x /dev/shm/work/HIGHCOO/HIGHCOO.dict -- data/linux/processed-challenges/HIGHCOO/bin/HIGHCOO\n'
p63
I0
tp64
a(I3840
S'start_time     : 1500111840\nlast_update    : 1500115686\nfuzzer_pid     : 25289\ncycles_done    : 203\nexecs_done     : 3069964\nexecs_per_sec  : 789.53\npaths_total    : 3\npaths_favored  : 2\npaths_found    : 2\npaths_imported : 0\nmax_depth      : 2\ncur_path       : 1\npending_favs   : 0\npending_total  : 0\nvariable_paths : 0\nbitmap_cvg     : 0.11%\nunique_crashes : 0\nunique_hangs   : 0\nlast_path      : 1500111840\nlast_crash     : 0\nlast_hang      : 0\nexec_timeout   : 20\nafl_banner     : fuzzer-master\nafl_version    : 1.85b\ncommand_line   : /home/skaramcheti/.virtualenvs/afl/bin/afl-unix/afl-fuzz -i /dev/shm/work/HIGHCOO/input -o /dev/shm/work/HIGHCOO/sync -m 4G -Q -M fuzzer-master -x /dev/shm/work/HIGHCOO/HIGHCOO.dict -- data/linux/processed-challenges/HIGHCOO/bin/HIGHCOO\n'
p65
I0
tp66
a(I3960
S'start_time     : 1500111840\nlast_update    : 1500115806\nfuzzer_pid     : 25289\ncycles_done    : 209\nexecs_done     : 3165808\nexecs_per_sec  : 803.78\npaths_total    : 3\npaths_favored  : 2\npaths_found    : 2\npaths_imported : 0\nmax_depth      : 2\ncur_path       : 2\npending_favs   : 0\npending_total  : 0\nvariable_paths : 0\nbitmap_cvg     : 0.11%\nunique_crashes : 0\nunique_hangs   : 0\nlast_path      : 1500111840\nlast_crash     : 0\nlast_hang      : 0\nexec_timeout   : 20\nafl_banner     : fuzzer-master\nafl_version    : 1.85b\ncommand_line   : /home/skaramcheti/.virtualenvs/afl/bin/afl-unix/afl-fuzz -i /dev/shm/work/HIGHCOO/input -o /dev/shm/work/HIGHCOO/sync -m 4G -Q -M fuzzer-master -x /dev/shm/work/HIGHCOO/HIGHCOO.dict -- data/linux/processed-challenges/HIGHCOO/bin/HIGHCOO\n'
p67
I0
tp68
a(I4080
S'start_time     : 1500111840\nlast_update    : 1500115926\nfuzzer_pid     : 25289\ncycles_done    : 216\nexecs_done     : 3259919\nexecs_per_sec  : 800.16\npaths_total    : 3\npaths_favored  : 2\npaths_found    : 2\npaths_imported : 0\nmax_depth      : 2\ncur_path       : 0\npending_favs   : 0\npending_total  : 0\nvariable_paths : 0\nbitmap_cvg     : 0.11%\nunique_crashes : 0\nunique_hangs   : 0\nlast_path      : 1500111840\nlast_crash     : 0\nlast_hang      : 0\nexec_timeout   : 20\nafl_banner     : fuzzer-master\nafl_version    : 1.85b\ncommand_line   : /home/skaramcheti/.virtualenvs/afl/bin/afl-unix/afl-fuzz -i /dev/shm/work/HIGHCOO/input -o /dev/shm/work/HIGHCOO/sync -m 4G -Q -M fuzzer-master -x /dev/shm/work/HIGHCOO/HIGHCOO.dict -- data/linux/processed-challenges/HIGHCOO/bin/HIGHCOO\n'
p69
I0
tp70
a(I4200
S'start_time     : 1500111840\nlast_update    : 1500116047\nfuzzer_pid     : 25289\ncycles_done    : 222\nexecs_done     : 3355459\nexecs_per_sec  : 769.43\npaths_total    : 3\npaths_favored  : 2\npaths_found    : 2\npaths_imported : 0\nmax_depth      : 2\ncur_path       : 1\npending_favs   : 0\npending_total  : 0\nvariable_paths : 0\nbitmap_cvg     : 0.11%\nunique_crashes : 0\nunique_hangs   : 0\nlast_path      : 1500111840\nlast_crash     : 0\nlast_hang      : 0\nexec_timeout   : 20\nafl_banner     : fuzzer-master\nafl_version    : 1.85b\ncommand_line   : /home/skaramcheti/.virtualenvs/afl/bin/afl-unix/afl-fuzz -i /dev/shm/work/HIGHCOO/input -o /dev/shm/work/HIGHCOO/sync -m 4G -Q -M fuzzer-master -x /dev/shm/work/HIGHCOO/HIGHCOO.dict -- data/linux/processed-challenges/HIGHCOO/bin/HIGHCOO\n'
p71
I0
tp72
a(I4320
S'start_time     : 1500111840\nlast_update    : 1500116167\nfuzzer_pid     : 25289\ncycles_done    : 228\nexecs_done     : 3450785\nexecs_per_sec  : 804.49\npaths_total    : 3\npaths_favored  : 2\npaths_found    : 2\npaths_imported : 0\nmax_depth      : 2\ncur_path       : 2\npending_favs   : 0\npending_total  : 0\nvariable_paths : 0\nbitmap_cvg     : 0.11%\nunique_crashes : 0\nunique_hangs   : 0\nlast_path      : 1500111840\nlast_crash     : 0\nlast_hang      : 0\nexec_timeout   : 20\nafl_banner     : fuzzer-master\nafl_version    : 1.85b\ncommand_line   : /home/skaramcheti/.virtualenvs/afl/bin/afl-unix/afl-fuzz -i /dev/shm/work/HIGHCOO/input -o /dev/shm/work/HIGHCOO/sync -m 4G -Q -M fuzzer-master -x /dev/shm/work/HIGHCOO/HIGHCOO.dict -- data/linux/processed-challenges/HIGHCOO/bin/HIGHCOO\n'
p73
I0
tp74
a(I4440
S'start_time     : 1500111840\nlast_update    : 1500116287\nfuzzer_pid     : 25289\ncycles_done    : 235\nexecs_done     : 3547144\nexecs_per_sec  : 794.16\npaths_total    : 3\npaths_favored  : 2\npaths_found    : 2\npaths_imported : 0\nmax_depth      : 2\ncur_path       : 1\npending_favs   : 0\npending_total  : 0\nvariable_paths : 0\nbitmap_cvg     : 0.11%\nunique_crashes : 0\nunique_hangs   : 0\nlast_path      : 1500111840\nlast_crash     : 0\nlast_hang      : 0\nexec_timeout   : 20\nafl_banner     : fuzzer-master\nafl_version    : 1.85b\ncommand_line   : /home/skaramcheti/.virtualenvs/afl/bin/afl-unix/afl-fuzz -i /dev/shm/work/HIGHCOO/input -o /dev/shm/work/HIGHCOO/sync -m 4G -Q -M fuzzer-master -x /dev/shm/work/HIGHCOO/HIGHCOO.dict -- data/linux/processed-challenges/HIGHCOO/bin/HIGHCOO\n'
p75
I0
tp76
a(I4560
S'start_time     : 1500111840\nlast_update    : 1500116407\nfuzzer_pid     : 25289\ncycles_done    : 241\nexecs_done     : 3641689\nexecs_per_sec  : 821.34\npaths_total    : 3\npaths_favored  : 2\npaths_found    : 2\npaths_imported : 0\nmax_depth      : 2\ncur_path       : 2\npending_favs   : 0\npending_total  : 0\nvariable_paths : 0\nbitmap_cvg     : 0.11%\nunique_crashes : 0\nunique_hangs   : 0\nlast_path      : 1500111840\nlast_crash     : 0\nlast_hang      : 0\nexec_timeout   : 20\nafl_banner     : fuzzer-master\nafl_version    : 1.85b\ncommand_line   : /home/skaramcheti/.virtualenvs/afl/bin/afl-unix/afl-fuzz -i /dev/shm/work/HIGHCOO/input -o /dev/shm/work/HIGHCOO/sync -m 4G -Q -M fuzzer-master -x /dev/shm/work/HIGHCOO/HIGHCOO.dict -- data/linux/processed-challenges/HIGHCOO/bin/HIGHCOO\n'
p77
I0
tp78
a(I4680
S'start_time     : 1500111840\nlast_update    : 1500116527\nfuzzer_pid     : 25289\ncycles_done    : 248\nexecs_done     : 3737639\nexecs_per_sec  : 799.68\npaths_total    : 3\npaths_favored  : 2\npaths_found    : 2\npaths_imported : 0\nmax_depth      : 2\ncur_path       : 0\npending_favs   : 0\npending_total  : 0\nvariable_paths : 0\nbitmap_cvg     : 0.11%\nunique_crashes : 0\nunique_hangs   : 0\nlast_path      : 1500111840\nlast_crash     : 0\nlast_hang      : 0\nexec_timeout   : 20\nafl_banner     : fuzzer-master\nafl_version    : 1.85b\ncommand_line   : /home/skaramcheti/.virtualenvs/afl/bin/afl-unix/afl-fuzz -i /dev/shm/work/HIGHCOO/input -o /dev/shm/work/HIGHCOO/sync -m 4G -Q -M fuzzer-master -x /dev/shm/work/HIGHCOO/HIGHCOO.dict -- data/linux/processed-challenges/HIGHCOO/bin/HIGHCOO\n'
p79
I0
tp80
a(I4800
S'start_time     : 1500111840\nlast_update    : 1500116648\nfuzzer_pid     : 25289\ncycles_done    : 254\nexecs_done     : 3833074\nexecs_per_sec  : 778.55\npaths_total    : 3\npaths_favored  : 2\npaths_found    : 2\npaths_imported : 0\nmax_depth      : 2\ncur_path       : 1\npending_favs   : 0\npending_total  : 0\nvariable_paths : 0\nbitmap_cvg     : 0.11%\nunique_crashes : 0\nunique_hangs   : 0\nlast_path      : 1500111840\nlast_crash     : 0\nlast_hang      : 0\nexec_timeout   : 20\nafl_banner     : fuzzer-master\nafl_version    : 1.85b\ncommand_line   : /home/skaramcheti/.virtualenvs/afl/bin/afl-unix/afl-fuzz -i /dev/shm/work/HIGHCOO/input -o /dev/shm/work/HIGHCOO/sync -m 4G -Q -M fuzzer-master -x /dev/shm/work/HIGHCOO/HIGHCOO.dict -- data/linux/processed-challenges/HIGHCOO/bin/HIGHCOO\n'
p81
I0
tp82
a(I4920
S'start_time     : 1500111840\nlast_update    : 1500116768\nfuzzer_pid     : 25289\ncycles_done    : 260\nexecs_done     : 3929814\nexecs_per_sec  : 798.02\npaths_total    : 3\npaths_favored  : 2\npaths_found    : 2\npaths_imported : 0\nmax_depth      : 2\ncur_path       : 2\npending_favs   : 0\npending_total  : 0\nvariable_paths : 0\nbitmap_cvg     : 0.11%\nunique_crashes : 0\nunique_hangs   : 0\nlast_path      : 1500111840\nlast_crash     : 0\nlast_hang      : 0\nexec_timeout   : 20\nafl_banner     : fuzzer-master\nafl_version    : 1.85b\ncommand_line   : /home/skaramcheti/.virtualenvs/afl/bin/afl-unix/afl-fuzz -i /dev/shm/work/HIGHCOO/input -o /dev/shm/work/HIGHCOO/sync -m 4G -Q -M fuzzer-master -x /dev/shm/work/HIGHCOO/HIGHCOO.dict -- data/linux/processed-challenges/HIGHCOO/bin/HIGHCOO\n'
p83
I0
tp84
a(I5040
S'start_time     : 1500111840\nlast_update    : 1500116888\nfuzzer_pid     : 25289\ncycles_done    : 267\nexecs_done     : 4025113\nexecs_per_sec  : 802.18\npaths_total    : 3\npaths_favored  : 2\npaths_found    : 2\npaths_imported : 0\nmax_depth      : 2\ncur_path       : 0\npending_favs   : 0\npending_total  : 0\nvariable_paths : 0\nbitmap_cvg     : 0.11%\nunique_crashes : 0\nunique_hangs   : 0\nlast_path      : 1500111840\nlast_crash     : 0\nlast_hang      : 0\nexec_timeout   : 20\nafl_banner     : fuzzer-master\nafl_version    : 1.85b\ncommand_line   : /home/skaramcheti/.virtualenvs/afl/bin/afl-unix/afl-fuzz -i /dev/shm/work/HIGHCOO/input -o /dev/shm/work/HIGHCOO/sync -m 4G -Q -M fuzzer-master -x /dev/shm/work/HIGHCOO/HIGHCOO.dict -- data/linux/processed-challenges/HIGHCOO/bin/HIGHCOO\n'
p85
I0
tp86
a(I5160
S'start_time     : 1500111840\nlast_update    : 1500117008\nfuzzer_pid     : 25289\ncycles_done    : 273\nexecs_done     : 4122069\nexecs_per_sec  : 797.37\npaths_total    : 3\npaths_favored  : 2\npaths_found    : 2\npaths_imported : 0\nmax_depth      : 2\ncur_path       : 2\npending_favs   : 0\npending_total  : 0\nvariable_paths : 0\nbitmap_cvg     : 0.11%\nunique_crashes : 0\nunique_hangs   : 0\nlast_path      : 1500111840\nlast_crash     : 0\nlast_hang      : 0\nexec_timeout   : 20\nafl_banner     : fuzzer-master\nafl_version    : 1.85b\ncommand_line   : /home/skaramcheti/.virtualenvs/afl/bin/afl-unix/afl-fuzz -i /dev/shm/work/HIGHCOO/input -o /dev/shm/work/HIGHCOO/sync -m 4G -Q -M fuzzer-master -x /dev/shm/work/HIGHCOO/HIGHCOO.dict -- data/linux/processed-challenges/HIGHCOO/bin/HIGHCOO\n'
p87
I0
tp88
a(I5280
S'start_time     : 1500111840\nlast_update    : 1500117128\nfuzzer_pid     : 25289\ncycles_done    : 280\nexecs_done     : 4218284\nexecs_per_sec  : 786.38\npaths_total    : 3\npaths_favored  : 2\npaths_found    : 2\npaths_imported : 0\nmax_depth      : 2\ncur_path       : 0\npending_favs   : 0\npending_total  : 0\nvariable_paths : 0\nbitmap_cvg     : 0.11%\nunique_crashes : 0\nunique_hangs   : 0\nlast_path      : 1500111840\nlast_crash     : 0\nlast_hang      : 0\nexec_timeout   : 20\nafl_banner     : fuzzer-master\nafl_version    : 1.85b\ncommand_line   : /home/skaramcheti/.virtualenvs/afl/bin/afl-unix/afl-fuzz -i /dev/shm/work/HIGHCOO/input -o /dev/shm/work/HIGHCOO/sync -m 4G -Q -M fuzzer-master -x /dev/shm/work/HIGHCOO/HIGHCOO.dict -- data/linux/processed-challenges/HIGHCOO/bin/HIGHCOO\n'
p89
I0
tp90
a(I5400
S'start_time     : 1500111840\nlast_update    : 1500117249\nfuzzer_pid     : 25289\ncycles_done    : 286\nexecs_done     : 4315641\nexecs_per_sec  : 810.29\npaths_total    : 3\npaths_favored  : 2\npaths_found    : 2\npaths_imported : 0\nmax_depth      : 2\ncur_path       : 1\npending_favs   : 0\npending_total  : 0\nvariable_paths : 0\nbitmap_cvg     : 0.11%\nunique_crashes : 0\nunique_hangs   : 0\nlast_path      : 1500111840\nlast_crash     : 0\nlast_hang      : 0\nexec_timeout   : 20\nafl_banner     : fuzzer-master\nafl_version    : 1.85b\ncommand_line   : /home/skaramcheti/.virtualenvs/afl/bin/afl-unix/afl-fuzz -i /dev/shm/work/HIGHCOO/input -o /dev/shm/work/HIGHCOO/sync -m 4G -Q -M fuzzer-master -x /dev/shm/work/HIGHCOO/HIGHCOO.dict -- data/linux/processed-challenges/HIGHCOO/bin/HIGHCOO\n'
p91
I0
tp92
a(I5520
S'start_time     : 1500111840\nlast_update    : 1500117369\nfuzzer_pid     : 25289\ncycles_done    : 293\nexecs_done     : 4413177\nexecs_per_sec  : 813.12\npaths_total    : 3\npaths_favored  : 2\npaths_found    : 2\npaths_imported : 0\nmax_depth      : 2\ncur_path       : 0\npending_favs   : 0\npending_total  : 0\nvariable_paths : 0\nbitmap_cvg     : 0.11%\nunique_crashes : 0\nunique_hangs   : 0\nlast_path      : 1500111840\nlast_crash     : 0\nlast_hang      : 0\nexec_timeout   : 20\nafl_banner     : fuzzer-master\nafl_version    : 1.85b\ncommand_line   : /home/skaramcheti/.virtualenvs/afl/bin/afl-unix/afl-fuzz -i /dev/shm/work/HIGHCOO/input -o /dev/shm/work/HIGHCOO/sync -m 4G -Q -M fuzzer-master -x /dev/shm/work/HIGHCOO/HIGHCOO.dict -- data/linux/processed-challenges/HIGHCOO/bin/HIGHCOO\n'
p93
I0
tp94
a(I5640
S'start_time     : 1500111840\nlast_update    : 1500117489\nfuzzer_pid     : 25289\ncycles_done    : 299\nexecs_done     : 4510189\nexecs_per_sec  : 795.92\npaths_total    : 3\npaths_favored  : 2\npaths_found    : 2\npaths_imported : 0\nmax_depth      : 2\ncur_path       : 1\npending_favs   : 0\npending_total  : 0\nvariable_paths : 0\nbitmap_cvg     : 0.11%\nunique_crashes : 0\nunique_hangs   : 0\nlast_path      : 1500111840\nlast_crash     : 0\nlast_hang      : 0\nexec_timeout   : 20\nafl_banner     : fuzzer-master\nafl_version    : 1.85b\ncommand_line   : /home/skaramcheti/.virtualenvs/afl/bin/afl-unix/afl-fuzz -i /dev/shm/work/HIGHCOO/input -o /dev/shm/work/HIGHCOO/sync -m 4G -Q -M fuzzer-master -x /dev/shm/work/HIGHCOO/HIGHCOO.dict -- data/linux/processed-challenges/HIGHCOO/bin/HIGHCOO\n'
p95
I0
tp96
a(I5760
S'start_time     : 1500111840\nlast_update    : 1500117609\nfuzzer_pid     : 25289\ncycles_done    : 306\nexecs_done     : 4607279\nexecs_per_sec  : 806.22\npaths_total    : 3\npaths_favored  : 2\npaths_found    : 2\npaths_imported : 0\nmax_depth      : 2\ncur_path       : 0\npending_favs   : 0\npending_total  : 0\nvariable_paths : 0\nbitmap_cvg     : 0.11%\nunique_crashes : 0\nunique_hangs   : 0\nlast_path      : 1500111840\nlast_crash     : 0\nlast_hang      : 0\nexec_timeout   : 20\nafl_banner     : fuzzer-master\nafl_version    : 1.85b\ncommand_line   : /home/skaramcheti/.virtualenvs/afl/bin/afl-unix/afl-fuzz -i /dev/shm/work/HIGHCOO/input -o /dev/shm/work/HIGHCOO/sync -m 4G -Q -M fuzzer-master -x /dev/shm/work/HIGHCOO/HIGHCOO.dict -- data/linux/processed-challenges/HIGHCOO/bin/HIGHCOO\n'
p97
I0
tp98
a(I5880
S'start_time     : 1500111840\nlast_update    : 1500117729\nfuzzer_pid     : 25289\ncycles_done    : 312\nexecs_done     : 4707969\nexecs_per_sec  : 807.48\npaths_total    : 3\npaths_favored  : 2\npaths_found    : 2\npaths_imported : 0\nmax_depth      : 2\ncur_path       : 2\npending_favs   : 0\npending_total  : 0\nvariable_paths : 0\nbitmap_cvg     : 0.11%\nunique_crashes : 0\nunique_hangs   : 0\nlast_path      : 1500111840\nlast_crash     : 0\nlast_hang      : 0\nexec_timeout   : 20\nafl_banner     : fuzzer-master\nafl_version    : 1.85b\ncommand_line   : /home/skaramcheti/.virtualenvs/afl/bin/afl-unix/afl-fuzz -i /dev/shm/work/HIGHCOO/input -o /dev/shm/work/HIGHCOO/sync -m 4G -Q -M fuzzer-master -x /dev/shm/work/HIGHCOO/HIGHCOO.dict -- data/linux/processed-challenges/HIGHCOO/bin/HIGHCOO\n'
p99
I0
tp100
a(I6000
S'start_time     : 1500111840\nlast_update    : 1500117849\nfuzzer_pid     : 25289\ncycles_done    : 319\nexecs_done     : 4804793\nexecs_per_sec  : 815.55\npaths_total    : 3\npaths_favored  : 2\npaths_found    : 2\npaths_imported : 0\nmax_depth      : 2\ncur_path       : 0\npending_favs   : 0\npending_total  : 0\nvariable_paths : 0\nbitmap_cvg     : 0.11%\nunique_crashes : 0\nunique_hangs   : 0\nlast_path      : 1500111840\nlast_crash     : 0\nlast_hang      : 0\nexec_timeout   : 20\nafl_banner     : fuzzer-master\nafl_version    : 1.85b\ncommand_line   : /home/skaramcheti/.virtualenvs/afl/bin/afl-unix/afl-fuzz -i /dev/shm/work/HIGHCOO/input -o /dev/shm/work/HIGHCOO/sync -m 4G -Q -M fuzzer-master -x /dev/shm/work/HIGHCOO/HIGHCOO.dict -- data/linux/processed-challenges/HIGHCOO/bin/HIGHCOO\n'
p101
I0
tp102
a(I6120
S'start_time     : 1500111840\nlast_update    : 1500117969\nfuzzer_pid     : 25289\ncycles_done    : 325\nexecs_done     : 4902356\nexecs_per_sec  : 861.38\npaths_total    : 3\npaths_favored  : 2\npaths_found    : 2\npaths_imported : 0\nmax_depth      : 2\ncur_path       : 2\npending_favs   : 0\npending_total  : 0\nvariable_paths : 0\nbitmap_cvg     : 0.11%\nunique_crashes : 0\nunique_hangs   : 0\nlast_path      : 1500111840\nlast_crash     : 0\nlast_hang      : 0\nexec_timeout   : 20\nafl_banner     : fuzzer-master\nafl_version    : 1.85b\ncommand_line   : /home/skaramcheti/.virtualenvs/afl/bin/afl-unix/afl-fuzz -i /dev/shm/work/HIGHCOO/input -o /dev/shm/work/HIGHCOO/sync -m 4G -Q -M fuzzer-master -x /dev/shm/work/HIGHCOO/HIGHCOO.dict -- data/linux/processed-challenges/HIGHCOO/bin/HIGHCOO\n'
p103
I0
tp104
a(I6240
S'start_time     : 1500111840\nlast_update    : 1500118090\nfuzzer_pid     : 25289\ncycles_done    : 332\nexecs_done     : 5000769\nexecs_per_sec  : 840.42\npaths_total    : 3\npaths_favored  : 2\npaths_found    : 2\npaths_imported : 0\nmax_depth      : 2\ncur_path       : 0\npending_favs   : 0\npending_total  : 0\nvariable_paths : 0\nbitmap_cvg     : 0.11%\nunique_crashes : 0\nunique_hangs   : 0\nlast_path      : 1500111840\nlast_crash     : 0\nlast_hang      : 0\nexec_timeout   : 20\nafl_banner     : fuzzer-master\nafl_version    : 1.85b\ncommand_line   : /home/skaramcheti/.virtualenvs/afl/bin/afl-unix/afl-fuzz -i /dev/shm/work/HIGHCOO/input -o /dev/shm/work/HIGHCOO/sync -m 4G -Q -M fuzzer-master -x /dev/shm/work/HIGHCOO/HIGHCOO.dict -- data/linux/processed-challenges/HIGHCOO/bin/HIGHCOO\n'
p105
I0
tp106
a(I6360
S'start_time     : 1500111840\nlast_update    : 1500118210\nfuzzer_pid     : 25289\ncycles_done    : 338\nexecs_done     : 5099569\nexecs_per_sec  : 823.35\npaths_total    : 3\npaths_favored  : 2\npaths_found    : 2\npaths_imported : 0\nmax_depth      : 2\ncur_path       : 2\npending_favs   : 0\npending_total  : 0\nvariable_paths : 0\nbitmap_cvg     : 0.11%\nunique_crashes : 0\nunique_hangs   : 0\nlast_path      : 1500111840\nlast_crash     : 0\nlast_hang      : 0\nexec_timeout   : 20\nafl_banner     : fuzzer-master\nafl_version    : 1.85b\ncommand_line   : /home/skaramcheti/.virtualenvs/afl/bin/afl-unix/afl-fuzz -i /dev/shm/work/HIGHCOO/input -o /dev/shm/work/HIGHCOO/sync -m 4G -Q -M fuzzer-master -x /dev/shm/work/HIGHCOO/HIGHCOO.dict -- data/linux/processed-challenges/HIGHCOO/bin/HIGHCOO\n'
p107
I0
tp108
a(I6480
S'start_time     : 1500111840\nlast_update    : 1500118330\nfuzzer_pid     : 25289\ncycles_done    : 345\nexecs_done     : 5197025\nexecs_per_sec  : 801.56\npaths_total    : 3\npaths_favored  : 2\npaths_found    : 2\npaths_imported : 0\nmax_depth      : 2\ncur_path       : 1\npending_favs   : 0\npending_total  : 0\nvariable_paths : 0\nbitmap_cvg     : 0.11%\nunique_crashes : 0\nunique_hangs   : 0\nlast_path      : 1500111840\nlast_crash     : 0\nlast_hang      : 0\nexec_timeout   : 20\nafl_banner     : fuzzer-master\nafl_version    : 1.85b\ncommand_line   : /home/skaramcheti/.virtualenvs/afl/bin/afl-unix/afl-fuzz -i /dev/shm/work/HIGHCOO/input -o /dev/shm/work/HIGHCOO/sync -m 4G -Q -M fuzzer-master -x /dev/shm/work/HIGHCOO/HIGHCOO.dict -- data/linux/processed-challenges/HIGHCOO/bin/HIGHCOO\n'
p109
I0
tp110
a(I6600
S'start_time     : 1500111840\nlast_update    : 1500118450\nfuzzer_pid     : 25289\ncycles_done    : 351\nexecs_done     : 5295481\nexecs_per_sec  : 829.88\npaths_total    : 3\npaths_favored  : 2\npaths_found    : 2\npaths_imported : 0\nmax_depth      : 2\ncur_path       : 2\npending_favs   : 0\npending_total  : 0\nvariable_paths : 0\nbitmap_cvg     : 0.11%\nunique_crashes : 0\nunique_hangs   : 0\nlast_path      : 1500111840\nlast_crash     : 0\nlast_hang      : 0\nexec_timeout   : 20\nafl_banner     : fuzzer-master\nafl_version    : 1.85b\ncommand_line   : /home/skaramcheti/.virtualenvs/afl/bin/afl-unix/afl-fuzz -i /dev/shm/work/HIGHCOO/input -o /dev/shm/work/HIGHCOO/sync -m 4G -Q -M fuzzer-master -x /dev/shm/work/HIGHCOO/HIGHCOO.dict -- data/linux/processed-challenges/HIGHCOO/bin/HIGHCOO\n'
p111
I0
tp112
a(I6720
S'start_time     : 1500111840\nlast_update    : 1500118571\nfuzzer_pid     : 25289\ncycles_done    : 358\nexecs_done     : 5394137\nexecs_per_sec  : 821.49\npaths_total    : 3\npaths_favored  : 2\npaths_found    : 2\npaths_imported : 0\nmax_depth      : 2\ncur_path       : 1\npending_favs   : 0\npending_total  : 0\nvariable_paths : 0\nbitmap_cvg     : 0.11%\nunique_crashes : 0\nunique_hangs   : 1\nlast_path      : 1500111840\nlast_crash     : 0\nlast_hang      : 1500118462\nexec_timeout   : 20\nafl_banner     : fuzzer-master\nafl_version    : 1.85b\ncommand_line   : /home/skaramcheti/.virtualenvs/afl/bin/afl-unix/afl-fuzz -i /dev/shm/work/HIGHCOO/input -o /dev/shm/work/HIGHCOO/sync -m 4G -Q -M fuzzer-master -x /dev/shm/work/HIGHCOO/HIGHCOO.dict -- data/linux/processed-challenges/HIGHCOO/bin/HIGHCOO\n'
p113
I0
tp114
a(I6840
S'start_time     : 1500111840\nlast_update    : 1500118691\nfuzzer_pid     : 25289\ncycles_done    : 365\nexecs_done     : 5493465\nexecs_per_sec  : 832.97\npaths_total    : 3\npaths_favored  : 2\npaths_found    : 2\npaths_imported : 0\nmax_depth      : 2\ncur_path       : 0\npending_favs   : 0\npending_total  : 0\nvariable_paths : 0\nbitmap_cvg     : 0.11%\nunique_crashes : 0\nunique_hangs   : 1\nlast_path      : 1500111840\nlast_crash     : 0\nlast_hang      : 1500118462\nexec_timeout   : 20\nafl_banner     : fuzzer-master\nafl_version    : 1.85b\ncommand_line   : /home/skaramcheti/.virtualenvs/afl/bin/afl-unix/afl-fuzz -i /dev/shm/work/HIGHCOO/input -o /dev/shm/work/HIGHCOO/sync -m 4G -Q -M fuzzer-master -x /dev/shm/work/HIGHCOO/HIGHCOO.dict -- data/linux/processed-challenges/HIGHCOO/bin/HIGHCOO\n'
p115
I0
tp116
a(I6960
S'start_time     : 1500111840\nlast_update    : 1500118811\nfuzzer_pid     : 25289\ncycles_done    : 371\nexecs_done     : 5593241\nexecs_per_sec  : 818.76\npaths_total    : 3\npaths_favored  : 2\npaths_found    : 2\npaths_imported : 0\nmax_depth      : 2\ncur_path       : 2\npending_favs   : 0\npending_total  : 0\nvariable_paths : 0\nbitmap_cvg     : 0.11%\nunique_crashes : 0\nunique_hangs   : 1\nlast_path      : 1500111840\nlast_crash     : 0\nlast_hang      : 1500118462\nexec_timeout   : 20\nafl_banner     : fuzzer-master\nafl_version    : 1.85b\ncommand_line   : /home/skaramcheti/.virtualenvs/afl/bin/afl-unix/afl-fuzz -i /dev/shm/work/HIGHCOO/input -o /dev/shm/work/HIGHCOO/sync -m 4G -Q -M fuzzer-master -x /dev/shm/work/HIGHCOO/HIGHCOO.dict -- data/linux/processed-challenges/HIGHCOO/bin/HIGHCOO\n'
p117
I0
tp118
a(I7080
S'start_time     : 1500111840\nlast_update    : 1500118931\nfuzzer_pid     : 25289\ncycles_done    : 378\nexecs_done     : 5693155\nexecs_per_sec  : 888.55\npaths_total    : 3\npaths_favored  : 2\npaths_found    : 2\npaths_imported : 0\nmax_depth      : 2\ncur_path       : 1\npending_favs   : 0\npending_total  : 0\nvariable_paths : 0\nbitmap_cvg     : 0.11%\nunique_crashes : 0\nunique_hangs   : 1\nlast_path      : 1500111840\nlast_crash     : 0\nlast_hang      : 1500118462\nexec_timeout   : 20\nafl_banner     : fuzzer-master\nafl_version    : 1.85b\ncommand_line   : /home/skaramcheti/.virtualenvs/afl/bin/afl-unix/afl-fuzz -i /dev/shm/work/HIGHCOO/input -o /dev/shm/work/HIGHCOO/sync -m 4G -Q -M fuzzer-master -x /dev/shm/work/HIGHCOO/HIGHCOO.dict -- data/linux/processed-challenges/HIGHCOO/bin/HIGHCOO\n'
p119
I0
tp120
a(I7200
S'start_time     : 1500111840\nlast_update    : 1500119051\nfuzzer_pid     : 25289\ncycles_done    : 385\nexecs_done     : 5792777\nexecs_per_sec  : 851.78\npaths_total    : 3\npaths_favored  : 2\npaths_found    : 2\npaths_imported : 0\nmax_depth      : 2\ncur_path       : 0\npending_favs   : 0\npending_total  : 0\nvariable_paths : 0\nbitmap_cvg     : 0.11%\nunique_crashes : 0\nunique_hangs   : 1\nlast_path      : 1500111840\nlast_crash     : 0\nlast_hang      : 1500118462\nexec_timeout   : 20\nafl_banner     : fuzzer-master\nafl_version    : 1.85b\ncommand_line   : /home/skaramcheti/.virtualenvs/afl/bin/afl-unix/afl-fuzz -i /dev/shm/work/HIGHCOO/input -o /dev/shm/work/HIGHCOO/sync -m 4G -Q -M fuzzer-master -x /dev/shm/work/HIGHCOO/HIGHCOO.dict -- data/linux/processed-challenges/HIGHCOO/bin/HIGHCOO\n'
p121
I0
tp122
a(I7320
S'start_time     : 1500111840\nlast_update    : 1500119172\nfuzzer_pid     : 25289\ncycles_done    : 391\nexecs_done     : 5892633\nexecs_per_sec  : 836.83\npaths_total    : 3\npaths_favored  : 2\npaths_found    : 2\npaths_imported : 0\nmax_depth      : 2\ncur_path       : 2\npending_favs   : 0\npending_total  : 0\nvariable_paths : 0\nbitmap_cvg     : 0.11%\nunique_crashes : 0\nunique_hangs   : 1\nlast_path      : 1500111840\nlast_crash     : 0\nlast_hang      : 1500118462\nexec_timeout   : 20\nafl_banner     : fuzzer-master\nafl_version    : 1.85b\ncommand_line   : /home/skaramcheti/.virtualenvs/afl/bin/afl-unix/afl-fuzz -i /dev/shm/work/HIGHCOO/input -o /dev/shm/work/HIGHCOO/sync -m 4G -Q -M fuzzer-master -x /dev/shm/work/HIGHCOO/HIGHCOO.dict -- data/linux/processed-challenges/HIGHCOO/bin/HIGHCOO\n'
p123
I0
tp124
a(I7440
S'start_time     : 1500111840\nlast_update    : 1500119292\nfuzzer_pid     : 25289\ncycles_done    : 398\nexecs_done     : 5990353\nexecs_per_sec  : 824.12\npaths_total    : 3\npaths_favored  : 2\npaths_found    : 2\npaths_imported : 0\nmax_depth      : 2\ncur_path       : 0\npending_favs   : 0\npending_total  : 0\nvariable_paths : 0\nbitmap_cvg     : 0.11%\nunique_crashes : 0\nunique_hangs   : 1\nlast_path      : 1500111840\nlast_crash     : 0\nlast_hang      : 1500118462\nexec_timeout   : 20\nafl_banner     : fuzzer-master\nafl_version    : 1.85b\ncommand_line   : /home/skaramcheti/.virtualenvs/afl/bin/afl-unix/afl-fuzz -i /dev/shm/work/HIGHCOO/input -o /dev/shm/work/HIGHCOO/sync -m 4G -Q -M fuzzer-master -x /dev/shm/work/HIGHCOO/HIGHCOO.dict -- data/linux/processed-challenges/HIGHCOO/bin/HIGHCOO\n'
p125
I0
tp126
a(I7560
S'start_time     : 1500111840\nlast_update    : 1500119412\nfuzzer_pid     : 25289\ncycles_done    : 405\nexecs_done     : 6091161\nexecs_per_sec  : 826.71\npaths_total    : 3\npaths_favored  : 2\npaths_found    : 2\npaths_imported : 0\nmax_depth      : 2\ncur_path       : 0\npending_favs   : 0\npending_total  : 0\nvariable_paths : 0\nbitmap_cvg     : 0.11%\nunique_crashes : 0\nunique_hangs   : 1\nlast_path      : 1500111840\nlast_crash     : 0\nlast_hang      : 1500118462\nexec_timeout   : 20\nafl_banner     : fuzzer-master\nafl_version    : 1.85b\ncommand_line   : /home/skaramcheti/.virtualenvs/afl/bin/afl-unix/afl-fuzz -i /dev/shm/work/HIGHCOO/input -o /dev/shm/work/HIGHCOO/sync -m 4G -Q -M fuzzer-master -x /dev/shm/work/HIGHCOO/HIGHCOO.dict -- data/linux/processed-challenges/HIGHCOO/bin/HIGHCOO\n'
p127
I0
tp128
a(I7680
S'start_time     : 1500111840\nlast_update    : 1500119532\nfuzzer_pid     : 25289\ncycles_done    : 411\nexecs_done     : 6191145\nexecs_per_sec  : 835.39\npaths_total    : 3\npaths_favored  : 2\npaths_found    : 2\npaths_imported : 0\nmax_depth      : 2\ncur_path       : 2\npending_favs   : 0\npending_total  : 0\nvariable_paths : 0\nbitmap_cvg     : 0.11%\nunique_crashes : 0\nunique_hangs   : 1\nlast_path      : 1500111840\nlast_crash     : 0\nlast_hang      : 1500118462\nexec_timeout   : 20\nafl_banner     : fuzzer-master\nafl_version    : 1.85b\ncommand_line   : /home/skaramcheti/.virtualenvs/afl/bin/afl-unix/afl-fuzz -i /dev/shm/work/HIGHCOO/input -o /dev/shm/work/HIGHCOO/sync -m 4G -Q -M fuzzer-master -x /dev/shm/work/HIGHCOO/HIGHCOO.dict -- data/linux/processed-challenges/HIGHCOO/bin/HIGHCOO\n'
p129
I0
tp130
a(I7800
S'start_time     : 1500111840\nlast_update    : 1500119652\nfuzzer_pid     : 25289\ncycles_done    : 418\nexecs_done     : 6293369\nexecs_per_sec  : 843.54\npaths_total    : 3\npaths_favored  : 2\npaths_found    : 2\npaths_imported : 0\nmax_depth      : 2\ncur_path       : 1\npending_favs   : 0\npending_total  : 0\nvariable_paths : 0\nbitmap_cvg     : 0.11%\nunique_crashes : 0\nunique_hangs   : 1\nlast_path      : 1500111840\nlast_crash     : 0\nlast_hang      : 1500118462\nexec_timeout   : 20\nafl_banner     : fuzzer-master\nafl_version    : 1.85b\ncommand_line   : /home/skaramcheti/.virtualenvs/afl/bin/afl-unix/afl-fuzz -i /dev/shm/work/HIGHCOO/input -o /dev/shm/work/HIGHCOO/sync -m 4G -Q -M fuzzer-master -x /dev/shm/work/HIGHCOO/HIGHCOO.dict -- data/linux/processed-challenges/HIGHCOO/bin/HIGHCOO\n'
p131
I0
tp132
a(I7920
S'start_time     : 1500111840\nlast_update    : 1500119773\nfuzzer_pid     : 25289\ncycles_done    : 425\nexecs_done     : 6393497\nexecs_per_sec  : 839.77\npaths_total    : 3\npaths_favored  : 2\npaths_found    : 2\npaths_imported : 0\nmax_depth      : 2\ncur_path       : 0\npending_favs   : 0\npending_total  : 0\nvariable_paths : 0\nbitmap_cvg     : 0.11%\nunique_crashes : 0\nunique_hangs   : 2\nlast_path      : 1500111840\nlast_crash     : 0\nlast_hang      : 1500119715\nexec_timeout   : 20\nafl_banner     : fuzzer-master\nafl_version    : 1.85b\ncommand_line   : /home/skaramcheti/.virtualenvs/afl/bin/afl-unix/afl-fuzz -i /dev/shm/work/HIGHCOO/input -o /dev/shm/work/HIGHCOO/sync -m 4G -Q -M fuzzer-master -x /dev/shm/work/HIGHCOO/HIGHCOO.dict -- data/linux/processed-challenges/HIGHCOO/bin/HIGHCOO\n'
p133
I0
tp134
a(I8040
S'start_time     : 1500111840\nlast_update    : 1500119893\nfuzzer_pid     : 25289\ncycles_done    : 431\nexecs_done     : 6491193\nexecs_per_sec  : 809.61\npaths_total    : 3\npaths_favored  : 2\npaths_found    : 2\npaths_imported : 0\nmax_depth      : 2\ncur_path       : 2\npending_favs   : 0\npending_total  : 0\nvariable_paths : 0\nbitmap_cvg     : 0.11%\nunique_crashes : 0\nunique_hangs   : 2\nlast_path      : 1500111840\nlast_crash     : 0\nlast_hang      : 1500119715\nexec_timeout   : 20\nafl_banner     : fuzzer-master\nafl_version    : 1.85b\ncommand_line   : /home/skaramcheti/.virtualenvs/afl/bin/afl-unix/afl-fuzz -i /dev/shm/work/HIGHCOO/input -o /dev/shm/work/HIGHCOO/sync -m 4G -Q -M fuzzer-master -x /dev/shm/work/HIGHCOO/HIGHCOO.dict -- data/linux/processed-challenges/HIGHCOO/bin/HIGHCOO\n'
p135
I0
tp136
a(I8160
S'start_time     : 1500111840\nlast_update    : 1500120013\nfuzzer_pid     : 25289\ncycles_done    : 438\nexecs_done     : 6589249\nexecs_per_sec  : 805.65\npaths_total    : 3\npaths_favored  : 2\npaths_found    : 2\npaths_imported : 0\nmax_depth      : 2\ncur_path       : 0\npending_favs   : 0\npending_total  : 0\nvariable_paths : 0\nbitmap_cvg     : 0.11%\nunique_crashes : 0\nunique_hangs   : 2\nlast_path      : 1500111840\nlast_crash     : 0\nlast_hang      : 1500119715\nexec_timeout   : 20\nafl_banner     : fuzzer-master\nafl_version    : 1.85b\ncommand_line   : /home/skaramcheti/.virtualenvs/afl/bin/afl-unix/afl-fuzz -i /dev/shm/work/HIGHCOO/input -o /dev/shm/work/HIGHCOO/sync -m 4G -Q -M fuzzer-master -x /dev/shm/work/HIGHCOO/HIGHCOO.dict -- data/linux/processed-challenges/HIGHCOO/bin/HIGHCOO\n'
p137
I0
tp138
a(I8280
S'start_time     : 1500111840\nlast_update    : 1500120133\nfuzzer_pid     : 25289\ncycles_done    : 444\nexecs_done     : 6684439\nexecs_per_sec  : 796.66\npaths_total    : 3\npaths_favored  : 2\npaths_found    : 2\npaths_imported : 0\nmax_depth      : 2\ncur_path       : 1\npending_favs   : 0\npending_total  : 0\nvariable_paths : 0\nbitmap_cvg     : 0.11%\nunique_crashes : 0\nunique_hangs   : 2\nlast_path      : 1500111840\nlast_crash     : 0\nlast_hang      : 1500119715\nexec_timeout   : 20\nafl_banner     : fuzzer-master\nafl_version    : 1.85b\ncommand_line   : /home/skaramcheti/.virtualenvs/afl/bin/afl-unix/afl-fuzz -i /dev/shm/work/HIGHCOO/input -o /dev/shm/work/HIGHCOO/sync -m 4G -Q -M fuzzer-master -x /dev/shm/work/HIGHCOO/HIGHCOO.dict -- data/linux/processed-challenges/HIGHCOO/bin/HIGHCOO\n'
p139
I0
tp140
a(I8400
S'start_time     : 1500111840\nlast_update    : 1500120253\nfuzzer_pid     : 25289\ncycles_done    : 451\nexecs_done     : 6783353\nexecs_per_sec  : 817.02\npaths_total    : 3\npaths_favored  : 2\npaths_found    : 2\npaths_imported : 0\nmax_depth      : 2\ncur_path       : 0\npending_favs   : 0\npending_total  : 0\nvariable_paths : 0\nbitmap_cvg     : 0.11%\nunique_crashes : 0\nunique_hangs   : 2\nlast_path      : 1500111840\nlast_crash     : 0\nlast_hang      : 1500119715\nexec_timeout   : 20\nafl_banner     : fuzzer-master\nafl_version    : 1.85b\ncommand_line   : /home/skaramcheti/.virtualenvs/afl/bin/afl-unix/afl-fuzz -i /dev/shm/work/HIGHCOO/input -o /dev/shm/work/HIGHCOO/sync -m 4G -Q -M fuzzer-master -x /dev/shm/work/HIGHCOO/HIGHCOO.dict -- data/linux/processed-challenges/HIGHCOO/bin/HIGHCOO\n'
p141
I0
tp142
a(I8520
S'start_time     : 1500111840\nlast_update    : 1500120374\nfuzzer_pid     : 25289\ncycles_done    : 457\nexecs_done     : 6880825\nexecs_per_sec  : 810.62\npaths_total    : 3\npaths_favored  : 2\npaths_found    : 2\npaths_imported : 0\nmax_depth      : 2\ncur_path       : 2\npending_favs   : 0\npending_total  : 0\nvariable_paths : 0\nbitmap_cvg     : 0.11%\nunique_crashes : 0\nunique_hangs   : 2\nlast_path      : 1500111840\nlast_crash     : 0\nlast_hang      : 1500119715\nexec_timeout   : 20\nafl_banner     : fuzzer-master\nafl_version    : 1.85b\ncommand_line   : /home/skaramcheti/.virtualenvs/afl/bin/afl-unix/afl-fuzz -i /dev/shm/work/HIGHCOO/input -o /dev/shm/work/HIGHCOO/sync -m 4G -Q -M fuzzer-master -x /dev/shm/work/HIGHCOO/HIGHCOO.dict -- data/linux/processed-challenges/HIGHCOO/bin/HIGHCOO\n'
p143
I0
tp144
a(I8640
S'start_time     : 1500111840\nlast_update    : 1500120494\nfuzzer_pid     : 25289\ncycles_done    : 464\nexecs_done     : 6978193\nexecs_per_sec  : 820.60\npaths_total    : 3\npaths_favored  : 2\npaths_found    : 2\npaths_imported : 0\nmax_depth      : 2\ncur_path       : 0\npending_favs   : 0\npending_total  : 0\nvariable_paths : 0\nbitmap_cvg     : 0.11%\nunique_crashes : 0\nunique_hangs   : 2\nlast_path      : 1500111840\nlast_crash     : 0\nlast_hang      : 1500119715\nexec_timeout   : 20\nafl_banner     : fuzzer-master\nafl_version    : 1.85b\ncommand_line   : /home/skaramcheti/.virtualenvs/afl/bin/afl-unix/afl-fuzz -i /dev/shm/work/HIGHCOO/input -o /dev/shm/work/HIGHCOO/sync -m 4G -Q -M fuzzer-master -x /dev/shm/work/HIGHCOO/HIGHCOO.dict -- data/linux/processed-challenges/HIGHCOO/bin/HIGHCOO\n'
p145
I0
tp146
a(I8760
S'start_time     : 1500111840\nlast_update    : 1500120614\nfuzzer_pid     : 25289\ncycles_done    : 470\nexecs_done     : 7075545\nexecs_per_sec  : 818.90\npaths_total    : 3\npaths_favored  : 2\npaths_found    : 2\npaths_imported : 0\nmax_depth      : 2\ncur_path       : 1\npending_favs   : 0\npending_total  : 0\nvariable_paths : 0\nbitmap_cvg     : 0.11%\nunique_crashes : 0\nunique_hangs   : 3\nlast_path      : 1500111840\nlast_crash     : 0\nlast_hang      : 1500120579\nexec_timeout   : 20\nafl_banner     : fuzzer-master\nafl_version    : 1.85b\ncommand_line   : /home/skaramcheti/.virtualenvs/afl/bin/afl-unix/afl-fuzz -i /dev/shm/work/HIGHCOO/input -o /dev/shm/work/HIGHCOO/sync -m 4G -Q -M fuzzer-master -x /dev/shm/work/HIGHCOO/HIGHCOO.dict -- data/linux/processed-challenges/HIGHCOO/bin/HIGHCOO\n'
p147
I0
tp148
a(I8880
S'start_time     : 1500111840\nlast_update    : 1500120734\nfuzzer_pid     : 25289\ncycles_done    : 477\nexecs_done     : 7172281\nexecs_per_sec  : 812.09\npaths_total    : 3\npaths_favored  : 2\npaths_found    : 2\npaths_imported : 0\nmax_depth      : 2\ncur_path       : 0\npending_favs   : 0\npending_total  : 0\nvariable_paths : 0\nbitmap_cvg     : 0.11%\nunique_crashes : 0\nunique_hangs   : 4\nlast_path      : 1500111840\nlast_crash     : 0\nlast_hang      : 1500120653\nexec_timeout   : 20\nafl_banner     : fuzzer-master\nafl_version    : 1.85b\ncommand_line   : /home/skaramcheti/.virtualenvs/afl/bin/afl-unix/afl-fuzz -i /dev/shm/work/HIGHCOO/input -o /dev/shm/work/HIGHCOO/sync -m 4G -Q -M fuzzer-master -x /dev/shm/work/HIGHCOO/HIGHCOO.dict -- data/linux/processed-challenges/HIGHCOO/bin/HIGHCOO\n'
p149
I0
tp150
a(I9000
S'start_time     : 1500111840\nlast_update    : 1500120854\nfuzzer_pid     : 25289\ncycles_done    : 483\nexecs_done     : 7269169\nexecs_per_sec  : 791.65\npaths_total    : 3\npaths_favored  : 2\npaths_found    : 2\npaths_imported : 0\nmax_depth      : 2\ncur_path       : 1\npending_favs   : 0\npending_total  : 0\nvariable_paths : 0\nbitmap_cvg     : 0.11%\nunique_crashes : 0\nunique_hangs   : 4\nlast_path      : 1500111840\nlast_crash     : 0\nlast_hang      : 1500120653\nexec_timeout   : 20\nafl_banner     : fuzzer-master\nafl_version    : 1.85b\ncommand_line   : /home/skaramcheti/.virtualenvs/afl/bin/afl-unix/afl-fuzz -i /dev/shm/work/HIGHCOO/input -o /dev/shm/work/HIGHCOO/sync -m 4G -Q -M fuzzer-master -x /dev/shm/work/HIGHCOO/HIGHCOO.dict -- data/linux/processed-challenges/HIGHCOO/bin/HIGHCOO\n'
p151
I0
tp152
a(I9120
S'start_time     : 1500111840\nlast_update    : 1500120974\nfuzzer_pid     : 25289\ncycles_done    : 490\nexecs_done     : 7366244\nexecs_per_sec  : 778.72\npaths_total    : 3\npaths_favored  : 2\npaths_found    : 2\npaths_imported : 0\nmax_depth      : 2\ncur_path       : 0\npending_favs   : 0\npending_total  : 0\nvariable_paths : 0\nbitmap_cvg     : 0.11%\nunique_crashes : 0\nunique_hangs   : 4\nlast_path      : 1500111840\nlast_crash     : 0\nlast_hang      : 1500120653\nexec_timeout   : 20\nafl_banner     : fuzzer-master\nafl_version    : 1.85b\ncommand_line   : /home/skaramcheti/.virtualenvs/afl/bin/afl-unix/afl-fuzz -i /dev/shm/work/HIGHCOO/input -o /dev/shm/work/HIGHCOO/sync -m 4G -Q -M fuzzer-master -x /dev/shm/work/HIGHCOO/HIGHCOO.dict -- data/linux/processed-challenges/HIGHCOO/bin/HIGHCOO\n'
p153
I0
tp154
a(I9240
S'start_time     : 1500111840\nlast_update    : 1500121095\nfuzzer_pid     : 25289\ncycles_done    : 496\nexecs_done     : 7463289\nexecs_per_sec  : 821.64\npaths_total    : 3\npaths_favored  : 2\npaths_found    : 2\npaths_imported : 0\nmax_depth      : 2\ncur_path       : 1\npending_favs   : 0\npending_total  : 0\nvariable_paths : 0\nbitmap_cvg     : 0.11%\nunique_crashes : 0\nunique_hangs   : 4\nlast_path      : 1500111840\nlast_crash     : 0\nlast_hang      : 1500120653\nexec_timeout   : 20\nafl_banner     : fuzzer-master\nafl_version    : 1.85b\ncommand_line   : /home/skaramcheti/.virtualenvs/afl/bin/afl-unix/afl-fuzz -i /dev/shm/work/HIGHCOO/input -o /dev/shm/work/HIGHCOO/sync -m 4G -Q -M fuzzer-master -x /dev/shm/work/HIGHCOO/HIGHCOO.dict -- data/linux/processed-challenges/HIGHCOO/bin/HIGHCOO\n'
p155
I0
tp156
a(I9360
S'start_time     : 1500111840\nlast_update    : 1500121155\nfuzzer_pid     : 25289\ncycles_done    : 499\nexecs_done     : 7511609\nexecs_per_sec  : 802.16\npaths_total    : 3\npaths_favored  : 2\npaths_found    : 2\npaths_imported : 0\nmax_depth      : 2\ncur_path       : 2\npending_favs   : 0\npending_total  : 0\nvariable_paths : 0\nbitmap_cvg     : 0.11%\nunique_crashes : 0\nunique_hangs   : 4\nlast_path      : 1500111840\nlast_crash     : 0\nlast_hang      : 1500120653\nexec_timeout   : 20\nafl_banner     : fuzzer-master\nafl_version    : 1.85b\ncommand_line   : /home/skaramcheti/.virtualenvs/afl/bin/afl-unix/afl-fuzz -i /dev/shm/work/HIGHCOO/input -o /dev/shm/work/HIGHCOO/sync -m 4G -Q -M fuzzer-master -x /dev/shm/work/HIGHCOO/HIGHCOO.dict -- data/linux/processed-challenges/HIGHCOO/bin/HIGHCOO\n'
p157
I0
tp158
a(I9480
S'start_time     : 1500111840\nlast_update    : 1500121275\nfuzzer_pid     : 25289\ncycles_done    : 506\nexecs_done     : 7609413\nexecs_per_sec  : 847.61\npaths_total    : 3\npaths_favored  : 2\npaths_found    : 2\npaths_imported : 0\nmax_depth      : 2\ncur_path       : 0\npending_favs   : 0\npending_total  : 0\nvariable_paths : 0\nbitmap_cvg     : 0.11%\nunique_crashes : 0\nunique_hangs   : 4\nlast_path      : 1500111840\nlast_crash     : 0\nlast_hang      : 1500120653\nexec_timeout   : 20\nafl_banner     : fuzzer-master\nafl_version    : 1.85b\ncommand_line   : /home/skaramcheti/.virtualenvs/afl/bin/afl-unix/afl-fuzz -i /dev/shm/work/HIGHCOO/input -o /dev/shm/work/HIGHCOO/sync -m 4G -Q -M fuzzer-master -x /dev/shm/work/HIGHCOO/HIGHCOO.dict -- data/linux/processed-challenges/HIGHCOO/bin/HIGHCOO\n'
p159
I0
tp160
a(I9600
S'start_time     : 1500111840\nlast_update    : 1500121395\nfuzzer_pid     : 25289\ncycles_done    : 512\nexecs_done     : 7707569\nexecs_per_sec  : 811.20\npaths_total    : 3\npaths_favored  : 2\npaths_found    : 2\npaths_imported : 0\nmax_depth      : 2\ncur_path       : 2\npending_favs   : 0\npending_total  : 0\nvariable_paths : 0\nbitmap_cvg     : 0.11%\nunique_crashes : 0\nunique_hangs   : 4\nlast_path      : 1500111840\nlast_crash     : 0\nlast_hang      : 1500120653\nexec_timeout   : 20\nafl_banner     : fuzzer-master\nafl_version    : 1.85b\ncommand_line   : /home/skaramcheti/.virtualenvs/afl/bin/afl-unix/afl-fuzz -i /dev/shm/work/HIGHCOO/input -o /dev/shm/work/HIGHCOO/sync -m 4G -Q -M fuzzer-master -x /dev/shm/work/HIGHCOO/HIGHCOO.dict -- data/linux/processed-challenges/HIGHCOO/bin/HIGHCOO\n'
p161
I0
tp162
a(I9720
S'start_time     : 1500111840\nlast_update    : 1500121515\nfuzzer_pid     : 25289\ncycles_done    : 519\nexecs_done     : 7807201\nexecs_per_sec  : 818.59\npaths_total    : 3\npaths_favored  : 2\npaths_found    : 2\npaths_imported : 0\nmax_depth      : 2\ncur_path       : 1\npending_favs   : 0\npending_total  : 0\nvariable_paths : 0\nbitmap_cvg     : 0.11%\nunique_crashes : 0\nunique_hangs   : 4\nlast_path      : 1500111840\nlast_crash     : 0\nlast_hang      : 1500120653\nexec_timeout   : 20\nafl_banner     : fuzzer-master\nafl_version    : 1.85b\ncommand_line   : /home/skaramcheti/.virtualenvs/afl/bin/afl-unix/afl-fuzz -i /dev/shm/work/HIGHCOO/input -o /dev/shm/work/HIGHCOO/sync -m 4G -Q -M fuzzer-master -x /dev/shm/work/HIGHCOO/HIGHCOO.dict -- data/linux/processed-challenges/HIGHCOO/bin/HIGHCOO\n'
p163
I0
tp164
a(I9840
S'start_time     : 1500111840\nlast_update    : 1500121635\nfuzzer_pid     : 25289\ncycles_done    : 525\nexecs_done     : 7904153\nexecs_per_sec  : 847.49\npaths_total    : 3\npaths_favored  : 2\npaths_found    : 2\npaths_imported : 0\nmax_depth      : 2\ncur_path       : 2\npending_favs   : 0\npending_total  : 0\nvariable_paths : 0\nbitmap_cvg     : 0.11%\nunique_crashes : 0\nunique_hangs   : 4\nlast_path      : 1500111840\nlast_crash     : 0\nlast_hang      : 1500120653\nexec_timeout   : 20\nafl_banner     : fuzzer-master\nafl_version    : 1.85b\ncommand_line   : /home/skaramcheti/.virtualenvs/afl/bin/afl-unix/afl-fuzz -i /dev/shm/work/HIGHCOO/input -o /dev/shm/work/HIGHCOO/sync -m 4G -Q -M fuzzer-master -x /dev/shm/work/HIGHCOO/HIGHCOO.dict -- data/linux/processed-challenges/HIGHCOO/bin/HIGHCOO\n'
p165
I0
tp166
a(I9960
S'start_time     : 1500111840\nlast_update    : 1500121756\nfuzzer_pid     : 25289\ncycles_done    : 532\nexecs_done     : 8002473\nexecs_per_sec  : 817.73\npaths_total    : 3\npaths_favored  : 2\npaths_found    : 2\npaths_imported : 0\nmax_depth      : 2\ncur_path       : 1\npending_favs   : 0\npending_total  : 0\nvariable_paths : 0\nbitmap_cvg     : 0.11%\nunique_crashes : 0\nunique_hangs   : 5\nlast_path      : 1500111840\nlast_crash     : 0\nlast_hang      : 1500121661\nexec_timeout   : 20\nafl_banner     : fuzzer-master\nafl_version    : 1.85b\ncommand_line   : /home/skaramcheti/.virtualenvs/afl/bin/afl-unix/afl-fuzz -i /dev/shm/work/HIGHCOO/input -o /dev/shm/work/HIGHCOO/sync -m 4G -Q -M fuzzer-master -x /dev/shm/work/HIGHCOO/HIGHCOO.dict -- data/linux/processed-challenges/HIGHCOO/bin/HIGHCOO\n'
p167
I0
tp168
a(I10080
S'start_time     : 1500111840\nlast_update    : 1500121876\nfuzzer_pid     : 25289\ncycles_done    : 539\nexecs_done     : 8101353\nexecs_per_sec  : 836.66\npaths_total    : 3\npaths_favored  : 2\npaths_found    : 2\npaths_imported : 0\nmax_depth      : 2\ncur_path       : 0\npending_favs   : 0\npending_total  : 0\nvariable_paths : 0\nbitmap_cvg     : 0.11%\nunique_crashes : 0\nunique_hangs   : 5\nlast_path      : 1500111840\nlast_crash     : 0\nlast_hang      : 1500121661\nexec_timeout   : 20\nafl_banner     : fuzzer-master\nafl_version    : 1.85b\ncommand_line   : /home/skaramcheti/.virtualenvs/afl/bin/afl-unix/afl-fuzz -i /dev/shm/work/HIGHCOO/input -o /dev/shm/work/HIGHCOO/sync -m 4G -Q -M fuzzer-master -x /dev/shm/work/HIGHCOO/HIGHCOO.dict -- data/linux/processed-challenges/HIGHCOO/bin/HIGHCOO\n'
p169
I0
tp170
a(I10200
S'start_time     : 1500111840\nlast_update    : 1500121996\nfuzzer_pid     : 25289\ncycles_done    : 545\nexecs_done     : 8199793\nexecs_per_sec  : 827.70\npaths_total    : 3\npaths_favored  : 2\npaths_found    : 2\npaths_imported : 0\nmax_depth      : 2\ncur_path       : 1\npending_favs   : 0\npending_total  : 0\nvariable_paths : 0\nbitmap_cvg     : 0.11%\nunique_crashes : 0\nunique_hangs   : 5\nlast_path      : 1500111840\nlast_crash     : 0\nlast_hang      : 1500121661\nexec_timeout   : 20\nafl_banner     : fuzzer-master\nafl_version    : 1.85b\ncommand_line   : /home/skaramcheti/.virtualenvs/afl/bin/afl-unix/afl-fuzz -i /dev/shm/work/HIGHCOO/input -o /dev/shm/work/HIGHCOO/sync -m 4G -Q -M fuzzer-master -x /dev/shm/work/HIGHCOO/HIGHCOO.dict -- data/linux/processed-challenges/HIGHCOO/bin/HIGHCOO\n'
p171
I0
tp172
a(I10320
S'start_time     : 1500111840\nlast_update    : 1500122116\nfuzzer_pid     : 25289\ncycles_done    : 552\nexecs_done     : 8301017\nexecs_per_sec  : 817.03\npaths_total    : 3\npaths_favored  : 2\npaths_found    : 2\npaths_imported : 0\nmax_depth      : 2\ncur_path       : 1\npending_favs   : 0\npending_total  : 0\nvariable_paths : 0\nbitmap_cvg     : 0.11%\nunique_crashes : 0\nunique_hangs   : 5\nlast_path      : 1500111840\nlast_crash     : 0\nlast_hang      : 1500121661\nexec_timeout   : 20\nafl_banner     : fuzzer-master\nafl_version    : 1.85b\ncommand_line   : /home/skaramcheti/.virtualenvs/afl/bin/afl-unix/afl-fuzz -i /dev/shm/work/HIGHCOO/input -o /dev/shm/work/HIGHCOO/sync -m 4G -Q -M fuzzer-master -x /dev/shm/work/HIGHCOO/HIGHCOO.dict -- data/linux/processed-challenges/HIGHCOO/bin/HIGHCOO\n'
p173
I0
tp174
a(I10440
S'start_time     : 1500111840\nlast_update    : 1500122237\nfuzzer_pid     : 25289\ncycles_done    : 559\nexecs_done     : 8401234\nexecs_per_sec  : 843.55\npaths_total    : 3\npaths_favored  : 2\npaths_found    : 2\npaths_imported : 0\nmax_depth      : 2\ncur_path       : 0\npending_favs   : 0\npending_total  : 0\nvariable_paths : 0\nbitmap_cvg     : 0.11%\nunique_crashes : 0\nunique_hangs   : 5\nlast_path      : 1500111840\nlast_crash     : 0\nlast_hang      : 1500121661\nexec_timeout   : 20\nafl_banner     : fuzzer-master\nafl_version    : 1.85b\ncommand_line   : /home/skaramcheti/.virtualenvs/afl/bin/afl-unix/afl-fuzz -i /dev/shm/work/HIGHCOO/input -o /dev/shm/work/HIGHCOO/sync -m 4G -Q -M fuzzer-master -x /dev/shm/work/HIGHCOO/HIGHCOO.dict -- data/linux/processed-challenges/HIGHCOO/bin/HIGHCOO\n'
p175
I0
tp176
a(I10560
S'start_time     : 1500111840\nlast_update    : 1500122357\nfuzzer_pid     : 25289\ncycles_done    : 565\nexecs_done     : 8501097\nexecs_per_sec  : 804.10\npaths_total    : 3\npaths_favored  : 2\npaths_found    : 2\npaths_imported : 0\nmax_depth      : 2\ncur_path       : 2\npending_favs   : 0\npending_total  : 0\nvariable_paths : 0\nbitmap_cvg     : 0.11%\nunique_crashes : 0\nunique_hangs   : 5\nlast_path      : 1500111840\nlast_crash     : 0\nlast_hang      : 1500121661\nexec_timeout   : 20\nafl_banner     : fuzzer-master\nafl_version    : 1.85b\ncommand_line   : /home/skaramcheti/.virtualenvs/afl/bin/afl-unix/afl-fuzz -i /dev/shm/work/HIGHCOO/input -o /dev/shm/work/HIGHCOO/sync -m 4G -Q -M fuzzer-master -x /dev/shm/work/HIGHCOO/HIGHCOO.dict -- data/linux/processed-challenges/HIGHCOO/bin/HIGHCOO\n'
p177
I0
tp178
a(I10680
S'start_time     : 1500111840\nlast_update    : 1500122477\nfuzzer_pid     : 25289\ncycles_done    : 572\nexecs_done     : 8601865\nexecs_per_sec  : 834.36\npaths_total    : 3\npaths_favored  : 2\npaths_found    : 2\npaths_imported : 0\nmax_depth      : 2\ncur_path       : 1\npending_favs   : 0\npending_total  : 0\nvariable_paths : 0\nbitmap_cvg     : 0.11%\nunique_crashes : 0\nunique_hangs   : 5\nlast_path      : 1500111840\nlast_crash     : 0\nlast_hang      : 1500121661\nexec_timeout   : 20\nafl_banner     : fuzzer-master\nafl_version    : 1.85b\ncommand_line   : /home/skaramcheti/.virtualenvs/afl/bin/afl-unix/afl-fuzz -i /dev/shm/work/HIGHCOO/input -o /dev/shm/work/HIGHCOO/sync -m 4G -Q -M fuzzer-master -x /dev/shm/work/HIGHCOO/HIGHCOO.dict -- data/linux/processed-challenges/HIGHCOO/bin/HIGHCOO\n'
p179
I0
tp180
a.