(lp0
(I0
NI1
tp1
a(I120
NI0
tp2
a(I240
NI0
tp3
a(I360
NI0
tp4
a(I480
NI0
tp5
a(I600
NI0
tp6
a(I720
NI0
tp7
a(I840
NI0
tp8
a(I960
NI0
tp9
a(I1080
NI0
tp10
a(I1200
NI0
tp11
a(I1320
NI0
tp12
a(I1440
NI0
tp13
a(I1560
NI0
tp14
a(I1680
NI0
tp15
a(I1800
NI0
tp16
a(I1920
NI0
tp17
a(I2040
NI0
tp18
a(I2160
NI0
tp19
a(I2280
NI0
tp20
a(I2400
NI0
tp21
a(I2520
NI0
tp22
a(I2640
NI0
tp23
a(I2760
NI0
tp24
a(I2880
NI0
tp25
a(I3000
NI0
tp26
a(I3120
NI0
tp27
a(I3240
NI0
tp28
a(I3360
NI0
tp29
a(I3480
NI0
tp30
a(I3600
NI0
tp31
a(I3720
NI0
tp32
a(I3840
NI0
tp33
a(I3960
NI0
tp34
a(I4080
NI0
tp35
a(I4200
NI0
tp36
a(I4320
NI0
tp37
a(I4440
NI0
tp38
a(I4560
NI0
tp39
a(I4680
NI0
tp40
a(I4800
NI0
tp41
a(I4920
NI0
tp42
a(I5040
NI0
tp43
a(I5160
NI0
tp44
a(I5280
NI0
tp45
a(I5400
NI0
tp46
a(I5520
NI0
tp47
a(I5640
NI0
tp48
a(I5760
NI0
tp49
a(I5880
NI0
tp50
a(I6000
NI0
tp51
a(I6120
NI0
tp52
a(I6240
NI0
tp53
a(I6360
NI0
tp54
a(I6480
NI0
tp55
a(I6600
NI0
tp56
a(I6720
NI0
tp57
a(I6840
NI0
tp58
a(I6960
NI0
tp59
a(I7080
NI0
tp60
a(I7200
NI0
tp61
a(I7320
NI0
tp62
a(I7440
NI0
tp63
a(I7560
NI0
tp64
a(I7680
NI0
tp65
a(I7800
NI0
tp66
a(I7920
NI0
tp67
a(I8040
NI0
tp68
a(I8160
NI0
tp69
a(I8280
NI0
tp70
a(I8400
NI0
tp71
a(I8520
NI0
tp72
a(I8640
NI0
tp73
a(I8760
NI0
tp74
a(I8880
NI0
tp75
a(I9000
NI0
tp76
a(I9120
NI0
tp77
a(I9240
NI0
tp78
a(I9360
NI0
tp79
a(I9480
NI0
tp80
a(I9600
NI0
tp81
a(I9720
NI0
tp82
a(I9840
NI0
tp83
a(I9960
NI0
tp84
a(I10080
NI0
tp85
a(I10200
NI0
tp86
a(I10320
NI0
tp87
a(I10440
NI0
tp88
a(I10560
NI0
tp89
a(I10680
NI0
tp90
a.