(lp0
(I0
S'start_time     : 1500220308\nlast_update    : 1500220308\nfuzzer_pid     : 31161\ncycles_done    : 0\nexecs_done     : 10\nexecs_per_sec  : 161.29\npaths_total    : 1\npaths_favored  : 1\npaths_found    : 0\npaths_imported : 0\nmax_depth      : 1\ncur_path       : 0\npending_favs   : 1\npending_total  : 1\nvariable_paths : 0\nbitmap_cvg     : 0.15%\nunique_crashes : 0\nunique_hangs   : 0\nlast_path      : 0\nlast_crash     : 0\nlast_hang      : 0\nexec_timeout   : 20\nafl_banner     : fuzzer-master\nafl_version    : 1.85b\ncommand_line   : /home/skaramcheti/.virtualenvs/afl/bin/afl-unix/afl-fuzz -i /dev/shm/work/Thermal_Controller_v3/input -o /dev/shm/work/Thermal_Controller_v3/sync -m 4G -Q -M fuzzer-master -x /dev/shm/work/Thermal_Controller_v3/Thermal_Controller_v3.dict -- data/linux/processed-challenges/Thermal_Controller_v3/bin/Thermal_Controller_v3\n'
p1
I15
tp2
a(I120
S'start_time     : 1500220308\nlast_update    : 1500220429\nfuzzer_pid     : 31161\ncycles_done    : 0\nexecs_done     : 79880\nexecs_per_sec  : 651.65\npaths_total    : 17\npaths_favored  : 1\npaths_found    : 16\npaths_imported : 0\nmax_depth      : 2\ncur_path       : 0\npending_favs   : 1\npending_total  : 17\nvariable_paths : 0\nbitmap_cvg     : 0.16%\nunique_crashes : 0\nunique_hangs   : 0\nlast_path      : 1500220325\nlast_crash     : 0\nlast_hang      : 0\nexec_timeout   : 20\nafl_banner     : fuzzer-master\nafl_version    : 1.85b\ncommand_line   : /home/skaramcheti/.virtualenvs/afl/bin/afl-unix/afl-fuzz -i /dev/shm/work/Thermal_Controller_v3/input -o /dev/shm/work/Thermal_Controller_v3/sync -m 4G -Q -M fuzzer-master -x /dev/shm/work/Thermal_Controller_v3/Thermal_Controller_v3.dict -- data/linux/processed-challenges/Thermal_Controller_v3/bin/Thermal_Controller_v3\n'
p3
I2
tp4
a(I240
S'start_time     : 1500220308\nlast_update    : 1500220549\nfuzzer_pid     : 31161\ncycles_done    : 0\nexecs_done     : 161096\nexecs_per_sec  : 705.51\npaths_total    : 24\npaths_favored  : 4\npaths_found    : 23\npaths_imported : 0\nmax_depth      : 3\ncur_path       : 16\npending_favs   : 1\npending_total  : 20\nvariable_paths : 0\nbitmap_cvg     : 0.21%\nunique_crashes : 0\nunique_hangs   : 0\nlast_path      : 1500220482\nlast_crash     : 0\nlast_hang      : 0\nexec_timeout   : 20\nafl_banner     : fuzzer-master\nafl_version    : 1.85b\ncommand_line   : /home/skaramcheti/.virtualenvs/afl/bin/afl-unix/afl-fuzz -i /dev/shm/work/Thermal_Controller_v3/input -o /dev/shm/work/Thermal_Controller_v3/sync -m 4G -Q -M fuzzer-master -x /dev/shm/work/Thermal_Controller_v3/Thermal_Controller_v3.dict -- data/linux/processed-challenges/Thermal_Controller_v3/bin/Thermal_Controller_v3\n'
p5
I7
tp6
a(I360
S'start_time     : 1500220308\nlast_update    : 1500220669\nfuzzer_pid     : 31161\ncycles_done    : 0\nexecs_done     : 244570\nexecs_per_sec  : 716.37\npaths_total    : 26\npaths_favored  : 4\npaths_found    : 25\npaths_imported : 0\nmax_depth      : 3\ncur_path       : 16\npending_favs   : 1\npending_total  : 22\nvariable_paths : 0\nbitmap_cvg     : 0.21%\nunique_crashes : 0\nunique_hangs   : 0\nlast_path      : 1500220562\nlast_crash     : 0\nlast_hang      : 0\nexec_timeout   : 20\nafl_banner     : fuzzer-master\nafl_version    : 1.85b\ncommand_line   : /home/skaramcheti/.virtualenvs/afl/bin/afl-unix/afl-fuzz -i /dev/shm/work/Thermal_Controller_v3/input -o /dev/shm/work/Thermal_Controller_v3/sync -m 4G -Q -M fuzzer-master -x /dev/shm/work/Thermal_Controller_v3/Thermal_Controller_v3.dict -- data/linux/processed-challenges/Thermal_Controller_v3/bin/Thermal_Controller_v3\n'
p7
I2
tp8
a(I480
S'start_time     : 1500220308\nlast_update    : 1500220789\nfuzzer_pid     : 31161\ncycles_done    : 0\nexecs_done     : 327331\nexecs_per_sec  : 672.23\npaths_total    : 37\npaths_favored  : 9\npaths_found    : 36\npaths_imported : 0\nmax_depth      : 4\ncur_path       : 20\npending_favs   : 7\npending_total  : 30\nvariable_paths : 0\nbitmap_cvg     : 0.22%\nunique_crashes : 0\nunique_hangs   : 0\nlast_path      : 1500220780\nlast_crash     : 0\nlast_hang      : 0\nexec_timeout   : 20\nafl_banner     : fuzzer-master\nafl_version    : 1.85b\ncommand_line   : /home/skaramcheti/.virtualenvs/afl/bin/afl-unix/afl-fuzz -i /dev/shm/work/Thermal_Controller_v3/input -o /dev/shm/work/Thermal_Controller_v3/sync -m 4G -Q -M fuzzer-master -x /dev/shm/work/Thermal_Controller_v3/Thermal_Controller_v3.dict -- data/linux/processed-challenges/Thermal_Controller_v3/bin/Thermal_Controller_v3\n'
p9
I11
tp10
a(I600
S'start_time     : 1500220308\nlast_update    : 1500220909\nfuzzer_pid     : 31161\ncycles_done    : 0\nexecs_done     : 409410\nexecs_per_sec  : 687.78\npaths_total    : 38\npaths_favored  : 9\npaths_found    : 37\npaths_imported : 0\nmax_depth      : 4\ncur_path       : 20\npending_favs   : 7\npending_total  : 31\nvariable_paths : 0\nbitmap_cvg     : 0.22%\nunique_crashes : 0\nunique_hangs   : 0\nlast_path      : 1500220880\nlast_crash     : 0\nlast_hang      : 0\nexec_timeout   : 20\nafl_banner     : fuzzer-master\nafl_version    : 1.85b\ncommand_line   : /home/skaramcheti/.virtualenvs/afl/bin/afl-unix/afl-fuzz -i /dev/shm/work/Thermal_Controller_v3/input -o /dev/shm/work/Thermal_Controller_v3/sync -m 4G -Q -M fuzzer-master -x /dev/shm/work/Thermal_Controller_v3/Thermal_Controller_v3.dict -- data/linux/processed-challenges/Thermal_Controller_v3/bin/Thermal_Controller_v3\n'
p11
I1
tp12
a(I720
S'start_time     : 1500220308\nlast_update    : 1500221029\nfuzzer_pid     : 31161\ncycles_done    : 0\nexecs_done     : 493707\nexecs_per_sec  : 699.68\npaths_total    : 39\npaths_favored  : 9\npaths_found    : 38\npaths_imported : 0\nmax_depth      : 4\ncur_path       : 24\npending_favs   : 6\npending_total  : 30\nvariable_paths : 0\nbitmap_cvg     : 0.22%\nunique_crashes : 0\nunique_hangs   : 1\nlast_path      : 1500220964\nlast_crash     : 0\nlast_hang      : 1500220922\nexec_timeout   : 20\nafl_banner     : fuzzer-master\nafl_version    : 1.85b\ncommand_line   : /home/skaramcheti/.virtualenvs/afl/bin/afl-unix/afl-fuzz -i /dev/shm/work/Thermal_Controller_v3/input -o /dev/shm/work/Thermal_Controller_v3/sync -m 4G -Q -M fuzzer-master -x /dev/shm/work/Thermal_Controller_v3/Thermal_Controller_v3.dict -- data/linux/processed-challenges/Thermal_Controller_v3/bin/Thermal_Controller_v3\n'
p13
I1
tp14
a(I840
S'start_time     : 1500220308\nlast_update    : 1500221149\nfuzzer_pid     : 31161\ncycles_done    : 0\nexecs_done     : 576494\nexecs_per_sec  : 682.52\npaths_total    : 40\npaths_favored  : 9\npaths_found    : 39\npaths_imported : 0\nmax_depth      : 5\ncur_path       : 37\npending_favs   : 1\npending_total  : 26\nvariable_paths : 0\nbitmap_cvg     : 0.22%\nunique_crashes : 0\nunique_hangs   : 1\nlast_path      : 1500221130\nlast_crash     : 0\nlast_hang      : 1500220922\nexec_timeout   : 20\nafl_banner     : fuzzer-master\nafl_version    : 1.85b\ncommand_line   : /home/skaramcheti/.virtualenvs/afl/bin/afl-unix/afl-fuzz -i /dev/shm/work/Thermal_Controller_v3/input -o /dev/shm/work/Thermal_Controller_v3/sync -m 4G -Q -M fuzzer-master -x /dev/shm/work/Thermal_Controller_v3/Thermal_Controller_v3.dict -- data/linux/processed-challenges/Thermal_Controller_v3/bin/Thermal_Controller_v3\n'
p15
I1
tp16
a(I960
S'start_time     : 1500220308\nlast_update    : 1500221270\nfuzzer_pid     : 31161\ncycles_done    : 1\nexecs_done     : 658895\nexecs_per_sec  : 695.31\npaths_total    : 40\npaths_favored  : 9\npaths_found    : 39\npaths_imported : 0\nmax_depth      : 5\ncur_path       : 23\npending_favs   : 0\npending_total  : 21\nvariable_paths : 0\nbitmap_cvg     : 0.22%\nunique_crashes : 0\nunique_hangs   : 1\nlast_path      : 1500221130\nlast_crash     : 0\nlast_hang      : 1500220922\nexec_timeout   : 20\nafl_banner     : fuzzer-master\nafl_version    : 1.85b\ncommand_line   : /home/skaramcheti/.virtualenvs/afl/bin/afl-unix/afl-fuzz -i /dev/shm/work/Thermal_Controller_v3/input -o /dev/shm/work/Thermal_Controller_v3/sync -m 4G -Q -M fuzzer-master -x /dev/shm/work/Thermal_Controller_v3/Thermal_Controller_v3.dict -- data/linux/processed-challenges/Thermal_Controller_v3/bin/Thermal_Controller_v3\n'
p17
I0
tp18
a(I1080
S'start_time     : 1500220308\nlast_update    : 1500221390\nfuzzer_pid     : 31161\ncycles_done    : 1\nexecs_done     : 743292\nexecs_per_sec  : 712.63\npaths_total    : 42\npaths_favored  : 9\npaths_found    : 41\npaths_imported : 0\nmax_depth      : 5\ncur_path       : 32\npending_favs   : 0\npending_total  : 21\nvariable_paths : 0\nbitmap_cvg     : 0.22%\nunique_crashes : 0\nunique_hangs   : 1\nlast_path      : 1500221373\nlast_crash     : 0\nlast_hang      : 1500220922\nexec_timeout   : 20\nafl_banner     : fuzzer-master\nafl_version    : 1.85b\ncommand_line   : /home/skaramcheti/.virtualenvs/afl/bin/afl-unix/afl-fuzz -i /dev/shm/work/Thermal_Controller_v3/input -o /dev/shm/work/Thermal_Controller_v3/sync -m 4G -Q -M fuzzer-master -x /dev/shm/work/Thermal_Controller_v3/Thermal_Controller_v3.dict -- data/linux/processed-challenges/Thermal_Controller_v3/bin/Thermal_Controller_v3\n'
p19
I2
tp20
a(I1200
S'start_time     : 1500220308\nlast_update    : 1500221510\nfuzzer_pid     : 31161\ncycles_done    : 1\nexecs_done     : 823524\nexecs_per_sec  : 721.13\npaths_total    : 47\npaths_favored  : 9\npaths_found    : 46\npaths_imported : 0\nmax_depth      : 5\ncur_path       : 33\npending_favs   : 0\npending_total  : 26\nvariable_paths : 0\nbitmap_cvg     : 0.22%\nunique_crashes : 0\nunique_hangs   : 1\nlast_path      : 1500221483\nlast_crash     : 0\nlast_hang      : 1500220922\nexec_timeout   : 20\nafl_banner     : fuzzer-master\nafl_version    : 1.85b\ncommand_line   : /home/skaramcheti/.virtualenvs/afl/bin/afl-unix/afl-fuzz -i /dev/shm/work/Thermal_Controller_v3/input -o /dev/shm/work/Thermal_Controller_v3/sync -m 4G -Q -M fuzzer-master -x /dev/shm/work/Thermal_Controller_v3/Thermal_Controller_v3.dict -- data/linux/processed-challenges/Thermal_Controller_v3/bin/Thermal_Controller_v3\n'
p21
I5
tp22
a(I1320
S'start_time     : 1500220308\nlast_update    : 1500221630\nfuzzer_pid     : 31161\ncycles_done    : 1\nexecs_done     : 905913\nexecs_per_sec  : 698.57\npaths_total    : 47\npaths_favored  : 9\npaths_found    : 46\npaths_imported : 0\nmax_depth      : 5\ncur_path       : 33\npending_favs   : 0\npending_total  : 26\nvariable_paths : 0\nbitmap_cvg     : 0.22%\nunique_crashes : 0\nunique_hangs   : 1\nlast_path      : 1500221483\nlast_crash     : 0\nlast_hang      : 1500220922\nexec_timeout   : 20\nafl_banner     : fuzzer-master\nafl_version    : 1.85b\ncommand_line   : /home/skaramcheti/.virtualenvs/afl/bin/afl-unix/afl-fuzz -i /dev/shm/work/Thermal_Controller_v3/input -o /dev/shm/work/Thermal_Controller_v3/sync -m 4G -Q -M fuzzer-master -x /dev/shm/work/Thermal_Controller_v3/Thermal_Controller_v3.dict -- data/linux/processed-challenges/Thermal_Controller_v3/bin/Thermal_Controller_v3\n'
p23
I0
tp24
a(I1440
S'start_time     : 1500220308\nlast_update    : 1500221750\nfuzzer_pid     : 31161\ncycles_done    : 1\nexecs_done     : 978913\nexecs_per_sec  : 566.31\npaths_total    : 48\npaths_favored  : 9\npaths_found    : 47\npaths_imported : 0\nmax_depth      : 5\ncur_path       : 43\npending_favs   : 0\npending_total  : 26\nvariable_paths : 0\nbitmap_cvg     : 0.22%\nunique_crashes : 0\nunique_hangs   : 1\nlast_path      : 1500221659\nlast_crash     : 0\nlast_hang      : 1500220922\nexec_timeout   : 20\nafl_banner     : fuzzer-master\nafl_version    : 1.85b\ncommand_line   : /home/skaramcheti/.virtualenvs/afl/bin/afl-unix/afl-fuzz -i /dev/shm/work/Thermal_Controller_v3/input -o /dev/shm/work/Thermal_Controller_v3/sync -m 4G -Q -M fuzzer-master -x /dev/shm/work/Thermal_Controller_v3/Thermal_Controller_v3.dict -- data/linux/processed-challenges/Thermal_Controller_v3/bin/Thermal_Controller_v3\n'
p25
I1
tp26
a(I1560
S'start_time     : 1500220308\nlast_update    : 1500221871\nfuzzer_pid     : 31161\ncycles_done    : 1\nexecs_done     : 1048689\nexecs_per_sec  : 488.95\npaths_total    : 49\npaths_favored  : 9\npaths_found    : 48\npaths_imported : 0\nmax_depth      : 6\ncur_path       : 46\npending_favs   : 0\npending_total  : 26\nvariable_paths : 0\nbitmap_cvg     : 0.22%\nunique_crashes : 0\nunique_hangs   : 1\nlast_path      : 1500221801\nlast_crash     : 0\nlast_hang      : 1500220922\nexec_timeout   : 20\nafl_banner     : fuzzer-master\nafl_version    : 1.85b\ncommand_line   : /home/skaramcheti/.virtualenvs/afl/bin/afl-unix/afl-fuzz -i /dev/shm/work/Thermal_Controller_v3/input -o /dev/shm/work/Thermal_Controller_v3/sync -m 4G -Q -M fuzzer-master -x /dev/shm/work/Thermal_Controller_v3/Thermal_Controller_v3.dict -- data/linux/processed-challenges/Thermal_Controller_v3/bin/Thermal_Controller_v3\n'
p27
I1
tp28
a(I1680
S'start_time     : 1500220308\nlast_update    : 1500221991\nfuzzer_pid     : 31161\ncycles_done    : 1\nexecs_done     : 1105554\nexecs_per_sec  : 473.61\npaths_total    : 49\npaths_favored  : 9\npaths_found    : 48\npaths_imported : 0\nmax_depth      : 6\ncur_path       : 46\npending_favs   : 0\npending_total  : 26\nvariable_paths : 0\nbitmap_cvg     : 0.22%\nunique_crashes : 0\nunique_hangs   : 1\nlast_path      : 1500221801\nlast_crash     : 0\nlast_hang      : 1500220922\nexec_timeout   : 20\nafl_banner     : fuzzer-master\nafl_version    : 1.85b\ncommand_line   : /home/skaramcheti/.virtualenvs/afl/bin/afl-unix/afl-fuzz -i /dev/shm/work/Thermal_Controller_v3/input -o /dev/shm/work/Thermal_Controller_v3/sync -m 4G -Q -M fuzzer-master -x /dev/shm/work/Thermal_Controller_v3/Thermal_Controller_v3.dict -- data/linux/processed-challenges/Thermal_Controller_v3/bin/Thermal_Controller_v3\n'
p29
I0
tp30
a(I1800
S'start_time     : 1500220308\nlast_update    : 1500222111\nfuzzer_pid     : 31161\ncycles_done    : 1\nexecs_done     : 1163533\nexecs_per_sec  : 538.56\npaths_total    : 50\npaths_favored  : 9\npaths_found    : 49\npaths_imported : 0\nmax_depth      : 6\ncur_path       : 46\npending_favs   : 0\npending_total  : 27\nvariable_paths : 0\nbitmap_cvg     : 0.22%\nunique_crashes : 0\nunique_hangs   : 1\nlast_path      : 1500222095\nlast_crash     : 0\nlast_hang      : 1500220922\nexec_timeout   : 20\nafl_banner     : fuzzer-master\nafl_version    : 1.85b\ncommand_line   : /home/skaramcheti/.virtualenvs/afl/bin/afl-unix/afl-fuzz -i /dev/shm/work/Thermal_Controller_v3/input -o /dev/shm/work/Thermal_Controller_v3/sync -m 4G -Q -M fuzzer-master -x /dev/shm/work/Thermal_Controller_v3/Thermal_Controller_v3.dict -- data/linux/processed-challenges/Thermal_Controller_v3/bin/Thermal_Controller_v3\n'
p31
I2
tp32
a(I1920
S'start_time     : 1500220308\nlast_update    : 1500222231\nfuzzer_pid     : 31161\ncycles_done    : 2\nexecs_done     : 1233593\nexecs_per_sec  : 724.57\npaths_total    : 51\npaths_favored  : 9\npaths_found    : 50\npaths_imported : 0\nmax_depth      : 6\ncur_path       : 18\npending_favs   : 0\npending_total  : 25\nvariable_paths : 0\nbitmap_cvg     : 0.22%\nunique_crashes : 0\nunique_hangs   : 1\nlast_path      : 1500222112\nlast_crash     : 0\nlast_hang      : 1500220922\nexec_timeout   : 20\nafl_banner     : fuzzer-master\nafl_version    : 1.85b\ncommand_line   : /home/skaramcheti/.virtualenvs/afl/bin/afl-unix/afl-fuzz -i /dev/shm/work/Thermal_Controller_v3/input -o /dev/shm/work/Thermal_Controller_v3/sync -m 4G -Q -M fuzzer-master -x /dev/shm/work/Thermal_Controller_v3/Thermal_Controller_v3.dict -- data/linux/processed-challenges/Thermal_Controller_v3/bin/Thermal_Controller_v3\n'
p33
I0
tp34
a(I2040
S'start_time     : 1500220308\nlast_update    : 1500222351\nfuzzer_pid     : 31161\ncycles_done    : 2\nexecs_done     : 1319886\nexecs_per_sec  : 686.74\npaths_total    : 51\npaths_favored  : 9\npaths_found    : 50\npaths_imported : 0\nmax_depth      : 6\ncur_path       : 31\npending_favs   : 0\npending_total  : 23\nvariable_paths : 0\nbitmap_cvg     : 0.22%\nunique_crashes : 0\nunique_hangs   : 1\nlast_path      : 1500222112\nlast_crash     : 0\nlast_hang      : 1500220922\nexec_timeout   : 20\nafl_banner     : fuzzer-master\nafl_version    : 1.85b\ncommand_line   : /home/skaramcheti/.virtualenvs/afl/bin/afl-unix/afl-fuzz -i /dev/shm/work/Thermal_Controller_v3/input -o /dev/shm/work/Thermal_Controller_v3/sync -m 4G -Q -M fuzzer-master -x /dev/shm/work/Thermal_Controller_v3/Thermal_Controller_v3.dict -- data/linux/processed-challenges/Thermal_Controller_v3/bin/Thermal_Controller_v3\n'
p35
I0
tp36
a(I2160
S'start_time     : 1500220308\nlast_update    : 1500222471\nfuzzer_pid     : 31161\ncycles_done    : 2\nexecs_done     : 1400942\nexecs_per_sec  : 706.12\npaths_total    : 51\npaths_favored  : 9\npaths_found    : 50\npaths_imported : 0\nmax_depth      : 6\ncur_path       : 43\npending_favs   : 0\npending_total  : 21\nvariable_paths : 0\nbitmap_cvg     : 0.22%\nunique_crashes : 0\nunique_hangs   : 1\nlast_path      : 1500222112\nlast_crash     : 0\nlast_hang      : 1500220922\nexec_timeout   : 20\nafl_banner     : fuzzer-master\nafl_version    : 1.85b\ncommand_line   : /home/skaramcheti/.virtualenvs/afl/bin/afl-unix/afl-fuzz -i /dev/shm/work/Thermal_Controller_v3/input -o /dev/shm/work/Thermal_Controller_v3/sync -m 4G -Q -M fuzzer-master -x /dev/shm/work/Thermal_Controller_v3/Thermal_Controller_v3.dict -- data/linux/processed-challenges/Thermal_Controller_v3/bin/Thermal_Controller_v3\n'
p37
I0
tp38
a(I2280
S'start_time     : 1500220308\nlast_update    : 1500222592\nfuzzer_pid     : 31161\ncycles_done    : 2\nexecs_done     : 1474837\nexecs_per_sec  : 610.72\npaths_total    : 53\npaths_favored  : 9\npaths_found    : 52\npaths_imported : 0\nmax_depth      : 6\ncur_path       : 44\npending_favs   : 0\npending_total  : 23\nvariable_paths : 0\nbitmap_cvg     : 0.22%\nunique_crashes : 0\nunique_hangs   : 1\nlast_path      : 1500222475\nlast_crash     : 0\nlast_hang      : 1500220922\nexec_timeout   : 20\nafl_banner     : fuzzer-master\nafl_version    : 1.85b\ncommand_line   : /home/skaramcheti/.virtualenvs/afl/bin/afl-unix/afl-fuzz -i /dev/shm/work/Thermal_Controller_v3/input -o /dev/shm/work/Thermal_Controller_v3/sync -m 4G -Q -M fuzzer-master -x /dev/shm/work/Thermal_Controller_v3/Thermal_Controller_v3.dict -- data/linux/processed-challenges/Thermal_Controller_v3/bin/Thermal_Controller_v3\n'
p39
I2
tp40
a(I2400
S'start_time     : 1500220308\nlast_update    : 1500222712\nfuzzer_pid     : 31161\ncycles_done    : 2\nexecs_done     : 1514276\nexecs_per_sec  : 93.87\npaths_total    : 53\npaths_favored  : 9\npaths_found    : 52\npaths_imported : 0\nmax_depth      : 6\ncur_path       : 52\npending_favs   : 0\npending_total  : 22\nvariable_paths : 0\nbitmap_cvg     : 0.22%\nunique_crashes : 0\nunique_hangs   : 2\nlast_path      : 1500222475\nlast_crash     : 0\nlast_hang      : 1500222685\nexec_timeout   : 20\nafl_banner     : fuzzer-master\nafl_version    : 1.85b\ncommand_line   : /home/skaramcheti/.virtualenvs/afl/bin/afl-unix/afl-fuzz -i /dev/shm/work/Thermal_Controller_v3/input -o /dev/shm/work/Thermal_Controller_v3/sync -m 4G -Q -M fuzzer-master -x /dev/shm/work/Thermal_Controller_v3/Thermal_Controller_v3.dict -- data/linux/processed-challenges/Thermal_Controller_v3/bin/Thermal_Controller_v3\n'
p41
I0
tp42
a(I2520
S'start_time     : 1500220308\nlast_update    : 1500222832\nfuzzer_pid     : 31161\ncycles_done    : 2\nexecs_done     : 1525602\nexecs_per_sec  : 94.68\npaths_total    : 53\npaths_favored  : 9\npaths_found    : 52\npaths_imported : 0\nmax_depth      : 6\ncur_path       : 52\npending_favs   : 0\npending_total  : 22\nvariable_paths : 0\nbitmap_cvg     : 0.22%\nunique_crashes : 0\nunique_hangs   : 2\nlast_path      : 1500222475\nlast_crash     : 0\nlast_hang      : 1500222685\nexec_timeout   : 20\nafl_banner     : fuzzer-master\nafl_version    : 1.85b\ncommand_line   : /home/skaramcheti/.virtualenvs/afl/bin/afl-unix/afl-fuzz -i /dev/shm/work/Thermal_Controller_v3/input -o /dev/shm/work/Thermal_Controller_v3/sync -m 4G -Q -M fuzzer-master -x /dev/shm/work/Thermal_Controller_v3/Thermal_Controller_v3.dict -- data/linux/processed-challenges/Thermal_Controller_v3/bin/Thermal_Controller_v3\n'
p43
I0
tp44
a(I2640
S'start_time     : 1500220308\nlast_update    : 1500222952\nfuzzer_pid     : 31161\ncycles_done    : 2\nexecs_done     : 1536730\nexecs_per_sec  : 93.69\npaths_total    : 53\npaths_favored  : 9\npaths_found    : 52\npaths_imported : 0\nmax_depth      : 6\ncur_path       : 52\npending_favs   : 0\npending_total  : 22\nvariable_paths : 0\nbitmap_cvg     : 0.22%\nunique_crashes : 0\nunique_hangs   : 2\nlast_path      : 1500222475\nlast_crash     : 0\nlast_hang      : 1500222685\nexec_timeout   : 20\nafl_banner     : fuzzer-master\nafl_version    : 1.85b\ncommand_line   : /home/skaramcheti/.virtualenvs/afl/bin/afl-unix/afl-fuzz -i /dev/shm/work/Thermal_Controller_v3/input -o /dev/shm/work/Thermal_Controller_v3/sync -m 4G -Q -M fuzzer-master -x /dev/shm/work/Thermal_Controller_v3/Thermal_Controller_v3.dict -- data/linux/processed-challenges/Thermal_Controller_v3/bin/Thermal_Controller_v3\n'
p45
I0
tp46
a(I2760
S'start_time     : 1500220308\nlast_update    : 1500223072\nfuzzer_pid     : 31161\ncycles_done    : 2\nexecs_done     : 1547955\nexecs_per_sec  : 93.90\npaths_total    : 53\npaths_favored  : 9\npaths_found    : 52\npaths_imported : 0\nmax_depth      : 6\ncur_path       : 52\npending_favs   : 0\npending_total  : 22\nvariable_paths : 0\nbitmap_cvg     : 0.22%\nunique_crashes : 0\nunique_hangs   : 2\nlast_path      : 1500222475\nlast_crash     : 0\nlast_hang      : 1500222685\nexec_timeout   : 20\nafl_banner     : fuzzer-master\nafl_version    : 1.85b\ncommand_line   : /home/skaramcheti/.virtualenvs/afl/bin/afl-unix/afl-fuzz -i /dev/shm/work/Thermal_Controller_v3/input -o /dev/shm/work/Thermal_Controller_v3/sync -m 4G -Q -M fuzzer-master -x /dev/shm/work/Thermal_Controller_v3/Thermal_Controller_v3.dict -- data/linux/processed-challenges/Thermal_Controller_v3/bin/Thermal_Controller_v3\n'
p47
I0
tp48
a(I2880
S'start_time     : 1500220308\nlast_update    : 1500223193\nfuzzer_pid     : 31161\ncycles_done    : 2\nexecs_done     : 1559331\nexecs_per_sec  : 95.84\npaths_total    : 53\npaths_favored  : 9\npaths_found    : 52\npaths_imported : 0\nmax_depth      : 6\ncur_path       : 52\npending_favs   : 0\npending_total  : 22\nvariable_paths : 0\nbitmap_cvg     : 0.22%\nunique_crashes : 0\nunique_hangs   : 2\nlast_path      : 1500222475\nlast_crash     : 0\nlast_hang      : 1500222685\nexec_timeout   : 20\nafl_banner     : fuzzer-master\nafl_version    : 1.85b\ncommand_line   : /home/skaramcheti/.virtualenvs/afl/bin/afl-unix/afl-fuzz -i /dev/shm/work/Thermal_Controller_v3/input -o /dev/shm/work/Thermal_Controller_v3/sync -m 4G -Q -M fuzzer-master -x /dev/shm/work/Thermal_Controller_v3/Thermal_Controller_v3.dict -- data/linux/processed-challenges/Thermal_Controller_v3/bin/Thermal_Controller_v3\n'
p49
I0
tp50
a(I3000
S'start_time     : 1500220308\nlast_update    : 1500223313\nfuzzer_pid     : 31161\ncycles_done    : 2\nexecs_done     : 1570676\nexecs_per_sec  : 94.01\npaths_total    : 53\npaths_favored  : 9\npaths_found    : 52\npaths_imported : 0\nmax_depth      : 6\ncur_path       : 52\npending_favs   : 0\npending_total  : 22\nvariable_paths : 0\nbitmap_cvg     : 0.22%\nunique_crashes : 0\nunique_hangs   : 2\nlast_path      : 1500222475\nlast_crash     : 0\nlast_hang      : 1500222685\nexec_timeout   : 20\nafl_banner     : fuzzer-master\nafl_version    : 1.85b\ncommand_line   : /home/skaramcheti/.virtualenvs/afl/bin/afl-unix/afl-fuzz -i /dev/shm/work/Thermal_Controller_v3/input -o /dev/shm/work/Thermal_Controller_v3/sync -m 4G -Q -M fuzzer-master -x /dev/shm/work/Thermal_Controller_v3/Thermal_Controller_v3.dict -- data/linux/processed-challenges/Thermal_Controller_v3/bin/Thermal_Controller_v3\n'
p51
I0
tp52
a(I3120
S'start_time     : 1500220308\nlast_update    : 1500223433\nfuzzer_pid     : 31161\ncycles_done    : 2\nexecs_done     : 1582058\nexecs_per_sec  : 95.78\npaths_total    : 53\npaths_favored  : 9\npaths_found    : 52\npaths_imported : 0\nmax_depth      : 6\ncur_path       : 52\npending_favs   : 0\npending_total  : 22\nvariable_paths : 0\nbitmap_cvg     : 0.22%\nunique_crashes : 0\nunique_hangs   : 3\nlast_path      : 1500222475\nlast_crash     : 0\nlast_hang      : 1500223407\nexec_timeout   : 20\nafl_banner     : fuzzer-master\nafl_version    : 1.85b\ncommand_line   : /home/skaramcheti/.virtualenvs/afl/bin/afl-unix/afl-fuzz -i /dev/shm/work/Thermal_Controller_v3/input -o /dev/shm/work/Thermal_Controller_v3/sync -m 4G -Q -M fuzzer-master -x /dev/shm/work/Thermal_Controller_v3/Thermal_Controller_v3.dict -- data/linux/processed-challenges/Thermal_Controller_v3/bin/Thermal_Controller_v3\n'
p53
I0
tp54
a(I3240
S'start_time     : 1500220308\nlast_update    : 1500223553\nfuzzer_pid     : 31161\ncycles_done    : 2\nexecs_done     : 1593457\nexecs_per_sec  : 96.67\npaths_total    : 53\npaths_favored  : 9\npaths_found    : 52\npaths_imported : 0\nmax_depth      : 6\ncur_path       : 52\npending_favs   : 0\npending_total  : 22\nvariable_paths : 0\nbitmap_cvg     : 0.22%\nunique_crashes : 0\nunique_hangs   : 3\nlast_path      : 1500222475\nlast_crash     : 0\nlast_hang      : 1500223407\nexec_timeout   : 20\nafl_banner     : fuzzer-master\nafl_version    : 1.85b\ncommand_line   : /home/skaramcheti/.virtualenvs/afl/bin/afl-unix/afl-fuzz -i /dev/shm/work/Thermal_Controller_v3/input -o /dev/shm/work/Thermal_Controller_v3/sync -m 4G -Q -M fuzzer-master -x /dev/shm/work/Thermal_Controller_v3/Thermal_Controller_v3.dict -- data/linux/processed-challenges/Thermal_Controller_v3/bin/Thermal_Controller_v3\n'
p55
I0
tp56
a(I3360
S'start_time     : 1500220308\nlast_update    : 1500223673\nfuzzer_pid     : 31161\ncycles_done    : 2\nexecs_done     : 1604857\nexecs_per_sec  : 95.71\npaths_total    : 53\npaths_favored  : 9\npaths_found    : 52\npaths_imported : 0\nmax_depth      : 6\ncur_path       : 52\npending_favs   : 0\npending_total  : 22\nvariable_paths : 0\nbitmap_cvg     : 0.22%\nunique_crashes : 0\nunique_hangs   : 3\nlast_path      : 1500222475\nlast_crash     : 0\nlast_hang      : 1500223407\nexec_timeout   : 20\nafl_banner     : fuzzer-master\nafl_version    : 1.85b\ncommand_line   : /home/skaramcheti/.virtualenvs/afl/bin/afl-unix/afl-fuzz -i /dev/shm/work/Thermal_Controller_v3/input -o /dev/shm/work/Thermal_Controller_v3/sync -m 4G -Q -M fuzzer-master -x /dev/shm/work/Thermal_Controller_v3/Thermal_Controller_v3.dict -- data/linux/processed-challenges/Thermal_Controller_v3/bin/Thermal_Controller_v3\n'
p57
I0
tp58
a(I3480
S'start_time     : 1500220308\nlast_update    : 1500223793\nfuzzer_pid     : 31161\ncycles_done    : 2\nexecs_done     : 1616225\nexecs_per_sec  : 94.46\npaths_total    : 53\npaths_favored  : 9\npaths_found    : 52\npaths_imported : 0\nmax_depth      : 6\ncur_path       : 52\npending_favs   : 0\npending_total  : 22\nvariable_paths : 0\nbitmap_cvg     : 0.22%\nunique_crashes : 0\nunique_hangs   : 3\nlast_path      : 1500222475\nlast_crash     : 0\nlast_hang      : 1500223407\nexec_timeout   : 20\nafl_banner     : fuzzer-master\nafl_version    : 1.85b\ncommand_line   : /home/skaramcheti/.virtualenvs/afl/bin/afl-unix/afl-fuzz -i /dev/shm/work/Thermal_Controller_v3/input -o /dev/shm/work/Thermal_Controller_v3/sync -m 4G -Q -M fuzzer-master -x /dev/shm/work/Thermal_Controller_v3/Thermal_Controller_v3.dict -- data/linux/processed-challenges/Thermal_Controller_v3/bin/Thermal_Controller_v3\n'
p59
I0
tp60
a(I3600
S'start_time     : 1500220308\nlast_update    : 1500223913\nfuzzer_pid     : 31161\ncycles_done    : 2\nexecs_done     : 1627550\nexecs_per_sec  : 93.23\npaths_total    : 53\npaths_favored  : 9\npaths_found    : 52\npaths_imported : 0\nmax_depth      : 6\ncur_path       : 52\npending_favs   : 0\npending_total  : 22\nvariable_paths : 0\nbitmap_cvg     : 0.22%\nunique_crashes : 0\nunique_hangs   : 3\nlast_path      : 1500222475\nlast_crash     : 0\nlast_hang      : 1500223407\nexec_timeout   : 20\nafl_banner     : fuzzer-master\nafl_version    : 1.85b\ncommand_line   : /home/skaramcheti/.virtualenvs/afl/bin/afl-unix/afl-fuzz -i /dev/shm/work/Thermal_Controller_v3/input -o /dev/shm/work/Thermal_Controller_v3/sync -m 4G -Q -M fuzzer-master -x /dev/shm/work/Thermal_Controller_v3/Thermal_Controller_v3.dict -- data/linux/processed-challenges/Thermal_Controller_v3/bin/Thermal_Controller_v3\n'
p61
I0
tp62
a(I3720
S'start_time     : 1500220308\nlast_update    : 1500224034\nfuzzer_pid     : 31161\ncycles_done    : 2\nexecs_done     : 1638991\nexecs_per_sec  : 93.53\npaths_total    : 53\npaths_favored  : 9\npaths_found    : 52\npaths_imported : 0\nmax_depth      : 6\ncur_path       : 52\npending_favs   : 0\npending_total  : 22\nvariable_paths : 0\nbitmap_cvg     : 0.22%\nunique_crashes : 0\nunique_hangs   : 3\nlast_path      : 1500222475\nlast_crash     : 0\nlast_hang      : 1500223407\nexec_timeout   : 20\nafl_banner     : fuzzer-master\nafl_version    : 1.85b\ncommand_line   : /home/skaramcheti/.virtualenvs/afl/bin/afl-unix/afl-fuzz -i /dev/shm/work/Thermal_Controller_v3/input -o /dev/shm/work/Thermal_Controller_v3/sync -m 4G -Q -M fuzzer-master -x /dev/shm/work/Thermal_Controller_v3/Thermal_Controller_v3.dict -- data/linux/processed-challenges/Thermal_Controller_v3/bin/Thermal_Controller_v3\n'
p63
I0
tp64
a(I3840
S'start_time     : 1500220308\nlast_update    : 1500224154\nfuzzer_pid     : 31161\ncycles_done    : 2\nexecs_done     : 1650387\nexecs_per_sec  : 95.84\npaths_total    : 53\npaths_favored  : 9\npaths_found    : 52\npaths_imported : 0\nmax_depth      : 6\ncur_path       : 52\npending_favs   : 0\npending_total  : 22\nvariable_paths : 0\nbitmap_cvg     : 0.22%\nunique_crashes : 0\nunique_hangs   : 3\nlast_path      : 1500222475\nlast_crash     : 0\nlast_hang      : 1500223407\nexec_timeout   : 20\nafl_banner     : fuzzer-master\nafl_version    : 1.85b\ncommand_line   : /home/skaramcheti/.virtualenvs/afl/bin/afl-unix/afl-fuzz -i /dev/shm/work/Thermal_Controller_v3/input -o /dev/shm/work/Thermal_Controller_v3/sync -m 4G -Q -M fuzzer-master -x /dev/shm/work/Thermal_Controller_v3/Thermal_Controller_v3.dict -- data/linux/processed-challenges/Thermal_Controller_v3/bin/Thermal_Controller_v3\n'
p65
I0
tp66
a(I3960
S'start_time     : 1500220308\nlast_update    : 1500224274\nfuzzer_pid     : 31161\ncycles_done    : 2\nexecs_done     : 1661738\nexecs_per_sec  : 92.77\npaths_total    : 53\npaths_favored  : 9\npaths_found    : 52\npaths_imported : 0\nmax_depth      : 6\ncur_path       : 52\npending_favs   : 0\npending_total  : 22\nvariable_paths : 0\nbitmap_cvg     : 0.22%\nunique_crashes : 0\nunique_hangs   : 4\nlast_path      : 1500222475\nlast_crash     : 0\nlast_hang      : 1500224215\nexec_timeout   : 20\nafl_banner     : fuzzer-master\nafl_version    : 1.85b\ncommand_line   : /home/skaramcheti/.virtualenvs/afl/bin/afl-unix/afl-fuzz -i /dev/shm/work/Thermal_Controller_v3/input -o /dev/shm/work/Thermal_Controller_v3/sync -m 4G -Q -M fuzzer-master -x /dev/shm/work/Thermal_Controller_v3/Thermal_Controller_v3.dict -- data/linux/processed-challenges/Thermal_Controller_v3/bin/Thermal_Controller_v3\n'
p67
I0
tp68
a(I4080
S'start_time     : 1500220308\nlast_update    : 1500224394\nfuzzer_pid     : 31161\ncycles_done    : 2\nexecs_done     : 1673105\nexecs_per_sec  : 95.85\npaths_total    : 53\npaths_favored  : 9\npaths_found    : 52\npaths_imported : 0\nmax_depth      : 6\ncur_path       : 52\npending_favs   : 0\npending_total  : 22\nvariable_paths : 0\nbitmap_cvg     : 0.22%\nunique_crashes : 0\nunique_hangs   : 4\nlast_path      : 1500222475\nlast_crash     : 0\nlast_hang      : 1500224215\nexec_timeout   : 20\nafl_banner     : fuzzer-master\nafl_version    : 1.85b\ncommand_line   : /home/skaramcheti/.virtualenvs/afl/bin/afl-unix/afl-fuzz -i /dev/shm/work/Thermal_Controller_v3/input -o /dev/shm/work/Thermal_Controller_v3/sync -m 4G -Q -M fuzzer-master -x /dev/shm/work/Thermal_Controller_v3/Thermal_Controller_v3.dict -- data/linux/processed-challenges/Thermal_Controller_v3/bin/Thermal_Controller_v3\n'
p69
I0
tp70
a(I4200
S'start_time     : 1500220308\nlast_update    : 1500224514\nfuzzer_pid     : 31161\ncycles_done    : 2\nexecs_done     : 1684356\nexecs_per_sec  : 95.49\npaths_total    : 53\npaths_favored  : 9\npaths_found    : 52\npaths_imported : 0\nmax_depth      : 6\ncur_path       : 52\npending_favs   : 0\npending_total  : 22\nvariable_paths : 0\nbitmap_cvg     : 0.22%\nunique_crashes : 0\nunique_hangs   : 5\nlast_path      : 1500222475\nlast_crash     : 0\nlast_hang      : 1500224418\nexec_timeout   : 20\nafl_banner     : fuzzer-master\nafl_version    : 1.85b\ncommand_line   : /home/skaramcheti/.virtualenvs/afl/bin/afl-unix/afl-fuzz -i /dev/shm/work/Thermal_Controller_v3/input -o /dev/shm/work/Thermal_Controller_v3/sync -m 4G -Q -M fuzzer-master -x /dev/shm/work/Thermal_Controller_v3/Thermal_Controller_v3.dict -- data/linux/processed-challenges/Thermal_Controller_v3/bin/Thermal_Controller_v3\n'
p71
I0
tp72
a(I4320
S'start_time     : 1500220308\nlast_update    : 1500224635\nfuzzer_pid     : 31161\ncycles_done    : 2\nexecs_done     : 1695746\nexecs_per_sec  : 96.04\npaths_total    : 53\npaths_favored  : 9\npaths_found    : 52\npaths_imported : 0\nmax_depth      : 6\ncur_path       : 52\npending_favs   : 0\npending_total  : 22\nvariable_paths : 0\nbitmap_cvg     : 0.22%\nunique_crashes : 0\nunique_hangs   : 5\nlast_path      : 1500222475\nlast_crash     : 0\nlast_hang      : 1500224418\nexec_timeout   : 20\nafl_banner     : fuzzer-master\nafl_version    : 1.85b\ncommand_line   : /home/skaramcheti/.virtualenvs/afl/bin/afl-unix/afl-fuzz -i /dev/shm/work/Thermal_Controller_v3/input -o /dev/shm/work/Thermal_Controller_v3/sync -m 4G -Q -M fuzzer-master -x /dev/shm/work/Thermal_Controller_v3/Thermal_Controller_v3.dict -- data/linux/processed-challenges/Thermal_Controller_v3/bin/Thermal_Controller_v3\n'
p73
I0
tp74
a(I4440
S'start_time     : 1500220308\nlast_update    : 1500224755\nfuzzer_pid     : 31161\ncycles_done    : 2\nexecs_done     : 1707091\nexecs_per_sec  : 93.73\npaths_total    : 53\npaths_favored  : 9\npaths_found    : 52\npaths_imported : 0\nmax_depth      : 6\ncur_path       : 52\npending_favs   : 0\npending_total  : 22\nvariable_paths : 0\nbitmap_cvg     : 0.22%\nunique_crashes : 0\nunique_hangs   : 5\nlast_path      : 1500222475\nlast_crash     : 0\nlast_hang      : 1500224418\nexec_timeout   : 20\nafl_banner     : fuzzer-master\nafl_version    : 1.85b\ncommand_line   : /home/skaramcheti/.virtualenvs/afl/bin/afl-unix/afl-fuzz -i /dev/shm/work/Thermal_Controller_v3/input -o /dev/shm/work/Thermal_Controller_v3/sync -m 4G -Q -M fuzzer-master -x /dev/shm/work/Thermal_Controller_v3/Thermal_Controller_v3.dict -- data/linux/processed-challenges/Thermal_Controller_v3/bin/Thermal_Controller_v3\n'
p75
I0
tp76
a(I4560
S'start_time     : 1500220308\nlast_update    : 1500224875\nfuzzer_pid     : 31161\ncycles_done    : 2\nexecs_done     : 1718365\nexecs_per_sec  : 93.12\npaths_total    : 53\npaths_favored  : 9\npaths_found    : 52\npaths_imported : 0\nmax_depth      : 6\ncur_path       : 52\npending_favs   : 0\npending_total  : 22\nvariable_paths : 0\nbitmap_cvg     : 0.22%\nunique_crashes : 0\nunique_hangs   : 5\nlast_path      : 1500222475\nlast_crash     : 0\nlast_hang      : 1500224418\nexec_timeout   : 20\nafl_banner     : fuzzer-master\nafl_version    : 1.85b\ncommand_line   : /home/skaramcheti/.virtualenvs/afl/bin/afl-unix/afl-fuzz -i /dev/shm/work/Thermal_Controller_v3/input -o /dev/shm/work/Thermal_Controller_v3/sync -m 4G -Q -M fuzzer-master -x /dev/shm/work/Thermal_Controller_v3/Thermal_Controller_v3.dict -- data/linux/processed-challenges/Thermal_Controller_v3/bin/Thermal_Controller_v3\n'
p77
I0
tp78
a(I4680
S'start_time     : 1500220308\nlast_update    : 1500224995\nfuzzer_pid     : 31161\ncycles_done    : 2\nexecs_done     : 1729722\nexecs_per_sec  : 96.17\npaths_total    : 53\npaths_favored  : 9\npaths_found    : 52\npaths_imported : 0\nmax_depth      : 6\ncur_path       : 52\npending_favs   : 0\npending_total  : 22\nvariable_paths : 0\nbitmap_cvg     : 0.22%\nunique_crashes : 0\nunique_hangs   : 5\nlast_path      : 1500222475\nlast_crash     : 0\nlast_hang      : 1500224418\nexec_timeout   : 20\nafl_banner     : fuzzer-master\nafl_version    : 1.85b\ncommand_line   : /home/skaramcheti/.virtualenvs/afl/bin/afl-unix/afl-fuzz -i /dev/shm/work/Thermal_Controller_v3/input -o /dev/shm/work/Thermal_Controller_v3/sync -m 4G -Q -M fuzzer-master -x /dev/shm/work/Thermal_Controller_v3/Thermal_Controller_v3.dict -- data/linux/processed-challenges/Thermal_Controller_v3/bin/Thermal_Controller_v3\n'
p79
I0
tp80
a(I4800
S'start_time     : 1500220308\nlast_update    : 1500225115\nfuzzer_pid     : 31161\ncycles_done    : 2\nexecs_done     : 1741026\nexecs_per_sec  : 95.33\npaths_total    : 53\npaths_favored  : 9\npaths_found    : 52\npaths_imported : 0\nmax_depth      : 6\ncur_path       : 52\npending_favs   : 0\npending_total  : 22\nvariable_paths : 0\nbitmap_cvg     : 0.22%\nunique_crashes : 0\nunique_hangs   : 5\nlast_path      : 1500222475\nlast_crash     : 0\nlast_hang      : 1500224418\nexec_timeout   : 20\nafl_banner     : fuzzer-master\nafl_version    : 1.85b\ncommand_line   : /home/skaramcheti/.virtualenvs/afl/bin/afl-unix/afl-fuzz -i /dev/shm/work/Thermal_Controller_v3/input -o /dev/shm/work/Thermal_Controller_v3/sync -m 4G -Q -M fuzzer-master -x /dev/shm/work/Thermal_Controller_v3/Thermal_Controller_v3.dict -- data/linux/processed-challenges/Thermal_Controller_v3/bin/Thermal_Controller_v3\n'
p81
I0
tp82
a(I4920
S'start_time     : 1500220308\nlast_update    : 1500225235\nfuzzer_pid     : 31161\ncycles_done    : 2\nexecs_done     : 1752409\nexecs_per_sec  : 93.47\npaths_total    : 53\npaths_favored  : 9\npaths_found    : 52\npaths_imported : 0\nmax_depth      : 6\ncur_path       : 52\npending_favs   : 0\npending_total  : 22\nvariable_paths : 0\nbitmap_cvg     : 0.22%\nunique_crashes : 0\nunique_hangs   : 5\nlast_path      : 1500222475\nlast_crash     : 0\nlast_hang      : 1500224418\nexec_timeout   : 20\nafl_banner     : fuzzer-master\nafl_version    : 1.85b\ncommand_line   : /home/skaramcheti/.virtualenvs/afl/bin/afl-unix/afl-fuzz -i /dev/shm/work/Thermal_Controller_v3/input -o /dev/shm/work/Thermal_Controller_v3/sync -m 4G -Q -M fuzzer-master -x /dev/shm/work/Thermal_Controller_v3/Thermal_Controller_v3.dict -- data/linux/processed-challenges/Thermal_Controller_v3/bin/Thermal_Controller_v3\n'
p83
I0
tp84
a(I5040
S'start_time     : 1500220308\nlast_update    : 1500225356\nfuzzer_pid     : 31161\ncycles_done    : 2\nexecs_done     : 1763708\nexecs_per_sec  : 94.93\npaths_total    : 53\npaths_favored  : 9\npaths_found    : 52\npaths_imported : 0\nmax_depth      : 6\ncur_path       : 52\npending_favs   : 0\npending_total  : 22\nvariable_paths : 0\nbitmap_cvg     : 0.22%\nunique_crashes : 0\nunique_hangs   : 7\nlast_path      : 1500222475\nlast_crash     : 0\nlast_hang      : 1500225302\nexec_timeout   : 20\nafl_banner     : fuzzer-master\nafl_version    : 1.85b\ncommand_line   : /home/skaramcheti/.virtualenvs/afl/bin/afl-unix/afl-fuzz -i /dev/shm/work/Thermal_Controller_v3/input -o /dev/shm/work/Thermal_Controller_v3/sync -m 4G -Q -M fuzzer-master -x /dev/shm/work/Thermal_Controller_v3/Thermal_Controller_v3.dict -- data/linux/processed-challenges/Thermal_Controller_v3/bin/Thermal_Controller_v3\n'
p85
I0
tp86
a(I5160
S'start_time     : 1500220308\nlast_update    : 1500225476\nfuzzer_pid     : 31161\ncycles_done    : 2\nexecs_done     : 1775068\nexecs_per_sec  : 95.22\npaths_total    : 53\npaths_favored  : 9\npaths_found    : 52\npaths_imported : 0\nmax_depth      : 6\ncur_path       : 52\npending_favs   : 0\npending_total  : 22\nvariable_paths : 0\nbitmap_cvg     : 0.22%\nunique_crashes : 0\nunique_hangs   : 7\nlast_path      : 1500222475\nlast_crash     : 0\nlast_hang      : 1500225302\nexec_timeout   : 20\nafl_banner     : fuzzer-master\nafl_version    : 1.85b\ncommand_line   : /home/skaramcheti/.virtualenvs/afl/bin/afl-unix/afl-fuzz -i /dev/shm/work/Thermal_Controller_v3/input -o /dev/shm/work/Thermal_Controller_v3/sync -m 4G -Q -M fuzzer-master -x /dev/shm/work/Thermal_Controller_v3/Thermal_Controller_v3.dict -- data/linux/processed-challenges/Thermal_Controller_v3/bin/Thermal_Controller_v3\n'
p87
I0
tp88
a(I5280
S'start_time     : 1500220308\nlast_update    : 1500225596\nfuzzer_pid     : 31161\ncycles_done    : 2\nexecs_done     : 1786289\nexecs_per_sec  : 92.10\npaths_total    : 53\npaths_favored  : 9\npaths_found    : 52\npaths_imported : 0\nmax_depth      : 6\ncur_path       : 52\npending_favs   : 0\npending_total  : 22\nvariable_paths : 0\nbitmap_cvg     : 0.22%\nunique_crashes : 0\nunique_hangs   : 7\nlast_path      : 1500222475\nlast_crash     : 0\nlast_hang      : 1500225302\nexec_timeout   : 20\nafl_banner     : fuzzer-master\nafl_version    : 1.85b\ncommand_line   : /home/skaramcheti/.virtualenvs/afl/bin/afl-unix/afl-fuzz -i /dev/shm/work/Thermal_Controller_v3/input -o /dev/shm/work/Thermal_Controller_v3/sync -m 4G -Q -M fuzzer-master -x /dev/shm/work/Thermal_Controller_v3/Thermal_Controller_v3.dict -- data/linux/processed-challenges/Thermal_Controller_v3/bin/Thermal_Controller_v3\n'
p89
I0
tp90
a(I5400
S'start_time     : 1500220308\nlast_update    : 1500225716\nfuzzer_pid     : 31161\ncycles_done    : 2\nexecs_done     : 1797643\nexecs_per_sec  : 96.80\npaths_total    : 53\npaths_favored  : 9\npaths_found    : 52\npaths_imported : 0\nmax_depth      : 6\ncur_path       : 52\npending_favs   : 0\npending_total  : 22\nvariable_paths : 0\nbitmap_cvg     : 0.22%\nunique_crashes : 0\nunique_hangs   : 7\nlast_path      : 1500222475\nlast_crash     : 0\nlast_hang      : 1500225302\nexec_timeout   : 20\nafl_banner     : fuzzer-master\nafl_version    : 1.85b\ncommand_line   : /home/skaramcheti/.virtualenvs/afl/bin/afl-unix/afl-fuzz -i /dev/shm/work/Thermal_Controller_v3/input -o /dev/shm/work/Thermal_Controller_v3/sync -m 4G -Q -M fuzzer-master -x /dev/shm/work/Thermal_Controller_v3/Thermal_Controller_v3.dict -- data/linux/processed-challenges/Thermal_Controller_v3/bin/Thermal_Controller_v3\n'
p91
I0
tp92
a(I5520
S'start_time     : 1500220308\nlast_update    : 1500225836\nfuzzer_pid     : 31161\ncycles_done    : 2\nexecs_done     : 1809052\nexecs_per_sec  : 93.42\npaths_total    : 53\npaths_favored  : 9\npaths_found    : 52\npaths_imported : 0\nmax_depth      : 6\ncur_path       : 52\npending_favs   : 0\npending_total  : 22\nvariable_paths : 0\nbitmap_cvg     : 0.22%\nunique_crashes : 0\nunique_hangs   : 7\nlast_path      : 1500222475\nlast_crash     : 0\nlast_hang      : 1500225302\nexec_timeout   : 20\nafl_banner     : fuzzer-master\nafl_version    : 1.85b\ncommand_line   : /home/skaramcheti/.virtualenvs/afl/bin/afl-unix/afl-fuzz -i /dev/shm/work/Thermal_Controller_v3/input -o /dev/shm/work/Thermal_Controller_v3/sync -m 4G -Q -M fuzzer-master -x /dev/shm/work/Thermal_Controller_v3/Thermal_Controller_v3.dict -- data/linux/processed-challenges/Thermal_Controller_v3/bin/Thermal_Controller_v3\n'
p93
I0
tp94
a(I5640
S'start_time     : 1500220308\nlast_update    : 1500225956\nfuzzer_pid     : 31161\ncycles_done    : 2\nexecs_done     : 1820365\nexecs_per_sec  : 93.68\npaths_total    : 53\npaths_favored  : 9\npaths_found    : 52\npaths_imported : 0\nmax_depth      : 6\ncur_path       : 52\npending_favs   : 0\npending_total  : 22\nvariable_paths : 0\nbitmap_cvg     : 0.22%\nunique_crashes : 0\nunique_hangs   : 7\nlast_path      : 1500222475\nlast_crash     : 0\nlast_hang      : 1500225302\nexec_timeout   : 20\nafl_banner     : fuzzer-master\nafl_version    : 1.85b\ncommand_line   : /home/skaramcheti/.virtualenvs/afl/bin/afl-unix/afl-fuzz -i /dev/shm/work/Thermal_Controller_v3/input -o /dev/shm/work/Thermal_Controller_v3/sync -m 4G -Q -M fuzzer-master -x /dev/shm/work/Thermal_Controller_v3/Thermal_Controller_v3.dict -- data/linux/processed-challenges/Thermal_Controller_v3/bin/Thermal_Controller_v3\n'
p95
I0
tp96
a(I5760
S'start_time     : 1500220308\nlast_update    : 1500226077\nfuzzer_pid     : 31161\ncycles_done    : 2\nexecs_done     : 1831671\nexecs_per_sec  : 92.30\npaths_total    : 53\npaths_favored  : 9\npaths_found    : 52\npaths_imported : 0\nmax_depth      : 6\ncur_path       : 52\npending_favs   : 0\npending_total  : 22\nvariable_paths : 0\nbitmap_cvg     : 0.22%\nunique_crashes : 0\nunique_hangs   : 7\nlast_path      : 1500222475\nlast_crash     : 0\nlast_hang      : 1500225302\nexec_timeout   : 20\nafl_banner     : fuzzer-master\nafl_version    : 1.85b\ncommand_line   : /home/skaramcheti/.virtualenvs/afl/bin/afl-unix/afl-fuzz -i /dev/shm/work/Thermal_Controller_v3/input -o /dev/shm/work/Thermal_Controller_v3/sync -m 4G -Q -M fuzzer-master -x /dev/shm/work/Thermal_Controller_v3/Thermal_Controller_v3.dict -- data/linux/processed-challenges/Thermal_Controller_v3/bin/Thermal_Controller_v3\n'
p97
I0
tp98
a(I5880
S'start_time     : 1500220308\nlast_update    : 1500226197\nfuzzer_pid     : 31161\ncycles_done    : 2\nexecs_done     : 1842997\nexecs_per_sec  : 95.71\npaths_total    : 53\npaths_favored  : 9\npaths_found    : 52\npaths_imported : 0\nmax_depth      : 6\ncur_path       : 52\npending_favs   : 0\npending_total  : 22\nvariable_paths : 0\nbitmap_cvg     : 0.22%\nunique_crashes : 0\nunique_hangs   : 7\nlast_path      : 1500222475\nlast_crash     : 0\nlast_hang      : 1500225302\nexec_timeout   : 20\nafl_banner     : fuzzer-master\nafl_version    : 1.85b\ncommand_line   : /home/skaramcheti/.virtualenvs/afl/bin/afl-unix/afl-fuzz -i /dev/shm/work/Thermal_Controller_v3/input -o /dev/shm/work/Thermal_Controller_v3/sync -m 4G -Q -M fuzzer-master -x /dev/shm/work/Thermal_Controller_v3/Thermal_Controller_v3.dict -- data/linux/processed-challenges/Thermal_Controller_v3/bin/Thermal_Controller_v3\n'
p99
I0
tp100
a(I6000
S'start_time     : 1500220308\nlast_update    : 1500226317\nfuzzer_pid     : 31161\ncycles_done    : 2\nexecs_done     : 1854256\nexecs_per_sec  : 93.52\npaths_total    : 53\npaths_favored  : 9\npaths_found    : 52\npaths_imported : 0\nmax_depth      : 6\ncur_path       : 52\npending_favs   : 0\npending_total  : 22\nvariable_paths : 0\nbitmap_cvg     : 0.22%\nunique_crashes : 0\nunique_hangs   : 7\nlast_path      : 1500222475\nlast_crash     : 0\nlast_hang      : 1500225302\nexec_timeout   : 20\nafl_banner     : fuzzer-master\nafl_version    : 1.85b\ncommand_line   : /home/skaramcheti/.virtualenvs/afl/bin/afl-unix/afl-fuzz -i /dev/shm/work/Thermal_Controller_v3/input -o /dev/shm/work/Thermal_Controller_v3/sync -m 4G -Q -M fuzzer-master -x /dev/shm/work/Thermal_Controller_v3/Thermal_Controller_v3.dict -- data/linux/processed-challenges/Thermal_Controller_v3/bin/Thermal_Controller_v3\n'
p101
I0
tp102
a(I6120
S'start_time     : 1500220308\nlast_update    : 1500226377\nfuzzer_pid     : 31161\ncycles_done    : 2\nexecs_done     : 1859925\nexecs_per_sec  : 96.74\npaths_total    : 53\npaths_favored  : 9\npaths_found    : 52\npaths_imported : 0\nmax_depth      : 6\ncur_path       : 52\npending_favs   : 0\npending_total  : 22\nvariable_paths : 0\nbitmap_cvg     : 0.22%\nunique_crashes : 0\nunique_hangs   : 8\nlast_path      : 1500222475\nlast_crash     : 0\nlast_hang      : 1500226363\nexec_timeout   : 20\nafl_banner     : fuzzer-master\nafl_version    : 1.85b\ncommand_line   : /home/skaramcheti/.virtualenvs/afl/bin/afl-unix/afl-fuzz -i /dev/shm/work/Thermal_Controller_v3/input -o /dev/shm/work/Thermal_Controller_v3/sync -m 4G -Q -M fuzzer-master -x /dev/shm/work/Thermal_Controller_v3/Thermal_Controller_v3.dict -- data/linux/processed-challenges/Thermal_Controller_v3/bin/Thermal_Controller_v3\n'
p103
I0
tp104
a(I6240
S'start_time     : 1500220308\nlast_update    : 1500226497\nfuzzer_pid     : 31161\ncycles_done    : 2\nexecs_done     : 1871336\nexecs_per_sec  : 95.02\npaths_total    : 53\npaths_favored  : 9\npaths_found    : 52\npaths_imported : 0\nmax_depth      : 6\ncur_path       : 52\npending_favs   : 0\npending_total  : 22\nvariable_paths : 0\nbitmap_cvg     : 0.22%\nunique_crashes : 0\nunique_hangs   : 8\nlast_path      : 1500222475\nlast_crash     : 0\nlast_hang      : 1500226363\nexec_timeout   : 20\nafl_banner     : fuzzer-master\nafl_version    : 1.85b\ncommand_line   : /home/skaramcheti/.virtualenvs/afl/bin/afl-unix/afl-fuzz -i /dev/shm/work/Thermal_Controller_v3/input -o /dev/shm/work/Thermal_Controller_v3/sync -m 4G -Q -M fuzzer-master -x /dev/shm/work/Thermal_Controller_v3/Thermal_Controller_v3.dict -- data/linux/processed-challenges/Thermal_Controller_v3/bin/Thermal_Controller_v3\n'
p105
I0
tp106
a(I6360
S'start_time     : 1500220308\nlast_update    : 1500226618\nfuzzer_pid     : 31161\ncycles_done    : 2\nexecs_done     : 1882714\nexecs_per_sec  : 94.15\npaths_total    : 53\npaths_favored  : 9\npaths_found    : 52\npaths_imported : 0\nmax_depth      : 6\ncur_path       : 52\npending_favs   : 0\npending_total  : 22\nvariable_paths : 0\nbitmap_cvg     : 0.22%\nunique_crashes : 0\nunique_hangs   : 8\nlast_path      : 1500222475\nlast_crash     : 0\nlast_hang      : 1500226363\nexec_timeout   : 20\nafl_banner     : fuzzer-master\nafl_version    : 1.85b\ncommand_line   : /home/skaramcheti/.virtualenvs/afl/bin/afl-unix/afl-fuzz -i /dev/shm/work/Thermal_Controller_v3/input -o /dev/shm/work/Thermal_Controller_v3/sync -m 4G -Q -M fuzzer-master -x /dev/shm/work/Thermal_Controller_v3/Thermal_Controller_v3.dict -- data/linux/processed-challenges/Thermal_Controller_v3/bin/Thermal_Controller_v3\n'
p107
I0
tp108
a(I6480
S'start_time     : 1500220308\nlast_update    : 1500226738\nfuzzer_pid     : 31161\ncycles_done    : 2\nexecs_done     : 1894133\nexecs_per_sec  : 94.66\npaths_total    : 53\npaths_favored  : 9\npaths_found    : 52\npaths_imported : 0\nmax_depth      : 6\ncur_path       : 52\npending_favs   : 0\npending_total  : 22\nvariable_paths : 0\nbitmap_cvg     : 0.22%\nunique_crashes : 0\nunique_hangs   : 8\nlast_path      : 1500222475\nlast_crash     : 0\nlast_hang      : 1500226363\nexec_timeout   : 20\nafl_banner     : fuzzer-master\nafl_version    : 1.85b\ncommand_line   : /home/skaramcheti/.virtualenvs/afl/bin/afl-unix/afl-fuzz -i /dev/shm/work/Thermal_Controller_v3/input -o /dev/shm/work/Thermal_Controller_v3/sync -m 4G -Q -M fuzzer-master -x /dev/shm/work/Thermal_Controller_v3/Thermal_Controller_v3.dict -- data/linux/processed-challenges/Thermal_Controller_v3/bin/Thermal_Controller_v3\n'
p109
I0
tp110
a(I6600
S'start_time     : 1500220308\nlast_update    : 1500226858\nfuzzer_pid     : 31161\ncycles_done    : 2\nexecs_done     : 1905417\nexecs_per_sec  : 94.53\npaths_total    : 53\npaths_favored  : 9\npaths_found    : 52\npaths_imported : 0\nmax_depth      : 6\ncur_path       : 52\npending_favs   : 0\npending_total  : 22\nvariable_paths : 0\nbitmap_cvg     : 0.22%\nunique_crashes : 0\nunique_hangs   : 8\nlast_path      : 1500222475\nlast_crash     : 0\nlast_hang      : 1500226363\nexec_timeout   : 20\nafl_banner     : fuzzer-master\nafl_version    : 1.85b\ncommand_line   : /home/skaramcheti/.virtualenvs/afl/bin/afl-unix/afl-fuzz -i /dev/shm/work/Thermal_Controller_v3/input -o /dev/shm/work/Thermal_Controller_v3/sync -m 4G -Q -M fuzzer-master -x /dev/shm/work/Thermal_Controller_v3/Thermal_Controller_v3.dict -- data/linux/processed-challenges/Thermal_Controller_v3/bin/Thermal_Controller_v3\n'
p111
I0
tp112
a(I6720
S'start_time     : 1500220308\nlast_update    : 1500226978\nfuzzer_pid     : 31161\ncycles_done    : 2\nexecs_done     : 1916811\nexecs_per_sec  : 95.33\npaths_total    : 53\npaths_favored  : 9\npaths_found    : 52\npaths_imported : 0\nmax_depth      : 6\ncur_path       : 52\npending_favs   : 0\npending_total  : 22\nvariable_paths : 0\nbitmap_cvg     : 0.22%\nunique_crashes : 0\nunique_hangs   : 8\nlast_path      : 1500222475\nlast_crash     : 0\nlast_hang      : 1500226363\nexec_timeout   : 20\nafl_banner     : fuzzer-master\nafl_version    : 1.85b\ncommand_line   : /home/skaramcheti/.virtualenvs/afl/bin/afl-unix/afl-fuzz -i /dev/shm/work/Thermal_Controller_v3/input -o /dev/shm/work/Thermal_Controller_v3/sync -m 4G -Q -M fuzzer-master -x /dev/shm/work/Thermal_Controller_v3/Thermal_Controller_v3.dict -- data/linux/processed-challenges/Thermal_Controller_v3/bin/Thermal_Controller_v3\n'
p113
I0
tp114
a(I6840
S'start_time     : 1500220308\nlast_update    : 1500227099\nfuzzer_pid     : 31161\ncycles_done    : 2\nexecs_done     : 1928083\nexecs_per_sec  : 91.28\npaths_total    : 53\npaths_favored  : 9\npaths_found    : 52\npaths_imported : 0\nmax_depth      : 6\ncur_path       : 52\npending_favs   : 0\npending_total  : 22\nvariable_paths : 0\nbitmap_cvg     : 0.22%\nunique_crashes : 0\nunique_hangs   : 8\nlast_path      : 1500222475\nlast_crash     : 0\nlast_hang      : 1500226363\nexec_timeout   : 20\nafl_banner     : fuzzer-master\nafl_version    : 1.85b\ncommand_line   : /home/skaramcheti/.virtualenvs/afl/bin/afl-unix/afl-fuzz -i /dev/shm/work/Thermal_Controller_v3/input -o /dev/shm/work/Thermal_Controller_v3/sync -m 4G -Q -M fuzzer-master -x /dev/shm/work/Thermal_Controller_v3/Thermal_Controller_v3.dict -- data/linux/processed-challenges/Thermal_Controller_v3/bin/Thermal_Controller_v3\n'
p115
I0
tp116
a(I6960
S'start_time     : 1500220308\nlast_update    : 1500227219\nfuzzer_pid     : 31161\ncycles_done    : 2\nexecs_done     : 1939360\nexecs_per_sec  : 97.55\npaths_total    : 53\npaths_favored  : 9\npaths_found    : 52\npaths_imported : 0\nmax_depth      : 6\ncur_path       : 52\npending_favs   : 0\npending_total  : 22\nvariable_paths : 0\nbitmap_cvg     : 0.22%\nunique_crashes : 0\nunique_hangs   : 8\nlast_path      : 1500222475\nlast_crash     : 0\nlast_hang      : 1500226363\nexec_timeout   : 20\nafl_banner     : fuzzer-master\nafl_version    : 1.85b\ncommand_line   : /home/skaramcheti/.virtualenvs/afl/bin/afl-unix/afl-fuzz -i /dev/shm/work/Thermal_Controller_v3/input -o /dev/shm/work/Thermal_Controller_v3/sync -m 4G -Q -M fuzzer-master -x /dev/shm/work/Thermal_Controller_v3/Thermal_Controller_v3.dict -- data/linux/processed-challenges/Thermal_Controller_v3/bin/Thermal_Controller_v3\n'
p117
I0
tp118
a(I7080
S'start_time     : 1500220308\nlast_update    : 1500227339\nfuzzer_pid     : 31161\ncycles_done    : 2\nexecs_done     : 1950680\nexecs_per_sec  : 95.48\npaths_total    : 53\npaths_favored  : 9\npaths_found    : 52\npaths_imported : 0\nmax_depth      : 6\ncur_path       : 52\npending_favs   : 0\npending_total  : 22\nvariable_paths : 0\nbitmap_cvg     : 0.22%\nunique_crashes : 0\nunique_hangs   : 8\nlast_path      : 1500222475\nlast_crash     : 0\nlast_hang      : 1500226363\nexec_timeout   : 20\nafl_banner     : fuzzer-master\nafl_version    : 1.85b\ncommand_line   : /home/skaramcheti/.virtualenvs/afl/bin/afl-unix/afl-fuzz -i /dev/shm/work/Thermal_Controller_v3/input -o /dev/shm/work/Thermal_Controller_v3/sync -m 4G -Q -M fuzzer-master -x /dev/shm/work/Thermal_Controller_v3/Thermal_Controller_v3.dict -- data/linux/processed-challenges/Thermal_Controller_v3/bin/Thermal_Controller_v3\n'
p119
I0
tp120
a(I7200
S'start_time     : 1500220308\nlast_update    : 1500227459\nfuzzer_pid     : 31161\ncycles_done    : 2\nexecs_done     : 1962049\nexecs_per_sec  : 97.53\npaths_total    : 53\npaths_favored  : 9\npaths_found    : 52\npaths_imported : 0\nmax_depth      : 6\ncur_path       : 52\npending_favs   : 0\npending_total  : 22\nvariable_paths : 0\nbitmap_cvg     : 0.22%\nunique_crashes : 0\nunique_hangs   : 8\nlast_path      : 1500222475\nlast_crash     : 0\nlast_hang      : 1500226363\nexec_timeout   : 20\nafl_banner     : fuzzer-master\nafl_version    : 1.85b\ncommand_line   : /home/skaramcheti/.virtualenvs/afl/bin/afl-unix/afl-fuzz -i /dev/shm/work/Thermal_Controller_v3/input -o /dev/shm/work/Thermal_Controller_v3/sync -m 4G -Q -M fuzzer-master -x /dev/shm/work/Thermal_Controller_v3/Thermal_Controller_v3.dict -- data/linux/processed-challenges/Thermal_Controller_v3/bin/Thermal_Controller_v3\n'
p121
I0
tp122
a(I7320
S'start_time     : 1500220308\nlast_update    : 1500227579\nfuzzer_pid     : 31161\ncycles_done    : 2\nexecs_done     : 1973391\nexecs_per_sec  : 93.73\npaths_total    : 53\npaths_favored  : 9\npaths_found    : 52\npaths_imported : 0\nmax_depth      : 6\ncur_path       : 52\npending_favs   : 0\npending_total  : 22\nvariable_paths : 0\nbitmap_cvg     : 0.22%\nunique_crashes : 0\nunique_hangs   : 8\nlast_path      : 1500222475\nlast_crash     : 0\nlast_hang      : 1500226363\nexec_timeout   : 20\nafl_banner     : fuzzer-master\nafl_version    : 1.85b\ncommand_line   : /home/skaramcheti/.virtualenvs/afl/bin/afl-unix/afl-fuzz -i /dev/shm/work/Thermal_Controller_v3/input -o /dev/shm/work/Thermal_Controller_v3/sync -m 4G -Q -M fuzzer-master -x /dev/shm/work/Thermal_Controller_v3/Thermal_Controller_v3.dict -- data/linux/processed-challenges/Thermal_Controller_v3/bin/Thermal_Controller_v3\n'
p123
I0
tp124
a(I7440
S'start_time     : 1500220308\nlast_update    : 1500227699\nfuzzer_pid     : 31161\ncycles_done    : 2\nexecs_done     : 1984673\nexecs_per_sec  : 93.40\npaths_total    : 53\npaths_favored  : 9\npaths_found    : 52\npaths_imported : 0\nmax_depth      : 6\ncur_path       : 52\npending_favs   : 0\npending_total  : 22\nvariable_paths : 0\nbitmap_cvg     : 0.22%\nunique_crashes : 0\nunique_hangs   : 9\nlast_path      : 1500222475\nlast_crash     : 0\nlast_hang      : 1500227678\nexec_timeout   : 20\nafl_banner     : fuzzer-master\nafl_version    : 1.85b\ncommand_line   : /home/skaramcheti/.virtualenvs/afl/bin/afl-unix/afl-fuzz -i /dev/shm/work/Thermal_Controller_v3/input -o /dev/shm/work/Thermal_Controller_v3/sync -m 4G -Q -M fuzzer-master -x /dev/shm/work/Thermal_Controller_v3/Thermal_Controller_v3.dict -- data/linux/processed-challenges/Thermal_Controller_v3/bin/Thermal_Controller_v3\n'
p125
I0
tp126
a(I7560
S'start_time     : 1500220308\nlast_update    : 1500227819\nfuzzer_pid     : 31161\ncycles_done    : 2\nexecs_done     : 1995662\nexecs_per_sec  : 91.84\npaths_total    : 53\npaths_favored  : 9\npaths_found    : 52\npaths_imported : 0\nmax_depth      : 6\ncur_path       : 52\npending_favs   : 0\npending_total  : 22\nvariable_paths : 0\nbitmap_cvg     : 0.22%\nunique_crashes : 0\nunique_hangs   : 9\nlast_path      : 1500222475\nlast_crash     : 0\nlast_hang      : 1500227678\nexec_timeout   : 20\nafl_banner     : fuzzer-master\nafl_version    : 1.85b\ncommand_line   : /home/skaramcheti/.virtualenvs/afl/bin/afl-unix/afl-fuzz -i /dev/shm/work/Thermal_Controller_v3/input -o /dev/shm/work/Thermal_Controller_v3/sync -m 4G -Q -M fuzzer-master -x /dev/shm/work/Thermal_Controller_v3/Thermal_Controller_v3.dict -- data/linux/processed-challenges/Thermal_Controller_v3/bin/Thermal_Controller_v3\n'
p127
I0
tp128
a(I7680
S'start_time     : 1500220308\nlast_update    : 1500227939\nfuzzer_pid     : 31161\ncycles_done    : 2\nexecs_done     : 2006668\nexecs_per_sec  : 92.03\npaths_total    : 53\npaths_favored  : 9\npaths_found    : 52\npaths_imported : 0\nmax_depth      : 6\ncur_path       : 52\npending_favs   : 0\npending_total  : 22\nvariable_paths : 0\nbitmap_cvg     : 0.22%\nunique_crashes : 0\nunique_hangs   : 9\nlast_path      : 1500222475\nlast_crash     : 0\nlast_hang      : 1500227678\nexec_timeout   : 20\nafl_banner     : fuzzer-master\nafl_version    : 1.85b\ncommand_line   : /home/skaramcheti/.virtualenvs/afl/bin/afl-unix/afl-fuzz -i /dev/shm/work/Thermal_Controller_v3/input -o /dev/shm/work/Thermal_Controller_v3/sync -m 4G -Q -M fuzzer-master -x /dev/shm/work/Thermal_Controller_v3/Thermal_Controller_v3.dict -- data/linux/processed-challenges/Thermal_Controller_v3/bin/Thermal_Controller_v3\n'
p129
I0
tp130
a(I7800
S'start_time     : 1500220308\nlast_update    : 1500228060\nfuzzer_pid     : 31161\ncycles_done    : 2\nexecs_done     : 2017713\nexecs_per_sec  : 93.63\npaths_total    : 53\npaths_favored  : 9\npaths_found    : 52\npaths_imported : 0\nmax_depth      : 6\ncur_path       : 52\npending_favs   : 0\npending_total  : 22\nvariable_paths : 0\nbitmap_cvg     : 0.22%\nunique_crashes : 0\nunique_hangs   : 9\nlast_path      : 1500222475\nlast_crash     : 0\nlast_hang      : 1500227678\nexec_timeout   : 20\nafl_banner     : fuzzer-master\nafl_version    : 1.85b\ncommand_line   : /home/skaramcheti/.virtualenvs/afl/bin/afl-unix/afl-fuzz -i /dev/shm/work/Thermal_Controller_v3/input -o /dev/shm/work/Thermal_Controller_v3/sync -m 4G -Q -M fuzzer-master -x /dev/shm/work/Thermal_Controller_v3/Thermal_Controller_v3.dict -- data/linux/processed-challenges/Thermal_Controller_v3/bin/Thermal_Controller_v3\n'
p131
I0
tp132
a(I7920
S'start_time     : 1500220308\nlast_update    : 1500228180\nfuzzer_pid     : 31161\ncycles_done    : 2\nexecs_done     : 2028757\nexecs_per_sec  : 93.37\npaths_total    : 53\npaths_favored  : 9\npaths_found    : 52\npaths_imported : 0\nmax_depth      : 6\ncur_path       : 52\npending_favs   : 0\npending_total  : 22\nvariable_paths : 0\nbitmap_cvg     : 0.22%\nunique_crashes : 0\nunique_hangs   : 9\nlast_path      : 1500222475\nlast_crash     : 0\nlast_hang      : 1500227678\nexec_timeout   : 20\nafl_banner     : fuzzer-master\nafl_version    : 1.85b\ncommand_line   : /home/skaramcheti/.virtualenvs/afl/bin/afl-unix/afl-fuzz -i /dev/shm/work/Thermal_Controller_v3/input -o /dev/shm/work/Thermal_Controller_v3/sync -m 4G -Q -M fuzzer-master -x /dev/shm/work/Thermal_Controller_v3/Thermal_Controller_v3.dict -- data/linux/processed-challenges/Thermal_Controller_v3/bin/Thermal_Controller_v3\n'
p133
I0
tp134
a(I8040
S'start_time     : 1500220308\nlast_update    : 1500228300\nfuzzer_pid     : 31161\ncycles_done    : 2\nexecs_done     : 2039751\nexecs_per_sec  : 91.29\npaths_total    : 53\npaths_favored  : 9\npaths_found    : 52\npaths_imported : 0\nmax_depth      : 6\ncur_path       : 52\npending_favs   : 0\npending_total  : 22\nvariable_paths : 0\nbitmap_cvg     : 0.22%\nunique_crashes : 0\nunique_hangs   : 9\nlast_path      : 1500222475\nlast_crash     : 0\nlast_hang      : 1500227678\nexec_timeout   : 20\nafl_banner     : fuzzer-master\nafl_version    : 1.85b\ncommand_line   : /home/skaramcheti/.virtualenvs/afl/bin/afl-unix/afl-fuzz -i /dev/shm/work/Thermal_Controller_v3/input -o /dev/shm/work/Thermal_Controller_v3/sync -m 4G -Q -M fuzzer-master -x /dev/shm/work/Thermal_Controller_v3/Thermal_Controller_v3.dict -- data/linux/processed-challenges/Thermal_Controller_v3/bin/Thermal_Controller_v3\n'
p135
I0
tp136
a(I8160
S'start_time     : 1500220308\nlast_update    : 1500228420\nfuzzer_pid     : 31161\ncycles_done    : 2\nexecs_done     : 2050733\nexecs_per_sec  : 91.47\npaths_total    : 53\npaths_favored  : 9\npaths_found    : 52\npaths_imported : 0\nmax_depth      : 6\ncur_path       : 52\npending_favs   : 0\npending_total  : 22\nvariable_paths : 0\nbitmap_cvg     : 0.22%\nunique_crashes : 0\nunique_hangs   : 9\nlast_path      : 1500222475\nlast_crash     : 0\nlast_hang      : 1500227678\nexec_timeout   : 20\nafl_banner     : fuzzer-master\nafl_version    : 1.85b\ncommand_line   : /home/skaramcheti/.virtualenvs/afl/bin/afl-unix/afl-fuzz -i /dev/shm/work/Thermal_Controller_v3/input -o /dev/shm/work/Thermal_Controller_v3/sync -m 4G -Q -M fuzzer-master -x /dev/shm/work/Thermal_Controller_v3/Thermal_Controller_v3.dict -- data/linux/processed-challenges/Thermal_Controller_v3/bin/Thermal_Controller_v3\n'
p137
I0
tp138
a(I8280
S'start_time     : 1500220308\nlast_update    : 1500228540\nfuzzer_pid     : 31161\ncycles_done    : 2\nexecs_done     : 2061752\nexecs_per_sec  : 91.12\npaths_total    : 53\npaths_favored  : 9\npaths_found    : 52\npaths_imported : 0\nmax_depth      : 6\ncur_path       : 52\npending_favs   : 0\npending_total  : 22\nvariable_paths : 0\nbitmap_cvg     : 0.22%\nunique_crashes : 0\nunique_hangs   : 9\nlast_path      : 1500222475\nlast_crash     : 0\nlast_hang      : 1500227678\nexec_timeout   : 20\nafl_banner     : fuzzer-master\nafl_version    : 1.85b\ncommand_line   : /home/skaramcheti/.virtualenvs/afl/bin/afl-unix/afl-fuzz -i /dev/shm/work/Thermal_Controller_v3/input -o /dev/shm/work/Thermal_Controller_v3/sync -m 4G -Q -M fuzzer-master -x /dev/shm/work/Thermal_Controller_v3/Thermal_Controller_v3.dict -- data/linux/processed-challenges/Thermal_Controller_v3/bin/Thermal_Controller_v3\n'
p139
I0
tp140
a(I8400
S'start_time     : 1500220308\nlast_update    : 1500228661\nfuzzer_pid     : 31161\ncycles_done    : 2\nexecs_done     : 2072752\nexecs_per_sec  : 92.28\npaths_total    : 53\npaths_favored  : 9\npaths_found    : 52\npaths_imported : 0\nmax_depth      : 6\ncur_path       : 52\npending_favs   : 0\npending_total  : 22\nvariable_paths : 0\nbitmap_cvg     : 0.22%\nunique_crashes : 0\nunique_hangs   : 9\nlast_path      : 1500222475\nlast_crash     : 0\nlast_hang      : 1500227678\nexec_timeout   : 20\nafl_banner     : fuzzer-master\nafl_version    : 1.85b\ncommand_line   : /home/skaramcheti/.virtualenvs/afl/bin/afl-unix/afl-fuzz -i /dev/shm/work/Thermal_Controller_v3/input -o /dev/shm/work/Thermal_Controller_v3/sync -m 4G -Q -M fuzzer-master -x /dev/shm/work/Thermal_Controller_v3/Thermal_Controller_v3.dict -- data/linux/processed-challenges/Thermal_Controller_v3/bin/Thermal_Controller_v3\n'
p141
I0
tp142
a(I8520
S'start_time     : 1500220308\nlast_update    : 1500228781\nfuzzer_pid     : 31161\ncycles_done    : 2\nexecs_done     : 2083736\nexecs_per_sec  : 92.41\npaths_total    : 53\npaths_favored  : 9\npaths_found    : 52\npaths_imported : 0\nmax_depth      : 6\ncur_path       : 52\npending_favs   : 0\npending_total  : 22\nvariable_paths : 0\nbitmap_cvg     : 0.22%\nunique_crashes : 0\nunique_hangs   : 9\nlast_path      : 1500222475\nlast_crash     : 0\nlast_hang      : 1500227678\nexec_timeout   : 20\nafl_banner     : fuzzer-master\nafl_version    : 1.85b\ncommand_line   : /home/skaramcheti/.virtualenvs/afl/bin/afl-unix/afl-fuzz -i /dev/shm/work/Thermal_Controller_v3/input -o /dev/shm/work/Thermal_Controller_v3/sync -m 4G -Q -M fuzzer-master -x /dev/shm/work/Thermal_Controller_v3/Thermal_Controller_v3.dict -- data/linux/processed-challenges/Thermal_Controller_v3/bin/Thermal_Controller_v3\n'
p143
I0
tp144
a(I8640
S'start_time     : 1500220308\nlast_update    : 1500228901\nfuzzer_pid     : 31161\ncycles_done    : 2\nexecs_done     : 2094813\nexecs_per_sec  : 92.21\npaths_total    : 53\npaths_favored  : 9\npaths_found    : 52\npaths_imported : 0\nmax_depth      : 6\ncur_path       : 52\npending_favs   : 0\npending_total  : 22\nvariable_paths : 0\nbitmap_cvg     : 0.22%\nunique_crashes : 0\nunique_hangs   : 9\nlast_path      : 1500222475\nlast_crash     : 0\nlast_hang      : 1500227678\nexec_timeout   : 20\nafl_banner     : fuzzer-master\nafl_version    : 1.85b\ncommand_line   : /home/skaramcheti/.virtualenvs/afl/bin/afl-unix/afl-fuzz -i /dev/shm/work/Thermal_Controller_v3/input -o /dev/shm/work/Thermal_Controller_v3/sync -m 4G -Q -M fuzzer-master -x /dev/shm/work/Thermal_Controller_v3/Thermal_Controller_v3.dict -- data/linux/processed-challenges/Thermal_Controller_v3/bin/Thermal_Controller_v3\n'
p145
I0
tp146
a(I8760
S'start_time     : 1500220308\nlast_update    : 1500229021\nfuzzer_pid     : 31161\ncycles_done    : 2\nexecs_done     : 2105915\nexecs_per_sec  : 92.46\npaths_total    : 53\npaths_favored  : 9\npaths_found    : 52\npaths_imported : 0\nmax_depth      : 6\ncur_path       : 52\npending_favs   : 0\npending_total  : 22\nvariable_paths : 0\nbitmap_cvg     : 0.22%\nunique_crashes : 0\nunique_hangs   : 9\nlast_path      : 1500222475\nlast_crash     : 0\nlast_hang      : 1500227678\nexec_timeout   : 20\nafl_banner     : fuzzer-master\nafl_version    : 1.85b\ncommand_line   : /home/skaramcheti/.virtualenvs/afl/bin/afl-unix/afl-fuzz -i /dev/shm/work/Thermal_Controller_v3/input -o /dev/shm/work/Thermal_Controller_v3/sync -m 4G -Q -M fuzzer-master -x /dev/shm/work/Thermal_Controller_v3/Thermal_Controller_v3.dict -- data/linux/processed-challenges/Thermal_Controller_v3/bin/Thermal_Controller_v3\n'
p147
I0
tp148
a(I8880
S'start_time     : 1500220308\nlast_update    : 1500229142\nfuzzer_pid     : 31161\ncycles_done    : 2\nexecs_done     : 2116967\nexecs_per_sec  : 90.58\npaths_total    : 53\npaths_favored  : 9\npaths_found    : 52\npaths_imported : 0\nmax_depth      : 6\ncur_path       : 52\npending_favs   : 0\npending_total  : 22\nvariable_paths : 0\nbitmap_cvg     : 0.22%\nunique_crashes : 0\nunique_hangs   : 9\nlast_path      : 1500222475\nlast_crash     : 0\nlast_hang      : 1500227678\nexec_timeout   : 20\nafl_banner     : fuzzer-master\nafl_version    : 1.85b\ncommand_line   : /home/skaramcheti/.virtualenvs/afl/bin/afl-unix/afl-fuzz -i /dev/shm/work/Thermal_Controller_v3/input -o /dev/shm/work/Thermal_Controller_v3/sync -m 4G -Q -M fuzzer-master -x /dev/shm/work/Thermal_Controller_v3/Thermal_Controller_v3.dict -- data/linux/processed-challenges/Thermal_Controller_v3/bin/Thermal_Controller_v3\n'
p149
I0
tp150
a(I9000
S'start_time     : 1500220308\nlast_update    : 1500229262\nfuzzer_pid     : 31161\ncycles_done    : 2\nexecs_done     : 2127928\nexecs_per_sec  : 90.68\npaths_total    : 53\npaths_favored  : 9\npaths_found    : 52\npaths_imported : 0\nmax_depth      : 6\ncur_path       : 52\npending_favs   : 0\npending_total  : 22\nvariable_paths : 0\nbitmap_cvg     : 0.22%\nunique_crashes : 0\nunique_hangs   : 9\nlast_path      : 1500222475\nlast_crash     : 0\nlast_hang      : 1500227678\nexec_timeout   : 20\nafl_banner     : fuzzer-master\nafl_version    : 1.85b\ncommand_line   : /home/skaramcheti/.virtualenvs/afl/bin/afl-unix/afl-fuzz -i /dev/shm/work/Thermal_Controller_v3/input -o /dev/shm/work/Thermal_Controller_v3/sync -m 4G -Q -M fuzzer-master -x /dev/shm/work/Thermal_Controller_v3/Thermal_Controller_v3.dict -- data/linux/processed-challenges/Thermal_Controller_v3/bin/Thermal_Controller_v3\n'
p151
I0
tp152
a(I9120
S'start_time     : 1500220308\nlast_update    : 1500229382\nfuzzer_pid     : 31161\ncycles_done    : 2\nexecs_done     : 2139025\nexecs_per_sec  : 93.70\npaths_total    : 53\npaths_favored  : 9\npaths_found    : 52\npaths_imported : 0\nmax_depth      : 6\ncur_path       : 52\npending_favs   : 0\npending_total  : 22\nvariable_paths : 0\nbitmap_cvg     : 0.22%\nunique_crashes : 0\nunique_hangs   : 9\nlast_path      : 1500222475\nlast_crash     : 0\nlast_hang      : 1500227678\nexec_timeout   : 20\nafl_banner     : fuzzer-master\nafl_version    : 1.85b\ncommand_line   : /home/skaramcheti/.virtualenvs/afl/bin/afl-unix/afl-fuzz -i /dev/shm/work/Thermal_Controller_v3/input -o /dev/shm/work/Thermal_Controller_v3/sync -m 4G -Q -M fuzzer-master -x /dev/shm/work/Thermal_Controller_v3/Thermal_Controller_v3.dict -- data/linux/processed-challenges/Thermal_Controller_v3/bin/Thermal_Controller_v3\n'
p153
I0
tp154
a(I9240
S'start_time     : 1500220308\nlast_update    : 1500229502\nfuzzer_pid     : 31161\ncycles_done    : 2\nexecs_done     : 2149966\nexecs_per_sec  : 89.76\npaths_total    : 53\npaths_favored  : 9\npaths_found    : 52\npaths_imported : 0\nmax_depth      : 6\ncur_path       : 52\npending_favs   : 0\npending_total  : 22\nvariable_paths : 0\nbitmap_cvg     : 0.22%\nunique_crashes : 0\nunique_hangs   : 9\nlast_path      : 1500222475\nlast_crash     : 0\nlast_hang      : 1500227678\nexec_timeout   : 20\nafl_banner     : fuzzer-master\nafl_version    : 1.85b\ncommand_line   : /home/skaramcheti/.virtualenvs/afl/bin/afl-unix/afl-fuzz -i /dev/shm/work/Thermal_Controller_v3/input -o /dev/shm/work/Thermal_Controller_v3/sync -m 4G -Q -M fuzzer-master -x /dev/shm/work/Thermal_Controller_v3/Thermal_Controller_v3.dict -- data/linux/processed-challenges/Thermal_Controller_v3/bin/Thermal_Controller_v3\n'
p155
I0
tp156
a(I9360
S'start_time     : 1500220308\nlast_update    : 1500229623\nfuzzer_pid     : 31161\ncycles_done    : 2\nexecs_done     : 2160870\nexecs_per_sec  : 91.89\npaths_total    : 53\npaths_favored  : 9\npaths_found    : 52\npaths_imported : 0\nmax_depth      : 6\ncur_path       : 52\npending_favs   : 0\npending_total  : 22\nvariable_paths : 0\nbitmap_cvg     : 0.22%\nunique_crashes : 0\nunique_hangs   : 9\nlast_path      : 1500222475\nlast_crash     : 0\nlast_hang      : 1500227678\nexec_timeout   : 20\nafl_banner     : fuzzer-master\nafl_version    : 1.85b\ncommand_line   : /home/skaramcheti/.virtualenvs/afl/bin/afl-unix/afl-fuzz -i /dev/shm/work/Thermal_Controller_v3/input -o /dev/shm/work/Thermal_Controller_v3/sync -m 4G -Q -M fuzzer-master -x /dev/shm/work/Thermal_Controller_v3/Thermal_Controller_v3.dict -- data/linux/processed-challenges/Thermal_Controller_v3/bin/Thermal_Controller_v3\n'
p157
I0
tp158
a(I9480
S'start_time     : 1500220308\nlast_update    : 1500229743\nfuzzer_pid     : 31161\ncycles_done    : 2\nexecs_done     : 2171815\nexecs_per_sec  : 92.31\npaths_total    : 53\npaths_favored  : 9\npaths_found    : 52\npaths_imported : 0\nmax_depth      : 6\ncur_path       : 52\npending_favs   : 0\npending_total  : 22\nvariable_paths : 0\nbitmap_cvg     : 0.22%\nunique_crashes : 0\nunique_hangs   : 9\nlast_path      : 1500222475\nlast_crash     : 0\nlast_hang      : 1500227678\nexec_timeout   : 20\nafl_banner     : fuzzer-master\nafl_version    : 1.85b\ncommand_line   : /home/skaramcheti/.virtualenvs/afl/bin/afl-unix/afl-fuzz -i /dev/shm/work/Thermal_Controller_v3/input -o /dev/shm/work/Thermal_Controller_v3/sync -m 4G -Q -M fuzzer-master -x /dev/shm/work/Thermal_Controller_v3/Thermal_Controller_v3.dict -- data/linux/processed-challenges/Thermal_Controller_v3/bin/Thermal_Controller_v3\n'
p159
I0
tp160
a(I9600
S'start_time     : 1500220308\nlast_update    : 1500229863\nfuzzer_pid     : 31161\ncycles_done    : 2\nexecs_done     : 2183307\nexecs_per_sec  : 94.87\npaths_total    : 53\npaths_favored  : 9\npaths_found    : 52\npaths_imported : 0\nmax_depth      : 6\ncur_path       : 52\npending_favs   : 0\npending_total  : 22\nvariable_paths : 0\nbitmap_cvg     : 0.22%\nunique_crashes : 0\nunique_hangs   : 9\nlast_path      : 1500222475\nlast_crash     : 0\nlast_hang      : 1500227678\nexec_timeout   : 20\nafl_banner     : fuzzer-master\nafl_version    : 1.85b\ncommand_line   : /home/skaramcheti/.virtualenvs/afl/bin/afl-unix/afl-fuzz -i /dev/shm/work/Thermal_Controller_v3/input -o /dev/shm/work/Thermal_Controller_v3/sync -m 4G -Q -M fuzzer-master -x /dev/shm/work/Thermal_Controller_v3/Thermal_Controller_v3.dict -- data/linux/processed-challenges/Thermal_Controller_v3/bin/Thermal_Controller_v3\n'
p161
I0
tp162
a(I9720
S'start_time     : 1500220308\nlast_update    : 1500229983\nfuzzer_pid     : 31161\ncycles_done    : 2\nexecs_done     : 2194764\nexecs_per_sec  : 94.64\npaths_total    : 53\npaths_favored  : 9\npaths_found    : 52\npaths_imported : 0\nmax_depth      : 6\ncur_path       : 52\npending_favs   : 0\npending_total  : 22\nvariable_paths : 0\nbitmap_cvg     : 0.22%\nunique_crashes : 0\nunique_hangs   : 9\nlast_path      : 1500222475\nlast_crash     : 0\nlast_hang      : 1500227678\nexec_timeout   : 20\nafl_banner     : fuzzer-master\nafl_version    : 1.85b\ncommand_line   : /home/skaramcheti/.virtualenvs/afl/bin/afl-unix/afl-fuzz -i /dev/shm/work/Thermal_Controller_v3/input -o /dev/shm/work/Thermal_Controller_v3/sync -m 4G -Q -M fuzzer-master -x /dev/shm/work/Thermal_Controller_v3/Thermal_Controller_v3.dict -- data/linux/processed-challenges/Thermal_Controller_v3/bin/Thermal_Controller_v3\n'
p163
I0
tp164
a(I9840
S'start_time     : 1500220308\nlast_update    : 1500230103\nfuzzer_pid     : 31161\ncycles_done    : 2\nexecs_done     : 2206189\nexecs_per_sec  : 94.28\npaths_total    : 53\npaths_favored  : 9\npaths_found    : 52\npaths_imported : 0\nmax_depth      : 6\ncur_path       : 52\npending_favs   : 0\npending_total  : 22\nvariable_paths : 0\nbitmap_cvg     : 0.22%\nunique_crashes : 0\nunique_hangs   : 9\nlast_path      : 1500222475\nlast_crash     : 0\nlast_hang      : 1500227678\nexec_timeout   : 20\nafl_banner     : fuzzer-master\nafl_version    : 1.85b\ncommand_line   : /home/skaramcheti/.virtualenvs/afl/bin/afl-unix/afl-fuzz -i /dev/shm/work/Thermal_Controller_v3/input -o /dev/shm/work/Thermal_Controller_v3/sync -m 4G -Q -M fuzzer-master -x /dev/shm/work/Thermal_Controller_v3/Thermal_Controller_v3.dict -- data/linux/processed-challenges/Thermal_Controller_v3/bin/Thermal_Controller_v3\n'
p165
I0
tp166
a(I9960
S'start_time     : 1500220308\nlast_update    : 1500230223\nfuzzer_pid     : 31161\ncycles_done    : 2\nexecs_done     : 2217651\nexecs_per_sec  : 91.86\npaths_total    : 53\npaths_favored  : 9\npaths_found    : 52\npaths_imported : 0\nmax_depth      : 6\ncur_path       : 52\npending_favs   : 0\npending_total  : 22\nvariable_paths : 0\nbitmap_cvg     : 0.22%\nunique_crashes : 0\nunique_hangs   : 9\nlast_path      : 1500222475\nlast_crash     : 0\nlast_hang      : 1500227678\nexec_timeout   : 20\nafl_banner     : fuzzer-master\nafl_version    : 1.85b\ncommand_line   : /home/skaramcheti/.virtualenvs/afl/bin/afl-unix/afl-fuzz -i /dev/shm/work/Thermal_Controller_v3/input -o /dev/shm/work/Thermal_Controller_v3/sync -m 4G -Q -M fuzzer-master -x /dev/shm/work/Thermal_Controller_v3/Thermal_Controller_v3.dict -- data/linux/processed-challenges/Thermal_Controller_v3/bin/Thermal_Controller_v3\n'
p167
I0
tp168
a(I10080
S'start_time     : 1500220308\nlast_update    : 1500230344\nfuzzer_pid     : 31161\ncycles_done    : 2\nexecs_done     : 2229166\nexecs_per_sec  : 92.79\npaths_total    : 53\npaths_favored  : 9\npaths_found    : 52\npaths_imported : 0\nmax_depth      : 6\ncur_path       : 52\npending_favs   : 0\npending_total  : 22\nvariable_paths : 0\nbitmap_cvg     : 0.22%\nunique_crashes : 0\nunique_hangs   : 9\nlast_path      : 1500222475\nlast_crash     : 0\nlast_hang      : 1500227678\nexec_timeout   : 20\nafl_banner     : fuzzer-master\nafl_version    : 1.85b\ncommand_line   : /home/skaramcheti/.virtualenvs/afl/bin/afl-unix/afl-fuzz -i /dev/shm/work/Thermal_Controller_v3/input -o /dev/shm/work/Thermal_Controller_v3/sync -m 4G -Q -M fuzzer-master -x /dev/shm/work/Thermal_Controller_v3/Thermal_Controller_v3.dict -- data/linux/processed-challenges/Thermal_Controller_v3/bin/Thermal_Controller_v3\n'
p169
I0
tp170
a(I10200
S'start_time     : 1500220308\nlast_update    : 1500230464\nfuzzer_pid     : 31161\ncycles_done    : 2\nexecs_done     : 2240772\nexecs_per_sec  : 96.02\npaths_total    : 53\npaths_favored  : 9\npaths_found    : 52\npaths_imported : 0\nmax_depth      : 6\ncur_path       : 52\npending_favs   : 0\npending_total  : 22\nvariable_paths : 0\nbitmap_cvg     : 0.22%\nunique_crashes : 0\nunique_hangs   : 9\nlast_path      : 1500222475\nlast_crash     : 0\nlast_hang      : 1500227678\nexec_timeout   : 20\nafl_banner     : fuzzer-master\nafl_version    : 1.85b\ncommand_line   : /home/skaramcheti/.virtualenvs/afl/bin/afl-unix/afl-fuzz -i /dev/shm/work/Thermal_Controller_v3/input -o /dev/shm/work/Thermal_Controller_v3/sync -m 4G -Q -M fuzzer-master -x /dev/shm/work/Thermal_Controller_v3/Thermal_Controller_v3.dict -- data/linux/processed-challenges/Thermal_Controller_v3/bin/Thermal_Controller_v3\n'
p171
I0
tp172
a(I10320
S'start_time     : 1500220308\nlast_update    : 1500230584\nfuzzer_pid     : 31161\ncycles_done    : 2\nexecs_done     : 2252407\nexecs_per_sec  : 97.31\npaths_total    : 53\npaths_favored  : 9\npaths_found    : 52\npaths_imported : 0\nmax_depth      : 6\ncur_path       : 52\npending_favs   : 0\npending_total  : 22\nvariable_paths : 0\nbitmap_cvg     : 0.22%\nunique_crashes : 0\nunique_hangs   : 9\nlast_path      : 1500222475\nlast_crash     : 0\nlast_hang      : 1500227678\nexec_timeout   : 20\nafl_banner     : fuzzer-master\nafl_version    : 1.85b\ncommand_line   : /home/skaramcheti/.virtualenvs/afl/bin/afl-unix/afl-fuzz -i /dev/shm/work/Thermal_Controller_v3/input -o /dev/shm/work/Thermal_Controller_v3/sync -m 4G -Q -M fuzzer-master -x /dev/shm/work/Thermal_Controller_v3/Thermal_Controller_v3.dict -- data/linux/processed-challenges/Thermal_Controller_v3/bin/Thermal_Controller_v3\n'
p173
I0
tp174
a(I10440
S'start_time     : 1500220308\nlast_update    : 1500230704\nfuzzer_pid     : 31161\ncycles_done    : 2\nexecs_done     : 2264034\nexecs_per_sec  : 94.20\npaths_total    : 53\npaths_favored  : 9\npaths_found    : 52\npaths_imported : 0\nmax_depth      : 6\ncur_path       : 52\npending_favs   : 0\npending_total  : 22\nvariable_paths : 0\nbitmap_cvg     : 0.22%\nunique_crashes : 0\nunique_hangs   : 9\nlast_path      : 1500222475\nlast_crash     : 0\nlast_hang      : 1500227678\nexec_timeout   : 20\nafl_banner     : fuzzer-master\nafl_version    : 1.85b\ncommand_line   : /home/skaramcheti/.virtualenvs/afl/bin/afl-unix/afl-fuzz -i /dev/shm/work/Thermal_Controller_v3/input -o /dev/shm/work/Thermal_Controller_v3/sync -m 4G -Q -M fuzzer-master -x /dev/shm/work/Thermal_Controller_v3/Thermal_Controller_v3.dict -- data/linux/processed-challenges/Thermal_Controller_v3/bin/Thermal_Controller_v3\n'
p175
I0
tp176
a(I10560
S'start_time     : 1500220308\nlast_update    : 1500230824\nfuzzer_pid     : 31161\ncycles_done    : 2\nexecs_done     : 2275641\nexecs_per_sec  : 96.42\npaths_total    : 53\npaths_favored  : 9\npaths_found    : 52\npaths_imported : 0\nmax_depth      : 6\ncur_path       : 52\npending_favs   : 0\npending_total  : 22\nvariable_paths : 0\nbitmap_cvg     : 0.22%\nunique_crashes : 0\nunique_hangs   : 9\nlast_path      : 1500222475\nlast_crash     : 0\nlast_hang      : 1500227678\nexec_timeout   : 20\nafl_banner     : fuzzer-master\nafl_version    : 1.85b\ncommand_line   : /home/skaramcheti/.virtualenvs/afl/bin/afl-unix/afl-fuzz -i /dev/shm/work/Thermal_Controller_v3/input -o /dev/shm/work/Thermal_Controller_v3/sync -m 4G -Q -M fuzzer-master -x /dev/shm/work/Thermal_Controller_v3/Thermal_Controller_v3.dict -- data/linux/processed-challenges/Thermal_Controller_v3/bin/Thermal_Controller_v3\n'
p177
I0
tp178
a(I10680
S'start_time     : 1500220308\nlast_update    : 1500230944\nfuzzer_pid     : 31161\ncycles_done    : 2\nexecs_done     : 2287071\nexecs_per_sec  : 94.86\npaths_total    : 53\npaths_favored  : 9\npaths_found    : 52\npaths_imported : 0\nmax_depth      : 6\ncur_path       : 52\npending_favs   : 0\npending_total  : 22\nvariable_paths : 0\nbitmap_cvg     : 0.22%\nunique_crashes : 0\nunique_hangs   : 9\nlast_path      : 1500222475\nlast_crash     : 0\nlast_hang      : 1500227678\nexec_timeout   : 20\nafl_banner     : fuzzer-master\nafl_version    : 1.85b\ncommand_line   : /home/skaramcheti/.virtualenvs/afl/bin/afl-unix/afl-fuzz -i /dev/shm/work/Thermal_Controller_v3/input -o /dev/shm/work/Thermal_Controller_v3/sync -m 4G -Q -M fuzzer-master -x /dev/shm/work/Thermal_Controller_v3/Thermal_Controller_v3.dict -- data/linux/processed-challenges/Thermal_Controller_v3/bin/Thermal_Controller_v3\n'
p179
I0
tp180
a.