(lp0
(I0
S'start_time     : 1499982300\nlast_update    : 1499982300\nfuzzer_pid     : 8947\ncycles_done    : 0\nexecs_done     : 10\nexecs_per_sec  : 222.22\npaths_total    : 1\npaths_favored  : 1\npaths_found    : 0\npaths_imported : 0\nmax_depth      : 1\ncur_path       : 0\npending_favs   : 1\npending_total  : 1\nvariable_paths : 0\nbitmap_cvg     : 0.05%\nunique_crashes : 0\nunique_hangs   : 0\nlast_path      : 0\nlast_crash     : 0\nlast_hang      : 0\nexec_timeout   : 20\nafl_banner     : fuzzer-master\nafl_version    : 1.85b\ncommand_line   : /home/skaramcheti/.virtualenvs/afl/bin/afl-unix/afl-fuzz -i /dev/shm/work/Single-Sign-On/input -o /dev/shm/work/Single-Sign-On/sync -m 4G -Q -M fuzzer-master -x /dev/shm/work/Single-Sign-On/Single-Sign-On.dict -- data/linux/processed-challenges/Single-Sign-On/bin/Single-Sign-On\n'
p1
I16
tp2
a(I120
S'start_time     : 1499982300\nlast_update    : 1499982420\nfuzzer_pid     : 8947\ncycles_done    : 0\nexecs_done     : 164371\nexecs_per_sec  : 330.85\npaths_total    : 23\npaths_favored  : 3\npaths_found    : 22\npaths_imported : 0\nmax_depth      : 2\ncur_path       : 15\npending_favs   : 3\npending_total  : 22\nvariable_paths : 0\nbitmap_cvg     : 0.20%\nunique_crashes : 0\nunique_hangs   : 0\nlast_path      : 1499982398\nlast_crash     : 0\nlast_hang      : 0\nexec_timeout   : 20\nafl_banner     : fuzzer-master\nafl_version    : 1.85b\ncommand_line   : /home/skaramcheti/.virtualenvs/afl/bin/afl-unix/afl-fuzz -i /dev/shm/work/Single-Sign-On/input -o /dev/shm/work/Single-Sign-On/sync -m 4G -Q -M fuzzer-master -x /dev/shm/work/Single-Sign-On/Single-Sign-On.dict -- data/linux/processed-challenges/Single-Sign-On/bin/Single-Sign-On\n'
p3
I8
tp4
a(I240
S'start_time     : 1499982300\nlast_update    : 1499982540\nfuzzer_pid     : 8947\ncycles_done    : 0\nexecs_done     : 219722\nexecs_per_sec  : 488.52\npaths_total    : 31\npaths_favored  : 3\npaths_found    : 30\npaths_imported : 0\nmax_depth      : 3\ncur_path       : 15\npending_favs   : 3\npending_total  : 30\nvariable_paths : 0\nbitmap_cvg     : 0.34%\nunique_crashes : 0\nunique_hangs   : 1\nlast_path      : 1499982516\nlast_crash     : 0\nlast_hang      : 1499982444\nexec_timeout   : 20\nafl_banner     : fuzzer-master\nafl_version    : 1.85b\ncommand_line   : /home/skaramcheti/.virtualenvs/afl/bin/afl-unix/afl-fuzz -i /dev/shm/work/Single-Sign-On/input -o /dev/shm/work/Single-Sign-On/sync -m 4G -Q -M fuzzer-master -x /dev/shm/work/Single-Sign-On/Single-Sign-On.dict -- data/linux/processed-challenges/Single-Sign-On/bin/Single-Sign-On\n'
p5
I7
tp6
a(I360
S'start_time     : 1499982300\nlast_update    : 1499982661\nfuzzer_pid     : 8947\ncycles_done    : 0\nexecs_done     : 278178\nexecs_per_sec  : 483.24\npaths_total    : 32\npaths_favored  : 3\npaths_found    : 31\npaths_imported : 0\nmax_depth      : 3\ncur_path       : 15\npending_favs   : 3\npending_total  : 31\nvariable_paths : 0\nbitmap_cvg     : 0.34%\nunique_crashes : 0\nunique_hangs   : 1\nlast_path      : 1499982611\nlast_crash     : 0\nlast_hang      : 1499982444\nexec_timeout   : 20\nafl_banner     : fuzzer-master\nafl_version    : 1.85b\ncommand_line   : /home/skaramcheti/.virtualenvs/afl/bin/afl-unix/afl-fuzz -i /dev/shm/work/Single-Sign-On/input -o /dev/shm/work/Single-Sign-On/sync -m 4G -Q -M fuzzer-master -x /dev/shm/work/Single-Sign-On/Single-Sign-On.dict -- data/linux/processed-challenges/Single-Sign-On/bin/Single-Sign-On\n'
p7
I1
tp8
a(I480
S'start_time     : 1499982300\nlast_update    : 1499982781\nfuzzer_pid     : 8947\ncycles_done    : 0\nexecs_done     : 313619\nexecs_per_sec  : 470.58\npaths_total    : 37\npaths_favored  : 8\npaths_found    : 36\npaths_imported : 0\nmax_depth      : 4\ncur_path       : 23\npending_favs   : 6\npending_total  : 34\nvariable_paths : 0\nbitmap_cvg     : 0.37%\nunique_crashes : 0\nunique_hangs   : 1\nlast_path      : 1499982779\nlast_crash     : 0\nlast_hang      : 1499982444\nexec_timeout   : 20\nafl_banner     : fuzzer-master\nafl_version    : 1.85b\ncommand_line   : /home/skaramcheti/.virtualenvs/afl/bin/afl-unix/afl-fuzz -i /dev/shm/work/Single-Sign-On/input -o /dev/shm/work/Single-Sign-On/sync -m 4G -Q -M fuzzer-master -x /dev/shm/work/Single-Sign-On/Single-Sign-On.dict -- data/linux/processed-challenges/Single-Sign-On/bin/Single-Sign-On\n'
p9
I5
tp10
a(I600
S'start_time     : 1499982300\nlast_update    : 1499982901\nfuzzer_pid     : 8947\ncycles_done    : 0\nexecs_done     : 371934\nexecs_per_sec  : 479.12\npaths_total    : 41\npaths_favored  : 8\npaths_found    : 40\npaths_imported : 0\nmax_depth      : 4\ncur_path       : 23\npending_favs   : 6\npending_total  : 38\nvariable_paths : 0\nbitmap_cvg     : 0.40%\nunique_crashes : 0\nunique_hangs   : 2\nlast_path      : 1499982837\nlast_crash     : 0\nlast_hang      : 1499982835\nexec_timeout   : 20\nafl_banner     : fuzzer-master\nafl_version    : 1.85b\ncommand_line   : /home/skaramcheti/.virtualenvs/afl/bin/afl-unix/afl-fuzz -i /dev/shm/work/Single-Sign-On/input -o /dev/shm/work/Single-Sign-On/sync -m 4G -Q -M fuzzer-master -x /dev/shm/work/Single-Sign-On/Single-Sign-On.dict -- data/linux/processed-challenges/Single-Sign-On/bin/Single-Sign-On\n'
p11
I4
tp12
a(I720
S'start_time     : 1499982300\nlast_update    : 1499983021\nfuzzer_pid     : 8947\ncycles_done    : 0\nexecs_done     : 429953\nexecs_per_sec  : 335.86\npaths_total    : 41\npaths_favored  : 12\npaths_found    : 40\npaths_imported : 0\nmax_depth      : 4\ncur_path       : 24\npending_favs   : 9\npending_total  : 37\nvariable_paths : 0\nbitmap_cvg     : 0.40%\nunique_crashes : 0\nunique_hangs   : 2\nlast_path      : 1499982837\nlast_crash     : 0\nlast_hang      : 1499982835\nexec_timeout   : 20\nafl_banner     : fuzzer-master\nafl_version    : 1.85b\ncommand_line   : /home/skaramcheti/.virtualenvs/afl/bin/afl-unix/afl-fuzz -i /dev/shm/work/Single-Sign-On/input -o /dev/shm/work/Single-Sign-On/sync -m 4G -Q -M fuzzer-master -x /dev/shm/work/Single-Sign-On/Single-Sign-On.dict -- data/linux/processed-challenges/Single-Sign-On/bin/Single-Sign-On\n'
p13
I0
tp14
a(I840
S'start_time     : 1499982300\nlast_update    : 1499983142\nfuzzer_pid     : 8947\ncycles_done    : 0\nexecs_done     : 453059\nexecs_per_sec  : 115.99\npaths_total    : 41\npaths_favored  : 12\npaths_found    : 40\npaths_imported : 0\nmax_depth      : 4\ncur_path       : 28\npending_favs   : 8\npending_total  : 36\nvariable_paths : 0\nbitmap_cvg     : 0.40%\nunique_crashes : 0\nunique_hangs   : 2\nlast_path      : 1499982837\nlast_crash     : 0\nlast_hang      : 1499982835\nexec_timeout   : 20\nafl_banner     : fuzzer-master\nafl_version    : 1.85b\ncommand_line   : /home/skaramcheti/.virtualenvs/afl/bin/afl-unix/afl-fuzz -i /dev/shm/work/Single-Sign-On/input -o /dev/shm/work/Single-Sign-On/sync -m 4G -Q -M fuzzer-master -x /dev/shm/work/Single-Sign-On/Single-Sign-On.dict -- data/linux/processed-challenges/Single-Sign-On/bin/Single-Sign-On\n'
p15
I0
tp16
a(I960
S'start_time     : 1499982300\nlast_update    : 1499983262\nfuzzer_pid     : 8947\ncycles_done    : 0\nexecs_done     : 467961\nexecs_per_sec  : 183.22\npaths_total    : 41\npaths_favored  : 12\npaths_found    : 40\npaths_imported : 0\nmax_depth      : 4\ncur_path       : 28\npending_favs   : 8\npending_total  : 36\nvariable_paths : 0\nbitmap_cvg     : 0.40%\nunique_crashes : 0\nunique_hangs   : 3\nlast_path      : 1499982837\nlast_crash     : 0\nlast_hang      : 1499983253\nexec_timeout   : 20\nafl_banner     : fuzzer-master\nafl_version    : 1.85b\ncommand_line   : /home/skaramcheti/.virtualenvs/afl/bin/afl-unix/afl-fuzz -i /dev/shm/work/Single-Sign-On/input -o /dev/shm/work/Single-Sign-On/sync -m 4G -Q -M fuzzer-master -x /dev/shm/work/Single-Sign-On/Single-Sign-On.dict -- data/linux/processed-challenges/Single-Sign-On/bin/Single-Sign-On\n'
p17
I0
tp18
a(I1080
S'start_time     : 1499982300\nlast_update    : 1499983383\nfuzzer_pid     : 8947\ncycles_done    : 0\nexecs_done     : 495560\nexecs_per_sec  : 160.65\npaths_total    : 41\npaths_favored  : 12\npaths_found    : 40\npaths_imported : 0\nmax_depth      : 4\ncur_path       : 34\npending_favs   : 6\npending_total  : 34\nvariable_paths : 0\nbitmap_cvg     : 0.40%\nunique_crashes : 0\nunique_hangs   : 3\nlast_path      : 1499982837\nlast_crash     : 0\nlast_hang      : 1499983253\nexec_timeout   : 20\nafl_banner     : fuzzer-master\nafl_version    : 1.85b\ncommand_line   : /home/skaramcheti/.virtualenvs/afl/bin/afl-unix/afl-fuzz -i /dev/shm/work/Single-Sign-On/input -o /dev/shm/work/Single-Sign-On/sync -m 4G -Q -M fuzzer-master -x /dev/shm/work/Single-Sign-On/Single-Sign-On.dict -- data/linux/processed-challenges/Single-Sign-On/bin/Single-Sign-On\n'
p19
I0
tp20
a(I1200
S'start_time     : 1499982300\nlast_update    : 1499983503\nfuzzer_pid     : 8947\ncycles_done    : 0\nexecs_done     : 531123\nexecs_per_sec  : 304.97\npaths_total    : 45\npaths_favored  : 12\npaths_found    : 44\npaths_imported : 0\nmax_depth      : 5\ncur_path       : 34\npending_favs   : 6\npending_total  : 38\nvariable_paths : 0\nbitmap_cvg     : 0.41%\nunique_crashes : 0\nunique_hangs   : 3\nlast_path      : 1499983473\nlast_crash     : 0\nlast_hang      : 1499983253\nexec_timeout   : 20\nafl_banner     : fuzzer-master\nafl_version    : 1.85b\ncommand_line   : /home/skaramcheti/.virtualenvs/afl/bin/afl-unix/afl-fuzz -i /dev/shm/work/Single-Sign-On/input -o /dev/shm/work/Single-Sign-On/sync -m 4G -Q -M fuzzer-master -x /dev/shm/work/Single-Sign-On/Single-Sign-On.dict -- data/linux/processed-challenges/Single-Sign-On/bin/Single-Sign-On\n'
p21
I4
tp22
a(I1320
S'start_time     : 1499982300\nlast_update    : 1499983623\nfuzzer_pid     : 8947\ncycles_done    : 0\nexecs_done     : 567344\nexecs_per_sec  : 297.07\npaths_total    : 45\npaths_favored  : 12\npaths_found    : 44\npaths_imported : 0\nmax_depth      : 5\ncur_path       : 34\npending_favs   : 6\npending_total  : 38\nvariable_paths : 0\nbitmap_cvg     : 0.41%\nunique_crashes : 0\nunique_hangs   : 3\nlast_path      : 1499983473\nlast_crash     : 0\nlast_hang      : 1499983253\nexec_timeout   : 20\nafl_banner     : fuzzer-master\nafl_version    : 1.85b\ncommand_line   : /home/skaramcheti/.virtualenvs/afl/bin/afl-unix/afl-fuzz -i /dev/shm/work/Single-Sign-On/input -o /dev/shm/work/Single-Sign-On/sync -m 4G -Q -M fuzzer-master -x /dev/shm/work/Single-Sign-On/Single-Sign-On.dict -- data/linux/processed-challenges/Single-Sign-On/bin/Single-Sign-On\n'
p23
I0
tp24
a(I1440
S'start_time     : 1499982300\nlast_update    : 1499983743\nfuzzer_pid     : 8947\ncycles_done    : 0\nexecs_done     : 604159\nexecs_per_sec  : 309.53\npaths_total    : 46\npaths_favored  : 12\npaths_found    : 45\npaths_imported : 0\nmax_depth      : 5\ncur_path       : 34\npending_favs   : 6\npending_total  : 39\nvariable_paths : 0\nbitmap_cvg     : 0.41%\nunique_crashes : 0\nunique_hangs   : 4\nlast_path      : 1499983651\nlast_crash     : 0\nlast_hang      : 1499983723\nexec_timeout   : 20\nafl_banner     : fuzzer-master\nafl_version    : 1.85b\ncommand_line   : /home/skaramcheti/.virtualenvs/afl/bin/afl-unix/afl-fuzz -i /dev/shm/work/Single-Sign-On/input -o /dev/shm/work/Single-Sign-On/sync -m 4G -Q -M fuzzer-master -x /dev/shm/work/Single-Sign-On/Single-Sign-On.dict -- data/linux/processed-challenges/Single-Sign-On/bin/Single-Sign-On\n'
p25
I1
tp26
a(I1560
S'start_time     : 1499982300\nlast_update    : 1499983863\nfuzzer_pid     : 8947\ncycles_done    : 0\nexecs_done     : 625786\nexecs_per_sec  : 113.67\npaths_total    : 46\npaths_favored  : 14\npaths_found    : 45\npaths_imported : 0\nmax_depth      : 5\ncur_path       : 36\npending_favs   : 8\npending_total  : 38\nvariable_paths : 0\nbitmap_cvg     : 0.41%\nunique_crashes : 0\nunique_hangs   : 5\nlast_path      : 1499983651\nlast_crash     : 0\nlast_hang      : 1499983748\nexec_timeout   : 20\nafl_banner     : fuzzer-master\nafl_version    : 1.85b\ncommand_line   : /home/skaramcheti/.virtualenvs/afl/bin/afl-unix/afl-fuzz -i /dev/shm/work/Single-Sign-On/input -o /dev/shm/work/Single-Sign-On/sync -m 4G -Q -M fuzzer-master -x /dev/shm/work/Single-Sign-On/Single-Sign-On.dict -- data/linux/processed-challenges/Single-Sign-On/bin/Single-Sign-On\n'
p27
I0
tp28
a(I1680
S'start_time     : 1499982300\nlast_update    : 1499983984\nfuzzer_pid     : 8947\ncycles_done    : 0\nexecs_done     : 640003\nexecs_per_sec  : 153.75\npaths_total    : 50\npaths_favored  : 14\npaths_found    : 49\npaths_imported : 0\nmax_depth      : 5\ncur_path       : 36\npending_favs   : 8\npending_total  : 42\nvariable_paths : 0\nbitmap_cvg     : 0.48%\nunique_crashes : 0\nunique_hangs   : 5\nlast_path      : 1499983925\nlast_crash     : 0\nlast_hang      : 1499983748\nexec_timeout   : 20\nafl_banner     : fuzzer-master\nafl_version    : 1.85b\ncommand_line   : /home/skaramcheti/.virtualenvs/afl/bin/afl-unix/afl-fuzz -i /dev/shm/work/Single-Sign-On/input -o /dev/shm/work/Single-Sign-On/sync -m 4G -Q -M fuzzer-master -x /dev/shm/work/Single-Sign-On/Single-Sign-On.dict -- data/linux/processed-challenges/Single-Sign-On/bin/Single-Sign-On\n'
p29
I4
tp30
a(I1800
S'start_time     : 1499982300\nlast_update    : 1499984104\nfuzzer_pid     : 8947\ncycles_done    : 0\nexecs_done     : 661685\nexecs_per_sec  : 164.64\npaths_total    : 50\npaths_favored  : 16\npaths_found    : 49\npaths_imported : 0\nmax_depth      : 5\ncur_path       : 37\npending_favs   : 11\npending_total  : 41\nvariable_paths : 0\nbitmap_cvg     : 0.48%\nunique_crashes : 0\nunique_hangs   : 9\nlast_path      : 1499983925\nlast_crash     : 0\nlast_hang      : 1499983997\nexec_timeout   : 20\nafl_banner     : fuzzer-master\nafl_version    : 1.85b\ncommand_line   : /home/skaramcheti/.virtualenvs/afl/bin/afl-unix/afl-fuzz -i /dev/shm/work/Single-Sign-On/input -o /dev/shm/work/Single-Sign-On/sync -m 4G -Q -M fuzzer-master -x /dev/shm/work/Single-Sign-On/Single-Sign-On.dict -- data/linux/processed-challenges/Single-Sign-On/bin/Single-Sign-On\n'
p31
I0
tp32
a(I1920
S'start_time     : 1499982300\nlast_update    : 1499984224\nfuzzer_pid     : 8947\ncycles_done    : 0\nexecs_done     : 695722\nexecs_per_sec  : 304.72\npaths_total    : 57\npaths_favored  : 16\npaths_found    : 56\npaths_imported : 0\nmax_depth      : 5\ncur_path       : 37\npending_favs   : 11\npending_total  : 48\nvariable_paths : 0\nbitmap_cvg     : 0.49%\nunique_crashes : 0\nunique_hangs   : 9\nlast_path      : 1499984149\nlast_crash     : 0\nlast_hang      : 1499983997\nexec_timeout   : 20\nafl_banner     : fuzzer-master\nafl_version    : 1.85b\ncommand_line   : /home/skaramcheti/.virtualenvs/afl/bin/afl-unix/afl-fuzz -i /dev/shm/work/Single-Sign-On/input -o /dev/shm/work/Single-Sign-On/sync -m 4G -Q -M fuzzer-master -x /dev/shm/work/Single-Sign-On/Single-Sign-On.dict -- data/linux/processed-challenges/Single-Sign-On/bin/Single-Sign-On\n'
p33
I7
tp34
a(I2040
S'start_time     : 1499982300\nlast_update    : 1499984344\nfuzzer_pid     : 8947\ncycles_done    : 0\nexecs_done     : 731842\nexecs_per_sec  : 293.00\npaths_total    : 58\npaths_favored  : 16\npaths_found    : 57\npaths_imported : 0\nmax_depth      : 5\ncur_path       : 37\npending_favs   : 11\npending_total  : 49\nvariable_paths : 0\nbitmap_cvg     : 0.49%\nunique_crashes : 0\nunique_hangs   : 9\nlast_path      : 1499984254\nlast_crash     : 0\nlast_hang      : 1499983997\nexec_timeout   : 20\nafl_banner     : fuzzer-master\nafl_version    : 1.85b\ncommand_line   : /home/skaramcheti/.virtualenvs/afl/bin/afl-unix/afl-fuzz -i /dev/shm/work/Single-Sign-On/input -o /dev/shm/work/Single-Sign-On/sync -m 4G -Q -M fuzzer-master -x /dev/shm/work/Single-Sign-On/Single-Sign-On.dict -- data/linux/processed-challenges/Single-Sign-On/bin/Single-Sign-On\n'
p35
I1
tp36
a(I2160
S'start_time     : 1499982300\nlast_update    : 1499984464\nfuzzer_pid     : 8947\ncycles_done    : 0\nexecs_done     : 767697\nexecs_per_sec  : 292.63\npaths_total    : 58\npaths_favored  : 16\npaths_found    : 57\npaths_imported : 0\nmax_depth      : 5\ncur_path       : 37\npending_favs   : 11\npending_total  : 49\nvariable_paths : 0\nbitmap_cvg     : 0.49%\nunique_crashes : 0\nunique_hangs   : 11\nlast_path      : 1499984254\nlast_crash     : 0\nlast_hang      : 1499984427\nexec_timeout   : 20\nafl_banner     : fuzzer-master\nafl_version    : 1.85b\ncommand_line   : /home/skaramcheti/.virtualenvs/afl/bin/afl-unix/afl-fuzz -i /dev/shm/work/Single-Sign-On/input -o /dev/shm/work/Single-Sign-On/sync -m 4G -Q -M fuzzer-master -x /dev/shm/work/Single-Sign-On/Single-Sign-On.dict -- data/linux/processed-challenges/Single-Sign-On/bin/Single-Sign-On\n'
p37
I0
tp38
a(I2280
S'start_time     : 1499982300\nlast_update    : 1499984585\nfuzzer_pid     : 8947\ncycles_done    : 0\nexecs_done     : 791617\nexecs_per_sec  : 114.77\npaths_total    : 59\npaths_favored  : 18\npaths_found    : 58\npaths_imported : 0\nmax_depth      : 5\ncur_path       : 38\npending_favs   : 13\npending_total  : 49\nvariable_paths : 0\nbitmap_cvg     : 0.49%\nunique_crashes : 0\nunique_hangs   : 11\nlast_path      : 1499984511\nlast_crash     : 0\nlast_hang      : 1499984427\nexec_timeout   : 20\nafl_banner     : fuzzer-master\nafl_version    : 1.85b\ncommand_line   : /home/skaramcheti/.virtualenvs/afl/bin/afl-unix/afl-fuzz -i /dev/shm/work/Single-Sign-On/input -o /dev/shm/work/Single-Sign-On/sync -m 4G -Q -M fuzzer-master -x /dev/shm/work/Single-Sign-On/Single-Sign-On.dict -- data/linux/processed-challenges/Single-Sign-On/bin/Single-Sign-On\n'
p39
I1
tp40
a(I2400
S'start_time     : 1499982300\nlast_update    : 1499984705\nfuzzer_pid     : 8947\ncycles_done    : 0\nexecs_done     : 812777\nexecs_per_sec  : 230.42\npaths_total    : 59\npaths_favored  : 18\npaths_found    : 58\npaths_imported : 0\nmax_depth      : 5\ncur_path       : 38\npending_favs   : 13\npending_total  : 49\nvariable_paths : 0\nbitmap_cvg     : 0.49%\nunique_crashes : 0\nunique_hangs   : 12\nlast_path      : 1499984511\nlast_crash     : 0\nlast_hang      : 1499984663\nexec_timeout   : 20\nafl_banner     : fuzzer-master\nafl_version    : 1.85b\ncommand_line   : /home/skaramcheti/.virtualenvs/afl/bin/afl-unix/afl-fuzz -i /dev/shm/work/Single-Sign-On/input -o /dev/shm/work/Single-Sign-On/sync -m 4G -Q -M fuzzer-master -x /dev/shm/work/Single-Sign-On/Single-Sign-On.dict -- data/linux/processed-challenges/Single-Sign-On/bin/Single-Sign-On\n'
p41
I0
tp42
a(I2520
S'start_time     : 1499982300\nlast_update    : 1499984825\nfuzzer_pid     : 8947\ncycles_done    : 0\nexecs_done     : 838255\nexecs_per_sec  : 286.97\npaths_total    : 61\npaths_favored  : 18\npaths_found    : 60\npaths_imported : 0\nmax_depth      : 5\ncur_path       : 40\npending_favs   : 12\npending_total  : 50\nvariable_paths : 0\nbitmap_cvg     : 0.49%\nunique_crashes : 0\nunique_hangs   : 12\nlast_path      : 1499984821\nlast_crash     : 0\nlast_hang      : 1499984663\nexec_timeout   : 20\nafl_banner     : fuzzer-master\nafl_version    : 1.85b\ncommand_line   : /home/skaramcheti/.virtualenvs/afl/bin/afl-unix/afl-fuzz -i /dev/shm/work/Single-Sign-On/input -o /dev/shm/work/Single-Sign-On/sync -m 4G -Q -M fuzzer-master -x /dev/shm/work/Single-Sign-On/Single-Sign-On.dict -- data/linux/processed-challenges/Single-Sign-On/bin/Single-Sign-On\n'
p43
I2
tp44
a(I2640
S'start_time     : 1499982300\nlast_update    : 1499984945\nfuzzer_pid     : 8947\ncycles_done    : 0\nexecs_done     : 874260\nexecs_per_sec  : 286.13\npaths_total    : 62\npaths_favored  : 18\npaths_found    : 61\npaths_imported : 0\nmax_depth      : 5\ncur_path       : 40\npending_favs   : 12\npending_total  : 51\nvariable_paths : 0\nbitmap_cvg     : 0.49%\nunique_crashes : 0\nunique_hangs   : 12\nlast_path      : 1499984921\nlast_crash     : 0\nlast_hang      : 1499984663\nexec_timeout   : 20\nafl_banner     : fuzzer-master\nafl_version    : 1.85b\ncommand_line   : /home/skaramcheti/.virtualenvs/afl/bin/afl-unix/afl-fuzz -i /dev/shm/work/Single-Sign-On/input -o /dev/shm/work/Single-Sign-On/sync -m 4G -Q -M fuzzer-master -x /dev/shm/work/Single-Sign-On/Single-Sign-On.dict -- data/linux/processed-challenges/Single-Sign-On/bin/Single-Sign-On\n'
p45
I1
tp46
a(I2760
S'start_time     : 1499982300\nlast_update    : 1499985065\nfuzzer_pid     : 8947\ncycles_done    : 0\nexecs_done     : 910435\nexecs_per_sec  : 310.37\npaths_total    : 62\npaths_favored  : 18\npaths_found    : 61\npaths_imported : 0\nmax_depth      : 5\ncur_path       : 40\npending_favs   : 12\npending_total  : 51\nvariable_paths : 0\nbitmap_cvg     : 0.49%\nunique_crashes : 0\nunique_hangs   : 12\nlast_path      : 1499984921\nlast_crash     : 0\nlast_hang      : 1499984663\nexec_timeout   : 20\nafl_banner     : fuzzer-master\nafl_version    : 1.85b\ncommand_line   : /home/skaramcheti/.virtualenvs/afl/bin/afl-unix/afl-fuzz -i /dev/shm/work/Single-Sign-On/input -o /dev/shm/work/Single-Sign-On/sync -m 4G -Q -M fuzzer-master -x /dev/shm/work/Single-Sign-On/Single-Sign-On.dict -- data/linux/processed-challenges/Single-Sign-On/bin/Single-Sign-On\n'
p47
I0
tp48
a(I2880
S'start_time     : 1499982300\nlast_update    : 1499985186\nfuzzer_pid     : 8947\ncycles_done    : 0\nexecs_done     : 946493\nexecs_per_sec  : 306.11\npaths_total    : 63\npaths_favored  : 18\npaths_found    : 62\npaths_imported : 0\nmax_depth      : 5\ncur_path       : 41\npending_favs   : 11\npending_total  : 51\nvariable_paths : 0\nbitmap_cvg     : 0.49%\nunique_crashes : 0\nunique_hangs   : 12\nlast_path      : 1499985115\nlast_crash     : 0\nlast_hang      : 1499984663\nexec_timeout   : 20\nafl_banner     : fuzzer-master\nafl_version    : 1.85b\ncommand_line   : /home/skaramcheti/.virtualenvs/afl/bin/afl-unix/afl-fuzz -i /dev/shm/work/Single-Sign-On/input -o /dev/shm/work/Single-Sign-On/sync -m 4G -Q -M fuzzer-master -x /dev/shm/work/Single-Sign-On/Single-Sign-On.dict -- data/linux/processed-challenges/Single-Sign-On/bin/Single-Sign-On\n'
p49
I1
tp50
a(I3000
S'start_time     : 1499982300\nlast_update    : 1499985306\nfuzzer_pid     : 8947\ncycles_done    : 0\nexecs_done     : 960784\nexecs_per_sec  : 114.02\npaths_total    : 63\npaths_favored  : 18\npaths_found    : 62\npaths_imported : 0\nmax_depth      : 5\ncur_path       : 41\npending_favs   : 11\npending_total  : 51\nvariable_paths : 0\nbitmap_cvg     : 0.49%\nunique_crashes : 0\nunique_hangs   : 12\nlast_path      : 1499985115\nlast_crash     : 0\nlast_hang      : 1499984663\nexec_timeout   : 20\nafl_banner     : fuzzer-master\nafl_version    : 1.85b\ncommand_line   : /home/skaramcheti/.virtualenvs/afl/bin/afl-unix/afl-fuzz -i /dev/shm/work/Single-Sign-On/input -o /dev/shm/work/Single-Sign-On/sync -m 4G -Q -M fuzzer-master -x /dev/shm/work/Single-Sign-On/Single-Sign-On.dict -- data/linux/processed-challenges/Single-Sign-On/bin/Single-Sign-On\n'
p51
I0
tp52
a(I3120
S'start_time     : 1499982300\nlast_update    : 1499985426\nfuzzer_pid     : 8947\ncycles_done    : 0\nexecs_done     : 981589\nexecs_per_sec  : 114.23\npaths_total    : 63\npaths_favored  : 18\npaths_found    : 62\npaths_imported : 0\nmax_depth      : 5\ncur_path       : 42\npending_favs   : 10\npending_total  : 50\nvariable_paths : 0\nbitmap_cvg     : 0.49%\nunique_crashes : 0\nunique_hangs   : 12\nlast_path      : 1499985115\nlast_crash     : 0\nlast_hang      : 1499984663\nexec_timeout   : 20\nafl_banner     : fuzzer-master\nafl_version    : 1.85b\ncommand_line   : /home/skaramcheti/.virtualenvs/afl/bin/afl-unix/afl-fuzz -i /dev/shm/work/Single-Sign-On/input -o /dev/shm/work/Single-Sign-On/sync -m 4G -Q -M fuzzer-master -x /dev/shm/work/Single-Sign-On/Single-Sign-On.dict -- data/linux/processed-challenges/Single-Sign-On/bin/Single-Sign-On\n'
p53
I0
tp54
a(I3240
S'start_time     : 1499982300\nlast_update    : 1499985546\nfuzzer_pid     : 8947\ncycles_done    : 0\nexecs_done     : 995956\nexecs_per_sec  : 119.24\npaths_total    : 63\npaths_favored  : 18\npaths_found    : 62\npaths_imported : 0\nmax_depth      : 5\ncur_path       : 42\npending_favs   : 10\npending_total  : 50\nvariable_paths : 0\nbitmap_cvg     : 0.49%\nunique_crashes : 0\nunique_hangs   : 12\nlast_path      : 1499985115\nlast_crash     : 0\nlast_hang      : 1499984663\nexec_timeout   : 20\nafl_banner     : fuzzer-master\nafl_version    : 1.85b\ncommand_line   : /home/skaramcheti/.virtualenvs/afl/bin/afl-unix/afl-fuzz -i /dev/shm/work/Single-Sign-On/input -o /dev/shm/work/Single-Sign-On/sync -m 4G -Q -M fuzzer-master -x /dev/shm/work/Single-Sign-On/Single-Sign-On.dict -- data/linux/processed-challenges/Single-Sign-On/bin/Single-Sign-On\n'
p55
I0
tp56
a(I3360
S'start_time     : 1499982300\nlast_update    : 1499985666\nfuzzer_pid     : 8947\ncycles_done    : 0\nexecs_done     : 1022856\nexecs_per_sec  : 231.11\npaths_total    : 64\npaths_favored  : 18\npaths_found    : 63\npaths_imported : 0\nmax_depth      : 6\ncur_path       : 42\npending_favs   : 10\npending_total  : 51\nvariable_paths : 0\nbitmap_cvg     : 0.49%\nunique_crashes : 0\nunique_hangs   : 13\nlast_path      : 1499985562\nlast_crash     : 0\nlast_hang      : 1499985628\nexec_timeout   : 20\nafl_banner     : fuzzer-master\nafl_version    : 1.85b\ncommand_line   : /home/skaramcheti/.virtualenvs/afl/bin/afl-unix/afl-fuzz -i /dev/shm/work/Single-Sign-On/input -o /dev/shm/work/Single-Sign-On/sync -m 4G -Q -M fuzzer-master -x /dev/shm/work/Single-Sign-On/Single-Sign-On.dict -- data/linux/processed-challenges/Single-Sign-On/bin/Single-Sign-On\n'
p57
I1
tp58
a(I3480
S'start_time     : 1499982300\nlast_update    : 1499985786\nfuzzer_pid     : 8947\ncycles_done    : 0\nexecs_done     : 1045998\nexecs_per_sec  : 277.83\npaths_total    : 64\npaths_favored  : 18\npaths_found    : 63\npaths_imported : 0\nmax_depth      : 6\ncur_path       : 45\npending_favs   : 9\npending_total  : 50\nvariable_paths : 0\nbitmap_cvg     : 0.49%\nunique_crashes : 0\nunique_hangs   : 13\nlast_path      : 1499985562\nlast_crash     : 0\nlast_hang      : 1499985628\nexec_timeout   : 20\nafl_banner     : fuzzer-master\nafl_version    : 1.85b\ncommand_line   : /home/skaramcheti/.virtualenvs/afl/bin/afl-unix/afl-fuzz -i /dev/shm/work/Single-Sign-On/input -o /dev/shm/work/Single-Sign-On/sync -m 4G -Q -M fuzzer-master -x /dev/shm/work/Single-Sign-On/Single-Sign-On.dict -- data/linux/processed-challenges/Single-Sign-On/bin/Single-Sign-On\n'
p59
I0
tp60
a(I3600
S'start_time     : 1499982300\nlast_update    : 1499985907\nfuzzer_pid     : 8947\ncycles_done    : 0\nexecs_done     : 1064384\nexecs_per_sec  : 117.30\npaths_total    : 64\npaths_favored  : 18\npaths_found    : 63\npaths_imported : 0\nmax_depth      : 6\ncur_path       : 46\npending_favs   : 8\npending_total  : 49\nvariable_paths : 0\nbitmap_cvg     : 0.49%\nunique_crashes : 0\nunique_hangs   : 13\nlast_path      : 1499985562\nlast_crash     : 0\nlast_hang      : 1499985628\nexec_timeout   : 20\nafl_banner     : fuzzer-master\nafl_version    : 1.85b\ncommand_line   : /home/skaramcheti/.virtualenvs/afl/bin/afl-unix/afl-fuzz -i /dev/shm/work/Single-Sign-On/input -o /dev/shm/work/Single-Sign-On/sync -m 4G -Q -M fuzzer-master -x /dev/shm/work/Single-Sign-On/Single-Sign-On.dict -- data/linux/processed-challenges/Single-Sign-On/bin/Single-Sign-On\n'
p61
I0
tp62
a(I3720
S'start_time     : 1499982300\nlast_update    : 1499986027\nfuzzer_pid     : 8947\ncycles_done    : 0\nexecs_done     : 1079520\nexecs_per_sec  : 197.57\npaths_total    : 65\npaths_favored  : 18\npaths_found    : 64\npaths_imported : 0\nmax_depth      : 6\ncur_path       : 46\npending_favs   : 8\npending_total  : 50\nvariable_paths : 0\nbitmap_cvg     : 0.49%\nunique_crashes : 0\nunique_hangs   : 14\nlast_path      : 1499985953\nlast_crash     : 0\nlast_hang      : 1499986019\nexec_timeout   : 20\nafl_banner     : fuzzer-master\nafl_version    : 1.85b\ncommand_line   : /home/skaramcheti/.virtualenvs/afl/bin/afl-unix/afl-fuzz -i /dev/shm/work/Single-Sign-On/input -o /dev/shm/work/Single-Sign-On/sync -m 4G -Q -M fuzzer-master -x /dev/shm/work/Single-Sign-On/Single-Sign-On.dict -- data/linux/processed-challenges/Single-Sign-On/bin/Single-Sign-On\n'
p63
I1
tp64
a(I3840
S'start_time     : 1499982300\nlast_update    : 1499986147\nfuzzer_pid     : 8947\ncycles_done    : 0\nexecs_done     : 1103002\nexecs_per_sec  : 192.03\npaths_total    : 66\npaths_favored  : 18\npaths_found    : 65\npaths_imported : 0\nmax_depth      : 6\ncur_path       : 46\npending_favs   : 8\npending_total  : 51\nvariable_paths : 0\nbitmap_cvg     : 0.49%\nunique_crashes : 0\nunique_hangs   : 15\nlast_path      : 1499986045\nlast_crash     : 0\nlast_hang      : 1499986062\nexec_timeout   : 20\nafl_banner     : fuzzer-master\nafl_version    : 1.85b\ncommand_line   : /home/skaramcheti/.virtualenvs/afl/bin/afl-unix/afl-fuzz -i /dev/shm/work/Single-Sign-On/input -o /dev/shm/work/Single-Sign-On/sync -m 4G -Q -M fuzzer-master -x /dev/shm/work/Single-Sign-On/Single-Sign-On.dict -- data/linux/processed-challenges/Single-Sign-On/bin/Single-Sign-On\n'
p65
I1
tp66
a(I3960
S'start_time     : 1499982300\nlast_update    : 1499986267\nfuzzer_pid     : 8947\ncycles_done    : 0\nexecs_done     : 1118457\nexecs_per_sec  : 115.24\npaths_total    : 66\npaths_favored  : 18\npaths_found    : 65\npaths_imported : 0\nmax_depth      : 6\ncur_path       : 47\npending_favs   : 8\npending_total  : 50\nvariable_paths : 0\nbitmap_cvg     : 0.49%\nunique_crashes : 0\nunique_hangs   : 15\nlast_path      : 1499986045\nlast_crash     : 0\nlast_hang      : 1499986062\nexec_timeout   : 20\nafl_banner     : fuzzer-master\nafl_version    : 1.85b\ncommand_line   : /home/skaramcheti/.virtualenvs/afl/bin/afl-unix/afl-fuzz -i /dev/shm/work/Single-Sign-On/input -o /dev/shm/work/Single-Sign-On/sync -m 4G -Q -M fuzzer-master -x /dev/shm/work/Single-Sign-On/Single-Sign-On.dict -- data/linux/processed-challenges/Single-Sign-On/bin/Single-Sign-On\n'
p67
I0
tp68
a(I4080
S'start_time     : 1499982300\nlast_update    : 1499986387\nfuzzer_pid     : 8947\ncycles_done    : 0\nexecs_done     : 1134709\nexecs_per_sec  : 192.22\npaths_total    : 67\npaths_favored  : 18\npaths_found    : 66\npaths_imported : 0\nmax_depth      : 6\ncur_path       : 47\npending_favs   : 8\npending_total  : 51\nvariable_paths : 0\nbitmap_cvg     : 0.50%\nunique_crashes : 0\nunique_hangs   : 17\nlast_path      : 1499986362\nlast_crash     : 0\nlast_hang      : 1499986348\nexec_timeout   : 20\nafl_banner     : fuzzer-master\nafl_version    : 1.85b\ncommand_line   : /home/skaramcheti/.virtualenvs/afl/bin/afl-unix/afl-fuzz -i /dev/shm/work/Single-Sign-On/input -o /dev/shm/work/Single-Sign-On/sync -m 4G -Q -M fuzzer-master -x /dev/shm/work/Single-Sign-On/Single-Sign-On.dict -- data/linux/processed-challenges/Single-Sign-On/bin/Single-Sign-On\n'
p69
I1
tp70
a(I4200
S'start_time     : 1499982300\nlast_update    : 1499986508\nfuzzer_pid     : 8947\ncycles_done    : 0\nexecs_done     : 1158416\nexecs_per_sec  : 200.86\npaths_total    : 68\npaths_favored  : 18\npaths_found    : 67\npaths_imported : 0\nmax_depth      : 6\ncur_path       : 47\npending_favs   : 8\npending_total  : 52\nvariable_paths : 0\nbitmap_cvg     : 0.50%\nunique_crashes : 0\nunique_hangs   : 17\nlast_path      : 1499986480\nlast_crash     : 0\nlast_hang      : 1499986348\nexec_timeout   : 20\nafl_banner     : fuzzer-master\nafl_version    : 1.85b\ncommand_line   : /home/skaramcheti/.virtualenvs/afl/bin/afl-unix/afl-fuzz -i /dev/shm/work/Single-Sign-On/input -o /dev/shm/work/Single-Sign-On/sync -m 4G -Q -M fuzzer-master -x /dev/shm/work/Single-Sign-On/Single-Sign-On.dict -- data/linux/processed-challenges/Single-Sign-On/bin/Single-Sign-On\n'
p71
I1
tp72
a(I4320
S'start_time     : 1499982300\nlast_update    : 1499986628\nfuzzer_pid     : 8947\ncycles_done    : 0\nexecs_done     : 1182348\nexecs_per_sec  : 195.38\npaths_total    : 69\npaths_favored  : 18\npaths_found    : 68\npaths_imported : 0\nmax_depth      : 6\ncur_path       : 47\npending_favs   : 8\npending_total  : 53\nvariable_paths : 0\nbitmap_cvg     : 0.50%\nunique_crashes : 0\nunique_hangs   : 17\nlast_path      : 1499986513\nlast_crash     : 0\nlast_hang      : 1499986348\nexec_timeout   : 20\nafl_banner     : fuzzer-master\nafl_version    : 1.85b\ncommand_line   : /home/skaramcheti/.virtualenvs/afl/bin/afl-unix/afl-fuzz -i /dev/shm/work/Single-Sign-On/input -o /dev/shm/work/Single-Sign-On/sync -m 4G -Q -M fuzzer-master -x /dev/shm/work/Single-Sign-On/Single-Sign-On.dict -- data/linux/processed-challenges/Single-Sign-On/bin/Single-Sign-On\n'
p73
I1
tp74
a(I4440
S'start_time     : 1499982300\nlast_update    : 1499986748\nfuzzer_pid     : 8947\ncycles_done    : 0\nexecs_done     : 1205695\nexecs_per_sec  : 196.12\npaths_total    : 70\npaths_favored  : 18\npaths_found    : 69\npaths_imported : 0\nmax_depth      : 6\ncur_path       : 47\npending_favs   : 8\npending_total  : 54\nvariable_paths : 0\nbitmap_cvg     : 0.50%\nunique_crashes : 0\nunique_hangs   : 17\nlast_path      : 1499986679\nlast_crash     : 0\nlast_hang      : 1499986348\nexec_timeout   : 20\nafl_banner     : fuzzer-master\nafl_version    : 1.85b\ncommand_line   : /home/skaramcheti/.virtualenvs/afl/bin/afl-unix/afl-fuzz -i /dev/shm/work/Single-Sign-On/input -o /dev/shm/work/Single-Sign-On/sync -m 4G -Q -M fuzzer-master -x /dev/shm/work/Single-Sign-On/Single-Sign-On.dict -- data/linux/processed-challenges/Single-Sign-On/bin/Single-Sign-On\n'
p75
I1
tp76
a(I4560
S'start_time     : 1499982300\nlast_update    : 1499986869\nfuzzer_pid     : 8947\ncycles_done    : 0\nexecs_done     : 1229353\nexecs_per_sec  : 189.63\npaths_total    : 70\npaths_favored  : 18\npaths_found    : 69\npaths_imported : 0\nmax_depth      : 6\ncur_path       : 47\npending_favs   : 8\npending_total  : 54\nvariable_paths : 0\nbitmap_cvg     : 0.50%\nunique_crashes : 0\nunique_hangs   : 17\nlast_path      : 1499986679\nlast_crash     : 0\nlast_hang      : 1499986348\nexec_timeout   : 20\nafl_banner     : fuzzer-master\nafl_version    : 1.85b\ncommand_line   : /home/skaramcheti/.virtualenvs/afl/bin/afl-unix/afl-fuzz -i /dev/shm/work/Single-Sign-On/input -o /dev/shm/work/Single-Sign-On/sync -m 4G -Q -M fuzzer-master -x /dev/shm/work/Single-Sign-On/Single-Sign-On.dict -- data/linux/processed-challenges/Single-Sign-On/bin/Single-Sign-On\n'
p77
I0
tp78
a(I4680
S'start_time     : 1499982300\nlast_update    : 1499986989\nfuzzer_pid     : 8947\ncycles_done    : 0\nexecs_done     : 1251645\nexecs_per_sec  : 114.15\npaths_total    : 70\npaths_favored  : 20\npaths_found    : 69\npaths_imported : 0\nmax_depth      : 6\ncur_path       : 48\npending_favs   : 8\npending_total  : 53\nvariable_paths : 0\nbitmap_cvg     : 0.50%\nunique_crashes : 0\nunique_hangs   : 17\nlast_path      : 1499986679\nlast_crash     : 0\nlast_hang      : 1499986348\nexec_timeout   : 20\nafl_banner     : fuzzer-master\nafl_version    : 1.85b\ncommand_line   : /home/skaramcheti/.virtualenvs/afl/bin/afl-unix/afl-fuzz -i /dev/shm/work/Single-Sign-On/input -o /dev/shm/work/Single-Sign-On/sync -m 4G -Q -M fuzzer-master -x /dev/shm/work/Single-Sign-On/Single-Sign-On.dict -- data/linux/processed-challenges/Single-Sign-On/bin/Single-Sign-On\n'
p79
I0
tp80
a(I4800
S'start_time     : 1499982300\nlast_update    : 1499987109\nfuzzer_pid     : 8947\ncycles_done    : 0\nexecs_done     : 1265883\nexecs_per_sec  : 138.83\npaths_total    : 70\npaths_favored  : 20\npaths_found    : 69\npaths_imported : 0\nmax_depth      : 6\ncur_path       : 48\npending_favs   : 8\npending_total  : 53\nvariable_paths : 0\nbitmap_cvg     : 0.50%\nunique_crashes : 0\nunique_hangs   : 17\nlast_path      : 1499986679\nlast_crash     : 0\nlast_hang      : 1499986348\nexec_timeout   : 20\nafl_banner     : fuzzer-master\nafl_version    : 1.85b\ncommand_line   : /home/skaramcheti/.virtualenvs/afl/bin/afl-unix/afl-fuzz -i /dev/shm/work/Single-Sign-On/input -o /dev/shm/work/Single-Sign-On/sync -m 4G -Q -M fuzzer-master -x /dev/shm/work/Single-Sign-On/Single-Sign-On.dict -- data/linux/processed-challenges/Single-Sign-On/bin/Single-Sign-On\n'
p81
I0
tp82
a(I4920
S'start_time     : 1499982300\nlast_update    : 1499987229\nfuzzer_pid     : 8947\ncycles_done    : 0\nexecs_done     : 1284609\nexecs_per_sec  : 198.78\npaths_total    : 72\npaths_favored  : 20\npaths_found    : 71\npaths_imported : 0\nmax_depth      : 6\ncur_path       : 48\npending_favs   : 8\npending_total  : 55\nvariable_paths : 0\nbitmap_cvg     : 0.50%\nunique_crashes : 0\nunique_hangs   : 17\nlast_path      : 1499987211\nlast_crash     : 0\nlast_hang      : 1499986348\nexec_timeout   : 20\nafl_banner     : fuzzer-master\nafl_version    : 1.85b\ncommand_line   : /home/skaramcheti/.virtualenvs/afl/bin/afl-unix/afl-fuzz -i /dev/shm/work/Single-Sign-On/input -o /dev/shm/work/Single-Sign-On/sync -m 4G -Q -M fuzzer-master -x /dev/shm/work/Single-Sign-On/Single-Sign-On.dict -- data/linux/processed-challenges/Single-Sign-On/bin/Single-Sign-On\n'
p83
I2
tp84
a(I5040
S'start_time     : 1499982300\nlast_update    : 1499987349\nfuzzer_pid     : 8947\ncycles_done    : 0\nexecs_done     : 1308156\nexecs_per_sec  : 192.42\npaths_total    : 72\npaths_favored  : 20\npaths_found    : 71\npaths_imported : 0\nmax_depth      : 6\ncur_path       : 48\npending_favs   : 8\npending_total  : 55\nvariable_paths : 0\nbitmap_cvg     : 0.50%\nunique_crashes : 0\nunique_hangs   : 17\nlast_path      : 1499987211\nlast_crash     : 0\nlast_hang      : 1499986348\nexec_timeout   : 20\nafl_banner     : fuzzer-master\nafl_version    : 1.85b\ncommand_line   : /home/skaramcheti/.virtualenvs/afl/bin/afl-unix/afl-fuzz -i /dev/shm/work/Single-Sign-On/input -o /dev/shm/work/Single-Sign-On/sync -m 4G -Q -M fuzzer-master -x /dev/shm/work/Single-Sign-On/Single-Sign-On.dict -- data/linux/processed-challenges/Single-Sign-On/bin/Single-Sign-On\n'
p85
I0
tp86
a(I5160
S'start_time     : 1499982300\nlast_update    : 1499987470\nfuzzer_pid     : 8947\ncycles_done    : 0\nexecs_done     : 1325985\nexecs_per_sec  : 111.02\npaths_total    : 72\npaths_favored  : 20\npaths_found    : 71\npaths_imported : 0\nmax_depth      : 6\ncur_path       : 49\npending_favs   : 8\npending_total  : 54\nvariable_paths : 0\nbitmap_cvg     : 0.50%\nunique_crashes : 0\nunique_hangs   : 17\nlast_path      : 1499987211\nlast_crash     : 0\nlast_hang      : 1499986348\nexec_timeout   : 20\nafl_banner     : fuzzer-master\nafl_version    : 1.85b\ncommand_line   : /home/skaramcheti/.virtualenvs/afl/bin/afl-unix/afl-fuzz -i /dev/shm/work/Single-Sign-On/input -o /dev/shm/work/Single-Sign-On/sync -m 4G -Q -M fuzzer-master -x /dev/shm/work/Single-Sign-On/Single-Sign-On.dict -- data/linux/processed-challenges/Single-Sign-On/bin/Single-Sign-On\n'
p87
I0
tp88
a(I5280
S'start_time     : 1499982300\nlast_update    : 1499987590\nfuzzer_pid     : 8947\ncycles_done    : 0\nexecs_done     : 1340112\nexecs_per_sec  : 113.30\npaths_total    : 72\npaths_favored  : 20\npaths_found    : 71\npaths_imported : 0\nmax_depth      : 6\ncur_path       : 49\npending_favs   : 8\npending_total  : 54\nvariable_paths : 0\nbitmap_cvg     : 0.50%\nunique_crashes : 0\nunique_hangs   : 17\nlast_path      : 1499987211\nlast_crash     : 0\nlast_hang      : 1499986348\nexec_timeout   : 20\nafl_banner     : fuzzer-master\nafl_version    : 1.85b\ncommand_line   : /home/skaramcheti/.virtualenvs/afl/bin/afl-unix/afl-fuzz -i /dev/shm/work/Single-Sign-On/input -o /dev/shm/work/Single-Sign-On/sync -m 4G -Q -M fuzzer-master -x /dev/shm/work/Single-Sign-On/Single-Sign-On.dict -- data/linux/processed-challenges/Single-Sign-On/bin/Single-Sign-On\n'
p89
I0
tp90
a(I5400
S'start_time     : 1499982300\nlast_update    : 1499987710\nfuzzer_pid     : 8947\ncycles_done    : 0\nexecs_done     : 1360079\nexecs_per_sec  : 113.61\npaths_total    : 72\npaths_favored  : 20\npaths_found    : 71\npaths_imported : 0\nmax_depth      : 6\ncur_path       : 51\npending_favs   : 7\npending_total  : 53\nvariable_paths : 0\nbitmap_cvg     : 0.50%\nunique_crashes : 0\nunique_hangs   : 17\nlast_path      : 1499987211\nlast_crash     : 0\nlast_hang      : 1499986348\nexec_timeout   : 20\nafl_banner     : fuzzer-master\nafl_version    : 1.85b\ncommand_line   : /home/skaramcheti/.virtualenvs/afl/bin/afl-unix/afl-fuzz -i /dev/shm/work/Single-Sign-On/input -o /dev/shm/work/Single-Sign-On/sync -m 4G -Q -M fuzzer-master -x /dev/shm/work/Single-Sign-On/Single-Sign-On.dict -- data/linux/processed-challenges/Single-Sign-On/bin/Single-Sign-On\n'
p91
I0
tp92
a(I5520
S'start_time     : 1499982300\nlast_update    : 1499987830\nfuzzer_pid     : 8947\ncycles_done    : 0\nexecs_done     : 1374299\nexecs_per_sec  : 116.99\npaths_total    : 72\npaths_favored  : 20\npaths_found    : 71\npaths_imported : 0\nmax_depth      : 6\ncur_path       : 51\npending_favs   : 7\npending_total  : 53\nvariable_paths : 0\nbitmap_cvg     : 0.50%\nunique_crashes : 0\nunique_hangs   : 17\nlast_path      : 1499987211\nlast_crash     : 0\nlast_hang      : 1499986348\nexec_timeout   : 20\nafl_banner     : fuzzer-master\nafl_version    : 1.85b\ncommand_line   : /home/skaramcheti/.virtualenvs/afl/bin/afl-unix/afl-fuzz -i /dev/shm/work/Single-Sign-On/input -o /dev/shm/work/Single-Sign-On/sync -m 4G -Q -M fuzzer-master -x /dev/shm/work/Single-Sign-On/Single-Sign-On.dict -- data/linux/processed-challenges/Single-Sign-On/bin/Single-Sign-On\n'
p93
I0
tp94
a(I5640
S'start_time     : 1499982300\nlast_update    : 1499987950\nfuzzer_pid     : 8947\ncycles_done    : 0\nexecs_done     : 1391640\nexecs_per_sec  : 89.57\npaths_total    : 72\npaths_favored  : 20\npaths_found    : 71\npaths_imported : 0\nmax_depth      : 6\ncur_path       : 52\npending_favs   : 6\npending_total  : 52\nvariable_paths : 0\nbitmap_cvg     : 0.50%\nunique_crashes : 0\nunique_hangs   : 18\nlast_path      : 1499987211\nlast_crash     : 0\nlast_hang      : 1499987937\nexec_timeout   : 20\nafl_banner     : fuzzer-master\nafl_version    : 1.85b\ncommand_line   : /home/skaramcheti/.virtualenvs/afl/bin/afl-unix/afl-fuzz -i /dev/shm/work/Single-Sign-On/input -o /dev/shm/work/Single-Sign-On/sync -m 4G -Q -M fuzzer-master -x /dev/shm/work/Single-Sign-On/Single-Sign-On.dict -- data/linux/processed-challenges/Single-Sign-On/bin/Single-Sign-On\n'
p95
I0
tp96
a(I5760
S'start_time     : 1499982300\nlast_update    : 1499988070\nfuzzer_pid     : 8947\ncycles_done    : 0\nexecs_done     : 1402318\nexecs_per_sec  : 88.54\npaths_total    : 72\npaths_favored  : 20\npaths_found    : 71\npaths_imported : 0\nmax_depth      : 6\ncur_path       : 52\npending_favs   : 6\npending_total  : 52\nvariable_paths : 0\nbitmap_cvg     : 0.50%\nunique_crashes : 0\nunique_hangs   : 18\nlast_path      : 1499987211\nlast_crash     : 0\nlast_hang      : 1499987937\nexec_timeout   : 20\nafl_banner     : fuzzer-master\nafl_version    : 1.85b\ncommand_line   : /home/skaramcheti/.virtualenvs/afl/bin/afl-unix/afl-fuzz -i /dev/shm/work/Single-Sign-On/input -o /dev/shm/work/Single-Sign-On/sync -m 4G -Q -M fuzzer-master -x /dev/shm/work/Single-Sign-On/Single-Sign-On.dict -- data/linux/processed-challenges/Single-Sign-On/bin/Single-Sign-On\n'
p97
I0
tp98
a(I5880
S'start_time     : 1499982300\nlast_update    : 1499988191\nfuzzer_pid     : 8947\ncycles_done    : 0\nexecs_done     : 1413382\nexecs_per_sec  : 88.18\npaths_total    : 72\npaths_favored  : 20\npaths_found    : 71\npaths_imported : 0\nmax_depth      : 6\ncur_path       : 52\npending_favs   : 6\npending_total  : 52\nvariable_paths : 0\nbitmap_cvg     : 0.50%\nunique_crashes : 0\nunique_hangs   : 18\nlast_path      : 1499987211\nlast_crash     : 0\nlast_hang      : 1499987937\nexec_timeout   : 20\nafl_banner     : fuzzer-master\nafl_version    : 1.85b\ncommand_line   : /home/skaramcheti/.virtualenvs/afl/bin/afl-unix/afl-fuzz -i /dev/shm/work/Single-Sign-On/input -o /dev/shm/work/Single-Sign-On/sync -m 4G -Q -M fuzzer-master -x /dev/shm/work/Single-Sign-On/Single-Sign-On.dict -- data/linux/processed-challenges/Single-Sign-On/bin/Single-Sign-On\n'
p99
I0
tp100
a(I6000
S'start_time     : 1499982300\nlast_update    : 1499988311\nfuzzer_pid     : 8947\ncycles_done    : 0\nexecs_done     : 1429493\nexecs_per_sec  : 158.59\npaths_total    : 72\npaths_favored  : 20\npaths_found    : 71\npaths_imported : 0\nmax_depth      : 6\ncur_path       : 52\npending_favs   : 6\npending_total  : 52\nvariable_paths : 0\nbitmap_cvg     : 0.50%\nunique_crashes : 0\nunique_hangs   : 18\nlast_path      : 1499987211\nlast_crash     : 0\nlast_hang      : 1499987937\nexec_timeout   : 20\nafl_banner     : fuzzer-master\nafl_version    : 1.85b\ncommand_line   : /home/skaramcheti/.virtualenvs/afl/bin/afl-unix/afl-fuzz -i /dev/shm/work/Single-Sign-On/input -o /dev/shm/work/Single-Sign-On/sync -m 4G -Q -M fuzzer-master -x /dev/shm/work/Single-Sign-On/Single-Sign-On.dict -- data/linux/processed-challenges/Single-Sign-On/bin/Single-Sign-On\n'
p101
I0
tp102
a(I6120
S'start_time     : 1499982300\nlast_update    : 1499988431\nfuzzer_pid     : 8947\ncycles_done    : 0\nexecs_done     : 1439167\nexecs_per_sec  : 71.02\npaths_total    : 72\npaths_favored  : 20\npaths_found    : 71\npaths_imported : 0\nmax_depth      : 6\ncur_path       : 58\npending_favs   : 5\npending_total  : 51\nvariable_paths : 0\nbitmap_cvg     : 0.50%\nunique_crashes : 0\nunique_hangs   : 19\nlast_path      : 1499987211\nlast_crash     : 0\nlast_hang      : 1499988333\nexec_timeout   : 20\nafl_banner     : fuzzer-master\nafl_version    : 1.85b\ncommand_line   : /home/skaramcheti/.virtualenvs/afl/bin/afl-unix/afl-fuzz -i /dev/shm/work/Single-Sign-On/input -o /dev/shm/work/Single-Sign-On/sync -m 4G -Q -M fuzzer-master -x /dev/shm/work/Single-Sign-On/Single-Sign-On.dict -- data/linux/processed-challenges/Single-Sign-On/bin/Single-Sign-On\n'
p103
I0
tp104
a(I6240
S'start_time     : 1499982300\nlast_update    : 1499988551\nfuzzer_pid     : 8947\ncycles_done    : 0\nexecs_done     : 1447893\nexecs_per_sec  : 74.73\npaths_total    : 72\npaths_favored  : 20\npaths_found    : 71\npaths_imported : 0\nmax_depth      : 6\ncur_path       : 58\npending_favs   : 5\npending_total  : 51\nvariable_paths : 0\nbitmap_cvg     : 0.50%\nunique_crashes : 0\nunique_hangs   : 20\nlast_path      : 1499987211\nlast_crash     : 0\nlast_hang      : 1499988544\nexec_timeout   : 20\nafl_banner     : fuzzer-master\nafl_version    : 1.85b\ncommand_line   : /home/skaramcheti/.virtualenvs/afl/bin/afl-unix/afl-fuzz -i /dev/shm/work/Single-Sign-On/input -o /dev/shm/work/Single-Sign-On/sync -m 4G -Q -M fuzzer-master -x /dev/shm/work/Single-Sign-On/Single-Sign-On.dict -- data/linux/processed-challenges/Single-Sign-On/bin/Single-Sign-On\n'
p105
I0
tp106
a(I6360
S'start_time     : 1499982300\nlast_update    : 1499988672\nfuzzer_pid     : 8947\ncycles_done    : 0\nexecs_done     : 1456783\nexecs_per_sec  : 72.17\npaths_total    : 72\npaths_favored  : 20\npaths_found    : 71\npaths_imported : 0\nmax_depth      : 6\ncur_path       : 58\npending_favs   : 5\npending_total  : 51\nvariable_paths : 0\nbitmap_cvg     : 0.50%\nunique_crashes : 0\nunique_hangs   : 20\nlast_path      : 1499987211\nlast_crash     : 0\nlast_hang      : 1499988544\nexec_timeout   : 20\nafl_banner     : fuzzer-master\nafl_version    : 1.85b\ncommand_line   : /home/skaramcheti/.virtualenvs/afl/bin/afl-unix/afl-fuzz -i /dev/shm/work/Single-Sign-On/input -o /dev/shm/work/Single-Sign-On/sync -m 4G -Q -M fuzzer-master -x /dev/shm/work/Single-Sign-On/Single-Sign-On.dict -- data/linux/processed-challenges/Single-Sign-On/bin/Single-Sign-On\n'
p107
I0
tp108
a(I6480
S'start_time     : 1499982300\nlast_update    : 1499988792\nfuzzer_pid     : 8947\ncycles_done    : 0\nexecs_done     : 1466890\nexecs_per_sec  : 117.52\npaths_total    : 74\npaths_favored  : 20\npaths_found    : 73\npaths_imported : 0\nmax_depth      : 6\ncur_path       : 58\npending_favs   : 5\npending_total  : 53\nvariable_paths : 0\nbitmap_cvg     : 0.50%\nunique_crashes : 0\nunique_hangs   : 20\nlast_path      : 1499988771\nlast_crash     : 0\nlast_hang      : 1499988544\nexec_timeout   : 20\nafl_banner     : fuzzer-master\nafl_version    : 1.85b\ncommand_line   : /home/skaramcheti/.virtualenvs/afl/bin/afl-unix/afl-fuzz -i /dev/shm/work/Single-Sign-On/input -o /dev/shm/work/Single-Sign-On/sync -m 4G -Q -M fuzzer-master -x /dev/shm/work/Single-Sign-On/Single-Sign-On.dict -- data/linux/processed-challenges/Single-Sign-On/bin/Single-Sign-On\n'
p109
I2
tp110
a(I6600
S'start_time     : 1499982300\nlast_update    : 1499988912\nfuzzer_pid     : 8947\ncycles_done    : 0\nexecs_done     : 1480754\nexecs_per_sec  : 112.79\npaths_total    : 75\npaths_favored  : 20\npaths_found    : 74\npaths_imported : 0\nmax_depth      : 6\ncur_path       : 58\npending_favs   : 5\npending_total  : 54\nvariable_paths : 0\nbitmap_cvg     : 0.50%\nunique_crashes : 0\nunique_hangs   : 21\nlast_path      : 1499988860\nlast_crash     : 0\nlast_hang      : 1499988870\nexec_timeout   : 20\nafl_banner     : fuzzer-master\nafl_version    : 1.85b\ncommand_line   : /home/skaramcheti/.virtualenvs/afl/bin/afl-unix/afl-fuzz -i /dev/shm/work/Single-Sign-On/input -o /dev/shm/work/Single-Sign-On/sync -m 4G -Q -M fuzzer-master -x /dev/shm/work/Single-Sign-On/Single-Sign-On.dict -- data/linux/processed-challenges/Single-Sign-On/bin/Single-Sign-On\n'
p111
I1
tp112
a(I6720
S'start_time     : 1499982300\nlast_update    : 1499989032\nfuzzer_pid     : 8947\ncycles_done    : 0\nexecs_done     : 1494632\nexecs_per_sec  : 115.13\npaths_total    : 75\npaths_favored  : 20\npaths_found    : 74\npaths_imported : 0\nmax_depth      : 6\ncur_path       : 58\npending_favs   : 5\npending_total  : 54\nvariable_paths : 0\nbitmap_cvg     : 0.50%\nunique_crashes : 0\nunique_hangs   : 21\nlast_path      : 1499988860\nlast_crash     : 0\nlast_hang      : 1499988870\nexec_timeout   : 20\nafl_banner     : fuzzer-master\nafl_version    : 1.85b\ncommand_line   : /home/skaramcheti/.virtualenvs/afl/bin/afl-unix/afl-fuzz -i /dev/shm/work/Single-Sign-On/input -o /dev/shm/work/Single-Sign-On/sync -m 4G -Q -M fuzzer-master -x /dev/shm/work/Single-Sign-On/Single-Sign-On.dict -- data/linux/processed-challenges/Single-Sign-On/bin/Single-Sign-On\n'
p113
I0
tp114
a(I6840
S'start_time     : 1499982300\nlast_update    : 1499989092\nfuzzer_pid     : 8947\ncycles_done    : 0\nexecs_done     : 1501504\nexecs_per_sec  : 115.15\npaths_total    : 75\npaths_favored  : 20\npaths_found    : 74\npaths_imported : 0\nmax_depth      : 6\ncur_path       : 58\npending_favs   : 5\npending_total  : 54\nvariable_paths : 0\nbitmap_cvg     : 0.50%\nunique_crashes : 0\nunique_hangs   : 21\nlast_path      : 1499988860\nlast_crash     : 0\nlast_hang      : 1499988870\nexec_timeout   : 20\nafl_banner     : fuzzer-master\nafl_version    : 1.85b\ncommand_line   : /home/skaramcheti/.virtualenvs/afl/bin/afl-unix/afl-fuzz -i /dev/shm/work/Single-Sign-On/input -o /dev/shm/work/Single-Sign-On/sync -m 4G -Q -M fuzzer-master -x /dev/shm/work/Single-Sign-On/Single-Sign-On.dict -- data/linux/processed-challenges/Single-Sign-On/bin/Single-Sign-On\n'
p115
I0
tp116
a(I6960
S'start_time     : 1499982300\nlast_update    : 1499989212\nfuzzer_pid     : 8947\ncycles_done    : 0\nexecs_done     : 1515466\nexecs_per_sec  : 117.58\npaths_total    : 75\npaths_favored  : 20\npaths_found    : 74\npaths_imported : 0\nmax_depth      : 6\ncur_path       : 58\npending_favs   : 5\npending_total  : 54\nvariable_paths : 0\nbitmap_cvg     : 0.50%\nunique_crashes : 0\nunique_hangs   : 22\nlast_path      : 1499988860\nlast_crash     : 0\nlast_hang      : 1499989186\nexec_timeout   : 20\nafl_banner     : fuzzer-master\nafl_version    : 1.85b\ncommand_line   : /home/skaramcheti/.virtualenvs/afl/bin/afl-unix/afl-fuzz -i /dev/shm/work/Single-Sign-On/input -o /dev/shm/work/Single-Sign-On/sync -m 4G -Q -M fuzzer-master -x /dev/shm/work/Single-Sign-On/Single-Sign-On.dict -- data/linux/processed-challenges/Single-Sign-On/bin/Single-Sign-On\n'
p117
I0
tp118
a(I7080
S'start_time     : 1499982300\nlast_update    : 1499989333\nfuzzer_pid     : 8947\ncycles_done    : 0\nexecs_done     : 1529370\nexecs_per_sec  : 114.14\npaths_total    : 75\npaths_favored  : 20\npaths_found    : 74\npaths_imported : 0\nmax_depth      : 6\ncur_path       : 58\npending_favs   : 5\npending_total  : 54\nvariable_paths : 0\nbitmap_cvg     : 0.50%\nunique_crashes : 0\nunique_hangs   : 22\nlast_path      : 1499988860\nlast_crash     : 0\nlast_hang      : 1499989186\nexec_timeout   : 20\nafl_banner     : fuzzer-master\nafl_version    : 1.85b\ncommand_line   : /home/skaramcheti/.virtualenvs/afl/bin/afl-unix/afl-fuzz -i /dev/shm/work/Single-Sign-On/input -o /dev/shm/work/Single-Sign-On/sync -m 4G -Q -M fuzzer-master -x /dev/shm/work/Single-Sign-On/Single-Sign-On.dict -- data/linux/processed-challenges/Single-Sign-On/bin/Single-Sign-On\n'
p119
I0
tp120
a(I7200
S'start_time     : 1499982300\nlast_update    : 1499989453\nfuzzer_pid     : 8947\ncycles_done    : 0\nexecs_done     : 1543136\nexecs_per_sec  : 115.08\npaths_total    : 75\npaths_favored  : 20\npaths_found    : 74\npaths_imported : 0\nmax_depth      : 6\ncur_path       : 58\npending_favs   : 5\npending_total  : 54\nvariable_paths : 0\nbitmap_cvg     : 0.50%\nunique_crashes : 0\nunique_hangs   : 22\nlast_path      : 1499988860\nlast_crash     : 0\nlast_hang      : 1499989186\nexec_timeout   : 20\nafl_banner     : fuzzer-master\nafl_version    : 1.85b\ncommand_line   : /home/skaramcheti/.virtualenvs/afl/bin/afl-unix/afl-fuzz -i /dev/shm/work/Single-Sign-On/input -o /dev/shm/work/Single-Sign-On/sync -m 4G -Q -M fuzzer-master -x /dev/shm/work/Single-Sign-On/Single-Sign-On.dict -- data/linux/processed-challenges/Single-Sign-On/bin/Single-Sign-On\n'
p121
I0
tp122
a(I7320
S'start_time     : 1499982300\nlast_update    : 1499989573\nfuzzer_pid     : 8947\ncycles_done    : 0\nexecs_done     : 1555820\nexecs_per_sec  : 89.46\npaths_total    : 75\npaths_favored  : 20\npaths_found    : 74\npaths_imported : 0\nmax_depth      : 6\ncur_path       : 59\npending_favs   : 5\npending_total  : 53\nvariable_paths : 0\nbitmap_cvg     : 0.50%\nunique_crashes : 0\nunique_hangs   : 22\nlast_path      : 1499988860\nlast_crash     : 0\nlast_hang      : 1499989186\nexec_timeout   : 20\nafl_banner     : fuzzer-master\nafl_version    : 1.85b\ncommand_line   : /home/skaramcheti/.virtualenvs/afl/bin/afl-unix/afl-fuzz -i /dev/shm/work/Single-Sign-On/input -o /dev/shm/work/Single-Sign-On/sync -m 4G -Q -M fuzzer-master -x /dev/shm/work/Single-Sign-On/Single-Sign-On.dict -- data/linux/processed-challenges/Single-Sign-On/bin/Single-Sign-On\n'
p123
I0
tp124
a(I7440
S'start_time     : 1499982300\nlast_update    : 1499989693\nfuzzer_pid     : 8947\ncycles_done    : 0\nexecs_done     : 1566573\nexecs_per_sec  : 88.20\npaths_total    : 75\npaths_favored  : 20\npaths_found    : 74\npaths_imported : 0\nmax_depth      : 6\ncur_path       : 59\npending_favs   : 5\npending_total  : 53\nvariable_paths : 0\nbitmap_cvg     : 0.50%\nunique_crashes : 0\nunique_hangs   : 23\nlast_path      : 1499988860\nlast_crash     : 0\nlast_hang      : 1499989690\nexec_timeout   : 20\nafl_banner     : fuzzer-master\nafl_version    : 1.85b\ncommand_line   : /home/skaramcheti/.virtualenvs/afl/bin/afl-unix/afl-fuzz -i /dev/shm/work/Single-Sign-On/input -o /dev/shm/work/Single-Sign-On/sync -m 4G -Q -M fuzzer-master -x /dev/shm/work/Single-Sign-On/Single-Sign-On.dict -- data/linux/processed-challenges/Single-Sign-On/bin/Single-Sign-On\n'
p125
I1
tp126
a(I7560
S'start_time     : 1499982300\nlast_update    : 1499989814\nfuzzer_pid     : 8947\ncycles_done    : 0\nexecs_done     : 1577508\nexecs_per_sec  : 88.09\npaths_total    : 76\npaths_favored  : 20\npaths_found    : 75\npaths_imported : 0\nmax_depth      : 6\ncur_path       : 59\npending_favs   : 5\npending_total  : 54\nvariable_paths : 0\nbitmap_cvg     : 0.51%\nunique_crashes : 0\nunique_hangs   : 23\nlast_path      : 1499989729\nlast_crash     : 0\nlast_hang      : 1499989690\nexec_timeout   : 20\nafl_banner     : fuzzer-master\nafl_version    : 1.85b\ncommand_line   : /home/skaramcheti/.virtualenvs/afl/bin/afl-unix/afl-fuzz -i /dev/shm/work/Single-Sign-On/input -o /dev/shm/work/Single-Sign-On/sync -m 4G -Q -M fuzzer-master -x /dev/shm/work/Single-Sign-On/Single-Sign-On.dict -- data/linux/processed-challenges/Single-Sign-On/bin/Single-Sign-On\n'
p127
I0
tp128
a(I7680
S'start_time     : 1499982300\nlast_update    : 1499989934\nfuzzer_pid     : 8947\ncycles_done    : 0\nexecs_done     : 1593478\nexecs_per_sec  : 112.24\npaths_total    : 76\npaths_favored  : 21\npaths_found    : 75\npaths_imported : 0\nmax_depth      : 6\ncur_path       : 64\npending_favs   : 5\npending_total  : 53\nvariable_paths : 0\nbitmap_cvg     : 0.51%\nunique_crashes : 0\nunique_hangs   : 23\nlast_path      : 1499989729\nlast_crash     : 0\nlast_hang      : 1499989690\nexec_timeout   : 20\nafl_banner     : fuzzer-master\nafl_version    : 1.85b\ncommand_line   : /home/skaramcheti/.virtualenvs/afl/bin/afl-unix/afl-fuzz -i /dev/shm/work/Single-Sign-On/input -o /dev/shm/work/Single-Sign-On/sync -m 4G -Q -M fuzzer-master -x /dev/shm/work/Single-Sign-On/Single-Sign-On.dict -- data/linux/processed-challenges/Single-Sign-On/bin/Single-Sign-On\n'
p129
I0
tp130
a(I7800
S'start_time     : 1499982300\nlast_update    : 1499990054\nfuzzer_pid     : 8947\ncycles_done    : 0\nexecs_done     : 1607454\nexecs_per_sec  : 113.29\npaths_total    : 76\npaths_favored  : 21\npaths_found    : 75\npaths_imported : 0\nmax_depth      : 6\ncur_path       : 64\npending_favs   : 5\npending_total  : 53\nvariable_paths : 0\nbitmap_cvg     : 0.51%\nunique_crashes : 0\nunique_hangs   : 23\nlast_path      : 1499989729\nlast_crash     : 0\nlast_hang      : 1499989690\nexec_timeout   : 20\nafl_banner     : fuzzer-master\nafl_version    : 1.85b\ncommand_line   : /home/skaramcheti/.virtualenvs/afl/bin/afl-unix/afl-fuzz -i /dev/shm/work/Single-Sign-On/input -o /dev/shm/work/Single-Sign-On/sync -m 4G -Q -M fuzzer-master -x /dev/shm/work/Single-Sign-On/Single-Sign-On.dict -- data/linux/processed-challenges/Single-Sign-On/bin/Single-Sign-On\n'
p131
I1
tp132
a(I7920
S'start_time     : 1499982300\nlast_update    : 1499990175\nfuzzer_pid     : 8947\ncycles_done    : 0\nexecs_done     : 1627664\nexecs_per_sec  : 194.35\npaths_total    : 78\npaths_favored  : 21\npaths_found    : 77\npaths_imported : 0\nmax_depth      : 7\ncur_path       : 64\npending_favs   : 5\npending_total  : 55\nvariable_paths : 0\nbitmap_cvg     : 0.52%\nunique_crashes : 0\nunique_hangs   : 23\nlast_path      : 1499990144\nlast_crash     : 0\nlast_hang      : 1499989690\nexec_timeout   : 20\nafl_banner     : fuzzer-master\nafl_version    : 1.85b\ncommand_line   : /home/skaramcheti/.virtualenvs/afl/bin/afl-unix/afl-fuzz -i /dev/shm/work/Single-Sign-On/input -o /dev/shm/work/Single-Sign-On/sync -m 4G -Q -M fuzzer-master -x /dev/shm/work/Single-Sign-On/Single-Sign-On.dict -- data/linux/processed-challenges/Single-Sign-On/bin/Single-Sign-On\n'
p133
I1
tp134
a(I8040
S'start_time     : 1499982300\nlast_update    : 1499990295\nfuzzer_pid     : 8947\ncycles_done    : 0\nexecs_done     : 1651184\nexecs_per_sec  : 197.16\npaths_total    : 78\npaths_favored  : 21\npaths_found    : 77\npaths_imported : 0\nmax_depth      : 7\ncur_path       : 64\npending_favs   : 5\npending_total  : 55\nvariable_paths : 0\nbitmap_cvg     : 0.52%\nunique_crashes : 0\nunique_hangs   : 23\nlast_path      : 1499990144\nlast_crash     : 0\nlast_hang      : 1499989690\nexec_timeout   : 20\nafl_banner     : fuzzer-master\nafl_version    : 1.85b\ncommand_line   : /home/skaramcheti/.virtualenvs/afl/bin/afl-unix/afl-fuzz -i /dev/shm/work/Single-Sign-On/input -o /dev/shm/work/Single-Sign-On/sync -m 4G -Q -M fuzzer-master -x /dev/shm/work/Single-Sign-On/Single-Sign-On.dict -- data/linux/processed-challenges/Single-Sign-On/bin/Single-Sign-On\n'
p135
I0
tp136
a(I8160
S'start_time     : 1499982300\nlast_update    : 1499990415\nfuzzer_pid     : 8947\ncycles_done    : 0\nexecs_done     : 1673048\nexecs_per_sec  : 88.94\npaths_total    : 78\npaths_favored  : 22\npaths_found    : 77\npaths_imported : 0\nmax_depth      : 7\ncur_path       : 67\npending_favs   : 5\npending_total  : 54\nvariable_paths : 0\nbitmap_cvg     : 0.52%\nunique_crashes : 0\nunique_hangs   : 23\nlast_path      : 1499990144\nlast_crash     : 0\nlast_hang      : 1499989690\nexec_timeout   : 20\nafl_banner     : fuzzer-master\nafl_version    : 1.85b\ncommand_line   : /home/skaramcheti/.virtualenvs/afl/bin/afl-unix/afl-fuzz -i /dev/shm/work/Single-Sign-On/input -o /dev/shm/work/Single-Sign-On/sync -m 4G -Q -M fuzzer-master -x /dev/shm/work/Single-Sign-On/Single-Sign-On.dict -- data/linux/processed-challenges/Single-Sign-On/bin/Single-Sign-On\n'
p137
I0
tp138
a(I8280
S'start_time     : 1499982300\nlast_update    : 1499990535\nfuzzer_pid     : 8947\ncycles_done    : 0\nexecs_done     : 1683712\nexecs_per_sec  : 92.23\npaths_total    : 78\npaths_favored  : 22\npaths_found    : 77\npaths_imported : 0\nmax_depth      : 7\ncur_path       : 67\npending_favs   : 5\npending_total  : 54\nvariable_paths : 0\nbitmap_cvg     : 0.52%\nunique_crashes : 0\nunique_hangs   : 23\nlast_path      : 1499990144\nlast_crash     : 0\nlast_hang      : 1499989690\nexec_timeout   : 20\nafl_banner     : fuzzer-master\nafl_version    : 1.85b\ncommand_line   : /home/skaramcheti/.virtualenvs/afl/bin/afl-unix/afl-fuzz -i /dev/shm/work/Single-Sign-On/input -o /dev/shm/work/Single-Sign-On/sync -m 4G -Q -M fuzzer-master -x /dev/shm/work/Single-Sign-On/Single-Sign-On.dict -- data/linux/processed-challenges/Single-Sign-On/bin/Single-Sign-On\n'
p139
I0
tp140
a(I8400
S'start_time     : 1499982300\nlast_update    : 1499990655\nfuzzer_pid     : 8947\ncycles_done    : 0\nexecs_done     : 1694729\nexecs_per_sec  : 87.82\npaths_total    : 78\npaths_favored  : 22\npaths_found    : 77\npaths_imported : 0\nmax_depth      : 7\ncur_path       : 67\npending_favs   : 5\npending_total  : 54\nvariable_paths : 0\nbitmap_cvg     : 0.52%\nunique_crashes : 0\nunique_hangs   : 24\nlast_path      : 1499990144\nlast_crash     : 0\nlast_hang      : 1499990641\nexec_timeout   : 20\nafl_banner     : fuzzer-master\nafl_version    : 1.85b\ncommand_line   : /home/skaramcheti/.virtualenvs/afl/bin/afl-unix/afl-fuzz -i /dev/shm/work/Single-Sign-On/input -o /dev/shm/work/Single-Sign-On/sync -m 4G -Q -M fuzzer-master -x /dev/shm/work/Single-Sign-On/Single-Sign-On.dict -- data/linux/processed-challenges/Single-Sign-On/bin/Single-Sign-On\n'
p141
I1
tp142
a(I8520
S'start_time     : 1499982300\nlast_update    : 1499990775\nfuzzer_pid     : 8947\ncycles_done    : 0\nexecs_done     : 1710137\nexecs_per_sec  : 148.86\npaths_total    : 80\npaths_favored  : 22\npaths_found    : 79\npaths_imported : 0\nmax_depth      : 7\ncur_path       : 67\npending_favs   : 5\npending_total  : 56\nvariable_paths : 0\nbitmap_cvg     : 0.52%\nunique_crashes : 0\nunique_hangs   : 24\nlast_path      : 1499990716\nlast_crash     : 0\nlast_hang      : 1499990641\nexec_timeout   : 20\nafl_banner     : fuzzer-master\nafl_version    : 1.85b\ncommand_line   : /home/skaramcheti/.virtualenvs/afl/bin/afl-unix/afl-fuzz -i /dev/shm/work/Single-Sign-On/input -o /dev/shm/work/Single-Sign-On/sync -m 4G -Q -M fuzzer-master -x /dev/shm/work/Single-Sign-On/Single-Sign-On.dict -- data/linux/processed-challenges/Single-Sign-On/bin/Single-Sign-On\n'
p143
I1
tp144
a(I8640
S'start_time     : 1499982300\nlast_update    : 1499990896\nfuzzer_pid     : 8947\ncycles_done    : 0\nexecs_done     : 1728475\nexecs_per_sec  : 157.38\npaths_total    : 80\npaths_favored  : 22\npaths_found    : 79\npaths_imported : 0\nmax_depth      : 7\ncur_path       : 67\npending_favs   : 5\npending_total  : 56\nvariable_paths : 0\nbitmap_cvg     : 0.52%\nunique_crashes : 0\nunique_hangs   : 24\nlast_path      : 1499990716\nlast_crash     : 0\nlast_hang      : 1499990641\nexec_timeout   : 20\nafl_banner     : fuzzer-master\nafl_version    : 1.85b\ncommand_line   : /home/skaramcheti/.virtualenvs/afl/bin/afl-unix/afl-fuzz -i /dev/shm/work/Single-Sign-On/input -o /dev/shm/work/Single-Sign-On/sync -m 4G -Q -M fuzzer-master -x /dev/shm/work/Single-Sign-On/Single-Sign-On.dict -- data/linux/processed-challenges/Single-Sign-On/bin/Single-Sign-On\n'
p145
I0
tp146
a(I8760
S'start_time     : 1499982300\nlast_update    : 1499991016\nfuzzer_pid     : 8947\ncycles_done    : 0\nexecs_done     : 1743472\nexecs_per_sec  : 90.06\npaths_total    : 80\npaths_favored  : 22\npaths_found    : 79\npaths_imported : 0\nmax_depth      : 7\ncur_path       : 70\npending_favs   : 4\npending_total  : 55\nvariable_paths : 0\nbitmap_cvg     : 0.52%\nunique_crashes : 0\nunique_hangs   : 25\nlast_path      : 1499990716\nlast_crash     : 0\nlast_hang      : 1499990986\nexec_timeout   : 20\nafl_banner     : fuzzer-master\nafl_version    : 1.85b\ncommand_line   : /home/skaramcheti/.virtualenvs/afl/bin/afl-unix/afl-fuzz -i /dev/shm/work/Single-Sign-On/input -o /dev/shm/work/Single-Sign-On/sync -m 4G -Q -M fuzzer-master -x /dev/shm/work/Single-Sign-On/Single-Sign-On.dict -- data/linux/processed-challenges/Single-Sign-On/bin/Single-Sign-On\n'
p147
I0
tp148
a(I8880
S'start_time     : 1499982300\nlast_update    : 1499991136\nfuzzer_pid     : 8947\ncycles_done    : 0\nexecs_done     : 1754200\nexecs_per_sec  : 87.30\npaths_total    : 80\npaths_favored  : 22\npaths_found    : 79\npaths_imported : 0\nmax_depth      : 7\ncur_path       : 70\npending_favs   : 4\npending_total  : 55\nvariable_paths : 0\nbitmap_cvg     : 0.52%\nunique_crashes : 0\nunique_hangs   : 25\nlast_path      : 1499990716\nlast_crash     : 0\nlast_hang      : 1499990986\nexec_timeout   : 20\nafl_banner     : fuzzer-master\nafl_version    : 1.85b\ncommand_line   : /home/skaramcheti/.virtualenvs/afl/bin/afl-unix/afl-fuzz -i /dev/shm/work/Single-Sign-On/input -o /dev/shm/work/Single-Sign-On/sync -m 4G -Q -M fuzzer-master -x /dev/shm/work/Single-Sign-On/Single-Sign-On.dict -- data/linux/processed-challenges/Single-Sign-On/bin/Single-Sign-On\n'
p149
I0
tp150
a(I9000
S'start_time     : 1499982300\nlast_update    : 1499991256\nfuzzer_pid     : 8947\ncycles_done    : 0\nexecs_done     : 1765079\nexecs_per_sec  : 89.60\npaths_total    : 80\npaths_favored  : 22\npaths_found    : 79\npaths_imported : 0\nmax_depth      : 7\ncur_path       : 70\npending_favs   : 4\npending_total  : 55\nvariable_paths : 0\nbitmap_cvg     : 0.52%\nunique_crashes : 0\nunique_hangs   : 25\nlast_path      : 1499990716\nlast_crash     : 0\nlast_hang      : 1499990986\nexec_timeout   : 20\nafl_banner     : fuzzer-master\nafl_version    : 1.85b\ncommand_line   : /home/skaramcheti/.virtualenvs/afl/bin/afl-unix/afl-fuzz -i /dev/shm/work/Single-Sign-On/input -o /dev/shm/work/Single-Sign-On/sync -m 4G -Q -M fuzzer-master -x /dev/shm/work/Single-Sign-On/Single-Sign-On.dict -- data/linux/processed-challenges/Single-Sign-On/bin/Single-Sign-On\n'
p151
I0
tp152
a(I9120
S'start_time     : 1499982300\nlast_update    : 1499991376\nfuzzer_pid     : 8947\ncycles_done    : 0\nexecs_done     : 1780058\nexecs_per_sec  : 89.28\npaths_total    : 80\npaths_favored  : 22\npaths_found    : 79\npaths_imported : 0\nmax_depth      : 7\ncur_path       : 75\npending_favs   : 3\npending_total  : 54\nvariable_paths : 0\nbitmap_cvg     : 0.52%\nunique_crashes : 0\nunique_hangs   : 26\nlast_path      : 1499990716\nlast_crash     : 0\nlast_hang      : 1499991358\nexec_timeout   : 20\nafl_banner     : fuzzer-master\nafl_version    : 1.85b\ncommand_line   : /home/skaramcheti/.virtualenvs/afl/bin/afl-unix/afl-fuzz -i /dev/shm/work/Single-Sign-On/input -o /dev/shm/work/Single-Sign-On/sync -m 4G -Q -M fuzzer-master -x /dev/shm/work/Single-Sign-On/Single-Sign-On.dict -- data/linux/processed-challenges/Single-Sign-On/bin/Single-Sign-On\n'
p153
I0
tp154
a(I9240
S'start_time     : 1499982300\nlast_update    : 1499991497\nfuzzer_pid     : 8947\ncycles_done    : 0\nexecs_done     : 1790902\nexecs_per_sec  : 91.26\npaths_total    : 80\npaths_favored  : 22\npaths_found    : 79\npaths_imported : 0\nmax_depth      : 7\ncur_path       : 75\npending_favs   : 3\npending_total  : 54\nvariable_paths : 0\nbitmap_cvg     : 0.52%\nunique_crashes : 0\nunique_hangs   : 26\nlast_path      : 1499990716\nlast_crash     : 0\nlast_hang      : 1499991358\nexec_timeout   : 20\nafl_banner     : fuzzer-master\nafl_version    : 1.85b\ncommand_line   : /home/skaramcheti/.virtualenvs/afl/bin/afl-unix/afl-fuzz -i /dev/shm/work/Single-Sign-On/input -o /dev/shm/work/Single-Sign-On/sync -m 4G -Q -M fuzzer-master -x /dev/shm/work/Single-Sign-On/Single-Sign-On.dict -- data/linux/processed-challenges/Single-Sign-On/bin/Single-Sign-On\n'
p155
I0
tp156
a(I9360
S'start_time     : 1499982300\nlast_update    : 1499991617\nfuzzer_pid     : 8947\ncycles_done    : 0\nexecs_done     : 1801930\nexecs_per_sec  : 89.82\npaths_total    : 80\npaths_favored  : 22\npaths_found    : 79\npaths_imported : 0\nmax_depth      : 7\ncur_path       : 75\npending_favs   : 3\npending_total  : 54\nvariable_paths : 0\nbitmap_cvg     : 0.52%\nunique_crashes : 0\nunique_hangs   : 26\nlast_path      : 1499990716\nlast_crash     : 0\nlast_hang      : 1499991358\nexec_timeout   : 20\nafl_banner     : fuzzer-master\nafl_version    : 1.85b\ncommand_line   : /home/skaramcheti/.virtualenvs/afl/bin/afl-unix/afl-fuzz -i /dev/shm/work/Single-Sign-On/input -o /dev/shm/work/Single-Sign-On/sync -m 4G -Q -M fuzzer-master -x /dev/shm/work/Single-Sign-On/Single-Sign-On.dict -- data/linux/processed-challenges/Single-Sign-On/bin/Single-Sign-On\n'
p157
I2
tp158
a(I9480
S'start_time     : 1499982300\nlast_update    : 1499991737\nfuzzer_pid     : 8947\ncycles_done    : 0\nexecs_done     : 1820205\nexecs_per_sec  : 157.21\npaths_total    : 82\npaths_favored  : 22\npaths_found    : 81\npaths_imported : 0\nmax_depth      : 7\ncur_path       : 75\npending_favs   : 3\npending_total  : 56\nvariable_paths : 0\nbitmap_cvg     : 0.53%\nunique_crashes : 0\nunique_hangs   : 26\nlast_path      : 1499991646\nlast_crash     : 0\nlast_hang      : 1499991358\nexec_timeout   : 20\nafl_banner     : fuzzer-master\nafl_version    : 1.85b\ncommand_line   : /home/skaramcheti/.virtualenvs/afl/bin/afl-unix/afl-fuzz -i /dev/shm/work/Single-Sign-On/input -o /dev/shm/work/Single-Sign-On/sync -m 4G -Q -M fuzzer-master -x /dev/shm/work/Single-Sign-On/Single-Sign-On.dict -- data/linux/processed-challenges/Single-Sign-On/bin/Single-Sign-On\n'
p159
I0
tp160
a(I9600
S'start_time     : 1499982300\nlast_update    : 1499991857\nfuzzer_pid     : 8947\ncycles_done    : 0\nexecs_done     : 1838946\nexecs_per_sec  : 153.39\npaths_total    : 82\npaths_favored  : 22\npaths_found    : 81\npaths_imported : 0\nmax_depth      : 7\ncur_path       : 75\npending_favs   : 3\npending_total  : 56\nvariable_paths : 0\nbitmap_cvg     : 0.53%\nunique_crashes : 0\nunique_hangs   : 26\nlast_path      : 1499991646\nlast_crash     : 0\nlast_hang      : 1499991358\nexec_timeout   : 20\nafl_banner     : fuzzer-master\nafl_version    : 1.85b\ncommand_line   : /home/skaramcheti/.virtualenvs/afl/bin/afl-unix/afl-fuzz -i /dev/shm/work/Single-Sign-On/input -o /dev/shm/work/Single-Sign-On/sync -m 4G -Q -M fuzzer-master -x /dev/shm/work/Single-Sign-On/Single-Sign-On.dict -- data/linux/processed-challenges/Single-Sign-On/bin/Single-Sign-On\n'
p161
I0
tp162
a(I9720
S'start_time     : 1499982300\nlast_update    : 1499991977\nfuzzer_pid     : 8947\ncycles_done    : 0\nexecs_done     : 1857261\nexecs_per_sec  : 153.73\npaths_total    : 82\npaths_favored  : 22\npaths_found    : 81\npaths_imported : 0\nmax_depth      : 7\ncur_path       : 75\npending_favs   : 3\npending_total  : 56\nvariable_paths : 0\nbitmap_cvg     : 0.53%\nunique_crashes : 0\nunique_hangs   : 26\nlast_path      : 1499991646\nlast_crash     : 0\nlast_hang      : 1499991358\nexec_timeout   : 20\nafl_banner     : fuzzer-master\nafl_version    : 1.85b\ncommand_line   : /home/skaramcheti/.virtualenvs/afl/bin/afl-unix/afl-fuzz -i /dev/shm/work/Single-Sign-On/input -o /dev/shm/work/Single-Sign-On/sync -m 4G -Q -M fuzzer-master -x /dev/shm/work/Single-Sign-On/Single-Sign-On.dict -- data/linux/processed-challenges/Single-Sign-On/bin/Single-Sign-On\n'
p163
I0
tp164
a(I9840
S'start_time     : 1499982300\nlast_update    : 1499992097\nfuzzer_pid     : 8947\ncycles_done    : 0\nexecs_done     : 1868724\nexecs_per_sec  : 72.88\npaths_total    : 82\npaths_favored  : 23\npaths_found    : 81\npaths_imported : 0\nmax_depth      : 7\ncur_path       : 77\npending_favs   : 3\npending_total  : 55\nvariable_paths : 0\nbitmap_cvg     : 0.53%\nunique_crashes : 0\nunique_hangs   : 27\nlast_path      : 1499991646\nlast_crash     : 0\nlast_hang      : 1499992012\nexec_timeout   : 20\nafl_banner     : fuzzer-master\nafl_version    : 1.85b\ncommand_line   : /home/skaramcheti/.virtualenvs/afl/bin/afl-unix/afl-fuzz -i /dev/shm/work/Single-Sign-On/input -o /dev/shm/work/Single-Sign-On/sync -m 4G -Q -M fuzzer-master -x /dev/shm/work/Single-Sign-On/Single-Sign-On.dict -- data/linux/processed-challenges/Single-Sign-On/bin/Single-Sign-On\n'
p165
I0
tp166
a(I9960
S'start_time     : 1499982300\nlast_update    : 1499992218\nfuzzer_pid     : 8947\ncycles_done    : 0\nexecs_done     : 1877555\nexecs_per_sec  : 72.02\npaths_total    : 82\npaths_favored  : 23\npaths_found    : 81\npaths_imported : 0\nmax_depth      : 7\ncur_path       : 77\npending_favs   : 3\npending_total  : 55\nvariable_paths : 0\nbitmap_cvg     : 0.53%\nunique_crashes : 0\nunique_hangs   : 27\nlast_path      : 1499991646\nlast_crash     : 0\nlast_hang      : 1499992012\nexec_timeout   : 20\nafl_banner     : fuzzer-master\nafl_version    : 1.85b\ncommand_line   : /home/skaramcheti/.virtualenvs/afl/bin/afl-unix/afl-fuzz -i /dev/shm/work/Single-Sign-On/input -o /dev/shm/work/Single-Sign-On/sync -m 4G -Q -M fuzzer-master -x /dev/shm/work/Single-Sign-On/Single-Sign-On.dict -- data/linux/processed-challenges/Single-Sign-On/bin/Single-Sign-On\n'
p167
I0
tp168
a(I10080
S'start_time     : 1499982300\nlast_update    : 1499992338\nfuzzer_pid     : 8947\ncycles_done    : 0\nexecs_done     : 1887009\nexecs_per_sec  : 72.18\npaths_total    : 82\npaths_favored  : 23\npaths_found    : 81\npaths_imported : 0\nmax_depth      : 7\ncur_path       : 77\npending_favs   : 3\npending_total  : 55\nvariable_paths : 0\nbitmap_cvg     : 0.53%\nunique_crashes : 0\nunique_hangs   : 27\nlast_path      : 1499991646\nlast_crash     : 0\nlast_hang      : 1499992012\nexec_timeout   : 20\nafl_banner     : fuzzer-master\nafl_version    : 1.85b\ncommand_line   : /home/skaramcheti/.virtualenvs/afl/bin/afl-unix/afl-fuzz -i /dev/shm/work/Single-Sign-On/input -o /dev/shm/work/Single-Sign-On/sync -m 4G -Q -M fuzzer-master -x /dev/shm/work/Single-Sign-On/Single-Sign-On.dict -- data/linux/processed-challenges/Single-Sign-On/bin/Single-Sign-On\n'
p169
I1
tp170
a(I10200
S'start_time     : 1499982300\nlast_update    : 1499992458\nfuzzer_pid     : 8947\ncycles_done    : 0\nexecs_done     : 1897217\nexecs_per_sec  : 119.26\npaths_total    : 84\npaths_favored  : 23\npaths_found    : 83\npaths_imported : 0\nmax_depth      : 8\ncur_path       : 77\npending_favs   : 3\npending_total  : 57\nvariable_paths : 0\nbitmap_cvg     : 0.53%\nunique_crashes : 0\nunique_hangs   : 27\nlast_path      : 1499992451\nlast_crash     : 0\nlast_hang      : 1499992012\nexec_timeout   : 20\nafl_banner     : fuzzer-master\nafl_version    : 1.85b\ncommand_line   : /home/skaramcheti/.virtualenvs/afl/bin/afl-unix/afl-fuzz -i /dev/shm/work/Single-Sign-On/input -o /dev/shm/work/Single-Sign-On/sync -m 4G -Q -M fuzzer-master -x /dev/shm/work/Single-Sign-On/Single-Sign-On.dict -- data/linux/processed-challenges/Single-Sign-On/bin/Single-Sign-On\n'
p171
I1
tp172
a(I10320
S'start_time     : 1499982300\nlast_update    : 1499992578\nfuzzer_pid     : 8947\ncycles_done    : 0\nexecs_done     : 1912393\nexecs_per_sec  : 129.58\npaths_total    : 84\npaths_favored  : 23\npaths_found    : 83\npaths_imported : 0\nmax_depth      : 8\ncur_path       : 77\npending_favs   : 3\npending_total  : 57\nvariable_paths : 0\nbitmap_cvg     : 0.53%\nunique_crashes : 0\nunique_hangs   : 27\nlast_path      : 1499992451\nlast_crash     : 0\nlast_hang      : 1499992012\nexec_timeout   : 20\nafl_banner     : fuzzer-master\nafl_version    : 1.85b\ncommand_line   : /home/skaramcheti/.virtualenvs/afl/bin/afl-unix/afl-fuzz -i /dev/shm/work/Single-Sign-On/input -o /dev/shm/work/Single-Sign-On/sync -m 4G -Q -M fuzzer-master -x /dev/shm/work/Single-Sign-On/Single-Sign-On.dict -- data/linux/processed-challenges/Single-Sign-On/bin/Single-Sign-On\n'
p173
I0
tp174
a(I10440
S'start_time     : 1499982300\nlast_update    : 1499992698\nfuzzer_pid     : 8947\ncycles_done    : 0\nexecs_done     : 1922807\nexecs_per_sec  : 71.42\npaths_total    : 84\npaths_favored  : 24\npaths_found    : 83\npaths_imported : 0\nmax_depth      : 8\ncur_path       : 78\npending_favs   : 3\npending_total  : 56\nvariable_paths : 0\nbitmap_cvg     : 0.53%\nunique_crashes : 0\nunique_hangs   : 27\nlast_path      : 1499992451\nlast_crash     : 0\nlast_hang      : 1499992012\nexec_timeout   : 20\nafl_banner     : fuzzer-master\nafl_version    : 1.85b\ncommand_line   : /home/skaramcheti/.virtualenvs/afl/bin/afl-unix/afl-fuzz -i /dev/shm/work/Single-Sign-On/input -o /dev/shm/work/Single-Sign-On/sync -m 4G -Q -M fuzzer-master -x /dev/shm/work/Single-Sign-On/Single-Sign-On.dict -- data/linux/processed-challenges/Single-Sign-On/bin/Single-Sign-On\n'
p175
I0
tp176
a(I10560
S'start_time     : 1499982300\nlast_update    : 1499992819\nfuzzer_pid     : 8947\ncycles_done    : 0\nexecs_done     : 1931617\nexecs_per_sec  : 77.36\npaths_total    : 84\npaths_favored  : 24\npaths_found    : 83\npaths_imported : 0\nmax_depth      : 8\ncur_path       : 78\npending_favs   : 3\npending_total  : 56\nvariable_paths : 0\nbitmap_cvg     : 0.53%\nunique_crashes : 0\nunique_hangs   : 27\nlast_path      : 1499992451\nlast_crash     : 0\nlast_hang      : 1499992012\nexec_timeout   : 20\nafl_banner     : fuzzer-master\nafl_version    : 1.85b\ncommand_line   : /home/skaramcheti/.virtualenvs/afl/bin/afl-unix/afl-fuzz -i /dev/shm/work/Single-Sign-On/input -o /dev/shm/work/Single-Sign-On/sync -m 4G -Q -M fuzzer-master -x /dev/shm/work/Single-Sign-On/Single-Sign-On.dict -- data/linux/processed-challenges/Single-Sign-On/bin/Single-Sign-On\n'
p177
I0
tp178
a(I10680
S'start_time     : 1499982300\nlast_update    : 1499992939\nfuzzer_pid     : 8947\ncycles_done    : 0\nexecs_done     : 1940678\nexecs_per_sec  : 69.14\npaths_total    : 84\npaths_favored  : 24\npaths_found    : 83\npaths_imported : 0\nmax_depth      : 8\ncur_path       : 78\npending_favs   : 3\npending_total  : 56\nvariable_paths : 0\nbitmap_cvg     : 0.53%\nunique_crashes : 0\nunique_hangs   : 27\nlast_path      : 1499992451\nlast_crash     : 0\nlast_hang      : 1499992012\nexec_timeout   : 20\nafl_banner     : fuzzer-master\nafl_version    : 1.85b\ncommand_line   : /home/skaramcheti/.virtualenvs/afl/bin/afl-unix/afl-fuzz -i /dev/shm/work/Single-Sign-On/input -o /dev/shm/work/Single-Sign-On/sync -m 4G -Q -M fuzzer-master -x /dev/shm/work/Single-Sign-On/Single-Sign-On.dict -- data/linux/processed-challenges/Single-Sign-On/bin/Single-Sign-On\n'
p179
I0
tp180
a.