(lp0
(I0
S'start_time     : 1500220040\nlast_update    : 1500220040\nfuzzer_pid     : 15189\ncycles_done    : 0\nexecs_done     : 10\nexecs_per_sec  : 31.65\npaths_total    : 1\npaths_favored  : 1\npaths_found    : 0\npaths_imported : 0\nmax_depth      : 1\ncur_path       : 0\npending_favs   : 1\npending_total  : 1\nvariable_paths : 0\nbitmap_cvg     : 0.73%\nunique_crashes : 0\nunique_hangs   : 0\nlast_path      : 0\nlast_crash     : 0\nlast_hang      : 0\nexec_timeout   : 100\nafl_banner     : fuzzer-master\nafl_version    : 1.85b\ncommand_line   : /home/skaramcheti/.virtualenvs/afl/bin/afl-unix/afl-fuzz -i /dev/shm/work/DFARS_Sample_Service/input -o /dev/shm/work/DFARS_Sample_Service/sync -m 4G -Q -M fuzzer-master -x /dev/shm/work/DFARS_Sample_Service/DFARS_Sample_Service.dict -- data/linux/processed-challenges/DFARS_Sample_Service/bin/DFARS_Sample_Service\n'
p1
I1
tp2
a(I120
S'start_time     : 1500220040\nlast_update    : 1500220160\nfuzzer_pid     : 15189\ncycles_done    : 0\nexecs_done     : 4342\nexecs_per_sec  : 35.88\npaths_total    : 4\npaths_favored  : 1\npaths_found    : 3\npaths_imported : 0\nmax_depth      : 2\ncur_path       : 0\npending_favs   : 1\npending_total  : 4\nvariable_paths : 0\nbitmap_cvg     : 0.73%\nunique_crashes : 0\nunique_hangs   : 0\nlast_path      : 1500220107\nlast_crash     : 0\nlast_hang      : 0\nexec_timeout   : 100\nafl_banner     : fuzzer-master\nafl_version    : 1.85b\ncommand_line   : /home/skaramcheti/.virtualenvs/afl/bin/afl-unix/afl-fuzz -i /dev/shm/work/DFARS_Sample_Service/input -o /dev/shm/work/DFARS_Sample_Service/sync -m 4G -Q -M fuzzer-master -x /dev/shm/work/DFARS_Sample_Service/DFARS_Sample_Service.dict -- data/linux/processed-challenges/DFARS_Sample_Service/bin/DFARS_Sample_Service\n'
p3
I3
tp4
a(I240
S'start_time     : 1500220040\nlast_update    : 1500220280\nfuzzer_pid     : 15189\ncycles_done    : 0\nexecs_done     : 8654\nexecs_per_sec  : 35.82\npaths_total    : 4\npaths_favored  : 1\npaths_found    : 3\npaths_imported : 0\nmax_depth      : 2\ncur_path       : 0\npending_favs   : 1\npending_total  : 4\nvariable_paths : 0\nbitmap_cvg     : 0.73%\nunique_crashes : 0\nunique_hangs   : 0\nlast_path      : 1500220107\nlast_crash     : 0\nlast_hang      : 0\nexec_timeout   : 100\nafl_banner     : fuzzer-master\nafl_version    : 1.85b\ncommand_line   : /home/skaramcheti/.virtualenvs/afl/bin/afl-unix/afl-fuzz -i /dev/shm/work/DFARS_Sample_Service/input -o /dev/shm/work/DFARS_Sample_Service/sync -m 4G -Q -M fuzzer-master -x /dev/shm/work/DFARS_Sample_Service/DFARS_Sample_Service.dict -- data/linux/processed-challenges/DFARS_Sample_Service/bin/DFARS_Sample_Service\n'
p5
I0
tp6
a(I360
S'start_time     : 1500220040\nlast_update    : 1500220400\nfuzzer_pid     : 15189\ncycles_done    : 0\nexecs_done     : 12959\nexecs_per_sec  : 35.46\npaths_total    : 4\npaths_favored  : 1\npaths_found    : 3\npaths_imported : 0\nmax_depth      : 2\ncur_path       : 0\npending_favs   : 1\npending_total  : 4\nvariable_paths : 0\nbitmap_cvg     : 0.73%\nunique_crashes : 1\nunique_hangs   : 0\nlast_path      : 1500220107\nlast_crash     : 1500220350\nlast_hang      : 0\nexec_timeout   : 100\nafl_banner     : fuzzer-master\nafl_version    : 1.85b\ncommand_line   : /home/skaramcheti/.virtualenvs/afl/bin/afl-unix/afl-fuzz -i /dev/shm/work/DFARS_Sample_Service/input -o /dev/shm/work/DFARS_Sample_Service/sync -m 4G -Q -M fuzzer-master -x /dev/shm/work/DFARS_Sample_Service/DFARS_Sample_Service.dict -- data/linux/processed-challenges/DFARS_Sample_Service/bin/DFARS_Sample_Service\n'
p7
I0
tp8
a(I480
S'start_time     : 1500220040\nlast_update    : 1500220521\nfuzzer_pid     : 15189\ncycles_done    : 0\nexecs_done     : 17229\nexecs_per_sec  : 35.22\npaths_total    : 9\npaths_favored  : 1\npaths_found    : 8\npaths_imported : 0\nmax_depth      : 2\ncur_path       : 0\npending_favs   : 1\npending_total  : 9\nvariable_paths : 0\nbitmap_cvg     : 0.81%\nunique_crashes : 3\nunique_hangs   : 0\nlast_path      : 1500220512\nlast_crash     : 1500220512\nlast_hang      : 0\nexec_timeout   : 100\nafl_banner     : fuzzer-master\nafl_version    : 1.85b\ncommand_line   : /home/skaramcheti/.virtualenvs/afl/bin/afl-unix/afl-fuzz -i /dev/shm/work/DFARS_Sample_Service/input -o /dev/shm/work/DFARS_Sample_Service/sync -m 4G -Q -M fuzzer-master -x /dev/shm/work/DFARS_Sample_Service/DFARS_Sample_Service.dict -- data/linux/processed-challenges/DFARS_Sample_Service/bin/DFARS_Sample_Service\n'
p9
I5
tp10
a(I600
S'start_time     : 1500220040\nlast_update    : 1500220641\nfuzzer_pid     : 15189\ncycles_done    : 0\nexecs_done     : 21517\nexecs_per_sec  : 36.50\npaths_total    : 9\npaths_favored  : 1\npaths_found    : 8\npaths_imported : 0\nmax_depth      : 2\ncur_path       : 0\npending_favs   : 1\npending_total  : 9\nvariable_paths : 0\nbitmap_cvg     : 0.81%\nunique_crashes : 3\nunique_hangs   : 0\nlast_path      : 1500220512\nlast_crash     : 1500220512\nlast_hang      : 0\nexec_timeout   : 100\nafl_banner     : fuzzer-master\nafl_version    : 1.85b\ncommand_line   : /home/skaramcheti/.virtualenvs/afl/bin/afl-unix/afl-fuzz -i /dev/shm/work/DFARS_Sample_Service/input -o /dev/shm/work/DFARS_Sample_Service/sync -m 4G -Q -M fuzzer-master -x /dev/shm/work/DFARS_Sample_Service/DFARS_Sample_Service.dict -- data/linux/processed-challenges/DFARS_Sample_Service/bin/DFARS_Sample_Service\n'
p11
I0
tp12
a(I720
S'start_time     : 1500220040\nlast_update    : 1500220761\nfuzzer_pid     : 15189\ncycles_done    : 0\nexecs_done     : 25867\nexecs_per_sec  : 35.80\npaths_total    : 9\npaths_favored  : 1\npaths_found    : 8\npaths_imported : 0\nmax_depth      : 2\ncur_path       : 0\npending_favs   : 1\npending_total  : 9\nvariable_paths : 0\nbitmap_cvg     : 0.81%\nunique_crashes : 3\nunique_hangs   : 0\nlast_path      : 1500220512\nlast_crash     : 1500220512\nlast_hang      : 0\nexec_timeout   : 100\nafl_banner     : fuzzer-master\nafl_version    : 1.85b\ncommand_line   : /home/skaramcheti/.virtualenvs/afl/bin/afl-unix/afl-fuzz -i /dev/shm/work/DFARS_Sample_Service/input -o /dev/shm/work/DFARS_Sample_Service/sync -m 4G -Q -M fuzzer-master -x /dev/shm/work/DFARS_Sample_Service/DFARS_Sample_Service.dict -- data/linux/processed-challenges/DFARS_Sample_Service/bin/DFARS_Sample_Service\n'
p13
I0
tp14
a(I840
S'start_time     : 1500220040\nlast_update    : 1500220881\nfuzzer_pid     : 15189\ncycles_done    : 0\nexecs_done     : 30186\nexecs_per_sec  : 35.52\npaths_total    : 9\npaths_favored  : 1\npaths_found    : 8\npaths_imported : 0\nmax_depth      : 2\ncur_path       : 0\npending_favs   : 1\npending_total  : 9\nvariable_paths : 0\nbitmap_cvg     : 0.81%\nunique_crashes : 3\nunique_hangs   : 0\nlast_path      : 1500220512\nlast_crash     : 1500220512\nlast_hang      : 0\nexec_timeout   : 100\nafl_banner     : fuzzer-master\nafl_version    : 1.85b\ncommand_line   : /home/skaramcheti/.virtualenvs/afl/bin/afl-unix/afl-fuzz -i /dev/shm/work/DFARS_Sample_Service/input -o /dev/shm/work/DFARS_Sample_Service/sync -m 4G -Q -M fuzzer-master -x /dev/shm/work/DFARS_Sample_Service/DFARS_Sample_Service.dict -- data/linux/processed-challenges/DFARS_Sample_Service/bin/DFARS_Sample_Service\n'
p15
I0
tp16
a(I960
S'start_time     : 1500220040\nlast_update    : 1500221001\nfuzzer_pid     : 15189\ncycles_done    : 0\nexecs_done     : 34490\nexecs_per_sec  : 36.47\npaths_total    : 9\npaths_favored  : 1\npaths_found    : 8\npaths_imported : 0\nmax_depth      : 2\ncur_path       : 0\npending_favs   : 1\npending_total  : 9\nvariable_paths : 0\nbitmap_cvg     : 0.81%\nunique_crashes : 4\nunique_hangs   : 0\nlast_path      : 1500220512\nlast_crash     : 1500220967\nlast_hang      : 0\nexec_timeout   : 100\nafl_banner     : fuzzer-master\nafl_version    : 1.85b\ncommand_line   : /home/skaramcheti/.virtualenvs/afl/bin/afl-unix/afl-fuzz -i /dev/shm/work/DFARS_Sample_Service/input -o /dev/shm/work/DFARS_Sample_Service/sync -m 4G -Q -M fuzzer-master -x /dev/shm/work/DFARS_Sample_Service/DFARS_Sample_Service.dict -- data/linux/processed-challenges/DFARS_Sample_Service/bin/DFARS_Sample_Service\n'
p17
I0
tp18
a(I1080
S'start_time     : 1500220040\nlast_update    : 1500221122\nfuzzer_pid     : 15189\ncycles_done    : 0\nexecs_done     : 38843\nexecs_per_sec  : 36.08\npaths_total    : 9\npaths_favored  : 1\npaths_found    : 8\npaths_imported : 0\nmax_depth      : 2\ncur_path       : 0\npending_favs   : 1\npending_total  : 9\nvariable_paths : 0\nbitmap_cvg     : 0.81%\nunique_crashes : 4\nunique_hangs   : 0\nlast_path      : 1500220512\nlast_crash     : 1500220967\nlast_hang      : 0\nexec_timeout   : 100\nafl_banner     : fuzzer-master\nafl_version    : 1.85b\ncommand_line   : /home/skaramcheti/.virtualenvs/afl/bin/afl-unix/afl-fuzz -i /dev/shm/work/DFARS_Sample_Service/input -o /dev/shm/work/DFARS_Sample_Service/sync -m 4G -Q -M fuzzer-master -x /dev/shm/work/DFARS_Sample_Service/DFARS_Sample_Service.dict -- data/linux/processed-challenges/DFARS_Sample_Service/bin/DFARS_Sample_Service\n'
p19
I0
tp20
a(I1200
S'start_time     : 1500220040\nlast_update    : 1500221242\nfuzzer_pid     : 15189\ncycles_done    : 0\nexecs_done     : 43165\nexecs_per_sec  : 35.81\npaths_total    : 9\npaths_favored  : 1\npaths_found    : 8\npaths_imported : 0\nmax_depth      : 2\ncur_path       : 0\npending_favs   : 1\npending_total  : 9\nvariable_paths : 0\nbitmap_cvg     : 0.81%\nunique_crashes : 4\nunique_hangs   : 0\nlast_path      : 1500220512\nlast_crash     : 1500220967\nlast_hang      : 0\nexec_timeout   : 100\nafl_banner     : fuzzer-master\nafl_version    : 1.85b\ncommand_line   : /home/skaramcheti/.virtualenvs/afl/bin/afl-unix/afl-fuzz -i /dev/shm/work/DFARS_Sample_Service/input -o /dev/shm/work/DFARS_Sample_Service/sync -m 4G -Q -M fuzzer-master -x /dev/shm/work/DFARS_Sample_Service/DFARS_Sample_Service.dict -- data/linux/processed-challenges/DFARS_Sample_Service/bin/DFARS_Sample_Service\n'
p21
I0
tp22
a(I1320
S'start_time     : 1500220040\nlast_update    : 1500221362\nfuzzer_pid     : 15189\ncycles_done    : 0\nexecs_done     : 47490\nexecs_per_sec  : 36.27\npaths_total    : 9\npaths_favored  : 1\npaths_found    : 8\npaths_imported : 0\nmax_depth      : 2\ncur_path       : 0\npending_favs   : 1\npending_total  : 9\nvariable_paths : 0\nbitmap_cvg     : 0.81%\nunique_crashes : 4\nunique_hangs   : 0\nlast_path      : 1500220512\nlast_crash     : 1500220967\nlast_hang      : 0\nexec_timeout   : 100\nafl_banner     : fuzzer-master\nafl_version    : 1.85b\ncommand_line   : /home/skaramcheti/.virtualenvs/afl/bin/afl-unix/afl-fuzz -i /dev/shm/work/DFARS_Sample_Service/input -o /dev/shm/work/DFARS_Sample_Service/sync -m 4G -Q -M fuzzer-master -x /dev/shm/work/DFARS_Sample_Service/DFARS_Sample_Service.dict -- data/linux/processed-challenges/DFARS_Sample_Service/bin/DFARS_Sample_Service\n'
p23
I0
tp24
a(I1440
S'start_time     : 1500220040\nlast_update    : 1500221482\nfuzzer_pid     : 15189\ncycles_done    : 0\nexecs_done     : 51809\nexecs_per_sec  : 35.64\npaths_total    : 10\npaths_favored  : 1\npaths_found    : 9\npaths_imported : 0\nmax_depth      : 2\ncur_path       : 0\npending_favs   : 1\npending_total  : 10\nvariable_paths : 0\nbitmap_cvg     : 0.83%\nunique_crashes : 4\nunique_hangs   : 0\nlast_path      : 1500221421\nlast_crash     : 1500220967\nlast_hang      : 0\nexec_timeout   : 100\nafl_banner     : fuzzer-master\nafl_version    : 1.85b\ncommand_line   : /home/skaramcheti/.virtualenvs/afl/bin/afl-unix/afl-fuzz -i /dev/shm/work/DFARS_Sample_Service/input -o /dev/shm/work/DFARS_Sample_Service/sync -m 4G -Q -M fuzzer-master -x /dev/shm/work/DFARS_Sample_Service/DFARS_Sample_Service.dict -- data/linux/processed-challenges/DFARS_Sample_Service/bin/DFARS_Sample_Service\n'
p25
I1
tp26
a(I1560
S'start_time     : 1500220040\nlast_update    : 1500221603\nfuzzer_pid     : 15189\ncycles_done    : 0\nexecs_done     : 56116\nexecs_per_sec  : 36.18\npaths_total    : 10\npaths_favored  : 1\npaths_found    : 9\npaths_imported : 0\nmax_depth      : 2\ncur_path       : 0\npending_favs   : 1\npending_total  : 10\nvariable_paths : 0\nbitmap_cvg     : 0.83%\nunique_crashes : 4\nunique_hangs   : 0\nlast_path      : 1500221421\nlast_crash     : 1500220967\nlast_hang      : 0\nexec_timeout   : 100\nafl_banner     : fuzzer-master\nafl_version    : 1.85b\ncommand_line   : /home/skaramcheti/.virtualenvs/afl/bin/afl-unix/afl-fuzz -i /dev/shm/work/DFARS_Sample_Service/input -o /dev/shm/work/DFARS_Sample_Service/sync -m 4G -Q -M fuzzer-master -x /dev/shm/work/DFARS_Sample_Service/DFARS_Sample_Service.dict -- data/linux/processed-challenges/DFARS_Sample_Service/bin/DFARS_Sample_Service\n'
p27
I0
tp28
a(I1680
S'start_time     : 1500220040\nlast_update    : 1500221723\nfuzzer_pid     : 15189\ncycles_done    : 0\nexecs_done     : 60414\nexecs_per_sec  : 36.18\npaths_total    : 10\npaths_favored  : 1\npaths_found    : 9\npaths_imported : 0\nmax_depth      : 2\ncur_path       : 0\npending_favs   : 1\npending_total  : 10\nvariable_paths : 0\nbitmap_cvg     : 0.83%\nunique_crashes : 4\nunique_hangs   : 0\nlast_path      : 1500221421\nlast_crash     : 1500220967\nlast_hang      : 0\nexec_timeout   : 100\nafl_banner     : fuzzer-master\nafl_version    : 1.85b\ncommand_line   : /home/skaramcheti/.virtualenvs/afl/bin/afl-unix/afl-fuzz -i /dev/shm/work/DFARS_Sample_Service/input -o /dev/shm/work/DFARS_Sample_Service/sync -m 4G -Q -M fuzzer-master -x /dev/shm/work/DFARS_Sample_Service/DFARS_Sample_Service.dict -- data/linux/processed-challenges/DFARS_Sample_Service/bin/DFARS_Sample_Service\n'
p29
I0
tp30
a(I1800
S'start_time     : 1500220040\nlast_update    : 1500221843\nfuzzer_pid     : 15189\ncycles_done    : 0\nexecs_done     : 64729\nexecs_per_sec  : 36.41\npaths_total    : 10\npaths_favored  : 1\npaths_found    : 9\npaths_imported : 0\nmax_depth      : 2\ncur_path       : 0\npending_favs   : 1\npending_total  : 10\nvariable_paths : 0\nbitmap_cvg     : 0.83%\nunique_crashes : 4\nunique_hangs   : 0\nlast_path      : 1500221421\nlast_crash     : 1500220967\nlast_hang      : 0\nexec_timeout   : 100\nafl_banner     : fuzzer-master\nafl_version    : 1.85b\ncommand_line   : /home/skaramcheti/.virtualenvs/afl/bin/afl-unix/afl-fuzz -i /dev/shm/work/DFARS_Sample_Service/input -o /dev/shm/work/DFARS_Sample_Service/sync -m 4G -Q -M fuzzer-master -x /dev/shm/work/DFARS_Sample_Service/DFARS_Sample_Service.dict -- data/linux/processed-challenges/DFARS_Sample_Service/bin/DFARS_Sample_Service\n'
p31
I0
tp32
a(I1920
S'start_time     : 1500220040\nlast_update    : 1500221963\nfuzzer_pid     : 15189\ncycles_done    : 0\nexecs_done     : 69066\nexecs_per_sec  : 35.88\npaths_total    : 18\npaths_favored  : 1\npaths_found    : 17\npaths_imported : 0\nmax_depth      : 2\ncur_path       : 0\npending_favs   : 1\npending_total  : 18\nvariable_paths : 0\nbitmap_cvg     : 0.86%\nunique_crashes : 8\nunique_hangs   : 0\nlast_path      : 1500221952\nlast_crash     : 1500221958\nlast_hang      : 0\nexec_timeout   : 100\nafl_banner     : fuzzer-master\nafl_version    : 1.85b\ncommand_line   : /home/skaramcheti/.virtualenvs/afl/bin/afl-unix/afl-fuzz -i /dev/shm/work/DFARS_Sample_Service/input -o /dev/shm/work/DFARS_Sample_Service/sync -m 4G -Q -M fuzzer-master -x /dev/shm/work/DFARS_Sample_Service/DFARS_Sample_Service.dict -- data/linux/processed-challenges/DFARS_Sample_Service/bin/DFARS_Sample_Service\n'
p33
I8
tp34
a(I2040
S'start_time     : 1500220040\nlast_update    : 1500222083\nfuzzer_pid     : 15189\ncycles_done    : 0\nexecs_done     : 73397\nexecs_per_sec  : 35.85\npaths_total    : 19\npaths_favored  : 1\npaths_found    : 18\npaths_imported : 0\nmax_depth      : 2\ncur_path       : 0\npending_favs   : 1\npending_total  : 19\nvariable_paths : 0\nbitmap_cvg     : 0.87%\nunique_crashes : 10\nunique_hangs   : 0\nlast_path      : 1500222050\nlast_crash     : 1500222076\nlast_hang      : 0\nexec_timeout   : 100\nafl_banner     : fuzzer-master\nafl_version    : 1.85b\ncommand_line   : /home/skaramcheti/.virtualenvs/afl/bin/afl-unix/afl-fuzz -i /dev/shm/work/DFARS_Sample_Service/input -o /dev/shm/work/DFARS_Sample_Service/sync -m 4G -Q -M fuzzer-master -x /dev/shm/work/DFARS_Sample_Service/DFARS_Sample_Service.dict -- data/linux/processed-challenges/DFARS_Sample_Service/bin/DFARS_Sample_Service\n'
p35
I1
tp36
a(I2160
S'start_time     : 1500220040\nlast_update    : 1500222204\nfuzzer_pid     : 15189\ncycles_done    : 0\nexecs_done     : 77714\nexecs_per_sec  : 35.38\npaths_total    : 22\npaths_favored  : 1\npaths_found    : 21\npaths_imported : 0\nmax_depth      : 2\ncur_path       : 0\npending_favs   : 1\npending_total  : 22\nvariable_paths : 0\nbitmap_cvg     : 0.90%\nunique_crashes : 11\nunique_hangs   : 0\nlast_path      : 1500222132\nlast_crash     : 1500222185\nlast_hang      : 0\nexec_timeout   : 100\nafl_banner     : fuzzer-master\nafl_version    : 1.85b\ncommand_line   : /home/skaramcheti/.virtualenvs/afl/bin/afl-unix/afl-fuzz -i /dev/shm/work/DFARS_Sample_Service/input -o /dev/shm/work/DFARS_Sample_Service/sync -m 4G -Q -M fuzzer-master -x /dev/shm/work/DFARS_Sample_Service/DFARS_Sample_Service.dict -- data/linux/processed-challenges/DFARS_Sample_Service/bin/DFARS_Sample_Service\n'
p37
I3
tp38
a(I2280
S'start_time     : 1500220040\nlast_update    : 1500222324\nfuzzer_pid     : 15189\ncycles_done    : 0\nexecs_done     : 82052\nexecs_per_sec  : 36.57\npaths_total    : 22\npaths_favored  : 1\npaths_found    : 21\npaths_imported : 0\nmax_depth      : 2\ncur_path       : 0\npending_favs   : 1\npending_total  : 22\nvariable_paths : 0\nbitmap_cvg     : 0.90%\nunique_crashes : 11\nunique_hangs   : 0\nlast_path      : 1500222132\nlast_crash     : 1500222185\nlast_hang      : 0\nexec_timeout   : 100\nafl_banner     : fuzzer-master\nafl_version    : 1.85b\ncommand_line   : /home/skaramcheti/.virtualenvs/afl/bin/afl-unix/afl-fuzz -i /dev/shm/work/DFARS_Sample_Service/input -o /dev/shm/work/DFARS_Sample_Service/sync -m 4G -Q -M fuzzer-master -x /dev/shm/work/DFARS_Sample_Service/DFARS_Sample_Service.dict -- data/linux/processed-challenges/DFARS_Sample_Service/bin/DFARS_Sample_Service\n'
p39
I0
tp40
a(I2400
S'start_time     : 1500220040\nlast_update    : 1500222444\nfuzzer_pid     : 15189\ncycles_done    : 0\nexecs_done     : 86373\nexecs_per_sec  : 35.05\npaths_total    : 22\npaths_favored  : 1\npaths_found    : 21\npaths_imported : 0\nmax_depth      : 2\ncur_path       : 0\npending_favs   : 1\npending_total  : 22\nvariable_paths : 0\nbitmap_cvg     : 0.90%\nunique_crashes : 11\nunique_hangs   : 0\nlast_path      : 1500222132\nlast_crash     : 1500222185\nlast_hang      : 0\nexec_timeout   : 100\nafl_banner     : fuzzer-master\nafl_version    : 1.85b\ncommand_line   : /home/skaramcheti/.virtualenvs/afl/bin/afl-unix/afl-fuzz -i /dev/shm/work/DFARS_Sample_Service/input -o /dev/shm/work/DFARS_Sample_Service/sync -m 4G -Q -M fuzzer-master -x /dev/shm/work/DFARS_Sample_Service/DFARS_Sample_Service.dict -- data/linux/processed-challenges/DFARS_Sample_Service/bin/DFARS_Sample_Service\n'
p41
I0
tp42
a(I2520
S'start_time     : 1500220040\nlast_update    : 1500222564\nfuzzer_pid     : 15189\ncycles_done    : 0\nexecs_done     : 90690\nexecs_per_sec  : 35.79\npaths_total    : 22\npaths_favored  : 1\npaths_found    : 21\npaths_imported : 0\nmax_depth      : 2\ncur_path       : 0\npending_favs   : 1\npending_total  : 22\nvariable_paths : 0\nbitmap_cvg     : 0.90%\nunique_crashes : 12\nunique_hangs   : 0\nlast_path      : 1500222132\nlast_crash     : 1500222560\nlast_hang      : 0\nexec_timeout   : 100\nafl_banner     : fuzzer-master\nafl_version    : 1.85b\ncommand_line   : /home/skaramcheti/.virtualenvs/afl/bin/afl-unix/afl-fuzz -i /dev/shm/work/DFARS_Sample_Service/input -o /dev/shm/work/DFARS_Sample_Service/sync -m 4G -Q -M fuzzer-master -x /dev/shm/work/DFARS_Sample_Service/DFARS_Sample_Service.dict -- data/linux/processed-challenges/DFARS_Sample_Service/bin/DFARS_Sample_Service\n'
p43
I0
tp44
a(I2640
S'start_time     : 1500220040\nlast_update    : 1500222684\nfuzzer_pid     : 15189\ncycles_done    : 0\nexecs_done     : 94980\nexecs_per_sec  : 35.70\npaths_total    : 23\npaths_favored  : 1\npaths_found    : 22\npaths_imported : 0\nmax_depth      : 2\ncur_path       : 0\npending_favs   : 1\npending_total  : 23\nvariable_paths : 0\nbitmap_cvg     : 0.90%\nunique_crashes : 12\nunique_hangs   : 0\nlast_path      : 1500222572\nlast_crash     : 1500222560\nlast_hang      : 0\nexec_timeout   : 100\nafl_banner     : fuzzer-master\nafl_version    : 1.85b\ncommand_line   : /home/skaramcheti/.virtualenvs/afl/bin/afl-unix/afl-fuzz -i /dev/shm/work/DFARS_Sample_Service/input -o /dev/shm/work/DFARS_Sample_Service/sync -m 4G -Q -M fuzzer-master -x /dev/shm/work/DFARS_Sample_Service/DFARS_Sample_Service.dict -- data/linux/processed-challenges/DFARS_Sample_Service/bin/DFARS_Sample_Service\n'
p45
I1
tp46
a(I2760
S'start_time     : 1500220040\nlast_update    : 1500222805\nfuzzer_pid     : 15189\ncycles_done    : 0\nexecs_done     : 99301\nexecs_per_sec  : 35.78\npaths_total    : 24\npaths_favored  : 8\npaths_found    : 23\npaths_imported : 0\nmax_depth      : 3\ncur_path       : 9\npending_favs   : 8\npending_total  : 23\nvariable_paths : 0\nbitmap_cvg     : 0.90%\nunique_crashes : 12\nunique_hangs   : 0\nlast_path      : 1500222775\nlast_crash     : 1500222560\nlast_hang      : 0\nexec_timeout   : 100\nafl_banner     : fuzzer-master\nafl_version    : 1.85b\ncommand_line   : /home/skaramcheti/.virtualenvs/afl/bin/afl-unix/afl-fuzz -i /dev/shm/work/DFARS_Sample_Service/input -o /dev/shm/work/DFARS_Sample_Service/sync -m 4G -Q -M fuzzer-master -x /dev/shm/work/DFARS_Sample_Service/DFARS_Sample_Service.dict -- data/linux/processed-challenges/DFARS_Sample_Service/bin/DFARS_Sample_Service\n'
p47
I1
tp48
a(I2880
S'start_time     : 1500220040\nlast_update    : 1500222925\nfuzzer_pid     : 15189\ncycles_done    : 0\nexecs_done     : 103555\nexecs_per_sec  : 34.51\npaths_total    : 26\npaths_favored  : 8\npaths_found    : 25\npaths_imported : 0\nmax_depth      : 3\ncur_path       : 9\npending_favs   : 8\npending_total  : 25\nvariable_paths : 0\nbitmap_cvg     : 0.90%\nunique_crashes : 13\nunique_hangs   : 0\nlast_path      : 1500222896\nlast_crash     : 1500222903\nlast_hang      : 0\nexec_timeout   : 100\nafl_banner     : fuzzer-master\nafl_version    : 1.85b\ncommand_line   : /home/skaramcheti/.virtualenvs/afl/bin/afl-unix/afl-fuzz -i /dev/shm/work/DFARS_Sample_Service/input -o /dev/shm/work/DFARS_Sample_Service/sync -m 4G -Q -M fuzzer-master -x /dev/shm/work/DFARS_Sample_Service/DFARS_Sample_Service.dict -- data/linux/processed-challenges/DFARS_Sample_Service/bin/DFARS_Sample_Service\n'
p49
I2
tp50
a(I3000
S'start_time     : 1500220040\nlast_update    : 1500223045\nfuzzer_pid     : 15189\ncycles_done    : 0\nexecs_done     : 107863\nexecs_per_sec  : 35.08\npaths_total    : 26\npaths_favored  : 8\npaths_found    : 25\npaths_imported : 0\nmax_depth      : 3\ncur_path       : 9\npending_favs   : 8\npending_total  : 25\nvariable_paths : 0\nbitmap_cvg     : 0.90%\nunique_crashes : 14\nunique_hangs   : 0\nlast_path      : 1500222896\nlast_crash     : 1500223005\nlast_hang      : 0\nexec_timeout   : 100\nafl_banner     : fuzzer-master\nafl_version    : 1.85b\ncommand_line   : /home/skaramcheti/.virtualenvs/afl/bin/afl-unix/afl-fuzz -i /dev/shm/work/DFARS_Sample_Service/input -o /dev/shm/work/DFARS_Sample_Service/sync -m 4G -Q -M fuzzer-master -x /dev/shm/work/DFARS_Sample_Service/DFARS_Sample_Service.dict -- data/linux/processed-challenges/DFARS_Sample_Service/bin/DFARS_Sample_Service\n'
p51
I0
tp52
a(I3120
S'start_time     : 1500220040\nlast_update    : 1500223165\nfuzzer_pid     : 15189\ncycles_done    : 0\nexecs_done     : 112189\nexecs_per_sec  : 35.50\npaths_total    : 26\npaths_favored  : 8\npaths_found    : 25\npaths_imported : 0\nmax_depth      : 3\ncur_path       : 9\npending_favs   : 8\npending_total  : 25\nvariable_paths : 0\nbitmap_cvg     : 0.90%\nunique_crashes : 14\nunique_hangs   : 0\nlast_path      : 1500222896\nlast_crash     : 1500223005\nlast_hang      : 0\nexec_timeout   : 100\nafl_banner     : fuzzer-master\nafl_version    : 1.85b\ncommand_line   : /home/skaramcheti/.virtualenvs/afl/bin/afl-unix/afl-fuzz -i /dev/shm/work/DFARS_Sample_Service/input -o /dev/shm/work/DFARS_Sample_Service/sync -m 4G -Q -M fuzzer-master -x /dev/shm/work/DFARS_Sample_Service/DFARS_Sample_Service.dict -- data/linux/processed-challenges/DFARS_Sample_Service/bin/DFARS_Sample_Service\n'
p53
I0
tp54
a(I3240
S'start_time     : 1500220040\nlast_update    : 1500223286\nfuzzer_pid     : 15189\ncycles_done    : 0\nexecs_done     : 116491\nexecs_per_sec  : 35.51\npaths_total    : 26\npaths_favored  : 8\npaths_found    : 25\npaths_imported : 0\nmax_depth      : 3\ncur_path       : 9\npending_favs   : 8\npending_total  : 25\nvariable_paths : 0\nbitmap_cvg     : 0.90%\nunique_crashes : 14\nunique_hangs   : 0\nlast_path      : 1500222896\nlast_crash     : 1500223005\nlast_hang      : 0\nexec_timeout   : 100\nafl_banner     : fuzzer-master\nafl_version    : 1.85b\ncommand_line   : /home/skaramcheti/.virtualenvs/afl/bin/afl-unix/afl-fuzz -i /dev/shm/work/DFARS_Sample_Service/input -o /dev/shm/work/DFARS_Sample_Service/sync -m 4G -Q -M fuzzer-master -x /dev/shm/work/DFARS_Sample_Service/DFARS_Sample_Service.dict -- data/linux/processed-challenges/DFARS_Sample_Service/bin/DFARS_Sample_Service\n'
p55
I0
tp56
a(I3360
S'start_time     : 1500220040\nlast_update    : 1500223406\nfuzzer_pid     : 15189\ncycles_done    : 0\nexecs_done     : 120803\nexecs_per_sec  : 35.61\npaths_total    : 26\npaths_favored  : 8\npaths_found    : 25\npaths_imported : 0\nmax_depth      : 3\ncur_path       : 9\npending_favs   : 8\npending_total  : 25\nvariable_paths : 0\nbitmap_cvg     : 0.90%\nunique_crashes : 14\nunique_hangs   : 0\nlast_path      : 1500222896\nlast_crash     : 1500223005\nlast_hang      : 0\nexec_timeout   : 100\nafl_banner     : fuzzer-master\nafl_version    : 1.85b\ncommand_line   : /home/skaramcheti/.virtualenvs/afl/bin/afl-unix/afl-fuzz -i /dev/shm/work/DFARS_Sample_Service/input -o /dev/shm/work/DFARS_Sample_Service/sync -m 4G -Q -M fuzzer-master -x /dev/shm/work/DFARS_Sample_Service/DFARS_Sample_Service.dict -- data/linux/processed-challenges/DFARS_Sample_Service/bin/DFARS_Sample_Service\n'
p57
I0
tp58
a(I3480
S'start_time     : 1500220040\nlast_update    : 1500223526\nfuzzer_pid     : 15189\ncycles_done    : 0\nexecs_done     : 125136\nexecs_per_sec  : 36.50\npaths_total    : 26\npaths_favored  : 8\npaths_found    : 25\npaths_imported : 0\nmax_depth      : 3\ncur_path       : 9\npending_favs   : 8\npending_total  : 25\nvariable_paths : 0\nbitmap_cvg     : 0.90%\nunique_crashes : 15\nunique_hangs   : 0\nlast_path      : 1500222896\nlast_crash     : 1500223499\nlast_hang      : 0\nexec_timeout   : 100\nafl_banner     : fuzzer-master\nafl_version    : 1.85b\ncommand_line   : /home/skaramcheti/.virtualenvs/afl/bin/afl-unix/afl-fuzz -i /dev/shm/work/DFARS_Sample_Service/input -o /dev/shm/work/DFARS_Sample_Service/sync -m 4G -Q -M fuzzer-master -x /dev/shm/work/DFARS_Sample_Service/DFARS_Sample_Service.dict -- data/linux/processed-challenges/DFARS_Sample_Service/bin/DFARS_Sample_Service\n'
p59
I0
tp60
a(I3600
S'start_time     : 1500220040\nlast_update    : 1500223646\nfuzzer_pid     : 15189\ncycles_done    : 0\nexecs_done     : 129476\nexecs_per_sec  : 35.93\npaths_total    : 26\npaths_favored  : 8\npaths_found    : 25\npaths_imported : 0\nmax_depth      : 3\ncur_path       : 9\npending_favs   : 8\npending_total  : 25\nvariable_paths : 0\nbitmap_cvg     : 0.90%\nunique_crashes : 15\nunique_hangs   : 0\nlast_path      : 1500222896\nlast_crash     : 1500223499\nlast_hang      : 0\nexec_timeout   : 100\nafl_banner     : fuzzer-master\nafl_version    : 1.85b\ncommand_line   : /home/skaramcheti/.virtualenvs/afl/bin/afl-unix/afl-fuzz -i /dev/shm/work/DFARS_Sample_Service/input -o /dev/shm/work/DFARS_Sample_Service/sync -m 4G -Q -M fuzzer-master -x /dev/shm/work/DFARS_Sample_Service/DFARS_Sample_Service.dict -- data/linux/processed-challenges/DFARS_Sample_Service/bin/DFARS_Sample_Service\n'
p61
I0
tp62
a(I3720
S'start_time     : 1500220040\nlast_update    : 1500223767\nfuzzer_pid     : 15189\ncycles_done    : 0\nexecs_done     : 133824\nexecs_per_sec  : 35.92\npaths_total    : 26\npaths_favored  : 8\npaths_found    : 25\npaths_imported : 0\nmax_depth      : 3\ncur_path       : 9\npending_favs   : 8\npending_total  : 25\nvariable_paths : 0\nbitmap_cvg     : 0.90%\nunique_crashes : 16\nunique_hangs   : 0\nlast_path      : 1500222896\nlast_crash     : 1500223690\nlast_hang      : 0\nexec_timeout   : 100\nafl_banner     : fuzzer-master\nafl_version    : 1.85b\ncommand_line   : /home/skaramcheti/.virtualenvs/afl/bin/afl-unix/afl-fuzz -i /dev/shm/work/DFARS_Sample_Service/input -o /dev/shm/work/DFARS_Sample_Service/sync -m 4G -Q -M fuzzer-master -x /dev/shm/work/DFARS_Sample_Service/DFARS_Sample_Service.dict -- data/linux/processed-challenges/DFARS_Sample_Service/bin/DFARS_Sample_Service\n'
p63
I0
tp64
a(I3840
S'start_time     : 1500220040\nlast_update    : 1500223887\nfuzzer_pid     : 15189\ncycles_done    : 0\nexecs_done     : 138150\nexecs_per_sec  : 35.55\npaths_total    : 26\npaths_favored  : 8\npaths_found    : 25\npaths_imported : 0\nmax_depth      : 3\ncur_path       : 9\npending_favs   : 8\npending_total  : 25\nvariable_paths : 0\nbitmap_cvg     : 0.90%\nunique_crashes : 16\nunique_hangs   : 0\nlast_path      : 1500222896\nlast_crash     : 1500223690\nlast_hang      : 0\nexec_timeout   : 100\nafl_banner     : fuzzer-master\nafl_version    : 1.85b\ncommand_line   : /home/skaramcheti/.virtualenvs/afl/bin/afl-unix/afl-fuzz -i /dev/shm/work/DFARS_Sample_Service/input -o /dev/shm/work/DFARS_Sample_Service/sync -m 4G -Q -M fuzzer-master -x /dev/shm/work/DFARS_Sample_Service/DFARS_Sample_Service.dict -- data/linux/processed-challenges/DFARS_Sample_Service/bin/DFARS_Sample_Service\n'
p65
I0
tp66
a(I3960
S'start_time     : 1500220040\nlast_update    : 1500224007\nfuzzer_pid     : 15189\ncycles_done    : 0\nexecs_done     : 142483\nexecs_per_sec  : 36.62\npaths_total    : 26\npaths_favored  : 8\npaths_found    : 25\npaths_imported : 0\nmax_depth      : 3\ncur_path       : 9\npending_favs   : 8\npending_total  : 25\nvariable_paths : 0\nbitmap_cvg     : 0.90%\nunique_crashes : 16\nunique_hangs   : 0\nlast_path      : 1500222896\nlast_crash     : 1500223690\nlast_hang      : 0\nexec_timeout   : 100\nafl_banner     : fuzzer-master\nafl_version    : 1.85b\ncommand_line   : /home/skaramcheti/.virtualenvs/afl/bin/afl-unix/afl-fuzz -i /dev/shm/work/DFARS_Sample_Service/input -o /dev/shm/work/DFARS_Sample_Service/sync -m 4G -Q -M fuzzer-master -x /dev/shm/work/DFARS_Sample_Service/DFARS_Sample_Service.dict -- data/linux/processed-challenges/DFARS_Sample_Service/bin/DFARS_Sample_Service\n'
p67
I0
tp68
a(I4080
S'start_time     : 1500220040\nlast_update    : 1500224067\nfuzzer_pid     : 15189\ncycles_done    : 0\nexecs_done     : 144648\nexecs_per_sec  : 35.91\npaths_total    : 26\npaths_favored  : 8\npaths_found    : 25\npaths_imported : 0\nmax_depth      : 3\ncur_path       : 9\npending_favs   : 8\npending_total  : 25\nvariable_paths : 0\nbitmap_cvg     : 0.90%\nunique_crashes : 16\nunique_hangs   : 0\nlast_path      : 1500222896\nlast_crash     : 1500223690\nlast_hang      : 0\nexec_timeout   : 100\nafl_banner     : fuzzer-master\nafl_version    : 1.85b\ncommand_line   : /home/skaramcheti/.virtualenvs/afl/bin/afl-unix/afl-fuzz -i /dev/shm/work/DFARS_Sample_Service/input -o /dev/shm/work/DFARS_Sample_Service/sync -m 4G -Q -M fuzzer-master -x /dev/shm/work/DFARS_Sample_Service/DFARS_Sample_Service.dict -- data/linux/processed-challenges/DFARS_Sample_Service/bin/DFARS_Sample_Service\n'
p69
I0
tp70
a(I4200
S'start_time     : 1500220040\nlast_update    : 1500224187\nfuzzer_pid     : 15189\ncycles_done    : 0\nexecs_done     : 148997\nexecs_per_sec  : 37.60\npaths_total    : 26\npaths_favored  : 8\npaths_found    : 25\npaths_imported : 0\nmax_depth      : 3\ncur_path       : 9\npending_favs   : 8\npending_total  : 25\nvariable_paths : 0\nbitmap_cvg     : 0.90%\nunique_crashes : 16\nunique_hangs   : 0\nlast_path      : 1500222896\nlast_crash     : 1500223690\nlast_hang      : 0\nexec_timeout   : 100\nafl_banner     : fuzzer-master\nafl_version    : 1.85b\ncommand_line   : /home/skaramcheti/.virtualenvs/afl/bin/afl-unix/afl-fuzz -i /dev/shm/work/DFARS_Sample_Service/input -o /dev/shm/work/DFARS_Sample_Service/sync -m 4G -Q -M fuzzer-master -x /dev/shm/work/DFARS_Sample_Service/DFARS_Sample_Service.dict -- data/linux/processed-challenges/DFARS_Sample_Service/bin/DFARS_Sample_Service\n'
p71
I0
tp72
a(I4320
S'start_time     : 1500220040\nlast_update    : 1500224308\nfuzzer_pid     : 15189\ncycles_done    : 0\nexecs_done     : 153302\nexecs_per_sec  : 35.05\npaths_total    : 26\npaths_favored  : 8\npaths_found    : 25\npaths_imported : 0\nmax_depth      : 3\ncur_path       : 9\npending_favs   : 8\npending_total  : 25\nvariable_paths : 0\nbitmap_cvg     : 0.90%\nunique_crashes : 16\nunique_hangs   : 0\nlast_path      : 1500222896\nlast_crash     : 1500223690\nlast_hang      : 0\nexec_timeout   : 100\nafl_banner     : fuzzer-master\nafl_version    : 1.85b\ncommand_line   : /home/skaramcheti/.virtualenvs/afl/bin/afl-unix/afl-fuzz -i /dev/shm/work/DFARS_Sample_Service/input -o /dev/shm/work/DFARS_Sample_Service/sync -m 4G -Q -M fuzzer-master -x /dev/shm/work/DFARS_Sample_Service/DFARS_Sample_Service.dict -- data/linux/processed-challenges/DFARS_Sample_Service/bin/DFARS_Sample_Service\n'
p73
I0
tp74
a(I4440
S'start_time     : 1500220040\nlast_update    : 1500224428\nfuzzer_pid     : 15189\ncycles_done    : 0\nexecs_done     : 157601\nexecs_per_sec  : 35.79\npaths_total    : 26\npaths_favored  : 8\npaths_found    : 25\npaths_imported : 0\nmax_depth      : 3\ncur_path       : 9\npending_favs   : 8\npending_total  : 25\nvariable_paths : 0\nbitmap_cvg     : 0.90%\nunique_crashes : 16\nunique_hangs   : 0\nlast_path      : 1500222896\nlast_crash     : 1500223690\nlast_hang      : 0\nexec_timeout   : 100\nafl_banner     : fuzzer-master\nafl_version    : 1.85b\ncommand_line   : /home/skaramcheti/.virtualenvs/afl/bin/afl-unix/afl-fuzz -i /dev/shm/work/DFARS_Sample_Service/input -o /dev/shm/work/DFARS_Sample_Service/sync -m 4G -Q -M fuzzer-master -x /dev/shm/work/DFARS_Sample_Service/DFARS_Sample_Service.dict -- data/linux/processed-challenges/DFARS_Sample_Service/bin/DFARS_Sample_Service\n'
p75
I0
tp76
a(I4560
S'start_time     : 1500220040\nlast_update    : 1500224548\nfuzzer_pid     : 15189\ncycles_done    : 0\nexecs_done     : 161900\nexecs_per_sec  : 35.89\npaths_total    : 26\npaths_favored  : 8\npaths_found    : 25\npaths_imported : 0\nmax_depth      : 3\ncur_path       : 9\npending_favs   : 8\npending_total  : 25\nvariable_paths : 0\nbitmap_cvg     : 0.90%\nunique_crashes : 16\nunique_hangs   : 0\nlast_path      : 1500222896\nlast_crash     : 1500223690\nlast_hang      : 0\nexec_timeout   : 100\nafl_banner     : fuzzer-master\nafl_version    : 1.85b\ncommand_line   : /home/skaramcheti/.virtualenvs/afl/bin/afl-unix/afl-fuzz -i /dev/shm/work/DFARS_Sample_Service/input -o /dev/shm/work/DFARS_Sample_Service/sync -m 4G -Q -M fuzzer-master -x /dev/shm/work/DFARS_Sample_Service/DFARS_Sample_Service.dict -- data/linux/processed-challenges/DFARS_Sample_Service/bin/DFARS_Sample_Service\n'
p77
I0
tp78
a(I4680
S'start_time     : 1500220040\nlast_update    : 1500224668\nfuzzer_pid     : 15189\ncycles_done    : 0\nexecs_done     : 166215\nexecs_per_sec  : 36.47\npaths_total    : 26\npaths_favored  : 8\npaths_found    : 25\npaths_imported : 0\nmax_depth      : 3\ncur_path       : 9\npending_favs   : 8\npending_total  : 25\nvariable_paths : 0\nbitmap_cvg     : 0.90%\nunique_crashes : 16\nunique_hangs   : 0\nlast_path      : 1500222896\nlast_crash     : 1500223690\nlast_hang      : 0\nexec_timeout   : 100\nafl_banner     : fuzzer-master\nafl_version    : 1.85b\ncommand_line   : /home/skaramcheti/.virtualenvs/afl/bin/afl-unix/afl-fuzz -i /dev/shm/work/DFARS_Sample_Service/input -o /dev/shm/work/DFARS_Sample_Service/sync -m 4G -Q -M fuzzer-master -x /dev/shm/work/DFARS_Sample_Service/DFARS_Sample_Service.dict -- data/linux/processed-challenges/DFARS_Sample_Service/bin/DFARS_Sample_Service\n'
p79
I0
tp80
a(I4800
S'start_time     : 1500220040\nlast_update    : 1500224789\nfuzzer_pid     : 15189\ncycles_done    : 0\nexecs_done     : 170548\nexecs_per_sec  : 35.49\npaths_total    : 26\npaths_favored  : 8\npaths_found    : 25\npaths_imported : 0\nmax_depth      : 3\ncur_path       : 9\npending_favs   : 8\npending_total  : 25\nvariable_paths : 0\nbitmap_cvg     : 0.90%\nunique_crashes : 16\nunique_hangs   : 0\nlast_path      : 1500222896\nlast_crash     : 1500223690\nlast_hang      : 0\nexec_timeout   : 100\nafl_banner     : fuzzer-master\nafl_version    : 1.85b\ncommand_line   : /home/skaramcheti/.virtualenvs/afl/bin/afl-unix/afl-fuzz -i /dev/shm/work/DFARS_Sample_Service/input -o /dev/shm/work/DFARS_Sample_Service/sync -m 4G -Q -M fuzzer-master -x /dev/shm/work/DFARS_Sample_Service/DFARS_Sample_Service.dict -- data/linux/processed-challenges/DFARS_Sample_Service/bin/DFARS_Sample_Service\n'
p81
I0
tp82
a(I4920
S'start_time     : 1500220040\nlast_update    : 1500224909\nfuzzer_pid     : 15189\ncycles_done    : 0\nexecs_done     : 174837\nexecs_per_sec  : 36.00\npaths_total    : 26\npaths_favored  : 8\npaths_found    : 25\npaths_imported : 0\nmax_depth      : 3\ncur_path       : 9\npending_favs   : 8\npending_total  : 25\nvariable_paths : 0\nbitmap_cvg     : 0.90%\nunique_crashes : 16\nunique_hangs   : 0\nlast_path      : 1500222896\nlast_crash     : 1500223690\nlast_hang      : 0\nexec_timeout   : 100\nafl_banner     : fuzzer-master\nafl_version    : 1.85b\ncommand_line   : /home/skaramcheti/.virtualenvs/afl/bin/afl-unix/afl-fuzz -i /dev/shm/work/DFARS_Sample_Service/input -o /dev/shm/work/DFARS_Sample_Service/sync -m 4G -Q -M fuzzer-master -x /dev/shm/work/DFARS_Sample_Service/DFARS_Sample_Service.dict -- data/linux/processed-challenges/DFARS_Sample_Service/bin/DFARS_Sample_Service\n'
p83
I0
tp84
a(I5040
S'start_time     : 1500220040\nlast_update    : 1500225029\nfuzzer_pid     : 15189\ncycles_done    : 0\nexecs_done     : 179175\nexecs_per_sec  : 36.21\npaths_total    : 26\npaths_favored  : 8\npaths_found    : 25\npaths_imported : 0\nmax_depth      : 3\ncur_path       : 9\npending_favs   : 8\npending_total  : 25\nvariable_paths : 0\nbitmap_cvg     : 0.90%\nunique_crashes : 16\nunique_hangs   : 0\nlast_path      : 1500222896\nlast_crash     : 1500223690\nlast_hang      : 0\nexec_timeout   : 100\nafl_banner     : fuzzer-master\nafl_version    : 1.85b\ncommand_line   : /home/skaramcheti/.virtualenvs/afl/bin/afl-unix/afl-fuzz -i /dev/shm/work/DFARS_Sample_Service/input -o /dev/shm/work/DFARS_Sample_Service/sync -m 4G -Q -M fuzzer-master -x /dev/shm/work/DFARS_Sample_Service/DFARS_Sample_Service.dict -- data/linux/processed-challenges/DFARS_Sample_Service/bin/DFARS_Sample_Service\n'
p85
I0
tp86
a(I5160
S'start_time     : 1500220040\nlast_update    : 1500225149\nfuzzer_pid     : 15189\ncycles_done    : 0\nexecs_done     : 183511\nexecs_per_sec  : 36.12\npaths_total    : 26\npaths_favored  : 8\npaths_found    : 25\npaths_imported : 0\nmax_depth      : 3\ncur_path       : 9\npending_favs   : 8\npending_total  : 25\nvariable_paths : 0\nbitmap_cvg     : 0.90%\nunique_crashes : 16\nunique_hangs   : 0\nlast_path      : 1500222896\nlast_crash     : 1500223690\nlast_hang      : 0\nexec_timeout   : 100\nafl_banner     : fuzzer-master\nafl_version    : 1.85b\ncommand_line   : /home/skaramcheti/.virtualenvs/afl/bin/afl-unix/afl-fuzz -i /dev/shm/work/DFARS_Sample_Service/input -o /dev/shm/work/DFARS_Sample_Service/sync -m 4G -Q -M fuzzer-master -x /dev/shm/work/DFARS_Sample_Service/DFARS_Sample_Service.dict -- data/linux/processed-challenges/DFARS_Sample_Service/bin/DFARS_Sample_Service\n'
p87
I0
tp88
a(I5280
S'start_time     : 1500220040\nlast_update    : 1500225269\nfuzzer_pid     : 15189\ncycles_done    : 0\nexecs_done     : 187844\nexecs_per_sec  : 36.02\npaths_total    : 26\npaths_favored  : 8\npaths_found    : 25\npaths_imported : 0\nmax_depth      : 3\ncur_path       : 9\npending_favs   : 8\npending_total  : 25\nvariable_paths : 0\nbitmap_cvg     : 0.90%\nunique_crashes : 16\nunique_hangs   : 0\nlast_path      : 1500222896\nlast_crash     : 1500223690\nlast_hang      : 0\nexec_timeout   : 100\nafl_banner     : fuzzer-master\nafl_version    : 1.85b\ncommand_line   : /home/skaramcheti/.virtualenvs/afl/bin/afl-unix/afl-fuzz -i /dev/shm/work/DFARS_Sample_Service/input -o /dev/shm/work/DFARS_Sample_Service/sync -m 4G -Q -M fuzzer-master -x /dev/shm/work/DFARS_Sample_Service/DFARS_Sample_Service.dict -- data/linux/processed-challenges/DFARS_Sample_Service/bin/DFARS_Sample_Service\n'
p89
I0
tp90
a(I5400
S'start_time     : 1500220040\nlast_update    : 1500225389\nfuzzer_pid     : 15189\ncycles_done    : 0\nexecs_done     : 192173\nexecs_per_sec  : 35.71\npaths_total    : 26\npaths_favored  : 8\npaths_found    : 25\npaths_imported : 0\nmax_depth      : 3\ncur_path       : 9\npending_favs   : 8\npending_total  : 25\nvariable_paths : 0\nbitmap_cvg     : 0.90%\nunique_crashes : 16\nunique_hangs   : 0\nlast_path      : 1500222896\nlast_crash     : 1500223690\nlast_hang      : 0\nexec_timeout   : 100\nafl_banner     : fuzzer-master\nafl_version    : 1.85b\ncommand_line   : /home/skaramcheti/.virtualenvs/afl/bin/afl-unix/afl-fuzz -i /dev/shm/work/DFARS_Sample_Service/input -o /dev/shm/work/DFARS_Sample_Service/sync -m 4G -Q -M fuzzer-master -x /dev/shm/work/DFARS_Sample_Service/DFARS_Sample_Service.dict -- data/linux/processed-challenges/DFARS_Sample_Service/bin/DFARS_Sample_Service\n'
p91
I0
tp92
a(I5520
S'start_time     : 1500220040\nlast_update    : 1500225510\nfuzzer_pid     : 15189\ncycles_done    : 0\nexecs_done     : 196479\nexecs_per_sec  : 35.44\npaths_total    : 26\npaths_favored  : 8\npaths_found    : 25\npaths_imported : 0\nmax_depth      : 3\ncur_path       : 9\npending_favs   : 8\npending_total  : 25\nvariable_paths : 0\nbitmap_cvg     : 0.90%\nunique_crashes : 16\nunique_hangs   : 0\nlast_path      : 1500222896\nlast_crash     : 1500223690\nlast_hang      : 0\nexec_timeout   : 100\nafl_banner     : fuzzer-master\nafl_version    : 1.85b\ncommand_line   : /home/skaramcheti/.virtualenvs/afl/bin/afl-unix/afl-fuzz -i /dev/shm/work/DFARS_Sample_Service/input -o /dev/shm/work/DFARS_Sample_Service/sync -m 4G -Q -M fuzzer-master -x /dev/shm/work/DFARS_Sample_Service/DFARS_Sample_Service.dict -- data/linux/processed-challenges/DFARS_Sample_Service/bin/DFARS_Sample_Service\n'
p93
I0
tp94
a(I5640
S'start_time     : 1500220040\nlast_update    : 1500225630\nfuzzer_pid     : 15189\ncycles_done    : 0\nexecs_done     : 200811\nexecs_per_sec  : 36.79\npaths_total    : 26\npaths_favored  : 8\npaths_found    : 25\npaths_imported : 0\nmax_depth      : 3\ncur_path       : 9\npending_favs   : 8\npending_total  : 25\nvariable_paths : 0\nbitmap_cvg     : 0.90%\nunique_crashes : 16\nunique_hangs   : 0\nlast_path      : 1500222896\nlast_crash     : 1500223690\nlast_hang      : 0\nexec_timeout   : 100\nafl_banner     : fuzzer-master\nafl_version    : 1.85b\ncommand_line   : /home/skaramcheti/.virtualenvs/afl/bin/afl-unix/afl-fuzz -i /dev/shm/work/DFARS_Sample_Service/input -o /dev/shm/work/DFARS_Sample_Service/sync -m 4G -Q -M fuzzer-master -x /dev/shm/work/DFARS_Sample_Service/DFARS_Sample_Service.dict -- data/linux/processed-challenges/DFARS_Sample_Service/bin/DFARS_Sample_Service\n'
p95
I0
tp96
a(I5760
S'start_time     : 1500220040\nlast_update    : 1500225750\nfuzzer_pid     : 15189\ncycles_done    : 0\nexecs_done     : 205133\nexecs_per_sec  : 35.85\npaths_total    : 26\npaths_favored  : 8\npaths_found    : 25\npaths_imported : 0\nmax_depth      : 3\ncur_path       : 9\npending_favs   : 8\npending_total  : 25\nvariable_paths : 0\nbitmap_cvg     : 0.90%\nunique_crashes : 16\nunique_hangs   : 0\nlast_path      : 1500222896\nlast_crash     : 1500223690\nlast_hang      : 0\nexec_timeout   : 100\nafl_banner     : fuzzer-master\nafl_version    : 1.85b\ncommand_line   : /home/skaramcheti/.virtualenvs/afl/bin/afl-unix/afl-fuzz -i /dev/shm/work/DFARS_Sample_Service/input -o /dev/shm/work/DFARS_Sample_Service/sync -m 4G -Q -M fuzzer-master -x /dev/shm/work/DFARS_Sample_Service/DFARS_Sample_Service.dict -- data/linux/processed-challenges/DFARS_Sample_Service/bin/DFARS_Sample_Service\n'
p97
I0
tp98
a(I5880
S'start_time     : 1500220040\nlast_update    : 1500225870\nfuzzer_pid     : 15189\ncycles_done    : 0\nexecs_done     : 209473\nexecs_per_sec  : 36.44\npaths_total    : 26\npaths_favored  : 8\npaths_found    : 25\npaths_imported : 0\nmax_depth      : 3\ncur_path       : 9\npending_favs   : 8\npending_total  : 25\nvariable_paths : 0\nbitmap_cvg     : 0.90%\nunique_crashes : 16\nunique_hangs   : 0\nlast_path      : 1500222896\nlast_crash     : 1500223690\nlast_hang      : 0\nexec_timeout   : 100\nafl_banner     : fuzzer-master\nafl_version    : 1.85b\ncommand_line   : /home/skaramcheti/.virtualenvs/afl/bin/afl-unix/afl-fuzz -i /dev/shm/work/DFARS_Sample_Service/input -o /dev/shm/work/DFARS_Sample_Service/sync -m 4G -Q -M fuzzer-master -x /dev/shm/work/DFARS_Sample_Service/DFARS_Sample_Service.dict -- data/linux/processed-challenges/DFARS_Sample_Service/bin/DFARS_Sample_Service\n'
p99
I0
tp100
a(I6000
S'start_time     : 1500220040\nlast_update    : 1500225990\nfuzzer_pid     : 15189\ncycles_done    : 0\nexecs_done     : 213789\nexecs_per_sec  : 34.74\npaths_total    : 26\npaths_favored  : 8\npaths_found    : 25\npaths_imported : 0\nmax_depth      : 3\ncur_path       : 9\npending_favs   : 8\npending_total  : 25\nvariable_paths : 0\nbitmap_cvg     : 0.90%\nunique_crashes : 16\nunique_hangs   : 0\nlast_path      : 1500222896\nlast_crash     : 1500223690\nlast_hang      : 0\nexec_timeout   : 100\nafl_banner     : fuzzer-master\nafl_version    : 1.85b\ncommand_line   : /home/skaramcheti/.virtualenvs/afl/bin/afl-unix/afl-fuzz -i /dev/shm/work/DFARS_Sample_Service/input -o /dev/shm/work/DFARS_Sample_Service/sync -m 4G -Q -M fuzzer-master -x /dev/shm/work/DFARS_Sample_Service/DFARS_Sample_Service.dict -- data/linux/processed-challenges/DFARS_Sample_Service/bin/DFARS_Sample_Service\n'
p101
I0
tp102
a(I6120
S'start_time     : 1500220040\nlast_update    : 1500226111\nfuzzer_pid     : 15189\ncycles_done    : 0\nexecs_done     : 218115\nexecs_per_sec  : 35.84\npaths_total    : 26\npaths_favored  : 8\npaths_found    : 25\npaths_imported : 0\nmax_depth      : 3\ncur_path       : 9\npending_favs   : 8\npending_total  : 25\nvariable_paths : 0\nbitmap_cvg     : 0.90%\nunique_crashes : 16\nunique_hangs   : 0\nlast_path      : 1500222896\nlast_crash     : 1500223690\nlast_hang      : 0\nexec_timeout   : 100\nafl_banner     : fuzzer-master\nafl_version    : 1.85b\ncommand_line   : /home/skaramcheti/.virtualenvs/afl/bin/afl-unix/afl-fuzz -i /dev/shm/work/DFARS_Sample_Service/input -o /dev/shm/work/DFARS_Sample_Service/sync -m 4G -Q -M fuzzer-master -x /dev/shm/work/DFARS_Sample_Service/DFARS_Sample_Service.dict -- data/linux/processed-challenges/DFARS_Sample_Service/bin/DFARS_Sample_Service\n'
p103
I0
tp104
a(I6240
S'start_time     : 1500220040\nlast_update    : 1500226231\nfuzzer_pid     : 15189\ncycles_done    : 0\nexecs_done     : 222440\nexecs_per_sec  : 35.54\npaths_total    : 26\npaths_favored  : 8\npaths_found    : 25\npaths_imported : 0\nmax_depth      : 3\ncur_path       : 9\npending_favs   : 8\npending_total  : 25\nvariable_paths : 0\nbitmap_cvg     : 0.90%\nunique_crashes : 16\nunique_hangs   : 0\nlast_path      : 1500222896\nlast_crash     : 1500223690\nlast_hang      : 0\nexec_timeout   : 100\nafl_banner     : fuzzer-master\nafl_version    : 1.85b\ncommand_line   : /home/skaramcheti/.virtualenvs/afl/bin/afl-unix/afl-fuzz -i /dev/shm/work/DFARS_Sample_Service/input -o /dev/shm/work/DFARS_Sample_Service/sync -m 4G -Q -M fuzzer-master -x /dev/shm/work/DFARS_Sample_Service/DFARS_Sample_Service.dict -- data/linux/processed-challenges/DFARS_Sample_Service/bin/DFARS_Sample_Service\n'
p105
I0
tp106
a(I6360
S'start_time     : 1500220040\nlast_update    : 1500226351\nfuzzer_pid     : 15189\ncycles_done    : 0\nexecs_done     : 226758\nexecs_per_sec  : 36.34\npaths_total    : 26\npaths_favored  : 8\npaths_found    : 25\npaths_imported : 0\nmax_depth      : 3\ncur_path       : 9\npending_favs   : 8\npending_total  : 25\nvariable_paths : 0\nbitmap_cvg     : 0.90%\nunique_crashes : 16\nunique_hangs   : 0\nlast_path      : 1500222896\nlast_crash     : 1500223690\nlast_hang      : 0\nexec_timeout   : 100\nafl_banner     : fuzzer-master\nafl_version    : 1.85b\ncommand_line   : /home/skaramcheti/.virtualenvs/afl/bin/afl-unix/afl-fuzz -i /dev/shm/work/DFARS_Sample_Service/input -o /dev/shm/work/DFARS_Sample_Service/sync -m 4G -Q -M fuzzer-master -x /dev/shm/work/DFARS_Sample_Service/DFARS_Sample_Service.dict -- data/linux/processed-challenges/DFARS_Sample_Service/bin/DFARS_Sample_Service\n'
p107
I0
tp108
a(I6480
S'start_time     : 1500220040\nlast_update    : 1500226471\nfuzzer_pid     : 15189\ncycles_done    : 0\nexecs_done     : 231107\nexecs_per_sec  : 36.57\npaths_total    : 26\npaths_favored  : 8\npaths_found    : 25\npaths_imported : 0\nmax_depth      : 3\ncur_path       : 9\npending_favs   : 8\npending_total  : 25\nvariable_paths : 0\nbitmap_cvg     : 0.90%\nunique_crashes : 16\nunique_hangs   : 0\nlast_path      : 1500222896\nlast_crash     : 1500223690\nlast_hang      : 0\nexec_timeout   : 100\nafl_banner     : fuzzer-master\nafl_version    : 1.85b\ncommand_line   : /home/skaramcheti/.virtualenvs/afl/bin/afl-unix/afl-fuzz -i /dev/shm/work/DFARS_Sample_Service/input -o /dev/shm/work/DFARS_Sample_Service/sync -m 4G -Q -M fuzzer-master -x /dev/shm/work/DFARS_Sample_Service/DFARS_Sample_Service.dict -- data/linux/processed-challenges/DFARS_Sample_Service/bin/DFARS_Sample_Service\n'
p109
I0
tp110
a(I6600
S'start_time     : 1500220040\nlast_update    : 1500226591\nfuzzer_pid     : 15189\ncycles_done    : 0\nexecs_done     : 235463\nexecs_per_sec  : 36.86\npaths_total    : 26\npaths_favored  : 8\npaths_found    : 25\npaths_imported : 0\nmax_depth      : 3\ncur_path       : 9\npending_favs   : 8\npending_total  : 25\nvariable_paths : 0\nbitmap_cvg     : 0.90%\nunique_crashes : 16\nunique_hangs   : 0\nlast_path      : 1500222896\nlast_crash     : 1500223690\nlast_hang      : 0\nexec_timeout   : 100\nafl_banner     : fuzzer-master\nafl_version    : 1.85b\ncommand_line   : /home/skaramcheti/.virtualenvs/afl/bin/afl-unix/afl-fuzz -i /dev/shm/work/DFARS_Sample_Service/input -o /dev/shm/work/DFARS_Sample_Service/sync -m 4G -Q -M fuzzer-master -x /dev/shm/work/DFARS_Sample_Service/DFARS_Sample_Service.dict -- data/linux/processed-challenges/DFARS_Sample_Service/bin/DFARS_Sample_Service\n'
p111
I0
tp112
a(I6720
S'start_time     : 1500220040\nlast_update    : 1500226712\nfuzzer_pid     : 15189\ncycles_done    : 0\nexecs_done     : 239809\nexecs_per_sec  : 35.79\npaths_total    : 26\npaths_favored  : 8\npaths_found    : 25\npaths_imported : 0\nmax_depth      : 3\ncur_path       : 9\npending_favs   : 8\npending_total  : 25\nvariable_paths : 0\nbitmap_cvg     : 0.90%\nunique_crashes : 16\nunique_hangs   : 0\nlast_path      : 1500222896\nlast_crash     : 1500223690\nlast_hang      : 0\nexec_timeout   : 100\nafl_banner     : fuzzer-master\nafl_version    : 1.85b\ncommand_line   : /home/skaramcheti/.virtualenvs/afl/bin/afl-unix/afl-fuzz -i /dev/shm/work/DFARS_Sample_Service/input -o /dev/shm/work/DFARS_Sample_Service/sync -m 4G -Q -M fuzzer-master -x /dev/shm/work/DFARS_Sample_Service/DFARS_Sample_Service.dict -- data/linux/processed-challenges/DFARS_Sample_Service/bin/DFARS_Sample_Service\n'
p113
I0
tp114
a(I6840
S'start_time     : 1500220040\nlast_update    : 1500226832\nfuzzer_pid     : 15189\ncycles_done    : 0\nexecs_done     : 244140\nexecs_per_sec  : 35.94\npaths_total    : 26\npaths_favored  : 8\npaths_found    : 25\npaths_imported : 0\nmax_depth      : 3\ncur_path       : 9\npending_favs   : 8\npending_total  : 25\nvariable_paths : 0\nbitmap_cvg     : 0.90%\nunique_crashes : 16\nunique_hangs   : 0\nlast_path      : 1500222896\nlast_crash     : 1500223690\nlast_hang      : 0\nexec_timeout   : 100\nafl_banner     : fuzzer-master\nafl_version    : 1.85b\ncommand_line   : /home/skaramcheti/.virtualenvs/afl/bin/afl-unix/afl-fuzz -i /dev/shm/work/DFARS_Sample_Service/input -o /dev/shm/work/DFARS_Sample_Service/sync -m 4G -Q -M fuzzer-master -x /dev/shm/work/DFARS_Sample_Service/DFARS_Sample_Service.dict -- data/linux/processed-challenges/DFARS_Sample_Service/bin/DFARS_Sample_Service\n'
p115
I0
tp116
a(I6960
S'start_time     : 1500220040\nlast_update    : 1500226952\nfuzzer_pid     : 15189\ncycles_done    : 0\nexecs_done     : 248488\nexecs_per_sec  : 35.94\npaths_total    : 26\npaths_favored  : 8\npaths_found    : 25\npaths_imported : 0\nmax_depth      : 3\ncur_path       : 9\npending_favs   : 8\npending_total  : 25\nvariable_paths : 0\nbitmap_cvg     : 0.90%\nunique_crashes : 16\nunique_hangs   : 0\nlast_path      : 1500222896\nlast_crash     : 1500223690\nlast_hang      : 0\nexec_timeout   : 100\nafl_banner     : fuzzer-master\nafl_version    : 1.85b\ncommand_line   : /home/skaramcheti/.virtualenvs/afl/bin/afl-unix/afl-fuzz -i /dev/shm/work/DFARS_Sample_Service/input -o /dev/shm/work/DFARS_Sample_Service/sync -m 4G -Q -M fuzzer-master -x /dev/shm/work/DFARS_Sample_Service/DFARS_Sample_Service.dict -- data/linux/processed-challenges/DFARS_Sample_Service/bin/DFARS_Sample_Service\n'
p117
I0
tp118
a(I7080
S'start_time     : 1500220040\nlast_update    : 1500227072\nfuzzer_pid     : 15189\ncycles_done    : 0\nexecs_done     : 252799\nexecs_per_sec  : 35.60\npaths_total    : 26\npaths_favored  : 8\npaths_found    : 25\npaths_imported : 0\nmax_depth      : 3\ncur_path       : 9\npending_favs   : 8\npending_total  : 25\nvariable_paths : 0\nbitmap_cvg     : 0.90%\nunique_crashes : 16\nunique_hangs   : 0\nlast_path      : 1500222896\nlast_crash     : 1500223690\nlast_hang      : 0\nexec_timeout   : 100\nafl_banner     : fuzzer-master\nafl_version    : 1.85b\ncommand_line   : /home/skaramcheti/.virtualenvs/afl/bin/afl-unix/afl-fuzz -i /dev/shm/work/DFARS_Sample_Service/input -o /dev/shm/work/DFARS_Sample_Service/sync -m 4G -Q -M fuzzer-master -x /dev/shm/work/DFARS_Sample_Service/DFARS_Sample_Service.dict -- data/linux/processed-challenges/DFARS_Sample_Service/bin/DFARS_Sample_Service\n'
p119
I0
tp120
a(I7200
S'start_time     : 1500220040\nlast_update    : 1500227192\nfuzzer_pid     : 15189\ncycles_done    : 0\nexecs_done     : 257109\nexecs_per_sec  : 34.96\npaths_total    : 26\npaths_favored  : 8\npaths_found    : 25\npaths_imported : 0\nmax_depth      : 3\ncur_path       : 9\npending_favs   : 8\npending_total  : 25\nvariable_paths : 0\nbitmap_cvg     : 0.90%\nunique_crashes : 16\nunique_hangs   : 0\nlast_path      : 1500222896\nlast_crash     : 1500223690\nlast_hang      : 0\nexec_timeout   : 100\nafl_banner     : fuzzer-master\nafl_version    : 1.85b\ncommand_line   : /home/skaramcheti/.virtualenvs/afl/bin/afl-unix/afl-fuzz -i /dev/shm/work/DFARS_Sample_Service/input -o /dev/shm/work/DFARS_Sample_Service/sync -m 4G -Q -M fuzzer-master -x /dev/shm/work/DFARS_Sample_Service/DFARS_Sample_Service.dict -- data/linux/processed-challenges/DFARS_Sample_Service/bin/DFARS_Sample_Service\n'
p121
I0
tp122
a(I7320
S'start_time     : 1500220040\nlast_update    : 1500227312\nfuzzer_pid     : 15189\ncycles_done    : 0\nexecs_done     : 261423\nexecs_per_sec  : 35.49\npaths_total    : 26\npaths_favored  : 8\npaths_found    : 25\npaths_imported : 0\nmax_depth      : 3\ncur_path       : 9\npending_favs   : 8\npending_total  : 25\nvariable_paths : 0\nbitmap_cvg     : 0.90%\nunique_crashes : 16\nunique_hangs   : 0\nlast_path      : 1500222896\nlast_crash     : 1500223690\nlast_hang      : 0\nexec_timeout   : 100\nafl_banner     : fuzzer-master\nafl_version    : 1.85b\ncommand_line   : /home/skaramcheti/.virtualenvs/afl/bin/afl-unix/afl-fuzz -i /dev/shm/work/DFARS_Sample_Service/input -o /dev/shm/work/DFARS_Sample_Service/sync -m 4G -Q -M fuzzer-master -x /dev/shm/work/DFARS_Sample_Service/DFARS_Sample_Service.dict -- data/linux/processed-challenges/DFARS_Sample_Service/bin/DFARS_Sample_Service\n'
p123
I0
tp124
a(I7440
S'start_time     : 1500220040\nlast_update    : 1500227433\nfuzzer_pid     : 15189\ncycles_done    : 0\nexecs_done     : 265760\nexecs_per_sec  : 35.55\npaths_total    : 26\npaths_favored  : 8\npaths_found    : 25\npaths_imported : 0\nmax_depth      : 3\ncur_path       : 9\npending_favs   : 8\npending_total  : 25\nvariable_paths : 0\nbitmap_cvg     : 0.90%\nunique_crashes : 16\nunique_hangs   : 0\nlast_path      : 1500222896\nlast_crash     : 1500223690\nlast_hang      : 0\nexec_timeout   : 100\nafl_banner     : fuzzer-master\nafl_version    : 1.85b\ncommand_line   : /home/skaramcheti/.virtualenvs/afl/bin/afl-unix/afl-fuzz -i /dev/shm/work/DFARS_Sample_Service/input -o /dev/shm/work/DFARS_Sample_Service/sync -m 4G -Q -M fuzzer-master -x /dev/shm/work/DFARS_Sample_Service/DFARS_Sample_Service.dict -- data/linux/processed-challenges/DFARS_Sample_Service/bin/DFARS_Sample_Service\n'
p125
I0
tp126
a(I7560
S'start_time     : 1500220040\nlast_update    : 1500227553\nfuzzer_pid     : 15189\ncycles_done    : 0\nexecs_done     : 270099\nexecs_per_sec  : 36.19\npaths_total    : 26\npaths_favored  : 8\npaths_found    : 25\npaths_imported : 0\nmax_depth      : 3\ncur_path       : 9\npending_favs   : 8\npending_total  : 25\nvariable_paths : 0\nbitmap_cvg     : 0.90%\nunique_crashes : 16\nunique_hangs   : 0\nlast_path      : 1500222896\nlast_crash     : 1500223690\nlast_hang      : 0\nexec_timeout   : 100\nafl_banner     : fuzzer-master\nafl_version    : 1.85b\ncommand_line   : /home/skaramcheti/.virtualenvs/afl/bin/afl-unix/afl-fuzz -i /dev/shm/work/DFARS_Sample_Service/input -o /dev/shm/work/DFARS_Sample_Service/sync -m 4G -Q -M fuzzer-master -x /dev/shm/work/DFARS_Sample_Service/DFARS_Sample_Service.dict -- data/linux/processed-challenges/DFARS_Sample_Service/bin/DFARS_Sample_Service\n'
p127
I0
tp128
a(I7680
S'start_time     : 1500220040\nlast_update    : 1500227673\nfuzzer_pid     : 15189\ncycles_done    : 0\nexecs_done     : 274415\nexecs_per_sec  : 35.80\npaths_total    : 26\npaths_favored  : 8\npaths_found    : 25\npaths_imported : 0\nmax_depth      : 3\ncur_path       : 9\npending_favs   : 8\npending_total  : 25\nvariable_paths : 0\nbitmap_cvg     : 0.90%\nunique_crashes : 16\nunique_hangs   : 0\nlast_path      : 1500222896\nlast_crash     : 1500223690\nlast_hang      : 0\nexec_timeout   : 100\nafl_banner     : fuzzer-master\nafl_version    : 1.85b\ncommand_line   : /home/skaramcheti/.virtualenvs/afl/bin/afl-unix/afl-fuzz -i /dev/shm/work/DFARS_Sample_Service/input -o /dev/shm/work/DFARS_Sample_Service/sync -m 4G -Q -M fuzzer-master -x /dev/shm/work/DFARS_Sample_Service/DFARS_Sample_Service.dict -- data/linux/processed-challenges/DFARS_Sample_Service/bin/DFARS_Sample_Service\n'
p129
I0
tp130
a(I7800
S'start_time     : 1500220040\nlast_update    : 1500227793\nfuzzer_pid     : 15189\ncycles_done    : 0\nexecs_done     : 278749\nexecs_per_sec  : 35.61\npaths_total    : 26\npaths_favored  : 8\npaths_found    : 25\npaths_imported : 0\nmax_depth      : 3\ncur_path       : 9\npending_favs   : 8\npending_total  : 25\nvariable_paths : 0\nbitmap_cvg     : 0.90%\nunique_crashes : 16\nunique_hangs   : 0\nlast_path      : 1500222896\nlast_crash     : 1500223690\nlast_hang      : 0\nexec_timeout   : 100\nafl_banner     : fuzzer-master\nafl_version    : 1.85b\ncommand_line   : /home/skaramcheti/.virtualenvs/afl/bin/afl-unix/afl-fuzz -i /dev/shm/work/DFARS_Sample_Service/input -o /dev/shm/work/DFARS_Sample_Service/sync -m 4G -Q -M fuzzer-master -x /dev/shm/work/DFARS_Sample_Service/DFARS_Sample_Service.dict -- data/linux/processed-challenges/DFARS_Sample_Service/bin/DFARS_Sample_Service\n'
p131
I0
tp132
a(I7920
S'start_time     : 1500220040\nlast_update    : 1500227914\nfuzzer_pid     : 15189\ncycles_done    : 0\nexecs_done     : 283107\nexecs_per_sec  : 36.44\npaths_total    : 26\npaths_favored  : 8\npaths_found    : 25\npaths_imported : 0\nmax_depth      : 3\ncur_path       : 9\npending_favs   : 8\npending_total  : 25\nvariable_paths : 0\nbitmap_cvg     : 0.90%\nunique_crashes : 16\nunique_hangs   : 0\nlast_path      : 1500222896\nlast_crash     : 1500223690\nlast_hang      : 0\nexec_timeout   : 100\nafl_banner     : fuzzer-master\nafl_version    : 1.85b\ncommand_line   : /home/skaramcheti/.virtualenvs/afl/bin/afl-unix/afl-fuzz -i /dev/shm/work/DFARS_Sample_Service/input -o /dev/shm/work/DFARS_Sample_Service/sync -m 4G -Q -M fuzzer-master -x /dev/shm/work/DFARS_Sample_Service/DFARS_Sample_Service.dict -- data/linux/processed-challenges/DFARS_Sample_Service/bin/DFARS_Sample_Service\n'
p133
I0
tp134
a(I8040
S'start_time     : 1500220040\nlast_update    : 1500228034\nfuzzer_pid     : 15189\ncycles_done    : 0\nexecs_done     : 287463\nexecs_per_sec  : 34.90\npaths_total    : 26\npaths_favored  : 8\npaths_found    : 25\npaths_imported : 0\nmax_depth      : 3\ncur_path       : 9\npending_favs   : 8\npending_total  : 25\nvariable_paths : 0\nbitmap_cvg     : 0.90%\nunique_crashes : 16\nunique_hangs   : 0\nlast_path      : 1500222896\nlast_crash     : 1500223690\nlast_hang      : 0\nexec_timeout   : 100\nafl_banner     : fuzzer-master\nafl_version    : 1.85b\ncommand_line   : /home/skaramcheti/.virtualenvs/afl/bin/afl-unix/afl-fuzz -i /dev/shm/work/DFARS_Sample_Service/input -o /dev/shm/work/DFARS_Sample_Service/sync -m 4G -Q -M fuzzer-master -x /dev/shm/work/DFARS_Sample_Service/DFARS_Sample_Service.dict -- data/linux/processed-challenges/DFARS_Sample_Service/bin/DFARS_Sample_Service\n'
p135
I0
tp136
a(I8160
S'start_time     : 1500220040\nlast_update    : 1500228154\nfuzzer_pid     : 15189\ncycles_done    : 0\nexecs_done     : 291792\nexecs_per_sec  : 36.09\npaths_total    : 26\npaths_favored  : 8\npaths_found    : 25\npaths_imported : 0\nmax_depth      : 3\ncur_path       : 9\npending_favs   : 8\npending_total  : 25\nvariable_paths : 0\nbitmap_cvg     : 0.90%\nunique_crashes : 16\nunique_hangs   : 0\nlast_path      : 1500222896\nlast_crash     : 1500223690\nlast_hang      : 0\nexec_timeout   : 100\nafl_banner     : fuzzer-master\nafl_version    : 1.85b\ncommand_line   : /home/skaramcheti/.virtualenvs/afl/bin/afl-unix/afl-fuzz -i /dev/shm/work/DFARS_Sample_Service/input -o /dev/shm/work/DFARS_Sample_Service/sync -m 4G -Q -M fuzzer-master -x /dev/shm/work/DFARS_Sample_Service/DFARS_Sample_Service.dict -- data/linux/processed-challenges/DFARS_Sample_Service/bin/DFARS_Sample_Service\n'
p137
I0
tp138
a(I8280
S'start_time     : 1500220040\nlast_update    : 1500228274\nfuzzer_pid     : 15189\ncycles_done    : 0\nexecs_done     : 296141\nexecs_per_sec  : 36.50\npaths_total    : 26\npaths_favored  : 8\npaths_found    : 25\npaths_imported : 0\nmax_depth      : 3\ncur_path       : 9\npending_favs   : 8\npending_total  : 25\nvariable_paths : 0\nbitmap_cvg     : 0.90%\nunique_crashes : 16\nunique_hangs   : 0\nlast_path      : 1500222896\nlast_crash     : 1500223690\nlast_hang      : 0\nexec_timeout   : 100\nafl_banner     : fuzzer-master\nafl_version    : 1.85b\ncommand_line   : /home/skaramcheti/.virtualenvs/afl/bin/afl-unix/afl-fuzz -i /dev/shm/work/DFARS_Sample_Service/input -o /dev/shm/work/DFARS_Sample_Service/sync -m 4G -Q -M fuzzer-master -x /dev/shm/work/DFARS_Sample_Service/DFARS_Sample_Service.dict -- data/linux/processed-challenges/DFARS_Sample_Service/bin/DFARS_Sample_Service\n'
p139
I0
tp140
a(I8400
S'start_time     : 1500220040\nlast_update    : 1500228395\nfuzzer_pid     : 15189\ncycles_done    : 0\nexecs_done     : 300486\nexecs_per_sec  : 35.51\npaths_total    : 26\npaths_favored  : 8\npaths_found    : 25\npaths_imported : 0\nmax_depth      : 3\ncur_path       : 9\npending_favs   : 8\npending_total  : 25\nvariable_paths : 0\nbitmap_cvg     : 0.90%\nunique_crashes : 16\nunique_hangs   : 0\nlast_path      : 1500222896\nlast_crash     : 1500223690\nlast_hang      : 0\nexec_timeout   : 100\nafl_banner     : fuzzer-master\nafl_version    : 1.85b\ncommand_line   : /home/skaramcheti/.virtualenvs/afl/bin/afl-unix/afl-fuzz -i /dev/shm/work/DFARS_Sample_Service/input -o /dev/shm/work/DFARS_Sample_Service/sync -m 4G -Q -M fuzzer-master -x /dev/shm/work/DFARS_Sample_Service/DFARS_Sample_Service.dict -- data/linux/processed-challenges/DFARS_Sample_Service/bin/DFARS_Sample_Service\n'
p141
I0
tp142
a(I8520
S'start_time     : 1500220040\nlast_update    : 1500228515\nfuzzer_pid     : 15189\ncycles_done    : 0\nexecs_done     : 304828\nexecs_per_sec  : 36.59\npaths_total    : 26\npaths_favored  : 8\npaths_found    : 25\npaths_imported : 0\nmax_depth      : 3\ncur_path       : 9\npending_favs   : 8\npending_total  : 25\nvariable_paths : 0\nbitmap_cvg     : 0.90%\nunique_crashes : 16\nunique_hangs   : 0\nlast_path      : 1500222896\nlast_crash     : 1500223690\nlast_hang      : 0\nexec_timeout   : 100\nafl_banner     : fuzzer-master\nafl_version    : 1.85b\ncommand_line   : /home/skaramcheti/.virtualenvs/afl/bin/afl-unix/afl-fuzz -i /dev/shm/work/DFARS_Sample_Service/input -o /dev/shm/work/DFARS_Sample_Service/sync -m 4G -Q -M fuzzer-master -x /dev/shm/work/DFARS_Sample_Service/DFARS_Sample_Service.dict -- data/linux/processed-challenges/DFARS_Sample_Service/bin/DFARS_Sample_Service\n'
p143
I0
tp144
a(I8640
S'start_time     : 1500220040\nlast_update    : 1500228635\nfuzzer_pid     : 15189\ncycles_done    : 0\nexecs_done     : 309161\nexecs_per_sec  : 36.51\npaths_total    : 26\npaths_favored  : 8\npaths_found    : 25\npaths_imported : 0\nmax_depth      : 3\ncur_path       : 9\npending_favs   : 8\npending_total  : 25\nvariable_paths : 0\nbitmap_cvg     : 0.90%\nunique_crashes : 16\nunique_hangs   : 0\nlast_path      : 1500222896\nlast_crash     : 1500223690\nlast_hang      : 0\nexec_timeout   : 100\nafl_banner     : fuzzer-master\nafl_version    : 1.85b\ncommand_line   : /home/skaramcheti/.virtualenvs/afl/bin/afl-unix/afl-fuzz -i /dev/shm/work/DFARS_Sample_Service/input -o /dev/shm/work/DFARS_Sample_Service/sync -m 4G -Q -M fuzzer-master -x /dev/shm/work/DFARS_Sample_Service/DFARS_Sample_Service.dict -- data/linux/processed-challenges/DFARS_Sample_Service/bin/DFARS_Sample_Service\n'
p145
I0
tp146
a(I8760
S'start_time     : 1500220040\nlast_update    : 1500228755\nfuzzer_pid     : 15189\ncycles_done    : 0\nexecs_done     : 313481\nexecs_per_sec  : 35.28\npaths_total    : 26\npaths_favored  : 8\npaths_found    : 25\npaths_imported : 0\nmax_depth      : 3\ncur_path       : 9\npending_favs   : 8\npending_total  : 25\nvariable_paths : 0\nbitmap_cvg     : 0.90%\nunique_crashes : 16\nunique_hangs   : 0\nlast_path      : 1500222896\nlast_crash     : 1500223690\nlast_hang      : 0\nexec_timeout   : 100\nafl_banner     : fuzzer-master\nafl_version    : 1.85b\ncommand_line   : /home/skaramcheti/.virtualenvs/afl/bin/afl-unix/afl-fuzz -i /dev/shm/work/DFARS_Sample_Service/input -o /dev/shm/work/DFARS_Sample_Service/sync -m 4G -Q -M fuzzer-master -x /dev/shm/work/DFARS_Sample_Service/DFARS_Sample_Service.dict -- data/linux/processed-challenges/DFARS_Sample_Service/bin/DFARS_Sample_Service\n'
p147
I0
tp148
a(I8880
S'start_time     : 1500220040\nlast_update    : 1500228875\nfuzzer_pid     : 15189\ncycles_done    : 0\nexecs_done     : 317850\nexecs_per_sec  : 36.75\npaths_total    : 26\npaths_favored  : 8\npaths_found    : 25\npaths_imported : 0\nmax_depth      : 3\ncur_path       : 9\npending_favs   : 8\npending_total  : 25\nvariable_paths : 0\nbitmap_cvg     : 0.90%\nunique_crashes : 16\nunique_hangs   : 0\nlast_path      : 1500222896\nlast_crash     : 1500223690\nlast_hang      : 0\nexec_timeout   : 100\nafl_banner     : fuzzer-master\nafl_version    : 1.85b\ncommand_line   : /home/skaramcheti/.virtualenvs/afl/bin/afl-unix/afl-fuzz -i /dev/shm/work/DFARS_Sample_Service/input -o /dev/shm/work/DFARS_Sample_Service/sync -m 4G -Q -M fuzzer-master -x /dev/shm/work/DFARS_Sample_Service/DFARS_Sample_Service.dict -- data/linux/processed-challenges/DFARS_Sample_Service/bin/DFARS_Sample_Service\n'
p149
I0
tp150
a(I9000
S'start_time     : 1500220040\nlast_update    : 1500228996\nfuzzer_pid     : 15189\ncycles_done    : 0\nexecs_done     : 322203\nexecs_per_sec  : 36.07\npaths_total    : 26\npaths_favored  : 8\npaths_found    : 25\npaths_imported : 0\nmax_depth      : 3\ncur_path       : 9\npending_favs   : 8\npending_total  : 25\nvariable_paths : 0\nbitmap_cvg     : 0.90%\nunique_crashes : 16\nunique_hangs   : 0\nlast_path      : 1500222896\nlast_crash     : 1500223690\nlast_hang      : 0\nexec_timeout   : 100\nafl_banner     : fuzzer-master\nafl_version    : 1.85b\ncommand_line   : /home/skaramcheti/.virtualenvs/afl/bin/afl-unix/afl-fuzz -i /dev/shm/work/DFARS_Sample_Service/input -o /dev/shm/work/DFARS_Sample_Service/sync -m 4G -Q -M fuzzer-master -x /dev/shm/work/DFARS_Sample_Service/DFARS_Sample_Service.dict -- data/linux/processed-challenges/DFARS_Sample_Service/bin/DFARS_Sample_Service\n'
p151
I0
tp152
a(I9120
S'start_time     : 1500220040\nlast_update    : 1500229116\nfuzzer_pid     : 15189\ncycles_done    : 0\nexecs_done     : 326548\nexecs_per_sec  : 36.30\npaths_total    : 26\npaths_favored  : 8\npaths_found    : 25\npaths_imported : 0\nmax_depth      : 3\ncur_path       : 9\npending_favs   : 8\npending_total  : 25\nvariable_paths : 0\nbitmap_cvg     : 0.90%\nunique_crashes : 16\nunique_hangs   : 0\nlast_path      : 1500222896\nlast_crash     : 1500223690\nlast_hang      : 0\nexec_timeout   : 100\nafl_banner     : fuzzer-master\nafl_version    : 1.85b\ncommand_line   : /home/skaramcheti/.virtualenvs/afl/bin/afl-unix/afl-fuzz -i /dev/shm/work/DFARS_Sample_Service/input -o /dev/shm/work/DFARS_Sample_Service/sync -m 4G -Q -M fuzzer-master -x /dev/shm/work/DFARS_Sample_Service/DFARS_Sample_Service.dict -- data/linux/processed-challenges/DFARS_Sample_Service/bin/DFARS_Sample_Service\n'
p153
I0
tp154
a(I9240
S'start_time     : 1500220040\nlast_update    : 1500229236\nfuzzer_pid     : 15189\ncycles_done    : 0\nexecs_done     : 330877\nexecs_per_sec  : 35.32\npaths_total    : 26\npaths_favored  : 8\npaths_found    : 25\npaths_imported : 0\nmax_depth      : 3\ncur_path       : 9\npending_favs   : 8\npending_total  : 25\nvariable_paths : 0\nbitmap_cvg     : 0.90%\nunique_crashes : 16\nunique_hangs   : 0\nlast_path      : 1500222896\nlast_crash     : 1500223690\nlast_hang      : 0\nexec_timeout   : 100\nafl_banner     : fuzzer-master\nafl_version    : 1.85b\ncommand_line   : /home/skaramcheti/.virtualenvs/afl/bin/afl-unix/afl-fuzz -i /dev/shm/work/DFARS_Sample_Service/input -o /dev/shm/work/DFARS_Sample_Service/sync -m 4G -Q -M fuzzer-master -x /dev/shm/work/DFARS_Sample_Service/DFARS_Sample_Service.dict -- data/linux/processed-challenges/DFARS_Sample_Service/bin/DFARS_Sample_Service\n'
p155
I0
tp156
a(I9360
S'start_time     : 1500220040\nlast_update    : 1500229356\nfuzzer_pid     : 15189\ncycles_done    : 0\nexecs_done     : 335223\nexecs_per_sec  : 36.52\npaths_total    : 26\npaths_favored  : 8\npaths_found    : 25\npaths_imported : 0\nmax_depth      : 3\ncur_path       : 9\npending_favs   : 8\npending_total  : 25\nvariable_paths : 0\nbitmap_cvg     : 0.90%\nunique_crashes : 16\nunique_hangs   : 0\nlast_path      : 1500222896\nlast_crash     : 1500223690\nlast_hang      : 0\nexec_timeout   : 100\nafl_banner     : fuzzer-master\nafl_version    : 1.85b\ncommand_line   : /home/skaramcheti/.virtualenvs/afl/bin/afl-unix/afl-fuzz -i /dev/shm/work/DFARS_Sample_Service/input -o /dev/shm/work/DFARS_Sample_Service/sync -m 4G -Q -M fuzzer-master -x /dev/shm/work/DFARS_Sample_Service/DFARS_Sample_Service.dict -- data/linux/processed-challenges/DFARS_Sample_Service/bin/DFARS_Sample_Service\n'
p157
I0
tp158
a(I9480
S'start_time     : 1500220040\nlast_update    : 1500229476\nfuzzer_pid     : 15189\ncycles_done    : 0\nexecs_done     : 339543\nexecs_per_sec  : 35.47\npaths_total    : 26\npaths_favored  : 8\npaths_found    : 25\npaths_imported : 0\nmax_depth      : 3\ncur_path       : 9\npending_favs   : 8\npending_total  : 25\nvariable_paths : 0\nbitmap_cvg     : 0.90%\nunique_crashes : 16\nunique_hangs   : 0\nlast_path      : 1500222896\nlast_crash     : 1500223690\nlast_hang      : 0\nexec_timeout   : 100\nafl_banner     : fuzzer-master\nafl_version    : 1.85b\ncommand_line   : /home/skaramcheti/.virtualenvs/afl/bin/afl-unix/afl-fuzz -i /dev/shm/work/DFARS_Sample_Service/input -o /dev/shm/work/DFARS_Sample_Service/sync -m 4G -Q -M fuzzer-master -x /dev/shm/work/DFARS_Sample_Service/DFARS_Sample_Service.dict -- data/linux/processed-challenges/DFARS_Sample_Service/bin/DFARS_Sample_Service\n'
p159
I0
tp160
a(I9600
S'start_time     : 1500220040\nlast_update    : 1500229596\nfuzzer_pid     : 15189\ncycles_done    : 0\nexecs_done     : 343848\nexecs_per_sec  : 35.63\npaths_total    : 26\npaths_favored  : 8\npaths_found    : 25\npaths_imported : 0\nmax_depth      : 3\ncur_path       : 9\npending_favs   : 8\npending_total  : 25\nvariable_paths : 0\nbitmap_cvg     : 0.90%\nunique_crashes : 16\nunique_hangs   : 0\nlast_path      : 1500222896\nlast_crash     : 1500223690\nlast_hang      : 0\nexec_timeout   : 100\nafl_banner     : fuzzer-master\nafl_version    : 1.85b\ncommand_line   : /home/skaramcheti/.virtualenvs/afl/bin/afl-unix/afl-fuzz -i /dev/shm/work/DFARS_Sample_Service/input -o /dev/shm/work/DFARS_Sample_Service/sync -m 4G -Q -M fuzzer-master -x /dev/shm/work/DFARS_Sample_Service/DFARS_Sample_Service.dict -- data/linux/processed-challenges/DFARS_Sample_Service/bin/DFARS_Sample_Service\n'
p161
I0
tp162
a(I9720
S'start_time     : 1500220040\nlast_update    : 1500229717\nfuzzer_pid     : 15189\ncycles_done    : 0\nexecs_done     : 348145\nexecs_per_sec  : 35.38\npaths_total    : 26\npaths_favored  : 8\npaths_found    : 25\npaths_imported : 0\nmax_depth      : 3\ncur_path       : 9\npending_favs   : 8\npending_total  : 25\nvariable_paths : 0\nbitmap_cvg     : 0.90%\nunique_crashes : 16\nunique_hangs   : 0\nlast_path      : 1500222896\nlast_crash     : 1500223690\nlast_hang      : 0\nexec_timeout   : 100\nafl_banner     : fuzzer-master\nafl_version    : 1.85b\ncommand_line   : /home/skaramcheti/.virtualenvs/afl/bin/afl-unix/afl-fuzz -i /dev/shm/work/DFARS_Sample_Service/input -o /dev/shm/work/DFARS_Sample_Service/sync -m 4G -Q -M fuzzer-master -x /dev/shm/work/DFARS_Sample_Service/DFARS_Sample_Service.dict -- data/linux/processed-challenges/DFARS_Sample_Service/bin/DFARS_Sample_Service\n'
p163
I0
tp164
a(I9840
S'start_time     : 1500220040\nlast_update    : 1500229837\nfuzzer_pid     : 15189\ncycles_done    : 0\nexecs_done     : 352458\nexecs_per_sec  : 34.95\npaths_total    : 26\npaths_favored  : 8\npaths_found    : 25\npaths_imported : 0\nmax_depth      : 3\ncur_path       : 9\npending_favs   : 8\npending_total  : 25\nvariable_paths : 0\nbitmap_cvg     : 0.90%\nunique_crashes : 16\nunique_hangs   : 0\nlast_path      : 1500222896\nlast_crash     : 1500223690\nlast_hang      : 0\nexec_timeout   : 100\nafl_banner     : fuzzer-master\nafl_version    : 1.85b\ncommand_line   : /home/skaramcheti/.virtualenvs/afl/bin/afl-unix/afl-fuzz -i /dev/shm/work/DFARS_Sample_Service/input -o /dev/shm/work/DFARS_Sample_Service/sync -m 4G -Q -M fuzzer-master -x /dev/shm/work/DFARS_Sample_Service/DFARS_Sample_Service.dict -- data/linux/processed-challenges/DFARS_Sample_Service/bin/DFARS_Sample_Service\n'
p165
I0
tp166
a(I9960
S'start_time     : 1500220040\nlast_update    : 1500229957\nfuzzer_pid     : 15189\ncycles_done    : 0\nexecs_done     : 356742\nexecs_per_sec  : 35.89\npaths_total    : 26\npaths_favored  : 8\npaths_found    : 25\npaths_imported : 0\nmax_depth      : 3\ncur_path       : 9\npending_favs   : 8\npending_total  : 25\nvariable_paths : 0\nbitmap_cvg     : 0.90%\nunique_crashes : 16\nunique_hangs   : 0\nlast_path      : 1500222896\nlast_crash     : 1500223690\nlast_hang      : 0\nexec_timeout   : 100\nafl_banner     : fuzzer-master\nafl_version    : 1.85b\ncommand_line   : /home/skaramcheti/.virtualenvs/afl/bin/afl-unix/afl-fuzz -i /dev/shm/work/DFARS_Sample_Service/input -o /dev/shm/work/DFARS_Sample_Service/sync -m 4G -Q -M fuzzer-master -x /dev/shm/work/DFARS_Sample_Service/DFARS_Sample_Service.dict -- data/linux/processed-challenges/DFARS_Sample_Service/bin/DFARS_Sample_Service\n'
p167
I0
tp168
a(I10080
S'start_time     : 1500220040\nlast_update    : 1500230077\nfuzzer_pid     : 15189\ncycles_done    : 0\nexecs_done     : 361032\nexecs_per_sec  : 34.47\npaths_total    : 26\npaths_favored  : 8\npaths_found    : 25\npaths_imported : 0\nmax_depth      : 3\ncur_path       : 9\npending_favs   : 8\npending_total  : 25\nvariable_paths : 0\nbitmap_cvg     : 0.90%\nunique_crashes : 16\nunique_hangs   : 0\nlast_path      : 1500222896\nlast_crash     : 1500223690\nlast_hang      : 0\nexec_timeout   : 100\nafl_banner     : fuzzer-master\nafl_version    : 1.85b\ncommand_line   : /home/skaramcheti/.virtualenvs/afl/bin/afl-unix/afl-fuzz -i /dev/shm/work/DFARS_Sample_Service/input -o /dev/shm/work/DFARS_Sample_Service/sync -m 4G -Q -M fuzzer-master -x /dev/shm/work/DFARS_Sample_Service/DFARS_Sample_Service.dict -- data/linux/processed-challenges/DFARS_Sample_Service/bin/DFARS_Sample_Service\n'
p169
I0
tp170
a(I10200
S'start_time     : 1500220040\nlast_update    : 1500230197\nfuzzer_pid     : 15189\ncycles_done    : 0\nexecs_done     : 365337\nexecs_per_sec  : 34.97\npaths_total    : 26\npaths_favored  : 8\npaths_found    : 25\npaths_imported : 0\nmax_depth      : 3\ncur_path       : 9\npending_favs   : 8\npending_total  : 25\nvariable_paths : 0\nbitmap_cvg     : 0.90%\nunique_crashes : 16\nunique_hangs   : 0\nlast_path      : 1500222896\nlast_crash     : 1500223690\nlast_hang      : 0\nexec_timeout   : 100\nafl_banner     : fuzzer-master\nafl_version    : 1.85b\ncommand_line   : /home/skaramcheti/.virtualenvs/afl/bin/afl-unix/afl-fuzz -i /dev/shm/work/DFARS_Sample_Service/input -o /dev/shm/work/DFARS_Sample_Service/sync -m 4G -Q -M fuzzer-master -x /dev/shm/work/DFARS_Sample_Service/DFARS_Sample_Service.dict -- data/linux/processed-challenges/DFARS_Sample_Service/bin/DFARS_Sample_Service\n'
p171
I0
tp172
a(I10320
S'start_time     : 1500220040\nlast_update    : 1500230318\nfuzzer_pid     : 15189\ncycles_done    : 0\nexecs_done     : 369638\nexecs_per_sec  : 37.04\npaths_total    : 26\npaths_favored  : 8\npaths_found    : 25\npaths_imported : 0\nmax_depth      : 3\ncur_path       : 9\npending_favs   : 8\npending_total  : 25\nvariable_paths : 0\nbitmap_cvg     : 0.90%\nunique_crashes : 16\nunique_hangs   : 0\nlast_path      : 1500222896\nlast_crash     : 1500223690\nlast_hang      : 0\nexec_timeout   : 100\nafl_banner     : fuzzer-master\nafl_version    : 1.85b\ncommand_line   : /home/skaramcheti/.virtualenvs/afl/bin/afl-unix/afl-fuzz -i /dev/shm/work/DFARS_Sample_Service/input -o /dev/shm/work/DFARS_Sample_Service/sync -m 4G -Q -M fuzzer-master -x /dev/shm/work/DFARS_Sample_Service/DFARS_Sample_Service.dict -- data/linux/processed-challenges/DFARS_Sample_Service/bin/DFARS_Sample_Service\n'
p173
I0
tp174
a(I10440
S'start_time     : 1500220040\nlast_update    : 1500230438\nfuzzer_pid     : 15189\ncycles_done    : 0\nexecs_done     : 373960\nexecs_per_sec  : 36.16\npaths_total    : 26\npaths_favored  : 8\npaths_found    : 25\npaths_imported : 0\nmax_depth      : 3\ncur_path       : 9\npending_favs   : 8\npending_total  : 25\nvariable_paths : 0\nbitmap_cvg     : 0.90%\nunique_crashes : 16\nunique_hangs   : 0\nlast_path      : 1500222896\nlast_crash     : 1500223690\nlast_hang      : 0\nexec_timeout   : 100\nafl_banner     : fuzzer-master\nafl_version    : 1.85b\ncommand_line   : /home/skaramcheti/.virtualenvs/afl/bin/afl-unix/afl-fuzz -i /dev/shm/work/DFARS_Sample_Service/input -o /dev/shm/work/DFARS_Sample_Service/sync -m 4G -Q -M fuzzer-master -x /dev/shm/work/DFARS_Sample_Service/DFARS_Sample_Service.dict -- data/linux/processed-challenges/DFARS_Sample_Service/bin/DFARS_Sample_Service\n'
p175
I0
tp176
a(I10560
S'start_time     : 1500220040\nlast_update    : 1500230558\nfuzzer_pid     : 15189\ncycles_done    : 0\nexecs_done     : 378313\nexecs_per_sec  : 35.69\npaths_total    : 26\npaths_favored  : 8\npaths_found    : 25\npaths_imported : 0\nmax_depth      : 3\ncur_path       : 9\npending_favs   : 8\npending_total  : 25\nvariable_paths : 0\nbitmap_cvg     : 0.90%\nunique_crashes : 16\nunique_hangs   : 0\nlast_path      : 1500222896\nlast_crash     : 1500223690\nlast_hang      : 0\nexec_timeout   : 100\nafl_banner     : fuzzer-master\nafl_version    : 1.85b\ncommand_line   : /home/skaramcheti/.virtualenvs/afl/bin/afl-unix/afl-fuzz -i /dev/shm/work/DFARS_Sample_Service/input -o /dev/shm/work/DFARS_Sample_Service/sync -m 4G -Q -M fuzzer-master -x /dev/shm/work/DFARS_Sample_Service/DFARS_Sample_Service.dict -- data/linux/processed-challenges/DFARS_Sample_Service/bin/DFARS_Sample_Service\n'
p177
I0
tp178
a(I10680
S'start_time     : 1500220040\nlast_update    : 1500230678\nfuzzer_pid     : 15189\ncycles_done    : 0\nexecs_done     : 382676\nexecs_per_sec  : 36.38\npaths_total    : 26\npaths_favored  : 8\npaths_found    : 25\npaths_imported : 0\nmax_depth      : 3\ncur_path       : 9\npending_favs   : 8\npending_total  : 25\nvariable_paths : 0\nbitmap_cvg     : 0.90%\nunique_crashes : 16\nunique_hangs   : 0\nlast_path      : 1500222896\nlast_crash     : 1500223690\nlast_hang      : 0\nexec_timeout   : 100\nafl_banner     : fuzzer-master\nafl_version    : 1.85b\ncommand_line   : /home/skaramcheti/.virtualenvs/afl/bin/afl-unix/afl-fuzz -i /dev/shm/work/DFARS_Sample_Service/input -o /dev/shm/work/DFARS_Sample_Service/sync -m 4G -Q -M fuzzer-master -x /dev/shm/work/DFARS_Sample_Service/DFARS_Sample_Service.dict -- data/linux/processed-challenges/DFARS_Sample_Service/bin/DFARS_Sample_Service\n'
p179
I0
tp180
a.