(lp0
(I0
S'start_time     : 1499830588\nlast_update    : 1499830588\nfuzzer_pid     : 2722\ncycles_done    : 0\nexecs_done     : 10\nexecs_per_sec  : 200.00\npaths_total    : 1\npaths_favored  : 1\npaths_found    : 0\npaths_imported : 0\nmax_depth      : 1\ncur_path       : 0\npending_favs   : 1\npending_total  : 1\nvariable_paths : 0\nbitmap_cvg     : 0.52%\nunique_crashes : 0\nunique_hangs   : 0\nlast_path      : 0\nlast_crash     : 0\nlast_hang      : 0\nexec_timeout   : 20\nafl_banner     : fuzzer-master\nafl_version    : 1.85b\ncommand_line   : /home/skaramcheti/.virtualenvs/afl/bin/afl-unix/afl-fuzz -i /dev/shm/work/Multicast_Chat_Server/input -o /dev/shm/work/Multicast_Chat_Server/sync -m 4G -Q -M fuzzer-master -x /dev/shm/work/Multicast_Chat_Server/Multicast_Chat_Server.dict -- data/linux/processed-challenges/Multicast_Chat_Server/bin/Multicast_Chat_Server\n'
p1
I25
tp2
a(I120
S'start_time     : 1499830588\nlast_update    : 1499830708\nfuzzer_pid     : 2722\ncycles_done    : 0\nexecs_done     : 132697\nexecs_per_sec  : 1077.55\npaths_total    : 34\npaths_favored  : 1\npaths_found    : 33\npaths_imported : 0\nmax_depth      : 2\ncur_path       : 0\npending_favs   : 1\npending_total  : 34\nvariable_paths : 0\nbitmap_cvg     : 0.65%\nunique_crashes : 0\nunique_hangs   : 0\nlast_path      : 1499830684\nlast_crash     : 0\nlast_hang      : 0\nexec_timeout   : 20\nafl_banner     : fuzzer-master\nafl_version    : 1.85b\ncommand_line   : /home/skaramcheti/.virtualenvs/afl/bin/afl-unix/afl-fuzz -i /dev/shm/work/Multicast_Chat_Server/input -o /dev/shm/work/Multicast_Chat_Server/sync -m 4G -Q -M fuzzer-master -x /dev/shm/work/Multicast_Chat_Server/Multicast_Chat_Server.dict -- data/linux/processed-challenges/Multicast_Chat_Server/bin/Multicast_Chat_Server\n'
p3
I10
tp4
a(I240
S'start_time     : 1499830588\nlast_update    : 1499830828\nfuzzer_pid     : 2722\ncycles_done    : 0\nexecs_done     : 263851\nexecs_per_sec  : 1109.18\npaths_total    : 48\npaths_favored  : 13\npaths_found    : 47\npaths_imported : 0\nmax_depth      : 3\ncur_path       : 34\npending_favs   : 7\npending_total  : 38\nvariable_paths : 0\nbitmap_cvg     : 0.73%\nunique_crashes : 0\nunique_hangs   : 0\nlast_path      : 1499830809\nlast_crash     : 0\nlast_hang      : 0\nexec_timeout   : 20\nafl_banner     : fuzzer-master\nafl_version    : 1.85b\ncommand_line   : /home/skaramcheti/.virtualenvs/afl/bin/afl-unix/afl-fuzz -i /dev/shm/work/Multicast_Chat_Server/input -o /dev/shm/work/Multicast_Chat_Server/sync -m 4G -Q -M fuzzer-master -x /dev/shm/work/Multicast_Chat_Server/Multicast_Chat_Server.dict -- data/linux/processed-challenges/Multicast_Chat_Server/bin/Multicast_Chat_Server\n'
p5
I13
tp6
a(I360
S'start_time     : 1499830588\nlast_update    : 1499830949\nfuzzer_pid     : 2722\ncycles_done    : 0\nexecs_done     : 392664\nexecs_per_sec  : 1053.21\npaths_total    : 52\npaths_favored  : 13\npaths_found    : 51\npaths_imported : 0\nmax_depth      : 3\ncur_path       : 34\npending_favs   : 7\npending_total  : 42\nvariable_paths : 0\nbitmap_cvg     : 0.80%\nunique_crashes : 0\nunique_hangs   : 0\nlast_path      : 1499830943\nlast_crash     : 0\nlast_hang      : 0\nexec_timeout   : 20\nafl_banner     : fuzzer-master\nafl_version    : 1.85b\ncommand_line   : /home/skaramcheti/.virtualenvs/afl/bin/afl-unix/afl-fuzz -i /dev/shm/work/Multicast_Chat_Server/input -o /dev/shm/work/Multicast_Chat_Server/sync -m 4G -Q -M fuzzer-master -x /dev/shm/work/Multicast_Chat_Server/Multicast_Chat_Server.dict -- data/linux/processed-challenges/Multicast_Chat_Server/bin/Multicast_Chat_Server\n'
p7
I4
tp8
a(I480
S'start_time     : 1499830588\nlast_update    : 1499831069\nfuzzer_pid     : 2722\ncycles_done    : 0\nexecs_done     : 517094\nexecs_per_sec  : 1019.71\npaths_total    : 72\npaths_favored  : 16\npaths_found    : 71\npaths_imported : 0\nmax_depth      : 4\ncur_path       : 48\npending_favs   : 6\npending_total  : 55\nvariable_paths : 0\nbitmap_cvg     : 1.00%\nunique_crashes : 0\nunique_hangs   : 0\nlast_path      : 1499831060\nlast_crash     : 0\nlast_hang      : 0\nexec_timeout   : 20\nafl_banner     : fuzzer-master\nafl_version    : 1.85b\ncommand_line   : /home/skaramcheti/.virtualenvs/afl/bin/afl-unix/afl-fuzz -i /dev/shm/work/Multicast_Chat_Server/input -o /dev/shm/work/Multicast_Chat_Server/sync -m 4G -Q -M fuzzer-master -x /dev/shm/work/Multicast_Chat_Server/Multicast_Chat_Server.dict -- data/linux/processed-challenges/Multicast_Chat_Server/bin/Multicast_Chat_Server\n'
p9
I20
tp10
a(I600
S'start_time     : 1499830588\nlast_update    : 1499831189\nfuzzer_pid     : 2722\ncycles_done    : 0\nexecs_done     : 643711\nexecs_per_sec  : 1045.93\npaths_total    : 75\npaths_favored  : 23\npaths_found    : 74\npaths_imported : 0\nmax_depth      : 4\ncur_path       : 53\npending_favs   : 12\npending_total  : 55\nvariable_paths : 0\nbitmap_cvg     : 1.01%\nunique_crashes : 0\nunique_hangs   : 0\nlast_path      : 1499831162\nlast_crash     : 0\nlast_hang      : 0\nexec_timeout   : 20\nafl_banner     : fuzzer-master\nafl_version    : 1.85b\ncommand_line   : /home/skaramcheti/.virtualenvs/afl/bin/afl-unix/afl-fuzz -i /dev/shm/work/Multicast_Chat_Server/input -o /dev/shm/work/Multicast_Chat_Server/sync -m 4G -Q -M fuzzer-master -x /dev/shm/work/Multicast_Chat_Server/Multicast_Chat_Server.dict -- data/linux/processed-challenges/Multicast_Chat_Server/bin/Multicast_Chat_Server\n'
p11
I3
tp12
a(I720
S'start_time     : 1499830588\nlast_update    : 1499831309\nfuzzer_pid     : 2722\ncycles_done    : 0\nexecs_done     : 770253\nexecs_per_sec  : 1063.60\npaths_total    : 88\npaths_favored  : 23\npaths_found    : 87\npaths_imported : 0\nmax_depth      : 5\ncur_path       : 58\npending_favs   : 10\npending_total  : 66\nvariable_paths : 0\nbitmap_cvg     : 1.02%\nunique_crashes : 0\nunique_hangs   : 0\nlast_path      : 1499831308\nlast_crash     : 0\nlast_hang      : 0\nexec_timeout   : 20\nafl_banner     : fuzzer-master\nafl_version    : 1.85b\ncommand_line   : /home/skaramcheti/.virtualenvs/afl/bin/afl-unix/afl-fuzz -i /dev/shm/work/Multicast_Chat_Server/input -o /dev/shm/work/Multicast_Chat_Server/sync -m 4G -Q -M fuzzer-master -x /dev/shm/work/Multicast_Chat_Server/Multicast_Chat_Server.dict -- data/linux/processed-challenges/Multicast_Chat_Server/bin/Multicast_Chat_Server\n'
p13
I13
tp14
a(I840
S'start_time     : 1499830588\nlast_update    : 1499831429\nfuzzer_pid     : 2722\ncycles_done    : 0\nexecs_done     : 897558\nexecs_per_sec  : 1026.99\npaths_total    : 88\npaths_favored  : 27\npaths_found    : 87\npaths_imported : 0\nmax_depth      : 5\ncur_path       : 61\npending_favs   : 14\npending_total  : 65\nvariable_paths : 0\nbitmap_cvg     : 1.02%\nunique_crashes : 0\nunique_hangs   : 0\nlast_path      : 1499831308\nlast_crash     : 0\nlast_hang      : 0\nexec_timeout   : 20\nafl_banner     : fuzzer-master\nafl_version    : 1.85b\ncommand_line   : /home/skaramcheti/.virtualenvs/afl/bin/afl-unix/afl-fuzz -i /dev/shm/work/Multicast_Chat_Server/input -o /dev/shm/work/Multicast_Chat_Server/sync -m 4G -Q -M fuzzer-master -x /dev/shm/work/Multicast_Chat_Server/Multicast_Chat_Server.dict -- data/linux/processed-challenges/Multicast_Chat_Server/bin/Multicast_Chat_Server\n'
p15
I0
tp16
a(I960
S'start_time     : 1499830588\nlast_update    : 1499831550\nfuzzer_pid     : 2722\ncycles_done    : 0\nexecs_done     : 1021993\nexecs_per_sec  : 981.30\npaths_total    : 99\npaths_favored  : 28\npaths_found    : 98\npaths_imported : 0\nmax_depth      : 5\ncur_path       : 64\npending_favs   : 12\npending_total  : 74\nvariable_paths : 0\nbitmap_cvg     : 1.07%\nunique_crashes : 1\nunique_hangs   : 0\nlast_path      : 1499831524\nlast_crash     : 1499831496\nlast_hang      : 0\nexec_timeout   : 20\nafl_banner     : fuzzer-master\nafl_version    : 1.85b\ncommand_line   : /home/skaramcheti/.virtualenvs/afl/bin/afl-unix/afl-fuzz -i /dev/shm/work/Multicast_Chat_Server/input -o /dev/shm/work/Multicast_Chat_Server/sync -m 4G -Q -M fuzzer-master -x /dev/shm/work/Multicast_Chat_Server/Multicast_Chat_Server.dict -- data/linux/processed-challenges/Multicast_Chat_Server/bin/Multicast_Chat_Server\n'
p17
I11
tp18
a(I1080
S'start_time     : 1499830588\nlast_update    : 1499831670\nfuzzer_pid     : 2722\ncycles_done    : 0\nexecs_done     : 1141043\nexecs_per_sec  : 1019.70\npaths_total    : 103\npaths_favored  : 28\npaths_found    : 102\npaths_imported : 0\nmax_depth      : 5\ncur_path       : 70\npending_favs   : 9\npending_total  : 75\nvariable_paths : 0\nbitmap_cvg     : 1.07%\nunique_crashes : 1\nunique_hangs   : 0\nlast_path      : 1499831643\nlast_crash     : 1499831496\nlast_hang      : 0\nexec_timeout   : 20\nafl_banner     : fuzzer-master\nafl_version    : 1.85b\ncommand_line   : /home/skaramcheti/.virtualenvs/afl/bin/afl-unix/afl-fuzz -i /dev/shm/work/Multicast_Chat_Server/input -o /dev/shm/work/Multicast_Chat_Server/sync -m 4G -Q -M fuzzer-master -x /dev/shm/work/Multicast_Chat_Server/Multicast_Chat_Server.dict -- data/linux/processed-challenges/Multicast_Chat_Server/bin/Multicast_Chat_Server\n'
p19
I4
tp20
a(I1200
S'start_time     : 1499830588\nlast_update    : 1499831790\nfuzzer_pid     : 2722\ncycles_done    : 0\nexecs_done     : 1263706\nexecs_per_sec  : 1014.40\npaths_total    : 109\npaths_favored  : 28\npaths_found    : 108\npaths_imported : 0\nmax_depth      : 5\ncur_path       : 72\npending_favs   : 8\npending_total  : 80\nvariable_paths : 0\nbitmap_cvg     : 1.08%\nunique_crashes : 1\nunique_hangs   : 0\nlast_path      : 1499831733\nlast_crash     : 1499831496\nlast_hang      : 0\nexec_timeout   : 20\nafl_banner     : fuzzer-master\nafl_version    : 1.85b\ncommand_line   : /home/skaramcheti/.virtualenvs/afl/bin/afl-unix/afl-fuzz -i /dev/shm/work/Multicast_Chat_Server/input -o /dev/shm/work/Multicast_Chat_Server/sync -m 4G -Q -M fuzzer-master -x /dev/shm/work/Multicast_Chat_Server/Multicast_Chat_Server.dict -- data/linux/processed-challenges/Multicast_Chat_Server/bin/Multicast_Chat_Server\n'
p21
I6
tp22
a(I1320
S'start_time     : 1499830588\nlast_update    : 1499831910\nfuzzer_pid     : 2722\ncycles_done    : 0\nexecs_done     : 1386992\nexecs_per_sec  : 1050.62\npaths_total    : 118\npaths_favored  : 29\npaths_found    : 117\npaths_imported : 0\nmax_depth      : 6\ncur_path       : 88\npending_favs   : 8\npending_total  : 87\nvariable_paths : 0\nbitmap_cvg     : 1.35%\nunique_crashes : 1\nunique_hangs   : 0\nlast_path      : 1499831894\nlast_crash     : 1499831496\nlast_hang      : 0\nexec_timeout   : 20\nafl_banner     : fuzzer-master\nafl_version    : 1.85b\ncommand_line   : /home/skaramcheti/.virtualenvs/afl/bin/afl-unix/afl-fuzz -i /dev/shm/work/Multicast_Chat_Server/input -o /dev/shm/work/Multicast_Chat_Server/sync -m 4G -Q -M fuzzer-master -x /dev/shm/work/Multicast_Chat_Server/Multicast_Chat_Server.dict -- data/linux/processed-challenges/Multicast_Chat_Server/bin/Multicast_Chat_Server\n'
p23
I9
tp24
a(I1440
S'start_time     : 1499830588\nlast_update    : 1499832030\nfuzzer_pid     : 2722\ncycles_done    : 0\nexecs_done     : 1512661\nexecs_per_sec  : 979.05\npaths_total    : 126\npaths_favored  : 32\npaths_found    : 125\npaths_imported : 0\nmax_depth      : 6\ncur_path       : 89\npending_favs   : 11\npending_total  : 94\nvariable_paths : 0\nbitmap_cvg     : 1.35%\nunique_crashes : 1\nunique_hangs   : 0\nlast_path      : 1499831986\nlast_crash     : 1499831496\nlast_hang      : 0\nexec_timeout   : 20\nafl_banner     : fuzzer-master\nafl_version    : 1.85b\ncommand_line   : /home/skaramcheti/.virtualenvs/afl/bin/afl-unix/afl-fuzz -i /dev/shm/work/Multicast_Chat_Server/input -o /dev/shm/work/Multicast_Chat_Server/sync -m 4G -Q -M fuzzer-master -x /dev/shm/work/Multicast_Chat_Server/Multicast_Chat_Server.dict -- data/linux/processed-challenges/Multicast_Chat_Server/bin/Multicast_Chat_Server\n'
p25
I8
tp26
a(I1560
S'start_time     : 1499830588\nlast_update    : 1499832150\nfuzzer_pid     : 2722\ncycles_done    : 0\nexecs_done     : 1629152\nexecs_per_sec  : 1006.35\npaths_total    : 132\npaths_favored  : 32\npaths_found    : 131\npaths_imported : 0\nmax_depth      : 6\ncur_path       : 95\npending_favs   : 10\npending_total  : 99\nvariable_paths : 0\nbitmap_cvg     : 1.36%\nunique_crashes : 1\nunique_hangs   : 0\nlast_path      : 1499832142\nlast_crash     : 1499831496\nlast_hang      : 0\nexec_timeout   : 20\nafl_banner     : fuzzer-master\nafl_version    : 1.85b\ncommand_line   : /home/skaramcheti/.virtualenvs/afl/bin/afl-unix/afl-fuzz -i /dev/shm/work/Multicast_Chat_Server/input -o /dev/shm/work/Multicast_Chat_Server/sync -m 4G -Q -M fuzzer-master -x /dev/shm/work/Multicast_Chat_Server/Multicast_Chat_Server.dict -- data/linux/processed-challenges/Multicast_Chat_Server/bin/Multicast_Chat_Server\n'
p27
I6
tp28
a(I1680
S'start_time     : 1499830588\nlast_update    : 1499832270\nfuzzer_pid     : 2722\ncycles_done    : 0\nexecs_done     : 1744153\nexecs_per_sec  : 905.06\npaths_total    : 133\npaths_favored  : 32\npaths_found    : 132\npaths_imported : 0\nmax_depth      : 6\ncur_path       : 106\npending_favs   : 8\npending_total  : 98\nvariable_paths : 0\nbitmap_cvg     : 1.36%\nunique_crashes : 1\nunique_hangs   : 0\nlast_path      : 1499832265\nlast_crash     : 1499831496\nlast_hang      : 0\nexec_timeout   : 20\nafl_banner     : fuzzer-master\nafl_version    : 1.85b\ncommand_line   : /home/skaramcheti/.virtualenvs/afl/bin/afl-unix/afl-fuzz -i /dev/shm/work/Multicast_Chat_Server/input -o /dev/shm/work/Multicast_Chat_Server/sync -m 4G -Q -M fuzzer-master -x /dev/shm/work/Multicast_Chat_Server/Multicast_Chat_Server.dict -- data/linux/processed-challenges/Multicast_Chat_Server/bin/Multicast_Chat_Server\n'
p29
I1
tp30
a(I1800
S'start_time     : 1499830588\nlast_update    : 1499832391\nfuzzer_pid     : 2722\ncycles_done    : 0\nexecs_done     : 1858866\nexecs_per_sec  : 979.34\npaths_total    : 137\npaths_favored  : 32\npaths_found    : 136\npaths_imported : 0\nmax_depth      : 6\ncur_path       : 106\npending_favs   : 8\npending_total  : 102\nvariable_paths : 0\nbitmap_cvg     : 1.36%\nunique_crashes : 1\nunique_hangs   : 0\nlast_path      : 1499832339\nlast_crash     : 1499831496\nlast_hang      : 0\nexec_timeout   : 20\nafl_banner     : fuzzer-master\nafl_version    : 1.85b\ncommand_line   : /home/skaramcheti/.virtualenvs/afl/bin/afl-unix/afl-fuzz -i /dev/shm/work/Multicast_Chat_Server/input -o /dev/shm/work/Multicast_Chat_Server/sync -m 4G -Q -M fuzzer-master -x /dev/shm/work/Multicast_Chat_Server/Multicast_Chat_Server.dict -- data/linux/processed-challenges/Multicast_Chat_Server/bin/Multicast_Chat_Server\n'
p31
I4
tp32
a(I1920
S'start_time     : 1499830588\nlast_update    : 1499832511\nfuzzer_pid     : 2722\ncycles_done    : 0\nexecs_done     : 1977305\nexecs_per_sec  : 1001.44\npaths_total    : 149\npaths_favored  : 33\npaths_found    : 148\npaths_imported : 0\nmax_depth      : 7\ncur_path       : 111\npending_favs   : 8\npending_total  : 112\nvariable_paths : 0\nbitmap_cvg     : 1.44%\nunique_crashes : 2\nunique_hangs   : 0\nlast_path      : 1499832499\nlast_crash     : 1499832472\nlast_hang      : 0\nexec_timeout   : 20\nafl_banner     : fuzzer-master\nafl_version    : 1.85b\ncommand_line   : /home/skaramcheti/.virtualenvs/afl/bin/afl-unix/afl-fuzz -i /dev/shm/work/Multicast_Chat_Server/input -o /dev/shm/work/Multicast_Chat_Server/sync -m 4G -Q -M fuzzer-master -x /dev/shm/work/Multicast_Chat_Server/Multicast_Chat_Server.dict -- data/linux/processed-challenges/Multicast_Chat_Server/bin/Multicast_Chat_Server\n'
p33
I12
tp34
a(I2040
S'start_time     : 1499830588\nlast_update    : 1499832631\nfuzzer_pid     : 2722\ncycles_done    : 0\nexecs_done     : 2096872\nexecs_per_sec  : 885.26\npaths_total    : 158\npaths_favored  : 39\npaths_found    : 157\npaths_imported : 0\nmax_depth      : 7\ncur_path       : 132\npending_favs   : 13\npending_total  : 118\nvariable_paths : 0\nbitmap_cvg     : 1.49%\nunique_crashes : 2\nunique_hangs   : 0\nlast_path      : 1499832610\nlast_crash     : 1499832472\nlast_hang      : 0\nexec_timeout   : 20\nafl_banner     : fuzzer-master\nafl_version    : 1.85b\ncommand_line   : /home/skaramcheti/.virtualenvs/afl/bin/afl-unix/afl-fuzz -i /dev/shm/work/Multicast_Chat_Server/input -o /dev/shm/work/Multicast_Chat_Server/sync -m 4G -Q -M fuzzer-master -x /dev/shm/work/Multicast_Chat_Server/Multicast_Chat_Server.dict -- data/linux/processed-challenges/Multicast_Chat_Server/bin/Multicast_Chat_Server\n'
p35
I9
tp36
a(I2160
S'start_time     : 1499830588\nlast_update    : 1499832751\nfuzzer_pid     : 2722\ncycles_done    : 0\nexecs_done     : 2206212\nexecs_per_sec  : 901.31\npaths_total    : 161\npaths_favored  : 39\npaths_found    : 160\npaths_imported : 0\nmax_depth      : 7\ncur_path       : 134\npending_favs   : 12\npending_total  : 120\nvariable_paths : 0\nbitmap_cvg     : 1.50%\nunique_crashes : 4\nunique_hangs   : 0\nlast_path      : 1499832682\nlast_crash     : 1499832696\nlast_hang      : 0\nexec_timeout   : 20\nafl_banner     : fuzzer-master\nafl_version    : 1.85b\ncommand_line   : /home/skaramcheti/.virtualenvs/afl/bin/afl-unix/afl-fuzz -i /dev/shm/work/Multicast_Chat_Server/input -o /dev/shm/work/Multicast_Chat_Server/sync -m 4G -Q -M fuzzer-master -x /dev/shm/work/Multicast_Chat_Server/Multicast_Chat_Server.dict -- data/linux/processed-challenges/Multicast_Chat_Server/bin/Multicast_Chat_Server\n'
p37
I3
tp38
a(I2280
S'start_time     : 1499830588\nlast_update    : 1499832871\nfuzzer_pid     : 2722\ncycles_done    : 0\nexecs_done     : 2305900\nexecs_per_sec  : 830.35\npaths_total    : 164\npaths_favored  : 41\npaths_found    : 163\npaths_imported : 0\nmax_depth      : 8\ncur_path       : 146\npending_favs   : 11\npending_total  : 120\nvariable_paths : 0\nbitmap_cvg     : 1.50%\nunique_crashes : 4\nunique_hangs   : 0\nlast_path      : 1499832786\nlast_crash     : 1499832696\nlast_hang      : 0\nexec_timeout   : 20\nafl_banner     : fuzzer-master\nafl_version    : 1.85b\ncommand_line   : /home/skaramcheti/.virtualenvs/afl/bin/afl-unix/afl-fuzz -i /dev/shm/work/Multicast_Chat_Server/input -o /dev/shm/work/Multicast_Chat_Server/sync -m 4G -Q -M fuzzer-master -x /dev/shm/work/Multicast_Chat_Server/Multicast_Chat_Server.dict -- data/linux/processed-challenges/Multicast_Chat_Server/bin/Multicast_Chat_Server\n'
p39
I3
tp40
a(I2400
S'start_time     : 1499830588\nlast_update    : 1499832991\nfuzzer_pid     : 2722\ncycles_done    : 0\nexecs_done     : 2422951\nexecs_per_sec  : 1008.60\npaths_total    : 171\npaths_favored  : 42\npaths_found    : 170\npaths_imported : 0\nmax_depth      : 8\ncur_path       : 150\npending_favs   : 11\npending_total  : 125\nvariable_paths : 0\nbitmap_cvg     : 1.51%\nunique_crashes : 5\nunique_hangs   : 0\nlast_path      : 1499832965\nlast_crash     : 1499832875\nlast_hang      : 0\nexec_timeout   : 20\nafl_banner     : fuzzer-master\nafl_version    : 1.85b\ncommand_line   : /home/skaramcheti/.virtualenvs/afl/bin/afl-unix/afl-fuzz -i /dev/shm/work/Multicast_Chat_Server/input -o /dev/shm/work/Multicast_Chat_Server/sync -m 4G -Q -M fuzzer-master -x /dev/shm/work/Multicast_Chat_Server/Multicast_Chat_Server.dict -- data/linux/processed-challenges/Multicast_Chat_Server/bin/Multicast_Chat_Server\n'
p41
I7
tp42
a(I2520
S'start_time     : 1499830588\nlast_update    : 1499833112\nfuzzer_pid     : 2722\ncycles_done    : 0\nexecs_done     : 2538982\nexecs_per_sec  : 951.12\npaths_total    : 182\npaths_favored  : 44\npaths_found    : 181\npaths_imported : 0\nmax_depth      : 8\ncur_path       : 152\npending_favs   : 13\npending_total  : 135\nvariable_paths : 0\nbitmap_cvg     : 1.52%\nunique_crashes : 5\nunique_hangs   : 0\nlast_path      : 1499833093\nlast_crash     : 1499832875\nlast_hang      : 0\nexec_timeout   : 20\nafl_banner     : fuzzer-master\nafl_version    : 1.85b\ncommand_line   : /home/skaramcheti/.virtualenvs/afl/bin/afl-unix/afl-fuzz -i /dev/shm/work/Multicast_Chat_Server/input -o /dev/shm/work/Multicast_Chat_Server/sync -m 4G -Q -M fuzzer-master -x /dev/shm/work/Multicast_Chat_Server/Multicast_Chat_Server.dict -- data/linux/processed-challenges/Multicast_Chat_Server/bin/Multicast_Chat_Server\n'
p43
I11
tp44
a(I2640
S'start_time     : 1499830588\nlast_update    : 1499833232\nfuzzer_pid     : 2722\ncycles_done    : 0\nexecs_done     : 2653322\nexecs_per_sec  : 973.53\npaths_total    : 186\npaths_favored  : 47\npaths_found    : 185\npaths_imported : 0\nmax_depth      : 8\ncur_path       : 153\npending_favs   : 17\npending_total  : 138\nvariable_paths : 0\nbitmap_cvg     : 1.53%\nunique_crashes : 5\nunique_hangs   : 0\nlast_path      : 1499833207\nlast_crash     : 1499832875\nlast_hang      : 0\nexec_timeout   : 20\nafl_banner     : fuzzer-master\nafl_version    : 1.85b\ncommand_line   : /home/skaramcheti/.virtualenvs/afl/bin/afl-unix/afl-fuzz -i /dev/shm/work/Multicast_Chat_Server/input -o /dev/shm/work/Multicast_Chat_Server/sync -m 4G -Q -M fuzzer-master -x /dev/shm/work/Multicast_Chat_Server/Multicast_Chat_Server.dict -- data/linux/processed-challenges/Multicast_Chat_Server/bin/Multicast_Chat_Server\n'
p45
I4
tp46
a(I2760
S'start_time     : 1499830588\nlast_update    : 1499833352\nfuzzer_pid     : 2722\ncycles_done    : 0\nexecs_done     : 2762950\nexecs_per_sec  : 811.63\npaths_total    : 189\npaths_favored  : 49\npaths_found    : 188\npaths_imported : 0\nmax_depth      : 8\ncur_path       : 155\npending_favs   : 17\npending_total  : 139\nvariable_paths : 0\nbitmap_cvg     : 1.54%\nunique_crashes : 5\nunique_hangs   : 0\nlast_path      : 1499833293\nlast_crash     : 1499832875\nlast_hang      : 0\nexec_timeout   : 20\nafl_banner     : fuzzer-master\nafl_version    : 1.85b\ncommand_line   : /home/skaramcheti/.virtualenvs/afl/bin/afl-unix/afl-fuzz -i /dev/shm/work/Multicast_Chat_Server/input -o /dev/shm/work/Multicast_Chat_Server/sync -m 4G -Q -M fuzzer-master -x /dev/shm/work/Multicast_Chat_Server/Multicast_Chat_Server.dict -- data/linux/processed-challenges/Multicast_Chat_Server/bin/Multicast_Chat_Server\n'
p47
I3
tp48
a(I2880
S'start_time     : 1499830588\nlast_update    : 1499833472\nfuzzer_pid     : 2722\ncycles_done    : 0\nexecs_done     : 2880455\nexecs_per_sec  : 972.00\npaths_total    : 194\npaths_favored  : 49\npaths_found    : 193\npaths_imported : 0\nmax_depth      : 8\ncur_path       : 155\npending_favs   : 17\npending_total  : 144\nvariable_paths : 0\nbitmap_cvg     : 1.55%\nunique_crashes : 5\nunique_hangs   : 0\nlast_path      : 1499833472\nlast_crash     : 1499832875\nlast_hang      : 0\nexec_timeout   : 20\nafl_banner     : fuzzer-master\nafl_version    : 1.85b\ncommand_line   : /home/skaramcheti/.virtualenvs/afl/bin/afl-unix/afl-fuzz -i /dev/shm/work/Multicast_Chat_Server/input -o /dev/shm/work/Multicast_Chat_Server/sync -m 4G -Q -M fuzzer-master -x /dev/shm/work/Multicast_Chat_Server/Multicast_Chat_Server.dict -- data/linux/processed-challenges/Multicast_Chat_Server/bin/Multicast_Chat_Server\n'
p49
I5
tp50
a(I3000
S'start_time     : 1499830588\nlast_update    : 1499833593\nfuzzer_pid     : 2722\ncycles_done    : 0\nexecs_done     : 2980460\nexecs_per_sec  : 928.19\npaths_total    : 197\npaths_favored  : 54\npaths_found    : 196\npaths_imported : 0\nmax_depth      : 8\ncur_path       : 161\npending_favs   : 20\npending_total  : 145\nvariable_paths : 0\nbitmap_cvg     : 1.55%\nunique_crashes : 5\nunique_hangs   : 0\nlast_path      : 1499833511\nlast_crash     : 1499832875\nlast_hang      : 0\nexec_timeout   : 20\nafl_banner     : fuzzer-master\nafl_version    : 1.85b\ncommand_line   : /home/skaramcheti/.virtualenvs/afl/bin/afl-unix/afl-fuzz -i /dev/shm/work/Multicast_Chat_Server/input -o /dev/shm/work/Multicast_Chat_Server/sync -m 4G -Q -M fuzzer-master -x /dev/shm/work/Multicast_Chat_Server/Multicast_Chat_Server.dict -- data/linux/processed-challenges/Multicast_Chat_Server/bin/Multicast_Chat_Server\n'
p51
I3
tp52
a(I3120
S'start_time     : 1499830588\nlast_update    : 1499833713\nfuzzer_pid     : 2722\ncycles_done    : 0\nexecs_done     : 3098946\nexecs_per_sec  : 973.98\npaths_total    : 199\npaths_favored  : 54\npaths_found    : 198\npaths_imported : 0\nmax_depth      : 9\ncur_path       : 165\npending_favs   : 18\npending_total  : 145\nvariable_paths : 0\nbitmap_cvg     : 1.55%\nunique_crashes : 6\nunique_hangs   : 0\nlast_path      : 1499833644\nlast_crash     : 1499833643\nlast_hang      : 0\nexec_timeout   : 20\nafl_banner     : fuzzer-master\nafl_version    : 1.85b\ncommand_line   : /home/skaramcheti/.virtualenvs/afl/bin/afl-unix/afl-fuzz -i /dev/shm/work/Multicast_Chat_Server/input -o /dev/shm/work/Multicast_Chat_Server/sync -m 4G -Q -M fuzzer-master -x /dev/shm/work/Multicast_Chat_Server/Multicast_Chat_Server.dict -- data/linux/processed-challenges/Multicast_Chat_Server/bin/Multicast_Chat_Server\n'
p53
I2
tp54
a(I3240
S'start_time     : 1499830588\nlast_update    : 1499833833\nfuzzer_pid     : 2722\ncycles_done    : 0\nexecs_done     : 3208525\nexecs_per_sec  : 969.27\npaths_total    : 199\npaths_favored  : 54\npaths_found    : 198\npaths_imported : 0\nmax_depth      : 9\ncur_path       : 173\npending_favs   : 15\npending_total  : 142\nvariable_paths : 0\nbitmap_cvg     : 1.55%\nunique_crashes : 6\nunique_hangs   : 0\nlast_path      : 1499833644\nlast_crash     : 1499833643\nlast_hang      : 0\nexec_timeout   : 20\nafl_banner     : fuzzer-master\nafl_version    : 1.85b\ncommand_line   : /home/skaramcheti/.virtualenvs/afl/bin/afl-unix/afl-fuzz -i /dev/shm/work/Multicast_Chat_Server/input -o /dev/shm/work/Multicast_Chat_Server/sync -m 4G -Q -M fuzzer-master -x /dev/shm/work/Multicast_Chat_Server/Multicast_Chat_Server.dict -- data/linux/processed-challenges/Multicast_Chat_Server/bin/Multicast_Chat_Server\n'
p55
I0
tp56
a(I3360
S'start_time     : 1499830588\nlast_update    : 1499833953\nfuzzer_pid     : 2722\ncycles_done    : 0\nexecs_done     : 3316925\nexecs_per_sec  : 903.35\npaths_total    : 205\npaths_favored  : 54\npaths_found    : 204\npaths_imported : 0\nmax_depth      : 9\ncur_path       : 175\npending_favs   : 13\npending_total  : 146\nvariable_paths : 0\nbitmap_cvg     : 1.55%\nunique_crashes : 6\nunique_hangs   : 0\nlast_path      : 1499833953\nlast_crash     : 1499833643\nlast_hang      : 0\nexec_timeout   : 20\nafl_banner     : fuzzer-master\nafl_version    : 1.85b\ncommand_line   : /home/skaramcheti/.virtualenvs/afl/bin/afl-unix/afl-fuzz -i /dev/shm/work/Multicast_Chat_Server/input -o /dev/shm/work/Multicast_Chat_Server/sync -m 4G -Q -M fuzzer-master -x /dev/shm/work/Multicast_Chat_Server/Multicast_Chat_Server.dict -- data/linux/processed-challenges/Multicast_Chat_Server/bin/Multicast_Chat_Server\n'
p57
I6
tp58
a(I3480
S'start_time     : 1499830588\nlast_update    : 1499834074\nfuzzer_pid     : 2722\ncycles_done    : 0\nexecs_done     : 3419444\nexecs_per_sec  : 835.33\npaths_total    : 208\npaths_favored  : 54\npaths_found    : 207\npaths_imported : 0\nmax_depth      : 9\ncur_path       : 177\npending_favs   : 13\npending_total  : 148\nvariable_paths : 0\nbitmap_cvg     : 1.55%\nunique_crashes : 6\nunique_hangs   : 0\nlast_path      : 1499834001\nlast_crash     : 1499833643\nlast_hang      : 0\nexec_timeout   : 20\nafl_banner     : fuzzer-master\nafl_version    : 1.85b\ncommand_line   : /home/skaramcheti/.virtualenvs/afl/bin/afl-unix/afl-fuzz -i /dev/shm/work/Multicast_Chat_Server/input -o /dev/shm/work/Multicast_Chat_Server/sync -m 4G -Q -M fuzzer-master -x /dev/shm/work/Multicast_Chat_Server/Multicast_Chat_Server.dict -- data/linux/processed-challenges/Multicast_Chat_Server/bin/Multicast_Chat_Server\n'
p59
I3
tp60
a(I3600
S'start_time     : 1499830588\nlast_update    : 1499834194\nfuzzer_pid     : 2722\ncycles_done    : 0\nexecs_done     : 3524107\nexecs_per_sec  : 869.42\npaths_total    : 212\npaths_favored  : 54\npaths_found    : 211\npaths_imported : 0\nmax_depth      : 9\ncur_path       : 177\npending_favs   : 13\npending_total  : 152\nvariable_paths : 0\nbitmap_cvg     : 1.55%\nunique_crashes : 6\nunique_hangs   : 0\nlast_path      : 1499834099\nlast_crash     : 1499833643\nlast_hang      : 0\nexec_timeout   : 20\nafl_banner     : fuzzer-master\nafl_version    : 1.85b\ncommand_line   : /home/skaramcheti/.virtualenvs/afl/bin/afl-unix/afl-fuzz -i /dev/shm/work/Multicast_Chat_Server/input -o /dev/shm/work/Multicast_Chat_Server/sync -m 4G -Q -M fuzzer-master -x /dev/shm/work/Multicast_Chat_Server/Multicast_Chat_Server.dict -- data/linux/processed-challenges/Multicast_Chat_Server/bin/Multicast_Chat_Server\n'
p61
I4
tp62
a(I3720
S'start_time     : 1499830588\nlast_update    : 1499834314\nfuzzer_pid     : 2722\ncycles_done    : 0\nexecs_done     : 3626720\nexecs_per_sec  : 895.22\npaths_total    : 214\npaths_favored  : 54\npaths_found    : 213\npaths_imported : 0\nmax_depth      : 9\ncur_path       : 182\npending_favs   : 12\npending_total  : 153\nvariable_paths : 0\nbitmap_cvg     : 1.55%\nunique_crashes : 6\nunique_hangs   : 0\nlast_path      : 1499834288\nlast_crash     : 1499833643\nlast_hang      : 0\nexec_timeout   : 20\nafl_banner     : fuzzer-master\nafl_version    : 1.85b\ncommand_line   : /home/skaramcheti/.virtualenvs/afl/bin/afl-unix/afl-fuzz -i /dev/shm/work/Multicast_Chat_Server/input -o /dev/shm/work/Multicast_Chat_Server/sync -m 4G -Q -M fuzzer-master -x /dev/shm/work/Multicast_Chat_Server/Multicast_Chat_Server.dict -- data/linux/processed-challenges/Multicast_Chat_Server/bin/Multicast_Chat_Server\n'
p63
I2
tp64
a(I3840
S'start_time     : 1499830588\nlast_update    : 1499834435\nfuzzer_pid     : 2722\ncycles_done    : 0\nexecs_done     : 3743013\nexecs_per_sec  : 1029.72\npaths_total    : 217\npaths_favored  : 54\npaths_found    : 216\npaths_imported : 0\nmax_depth      : 9\ncur_path       : 184\npending_favs   : 11\npending_total  : 155\nvariable_paths : 0\nbitmap_cvg     : 1.55%\nunique_crashes : 6\nunique_hangs   : 0\nlast_path      : 1499834412\nlast_crash     : 1499833643\nlast_hang      : 0\nexec_timeout   : 20\nafl_banner     : fuzzer-master\nafl_version    : 1.85b\ncommand_line   : /home/skaramcheti/.virtualenvs/afl/bin/afl-unix/afl-fuzz -i /dev/shm/work/Multicast_Chat_Server/input -o /dev/shm/work/Multicast_Chat_Server/sync -m 4G -Q -M fuzzer-master -x /dev/shm/work/Multicast_Chat_Server/Multicast_Chat_Server.dict -- data/linux/processed-challenges/Multicast_Chat_Server/bin/Multicast_Chat_Server\n'
p65
I3
tp66
a(I3960
S'start_time     : 1499830588\nlast_update    : 1499834555\nfuzzer_pid     : 2722\ncycles_done    : 0\nexecs_done     : 3856611\nexecs_per_sec  : 792.86\npaths_total    : 217\npaths_favored  : 54\npaths_found    : 216\npaths_imported : 0\nmax_depth      : 9\ncur_path       : 186\npending_favs   : 10\npending_total  : 154\nvariable_paths : 0\nbitmap_cvg     : 1.55%\nunique_crashes : 6\nunique_hangs   : 0\nlast_path      : 1499834412\nlast_crash     : 1499833643\nlast_hang      : 0\nexec_timeout   : 20\nafl_banner     : fuzzer-master\nafl_version    : 1.85b\ncommand_line   : /home/skaramcheti/.virtualenvs/afl/bin/afl-unix/afl-fuzz -i /dev/shm/work/Multicast_Chat_Server/input -o /dev/shm/work/Multicast_Chat_Server/sync -m 4G -Q -M fuzzer-master -x /dev/shm/work/Multicast_Chat_Server/Multicast_Chat_Server.dict -- data/linux/processed-challenges/Multicast_Chat_Server/bin/Multicast_Chat_Server\n'
p67
I0
tp68
a(I4080
S'start_time     : 1499830588\nlast_update    : 1499834615\nfuzzer_pid     : 2722\ncycles_done    : 0\nexecs_done     : 3908985\nexecs_per_sec  : 867.54\npaths_total    : 221\npaths_favored  : 54\npaths_found    : 220\npaths_imported : 0\nmax_depth      : 9\ncur_path       : 186\npending_favs   : 10\npending_total  : 158\nvariable_paths : 0\nbitmap_cvg     : 1.55%\nunique_crashes : 6\nunique_hangs   : 0\nlast_path      : 1499834600\nlast_crash     : 1499833643\nlast_hang      : 0\nexec_timeout   : 20\nafl_banner     : fuzzer-master\nafl_version    : 1.85b\ncommand_line   : /home/skaramcheti/.virtualenvs/afl/bin/afl-unix/afl-fuzz -i /dev/shm/work/Multicast_Chat_Server/input -o /dev/shm/work/Multicast_Chat_Server/sync -m 4G -Q -M fuzzer-master -x /dev/shm/work/Multicast_Chat_Server/Multicast_Chat_Server.dict -- data/linux/processed-challenges/Multicast_Chat_Server/bin/Multicast_Chat_Server\n'
p69
I5
tp70
a(I4200
S'start_time     : 1499830588\nlast_update    : 1499834735\nfuzzer_pid     : 2722\ncycles_done    : 0\nexecs_done     : 4014185\nexecs_per_sec  : 918.14\npaths_total    : 225\npaths_favored  : 55\npaths_found    : 224\npaths_imported : 0\nmax_depth      : 9\ncur_path       : 189\npending_favs   : 10\npending_total  : 161\nvariable_paths : 0\nbitmap_cvg     : 1.61%\nunique_crashes : 7\nunique_hangs   : 0\nlast_path      : 1499834715\nlast_crash     : 1499834652\nlast_hang      : 0\nexec_timeout   : 20\nafl_banner     : fuzzer-master\nafl_version    : 1.85b\ncommand_line   : /home/skaramcheti/.virtualenvs/afl/bin/afl-unix/afl-fuzz -i /dev/shm/work/Multicast_Chat_Server/input -o /dev/shm/work/Multicast_Chat_Server/sync -m 4G -Q -M fuzzer-master -x /dev/shm/work/Multicast_Chat_Server/Multicast_Chat_Server.dict -- data/linux/processed-challenges/Multicast_Chat_Server/bin/Multicast_Chat_Server\n'
p71
I5
tp72
a(I4320
S'start_time     : 1499830588\nlast_update    : 1499834855\nfuzzer_pid     : 2722\ncycles_done    : 0\nexecs_done     : 4123841\nexecs_per_sec  : 769.85\npaths_total    : 227\npaths_favored  : 56\npaths_found    : 226\npaths_imported : 0\nmax_depth      : 9\ncur_path       : 190\npending_favs   : 11\npending_total  : 162\nvariable_paths : 0\nbitmap_cvg     : 1.62%\nunique_crashes : 7\nunique_hangs   : 0\nlast_path      : 1499834781\nlast_crash     : 1499834652\nlast_hang      : 0\nexec_timeout   : 20\nafl_banner     : fuzzer-master\nafl_version    : 1.85b\ncommand_line   : /home/skaramcheti/.virtualenvs/afl/bin/afl-unix/afl-fuzz -i /dev/shm/work/Multicast_Chat_Server/input -o /dev/shm/work/Multicast_Chat_Server/sync -m 4G -Q -M fuzzer-master -x /dev/shm/work/Multicast_Chat_Server/Multicast_Chat_Server.dict -- data/linux/processed-challenges/Multicast_Chat_Server/bin/Multicast_Chat_Server\n'
p73
I1
tp74
a(I4440
S'start_time     : 1499830588\nlast_update    : 1499834976\nfuzzer_pid     : 2722\ncycles_done    : 0\nexecs_done     : 4230797\nexecs_per_sec  : 921.66\npaths_total    : 229\npaths_favored  : 54\npaths_found    : 228\npaths_imported : 0\nmax_depth      : 9\ncur_path       : 191\npending_favs   : 11\npending_total  : 163\nvariable_paths : 0\nbitmap_cvg     : 1.66%\nunique_crashes : 7\nunique_hangs   : 2\nlast_path      : 1499834969\nlast_crash     : 1499834652\nlast_hang      : 1499834860\nexec_timeout   : 20\nafl_banner     : fuzzer-master\nafl_version    : 1.85b\ncommand_line   : /home/skaramcheti/.virtualenvs/afl/bin/afl-unix/afl-fuzz -i /dev/shm/work/Multicast_Chat_Server/input -o /dev/shm/work/Multicast_Chat_Server/sync -m 4G -Q -M fuzzer-master -x /dev/shm/work/Multicast_Chat_Server/Multicast_Chat_Server.dict -- data/linux/processed-challenges/Multicast_Chat_Server/bin/Multicast_Chat_Server\n'
p75
I1
tp76
a(I4560
S'start_time     : 1499830588\nlast_update    : 1499835096\nfuzzer_pid     : 2722\ncycles_done    : 0\nexecs_done     : 4339164\nexecs_per_sec  : 1020.92\npaths_total    : 231\npaths_favored  : 54\npaths_found    : 230\npaths_imported : 0\nmax_depth      : 9\ncur_path       : 193\npending_favs   : 9\npending_total  : 163\nvariable_paths : 0\nbitmap_cvg     : 1.66%\nunique_crashes : 7\nunique_hangs   : 2\nlast_path      : 1499835095\nlast_crash     : 1499834652\nlast_hang      : 1499834860\nexec_timeout   : 20\nafl_banner     : fuzzer-master\nafl_version    : 1.85b\ncommand_line   : /home/skaramcheti/.virtualenvs/afl/bin/afl-unix/afl-fuzz -i /dev/shm/work/Multicast_Chat_Server/input -o /dev/shm/work/Multicast_Chat_Server/sync -m 4G -Q -M fuzzer-master -x /dev/shm/work/Multicast_Chat_Server/Multicast_Chat_Server.dict -- data/linux/processed-challenges/Multicast_Chat_Server/bin/Multicast_Chat_Server\n'
p77
I2
tp78
a(I4680
S'start_time     : 1499830588\nlast_update    : 1499835216\nfuzzer_pid     : 2722\ncycles_done    : 0\nexecs_done     : 4443149\nexecs_per_sec  : 859.39\npaths_total    : 234\npaths_favored  : 52\npaths_found    : 233\npaths_imported : 0\nmax_depth      : 10\ncur_path       : 200\npending_favs   : 9\npending_total  : 165\nvariable_paths : 0\nbitmap_cvg     : 1.66%\nunique_crashes : 7\nunique_hangs   : 3\nlast_path      : 1499835199\nlast_crash     : 1499834652\nlast_hang      : 1499835183\nexec_timeout   : 20\nafl_banner     : fuzzer-master\nafl_version    : 1.85b\ncommand_line   : /home/skaramcheti/.virtualenvs/afl/bin/afl-unix/afl-fuzz -i /dev/shm/work/Multicast_Chat_Server/input -o /dev/shm/work/Multicast_Chat_Server/sync -m 4G -Q -M fuzzer-master -x /dev/shm/work/Multicast_Chat_Server/Multicast_Chat_Server.dict -- data/linux/processed-challenges/Multicast_Chat_Server/bin/Multicast_Chat_Server\n'
p79
I7
tp80
a(I4800
S'start_time     : 1499830588\nlast_update    : 1499835336\nfuzzer_pid     : 2722\ncycles_done    : 0\nexecs_done     : 4535288\nexecs_per_sec  : 815.01\npaths_total    : 238\npaths_favored  : 51\npaths_found    : 237\npaths_imported : 0\nmax_depth      : 10\ncur_path       : 210\npending_favs   : 10\npending_total  : 168\nvariable_paths : 0\nbitmap_cvg     : 1.66%\nunique_crashes : 8\nunique_hangs   : 3\nlast_path      : 1499835251\nlast_crash     : 1499835236\nlast_hang      : 1499835183\nexec_timeout   : 20\nafl_banner     : fuzzer-master\nafl_version    : 1.85b\ncommand_line   : /home/skaramcheti/.virtualenvs/afl/bin/afl-unix/afl-fuzz -i /dev/shm/work/Multicast_Chat_Server/input -o /dev/shm/work/Multicast_Chat_Server/sync -m 4G -Q -M fuzzer-master -x /dev/shm/work/Multicast_Chat_Server/Multicast_Chat_Server.dict -- data/linux/processed-challenges/Multicast_Chat_Server/bin/Multicast_Chat_Server\n'
p81
I3
tp82
a(I4920
S'start_time     : 1499830588\nlast_update    : 1499835457\nfuzzer_pid     : 2722\ncycles_done    : 0\nexecs_done     : 4640545\nexecs_per_sec  : 944.74\npaths_total    : 248\npaths_favored  : 51\npaths_found    : 247\npaths_imported : 0\nmax_depth      : 10\ncur_path       : 221\npending_favs   : 9\npending_total  : 177\nvariable_paths : 0\nbitmap_cvg     : 1.88%\nunique_crashes : 37\nunique_hangs   : 4\nlast_path      : 1499835430\nlast_crash     : 1499835451\nlast_hang      : 1499835354\nexec_timeout   : 20\nafl_banner     : fuzzer-master\nafl_version    : 1.85b\ncommand_line   : /home/skaramcheti/.virtualenvs/afl/bin/afl-unix/afl-fuzz -i /dev/shm/work/Multicast_Chat_Server/input -o /dev/shm/work/Multicast_Chat_Server/sync -m 4G -Q -M fuzzer-master -x /dev/shm/work/Multicast_Chat_Server/Multicast_Chat_Server.dict -- data/linux/processed-challenges/Multicast_Chat_Server/bin/Multicast_Chat_Server\n'
p83
I10
tp84
a(I5040
S'start_time     : 1499830588\nlast_update    : 1499835577\nfuzzer_pid     : 2722\ncycles_done    : 0\nexecs_done     : 4750302\nexecs_per_sec  : 775.39\npaths_total    : 252\npaths_favored  : 51\npaths_found    : 251\npaths_imported : 0\nmax_depth      : 10\ncur_path       : 226\npending_favs   : 11\npending_total  : 179\nvariable_paths : 0\nbitmap_cvg     : 1.88%\nunique_crashes : 44\nunique_hangs   : 4\nlast_path      : 1499835520\nlast_crash     : 1499835504\nlast_hang      : 1499835354\nexec_timeout   : 20\nafl_banner     : fuzzer-master\nafl_version    : 1.85b\ncommand_line   : /home/skaramcheti/.virtualenvs/afl/bin/afl-unix/afl-fuzz -i /dev/shm/work/Multicast_Chat_Server/input -o /dev/shm/work/Multicast_Chat_Server/sync -m 4G -Q -M fuzzer-master -x /dev/shm/work/Multicast_Chat_Server/Multicast_Chat_Server.dict -- data/linux/processed-challenges/Multicast_Chat_Server/bin/Multicast_Chat_Server\n'
p85
I1
tp86
a(I5160
S'start_time     : 1499830588\nlast_update    : 1499835697\nfuzzer_pid     : 2722\ncycles_done    : 0\nexecs_done     : 4850178\nexecs_per_sec  : 888.83\npaths_total    : 258\npaths_favored  : 51\npaths_found    : 257\npaths_imported : 0\nmax_depth      : 10\ncur_path       : 228\npending_favs   : 10\npending_total  : 184\nvariable_paths : 0\nbitmap_cvg     : 1.88%\nunique_crashes : 44\nunique_hangs   : 4\nlast_path      : 1499835692\nlast_crash     : 1499835504\nlast_hang      : 1499835354\nexec_timeout   : 20\nafl_banner     : fuzzer-master\nafl_version    : 1.85b\ncommand_line   : /home/skaramcheti/.virtualenvs/afl/bin/afl-unix/afl-fuzz -i /dev/shm/work/Multicast_Chat_Server/input -o /dev/shm/work/Multicast_Chat_Server/sync -m 4G -Q -M fuzzer-master -x /dev/shm/work/Multicast_Chat_Server/Multicast_Chat_Server.dict -- data/linux/processed-challenges/Multicast_Chat_Server/bin/Multicast_Chat_Server\n'
p87
I10
tp88
a(I5280
S'start_time     : 1499830588\nlast_update    : 1499835817\nfuzzer_pid     : 2722\ncycles_done    : 0\nexecs_done     : 4954159\nexecs_per_sec  : 600.68\npaths_total    : 262\npaths_favored  : 52\npaths_found    : 261\npaths_imported : 0\nmax_depth      : 10\ncur_path       : 232\npending_favs   : 9\npending_total  : 186\nvariable_paths : 0\nbitmap_cvg     : 1.88%\nunique_crashes : 46\nunique_hangs   : 4\nlast_path      : 1499835736\nlast_crash     : 1499835807\nlast_hang      : 1499835354\nexec_timeout   : 20\nafl_banner     : fuzzer-master\nafl_version    : 1.85b\ncommand_line   : /home/skaramcheti/.virtualenvs/afl/bin/afl-unix/afl-fuzz -i /dev/shm/work/Multicast_Chat_Server/input -o /dev/shm/work/Multicast_Chat_Server/sync -m 4G -Q -M fuzzer-master -x /dev/shm/work/Multicast_Chat_Server/Multicast_Chat_Server.dict -- data/linux/processed-challenges/Multicast_Chat_Server/bin/Multicast_Chat_Server\n'
p89
I0
tp90
a(I5400
S'start_time     : 1499830588\nlast_update    : 1499835937\nfuzzer_pid     : 2722\ncycles_done    : 0\nexecs_done     : 5036252\nexecs_per_sec  : 521.88\npaths_total    : 264\npaths_favored  : 54\npaths_found    : 263\npaths_imported : 0\nmax_depth      : 11\ncur_path       : 237\npending_favs   : 9\npending_total  : 186\nvariable_paths : 0\nbitmap_cvg     : 1.89%\nunique_crashes : 47\nunique_hangs   : 4\nlast_path      : 1499835877\nlast_crash     : 1499835900\nlast_hang      : 1499835354\nexec_timeout   : 20\nafl_banner     : fuzzer-master\nafl_version    : 1.85b\ncommand_line   : /home/skaramcheti/.virtualenvs/afl/bin/afl-unix/afl-fuzz -i /dev/shm/work/Multicast_Chat_Server/input -o /dev/shm/work/Multicast_Chat_Server/sync -m 4G -Q -M fuzzer-master -x /dev/shm/work/Multicast_Chat_Server/Multicast_Chat_Server.dict -- data/linux/processed-challenges/Multicast_Chat_Server/bin/Multicast_Chat_Server\n'
p91
I4
tp92
a(I5520
S'start_time     : 1499830588\nlast_update    : 1499836058\nfuzzer_pid     : 2722\ncycles_done    : 0\nexecs_done     : 5116445\nexecs_per_sec  : 709.35\npaths_total    : 267\npaths_favored  : 54\npaths_found    : 266\npaths_imported : 0\nmax_depth      : 11\ncur_path       : 237\npending_favs   : 9\npending_total  : 189\nvariable_paths : 0\nbitmap_cvg     : 1.89%\nunique_crashes : 48\nunique_hangs   : 4\nlast_path      : 1499836013\nlast_crash     : 1499835965\nlast_hang      : 1499835354\nexec_timeout   : 20\nafl_banner     : fuzzer-master\nafl_version    : 1.85b\ncommand_line   : /home/skaramcheti/.virtualenvs/afl/bin/afl-unix/afl-fuzz -i /dev/shm/work/Multicast_Chat_Server/input -o /dev/shm/work/Multicast_Chat_Server/sync -m 4G -Q -M fuzzer-master -x /dev/shm/work/Multicast_Chat_Server/Multicast_Chat_Server.dict -- data/linux/processed-challenges/Multicast_Chat_Server/bin/Multicast_Chat_Server\n'
p93
I2
tp94
a(I5640
S'start_time     : 1499830588\nlast_update    : 1499836178\nfuzzer_pid     : 2722\ncycles_done    : 0\nexecs_done     : 5171253\nexecs_per_sec  : 694.92\npaths_total    : 272\npaths_favored  : 54\npaths_found    : 271\npaths_imported : 0\nmax_depth      : 11\ncur_path       : 245\npending_favs   : 8\npending_total  : 193\nvariable_paths : 0\nbitmap_cvg     : 1.90%\nunique_crashes : 51\nunique_hangs   : 4\nlast_path      : 1499836175\nlast_crash     : 1499836169\nlast_hang      : 1499835354\nexec_timeout   : 20\nafl_banner     : fuzzer-master\nafl_version    : 1.85b\ncommand_line   : /home/skaramcheti/.virtualenvs/afl/bin/afl-unix/afl-fuzz -i /dev/shm/work/Multicast_Chat_Server/input -o /dev/shm/work/Multicast_Chat_Server/sync -m 4G -Q -M fuzzer-master -x /dev/shm/work/Multicast_Chat_Server/Multicast_Chat_Server.dict -- data/linux/processed-challenges/Multicast_Chat_Server/bin/Multicast_Chat_Server\n'
p95
I7
tp96
a(I5760
S'start_time     : 1499830588\nlast_update    : 1499836298\nfuzzer_pid     : 2722\ncycles_done    : 0\nexecs_done     : 5256894\nexecs_per_sec  : 706.02\npaths_total    : 278\npaths_favored  : 54\npaths_found    : 277\npaths_imported : 0\nmax_depth      : 11\ncur_path       : 245\npending_favs   : 8\npending_total  : 199\nvariable_paths : 0\nbitmap_cvg     : 1.91%\nunique_crashes : 56\nunique_hangs   : 4\nlast_path      : 1499836290\nlast_crash     : 1499836295\nlast_hang      : 1499835354\nexec_timeout   : 20\nafl_banner     : fuzzer-master\nafl_version    : 1.85b\ncommand_line   : /home/skaramcheti/.virtualenvs/afl/bin/afl-unix/afl-fuzz -i /dev/shm/work/Multicast_Chat_Server/input -o /dev/shm/work/Multicast_Chat_Server/sync -m 4G -Q -M fuzzer-master -x /dev/shm/work/Multicast_Chat_Server/Multicast_Chat_Server.dict -- data/linux/processed-challenges/Multicast_Chat_Server/bin/Multicast_Chat_Server\n'
p97
I11
tp98
a(I5880
S'start_time     : 1499830588\nlast_update    : 1499836418\nfuzzer_pid     : 2722\ncycles_done    : 0\nexecs_done     : 5361016\nexecs_per_sec  : 867.88\npaths_total    : 287\npaths_favored  : 67\npaths_found    : 286\npaths_imported : 0\nmax_depth      : 11\ncur_path       : 259\npending_favs   : 17\npending_total  : 206\nvariable_paths : 0\nbitmap_cvg     : 1.93%\nunique_crashes : 62\nunique_hangs   : 4\nlast_path      : 1499836400\nlast_crash     : 1499836361\nlast_hang      : 1499835354\nexec_timeout   : 20\nafl_banner     : fuzzer-master\nafl_version    : 1.85b\ncommand_line   : /home/skaramcheti/.virtualenvs/afl/bin/afl-unix/afl-fuzz -i /dev/shm/work/Multicast_Chat_Server/input -o /dev/shm/work/Multicast_Chat_Server/sync -m 4G -Q -M fuzzer-master -x /dev/shm/work/Multicast_Chat_Server/Multicast_Chat_Server.dict -- data/linux/processed-challenges/Multicast_Chat_Server/bin/Multicast_Chat_Server\n'
p99
I4
tp100
a(I6000
S'start_time     : 1499830588\nlast_update    : 1499836539\nfuzzer_pid     : 2722\ncycles_done    : 0\nexecs_done     : 5469156\nexecs_per_sec  : 599.44\npaths_total    : 291\npaths_favored  : 69\npaths_found    : 290\npaths_imported : 0\nmax_depth      : 12\ncur_path       : 265\npending_favs   : 17\npending_total  : 208\nvariable_paths : 0\nbitmap_cvg     : 1.93%\nunique_crashes : 62\nunique_hangs   : 4\nlast_path      : 1499836491\nlast_crash     : 1499836361\nlast_hang      : 1499835354\nexec_timeout   : 20\nafl_banner     : fuzzer-master\nafl_version    : 1.85b\ncommand_line   : /home/skaramcheti/.virtualenvs/afl/bin/afl-unix/afl-fuzz -i /dev/shm/work/Multicast_Chat_Server/input -o /dev/shm/work/Multicast_Chat_Server/sync -m 4G -Q -M fuzzer-master -x /dev/shm/work/Multicast_Chat_Server/Multicast_Chat_Server.dict -- data/linux/processed-challenges/Multicast_Chat_Server/bin/Multicast_Chat_Server\n'
p101
I2
tp102
a(I6120
S'start_time     : 1499830588\nlast_update    : 1499836659\nfuzzer_pid     : 2722\ncycles_done    : 0\nexecs_done     : 5551389\nexecs_per_sec  : 664.64\npaths_total    : 295\npaths_favored  : 69\npaths_found    : 294\npaths_imported : 0\nmax_depth      : 12\ncur_path       : 269\npending_favs   : 17\npending_total  : 211\nvariable_paths : 0\nbitmap_cvg     : 1.94%\nunique_crashes : 62\nunique_hangs   : 4\nlast_path      : 1499836641\nlast_crash     : 1499836361\nlast_hang      : 1499835354\nexec_timeout   : 20\nafl_banner     : fuzzer-master\nafl_version    : 1.85b\ncommand_line   : /home/skaramcheti/.virtualenvs/afl/bin/afl-unix/afl-fuzz -i /dev/shm/work/Multicast_Chat_Server/input -o /dev/shm/work/Multicast_Chat_Server/sync -m 4G -Q -M fuzzer-master -x /dev/shm/work/Multicast_Chat_Server/Multicast_Chat_Server.dict -- data/linux/processed-challenges/Multicast_Chat_Server/bin/Multicast_Chat_Server\n'
p103
I4
tp104
a(I6240
S'start_time     : 1499830588\nlast_update    : 1499836779\nfuzzer_pid     : 2722\ncycles_done    : 0\nexecs_done     : 5618995\nexecs_per_sec  : 142.47\npaths_total    : 296\npaths_favored  : 71\npaths_found    : 295\npaths_imported : 0\nmax_depth      : 12\ncur_path       : 271\npending_favs   : 19\npending_total  : 211\nvariable_paths : 0\nbitmap_cvg     : 1.94%\nunique_crashes : 64\nunique_hangs   : 4\nlast_path      : 1499836675\nlast_crash     : 1499836767\nlast_hang      : 1499835354\nexec_timeout   : 20\nafl_banner     : fuzzer-master\nafl_version    : 1.85b\ncommand_line   : /home/skaramcheti/.virtualenvs/afl/bin/afl-unix/afl-fuzz -i /dev/shm/work/Multicast_Chat_Server/input -o /dev/shm/work/Multicast_Chat_Server/sync -m 4G -Q -M fuzzer-master -x /dev/shm/work/Multicast_Chat_Server/Multicast_Chat_Server.dict -- data/linux/processed-challenges/Multicast_Chat_Server/bin/Multicast_Chat_Server\n'
p105
I2
tp106
a(I6360
S'start_time     : 1499830588\nlast_update    : 1499836899\nfuzzer_pid     : 2722\ncycles_done    : 0\nexecs_done     : 5680257\nexecs_per_sec  : 874.41\npaths_total    : 298\npaths_favored  : 72\npaths_found    : 297\npaths_imported : 0\nmax_depth      : 12\ncur_path       : 273\npending_favs   : 19\npending_total  : 212\nvariable_paths : 0\nbitmap_cvg     : 1.94%\nunique_crashes : 71\nunique_hangs   : 4\nlast_path      : 1499836830\nlast_crash     : 1499836878\nlast_hang      : 1499835354\nexec_timeout   : 20\nafl_banner     : fuzzer-master\nafl_version    : 1.85b\ncommand_line   : /home/skaramcheti/.virtualenvs/afl/bin/afl-unix/afl-fuzz -i /dev/shm/work/Multicast_Chat_Server/input -o /dev/shm/work/Multicast_Chat_Server/sync -m 4G -Q -M fuzzer-master -x /dev/shm/work/Multicast_Chat_Server/Multicast_Chat_Server.dict -- data/linux/processed-challenges/Multicast_Chat_Server/bin/Multicast_Chat_Server\n'
p107
I0
tp108
a(I6480
S'start_time     : 1499830588\nlast_update    : 1499837019\nfuzzer_pid     : 2722\ncycles_done    : 0\nexecs_done     : 5711033\nexecs_per_sec  : 530.33\npaths_total    : 299\npaths_favored  : 72\npaths_found    : 298\npaths_imported : 0\nmax_depth      : 12\ncur_path       : 275\npending_favs   : 18\npending_total  : 212\nvariable_paths : 0\nbitmap_cvg     : 1.94%\nunique_crashes : 73\nunique_hangs   : 4\nlast_path      : 1499836995\nlast_crash     : 1499837014\nlast_hang      : 1499835354\nexec_timeout   : 20\nafl_banner     : fuzzer-master\nafl_version    : 1.85b\ncommand_line   : /home/skaramcheti/.virtualenvs/afl/bin/afl-unix/afl-fuzz -i /dev/shm/work/Multicast_Chat_Server/input -o /dev/shm/work/Multicast_Chat_Server/sync -m 4G -Q -M fuzzer-master -x /dev/shm/work/Multicast_Chat_Server/Multicast_Chat_Server.dict -- data/linux/processed-challenges/Multicast_Chat_Server/bin/Multicast_Chat_Server\n'
p109
I3
tp110
a(I6600
S'start_time     : 1499830588\nlast_update    : 1499837139\nfuzzer_pid     : 2722\ncycles_done    : 0\nexecs_done     : 5766446\nexecs_per_sec  : 150.93\npaths_total    : 301\npaths_favored  : 73\npaths_found    : 300\npaths_imported : 0\nmax_depth      : 12\ncur_path       : 277\npending_favs   : 18\npending_total  : 212\nvariable_paths : 0\nbitmap_cvg     : 1.95%\nunique_crashes : 74\nunique_hangs   : 4\nlast_path      : 1499837030\nlast_crash     : 1499837050\nlast_hang      : 1499835354\nexec_timeout   : 20\nafl_banner     : fuzzer-master\nafl_version    : 1.85b\ncommand_line   : /home/skaramcheti/.virtualenvs/afl/bin/afl-unix/afl-fuzz -i /dev/shm/work/Multicast_Chat_Server/input -o /dev/shm/work/Multicast_Chat_Server/sync -m 4G -Q -M fuzzer-master -x /dev/shm/work/Multicast_Chat_Server/Multicast_Chat_Server.dict -- data/linux/processed-challenges/Multicast_Chat_Server/bin/Multicast_Chat_Server\n'
p111
I0
tp112
a(I6720
S'start_time     : 1499830588\nlast_update    : 1499837260\nfuzzer_pid     : 2722\ncycles_done    : 0\nexecs_done     : 5802544\nexecs_per_sec  : 490.12\npaths_total    : 303\npaths_favored  : 74\npaths_found    : 302\npaths_imported : 0\nmax_depth      : 12\ncur_path       : 278\npending_favs   : 18\npending_total  : 213\nvariable_paths : 0\nbitmap_cvg     : 1.95%\nunique_crashes : 76\nunique_hangs   : 4\nlast_path      : 1499837235\nlast_crash     : 1499837228\nlast_hang      : 1499835354\nexec_timeout   : 20\nafl_banner     : fuzzer-master\nafl_version    : 1.85b\ncommand_line   : /home/skaramcheti/.virtualenvs/afl/bin/afl-unix/afl-fuzz -i /dev/shm/work/Multicast_Chat_Server/input -o /dev/shm/work/Multicast_Chat_Server/sync -m 4G -Q -M fuzzer-master -x /dev/shm/work/Multicast_Chat_Server/Multicast_Chat_Server.dict -- data/linux/processed-challenges/Multicast_Chat_Server/bin/Multicast_Chat_Server\n'
p113
I2
tp114
a(I6840
S'start_time     : 1499830588\nlast_update    : 1499837380\nfuzzer_pid     : 2722\ncycles_done    : 0\nexecs_done     : 5903122\nexecs_per_sec  : 998.31\npaths_total    : 303\npaths_favored  : 75\npaths_found    : 302\npaths_imported : 0\nmax_depth      : 12\ncur_path       : 281\npending_favs   : 17\npending_total  : 211\nvariable_paths : 0\nbitmap_cvg     : 1.95%\nunique_crashes : 82\nunique_hangs   : 4\nlast_path      : 1499837235\nlast_crash     : 1499837376\nlast_hang      : 1499835354\nexec_timeout   : 20\nafl_banner     : fuzzer-master\nafl_version    : 1.85b\ncommand_line   : /home/skaramcheti/.virtualenvs/afl/bin/afl-unix/afl-fuzz -i /dev/shm/work/Multicast_Chat_Server/input -o /dev/shm/work/Multicast_Chat_Server/sync -m 4G -Q -M fuzzer-master -x /dev/shm/work/Multicast_Chat_Server/Multicast_Chat_Server.dict -- data/linux/processed-challenges/Multicast_Chat_Server/bin/Multicast_Chat_Server\n'
p115
I0
tp116
a(I6960
S'start_time     : 1499830588\nlast_update    : 1499837500\nfuzzer_pid     : 2722\ncycles_done    : 0\nexecs_done     : 6014896\nexecs_per_sec  : 987.40\npaths_total    : 307\npaths_favored  : 76\npaths_found    : 306\npaths_imported : 0\nmax_depth      : 12\ncur_path       : 285\npending_favs   : 15\npending_total  : 212\nvariable_paths : 0\nbitmap_cvg     : 1.96%\nunique_crashes : 84\nunique_hangs   : 4\nlast_path      : 1499837497\nlast_crash     : 1499837485\nlast_hang      : 1499835354\nexec_timeout   : 20\nafl_banner     : fuzzer-master\nafl_version    : 1.85b\ncommand_line   : /home/skaramcheti/.virtualenvs/afl/bin/afl-unix/afl-fuzz -i /dev/shm/work/Multicast_Chat_Server/input -o /dev/shm/work/Multicast_Chat_Server/sync -m 4G -Q -M fuzzer-master -x /dev/shm/work/Multicast_Chat_Server/Multicast_Chat_Server.dict -- data/linux/processed-challenges/Multicast_Chat_Server/bin/Multicast_Chat_Server\n'
p117
I5
tp118
a(I7080
S'start_time     : 1499830588\nlast_update    : 1499837620\nfuzzer_pid     : 2722\ncycles_done    : 0\nexecs_done     : 6131785\nexecs_per_sec  : 963.29\npaths_total    : 309\npaths_favored  : 76\npaths_found    : 308\npaths_imported : 0\nmax_depth      : 12\ncur_path       : 285\npending_favs   : 15\npending_total  : 214\nvariable_paths : 0\nbitmap_cvg     : 1.96%\nunique_crashes : 87\nunique_hangs   : 4\nlast_path      : 1499837575\nlast_crash     : 1499837510\nlast_hang      : 1499835354\nexec_timeout   : 20\nafl_banner     : fuzzer-master\nafl_version    : 1.85b\ncommand_line   : /home/skaramcheti/.virtualenvs/afl/bin/afl-unix/afl-fuzz -i /dev/shm/work/Multicast_Chat_Server/input -o /dev/shm/work/Multicast_Chat_Server/sync -m 4G -Q -M fuzzer-master -x /dev/shm/work/Multicast_Chat_Server/Multicast_Chat_Server.dict -- data/linux/processed-challenges/Multicast_Chat_Server/bin/Multicast_Chat_Server\n'
p119
I2
tp120
a(I7200
S'start_time     : 1499830588\nlast_update    : 1499837741\nfuzzer_pid     : 2722\ncycles_done    : 0\nexecs_done     : 6243489\nexecs_per_sec  : 1060.48\npaths_total    : 312\npaths_favored  : 78\npaths_found    : 311\npaths_imported : 0\nmax_depth      : 13\ncur_path       : 289\npending_favs   : 15\npending_total  : 215\nvariable_paths : 0\nbitmap_cvg     : 1.96%\nunique_crashes : 87\nunique_hangs   : 4\nlast_path      : 1499837740\nlast_crash     : 1499837510\nlast_hang      : 1499835354\nexec_timeout   : 20\nafl_banner     : fuzzer-master\nafl_version    : 1.85b\ncommand_line   : /home/skaramcheti/.virtualenvs/afl/bin/afl-unix/afl-fuzz -i /dev/shm/work/Multicast_Chat_Server/input -o /dev/shm/work/Multicast_Chat_Server/sync -m 4G -Q -M fuzzer-master -x /dev/shm/work/Multicast_Chat_Server/Multicast_Chat_Server.dict -- data/linux/processed-challenges/Multicast_Chat_Server/bin/Multicast_Chat_Server\n'
p121
I2
tp122
a(I7320
S'start_time     : 1499830588\nlast_update    : 1499837861\nfuzzer_pid     : 2722\ncycles_done    : 0\nexecs_done     : 6342502\nexecs_per_sec  : 883.87\npaths_total    : 312\npaths_favored  : 78\npaths_found    : 311\npaths_imported : 0\nmax_depth      : 13\ncur_path       : 293\npending_favs   : 13\npending_total  : 213\nvariable_paths : 0\nbitmap_cvg     : 1.96%\nunique_crashes : 88\nunique_hangs   : 4\nlast_path      : 1499837740\nlast_crash     : 1499837777\nlast_hang      : 1499835354\nexec_timeout   : 20\nafl_banner     : fuzzer-master\nafl_version    : 1.85b\ncommand_line   : /home/skaramcheti/.virtualenvs/afl/bin/afl-unix/afl-fuzz -i /dev/shm/work/Multicast_Chat_Server/input -o /dev/shm/work/Multicast_Chat_Server/sync -m 4G -Q -M fuzzer-master -x /dev/shm/work/Multicast_Chat_Server/Multicast_Chat_Server.dict -- data/linux/processed-challenges/Multicast_Chat_Server/bin/Multicast_Chat_Server\n'
p123
I0
tp124
a(I7440
S'start_time     : 1499830588\nlast_update    : 1499837981\nfuzzer_pid     : 2722\ncycles_done    : 0\nexecs_done     : 6435617\nexecs_per_sec  : 834.61\npaths_total    : 313\npaths_favored  : 78\npaths_found    : 312\npaths_imported : 0\nmax_depth      : 13\ncur_path       : 295\npending_favs   : 11\npending_total  : 212\nvariable_paths : 0\nbitmap_cvg     : 1.96%\nunique_crashes : 88\nunique_hangs   : 4\nlast_path      : 1499837970\nlast_crash     : 1499837777\nlast_hang      : 1499835354\nexec_timeout   : 20\nafl_banner     : fuzzer-master\nafl_version    : 1.85b\ncommand_line   : /home/skaramcheti/.virtualenvs/afl/bin/afl-unix/afl-fuzz -i /dev/shm/work/Multicast_Chat_Server/input -o /dev/shm/work/Multicast_Chat_Server/sync -m 4G -Q -M fuzzer-master -x /dev/shm/work/Multicast_Chat_Server/Multicast_Chat_Server.dict -- data/linux/processed-challenges/Multicast_Chat_Server/bin/Multicast_Chat_Server\n'
p125
I2
tp126
a(I7560
S'start_time     : 1499830588\nlast_update    : 1499838101\nfuzzer_pid     : 2722\ncycles_done    : 0\nexecs_done     : 6536043\nexecs_per_sec  : 828.81\npaths_total    : 314\npaths_favored  : 78\npaths_found    : 313\npaths_imported : 0\nmax_depth      : 13\ncur_path       : 295\npending_favs   : 11\npending_total  : 213\nvariable_paths : 0\nbitmap_cvg     : 1.97%\nunique_crashes : 91\nunique_hangs   : 4\nlast_path      : 1499837998\nlast_crash     : 1499838074\nlast_hang      : 1499835354\nexec_timeout   : 20\nafl_banner     : fuzzer-master\nafl_version    : 1.85b\ncommand_line   : /home/skaramcheti/.virtualenvs/afl/bin/afl-unix/afl-fuzz -i /dev/shm/work/Multicast_Chat_Server/input -o /dev/shm/work/Multicast_Chat_Server/sync -m 4G -Q -M fuzzer-master -x /dev/shm/work/Multicast_Chat_Server/Multicast_Chat_Server.dict -- data/linux/processed-challenges/Multicast_Chat_Server/bin/Multicast_Chat_Server\n'
p127
I0
tp128
a(I7680
S'start_time     : 1499830588\nlast_update    : 1499838221\nfuzzer_pid     : 2722\ncycles_done    : 0\nexecs_done     : 6563919\nexecs_per_sec  : 393.28\npaths_total    : 314\npaths_favored  : 78\npaths_found    : 313\npaths_imported : 0\nmax_depth      : 13\ncur_path       : 296\npending_favs   : 11\npending_total  : 212\nvariable_paths : 0\nbitmap_cvg     : 1.97%\nunique_crashes : 91\nunique_hangs   : 4\nlast_path      : 1499837998\nlast_crash     : 1499838074\nlast_hang      : 1499835354\nexec_timeout   : 20\nafl_banner     : fuzzer-master\nafl_version    : 1.85b\ncommand_line   : /home/skaramcheti/.virtualenvs/afl/bin/afl-unix/afl-fuzz -i /dev/shm/work/Multicast_Chat_Server/input -o /dev/shm/work/Multicast_Chat_Server/sync -m 4G -Q -M fuzzer-master -x /dev/shm/work/Multicast_Chat_Server/Multicast_Chat_Server.dict -- data/linux/processed-challenges/Multicast_Chat_Server/bin/Multicast_Chat_Server\n'
p129
I0
tp130
a(I7800
S'start_time     : 1499830588\nlast_update    : 1499838341\nfuzzer_pid     : 2722\ncycles_done    : 0\nexecs_done     : 6587031\nexecs_per_sec  : 171.33\npaths_total    : 314\npaths_favored  : 78\npaths_found    : 313\npaths_imported : 0\nmax_depth      : 13\ncur_path       : 298\npending_favs   : 10\npending_total  : 211\nvariable_paths : 0\nbitmap_cvg     : 1.97%\nunique_crashes : 91\nunique_hangs   : 4\nlast_path      : 1499837998\nlast_crash     : 1499838074\nlast_hang      : 1499835354\nexec_timeout   : 20\nafl_banner     : fuzzer-master\nafl_version    : 1.85b\ncommand_line   : /home/skaramcheti/.virtualenvs/afl/bin/afl-unix/afl-fuzz -i /dev/shm/work/Multicast_Chat_Server/input -o /dev/shm/work/Multicast_Chat_Server/sync -m 4G -Q -M fuzzer-master -x /dev/shm/work/Multicast_Chat_Server/Multicast_Chat_Server.dict -- data/linux/processed-challenges/Multicast_Chat_Server/bin/Multicast_Chat_Server\n'
p131
I1
tp132
a(I7920
S'start_time     : 1499830588\nlast_update    : 1499838462\nfuzzer_pid     : 2722\ncycles_done    : 0\nexecs_done     : 6653056\nexecs_per_sec  : 776.35\npaths_total    : 319\npaths_favored  : 79\npaths_found    : 318\npaths_imported : 0\nmax_depth      : 13\ncur_path       : 300\npending_favs   : 10\npending_total  : 214\nvariable_paths : 0\nbitmap_cvg     : 1.98%\nunique_crashes : 94\nunique_hangs   : 4\nlast_path      : 1499838410\nlast_crash     : 1499838429\nlast_hang      : 1499835354\nexec_timeout   : 20\nafl_banner     : fuzzer-master\nafl_version    : 1.85b\ncommand_line   : /home/skaramcheti/.virtualenvs/afl/bin/afl-unix/afl-fuzz -i /dev/shm/work/Multicast_Chat_Server/input -o /dev/shm/work/Multicast_Chat_Server/sync -m 4G -Q -M fuzzer-master -x /dev/shm/work/Multicast_Chat_Server/Multicast_Chat_Server.dict -- data/linux/processed-challenges/Multicast_Chat_Server/bin/Multicast_Chat_Server\n'
p133
I4
tp134
a(I8040
S'start_time     : 1499830588\nlast_update    : 1499838582\nfuzzer_pid     : 2722\ncycles_done    : 0\nexecs_done     : 6704439\nexecs_per_sec  : 163.93\npaths_total    : 319\npaths_favored  : 79\npaths_found    : 318\npaths_imported : 0\nmax_depth      : 13\ncur_path       : 301\npending_favs   : 9\npending_total  : 213\nvariable_paths : 0\nbitmap_cvg     : 1.98%\nunique_crashes : 95\nunique_hangs   : 4\nlast_path      : 1499838410\nlast_crash     : 1499838484\nlast_hang      : 1499835354\nexec_timeout   : 20\nafl_banner     : fuzzer-master\nafl_version    : 1.85b\ncommand_line   : /home/skaramcheti/.virtualenvs/afl/bin/afl-unix/afl-fuzz -i /dev/shm/work/Multicast_Chat_Server/input -o /dev/shm/work/Multicast_Chat_Server/sync -m 4G -Q -M fuzzer-master -x /dev/shm/work/Multicast_Chat_Server/Multicast_Chat_Server.dict -- data/linux/processed-challenges/Multicast_Chat_Server/bin/Multicast_Chat_Server\n'
p135
I0
tp136
a(I8160
S'start_time     : 1499830588\nlast_update    : 1499838702\nfuzzer_pid     : 2722\ncycles_done    : 0\nexecs_done     : 6746236\nexecs_per_sec  : 721.83\npaths_total    : 319\npaths_favored  : 79\npaths_found    : 318\npaths_imported : 0\nmax_depth      : 13\ncur_path       : 302\npending_favs   : 8\npending_total  : 212\nvariable_paths : 0\nbitmap_cvg     : 1.98%\nunique_crashes : 97\nunique_hangs   : 4\nlast_path      : 1499838410\nlast_crash     : 1499838701\nlast_hang      : 1499835354\nexec_timeout   : 20\nafl_banner     : fuzzer-master\nafl_version    : 1.85b\ncommand_line   : /home/skaramcheti/.virtualenvs/afl/bin/afl-unix/afl-fuzz -i /dev/shm/work/Multicast_Chat_Server/input -o /dev/shm/work/Multicast_Chat_Server/sync -m 4G -Q -M fuzzer-master -x /dev/shm/work/Multicast_Chat_Server/Multicast_Chat_Server.dict -- data/linux/processed-challenges/Multicast_Chat_Server/bin/Multicast_Chat_Server\n'
p137
I0
tp138
a(I8280
S'start_time     : 1499830588\nlast_update    : 1499838822\nfuzzer_pid     : 2722\ncycles_done    : 0\nexecs_done     : 6857043\nexecs_per_sec  : 953.56\npaths_total    : 323\npaths_favored  : 79\npaths_found    : 322\npaths_imported : 0\nmax_depth      : 13\ncur_path       : 304\npending_favs   : 6\npending_total  : 214\nvariable_paths : 0\nbitmap_cvg     : 1.98%\nunique_crashes : 97\nunique_hangs   : 4\nlast_path      : 1499838807\nlast_crash     : 1499838701\nlast_hang      : 1499835354\nexec_timeout   : 20\nafl_banner     : fuzzer-master\nafl_version    : 1.85b\ncommand_line   : /home/skaramcheti/.virtualenvs/afl/bin/afl-unix/afl-fuzz -i /dev/shm/work/Multicast_Chat_Server/input -o /dev/shm/work/Multicast_Chat_Server/sync -m 4G -Q -M fuzzer-master -x /dev/shm/work/Multicast_Chat_Server/Multicast_Chat_Server.dict -- data/linux/processed-challenges/Multicast_Chat_Server/bin/Multicast_Chat_Server\n'
p139
I5
tp140
a(I8400
S'start_time     : 1499830588\nlast_update    : 1499838943\nfuzzer_pid     : 2722\ncycles_done    : 0\nexecs_done     : 6970901\nexecs_per_sec  : 966.58\npaths_total    : 324\npaths_favored  : 79\npaths_found    : 323\npaths_imported : 0\nmax_depth      : 13\ncur_path       : 304\npending_favs   : 6\npending_total  : 215\nvariable_paths : 0\nbitmap_cvg     : 1.98%\nunique_crashes : 97\nunique_hangs   : 4\nlast_path      : 1499838833\nlast_crash     : 1499838701\nlast_hang      : 1499835354\nexec_timeout   : 20\nafl_banner     : fuzzer-master\nafl_version    : 1.85b\ncommand_line   : /home/skaramcheti/.virtualenvs/afl/bin/afl-unix/afl-fuzz -i /dev/shm/work/Multicast_Chat_Server/input -o /dev/shm/work/Multicast_Chat_Server/sync -m 4G -Q -M fuzzer-master -x /dev/shm/work/Multicast_Chat_Server/Multicast_Chat_Server.dict -- data/linux/processed-challenges/Multicast_Chat_Server/bin/Multicast_Chat_Server\n'
p141
I1
tp142
a(I8520
S'start_time     : 1499830588\nlast_update    : 1499839063\nfuzzer_pid     : 2722\ncycles_done    : 0\nexecs_done     : 7074837\nexecs_per_sec  : 729.43\npaths_total    : 325\npaths_favored  : 79\npaths_found    : 324\npaths_imported : 0\nmax_depth      : 13\ncur_path       : 312\npending_favs   : 4\npending_total  : 214\nvariable_paths : 0\nbitmap_cvg     : 1.98%\nunique_crashes : 98\nunique_hangs   : 4\nlast_path      : 1499838996\nlast_crash     : 1499839008\nlast_hang      : 1499835354\nexec_timeout   : 20\nafl_banner     : fuzzer-master\nafl_version    : 1.85b\ncommand_line   : /home/skaramcheti/.virtualenvs/afl/bin/afl-unix/afl-fuzz -i /dev/shm/work/Multicast_Chat_Server/input -o /dev/shm/work/Multicast_Chat_Server/sync -m 4G -Q -M fuzzer-master -x /dev/shm/work/Multicast_Chat_Server/Multicast_Chat_Server.dict -- data/linux/processed-challenges/Multicast_Chat_Server/bin/Multicast_Chat_Server\n'
p143
I1
tp144
a(I8640
S'start_time     : 1499830588\nlast_update    : 1499839183\nfuzzer_pid     : 2722\ncycles_done    : 0\nexecs_done     : 7161060\nexecs_per_sec  : 757.10\npaths_total    : 333\npaths_favored  : 79\npaths_found    : 332\npaths_imported : 0\nmax_depth      : 14\ncur_path       : 313\npending_favs   : 4\npending_total  : 221\nvariable_paths : 0\nbitmap_cvg     : 1.98%\nunique_crashes : 98\nunique_hangs   : 4\nlast_path      : 1499839169\nlast_crash     : 1499839008\nlast_hang      : 1499835354\nexec_timeout   : 20\nafl_banner     : fuzzer-master\nafl_version    : 1.85b\ncommand_line   : /home/skaramcheti/.virtualenvs/afl/bin/afl-unix/afl-fuzz -i /dev/shm/work/Multicast_Chat_Server/input -o /dev/shm/work/Multicast_Chat_Server/sync -m 4G -Q -M fuzzer-master -x /dev/shm/work/Multicast_Chat_Server/Multicast_Chat_Server.dict -- data/linux/processed-challenges/Multicast_Chat_Server/bin/Multicast_Chat_Server\n'
p145
I9
tp146
a(I8760
S'start_time     : 1499830588\nlast_update    : 1499839303\nfuzzer_pid     : 2722\ncycles_done    : 0\nexecs_done     : 7252850\nexecs_per_sec  : 773.78\npaths_total    : 335\npaths_favored  : 79\npaths_found    : 334\npaths_imported : 0\nmax_depth      : 14\ncur_path       : 313\npending_favs   : 4\npending_total  : 223\nvariable_paths : 0\nbitmap_cvg     : 1.99%\nunique_crashes : 100\nunique_hangs   : 4\nlast_path      : 1499839217\nlast_crash     : 1499839230\nlast_hang      : 1499835354\nexec_timeout   : 20\nafl_banner     : fuzzer-master\nafl_version    : 1.85b\ncommand_line   : /home/skaramcheti/.virtualenvs/afl/bin/afl-unix/afl-fuzz -i /dev/shm/work/Multicast_Chat_Server/input -o /dev/shm/work/Multicast_Chat_Server/sync -m 4G -Q -M fuzzer-master -x /dev/shm/work/Multicast_Chat_Server/Multicast_Chat_Server.dict -- data/linux/processed-challenges/Multicast_Chat_Server/bin/Multicast_Chat_Server\n'
p147
I1
tp148
a(I8880
S'start_time     : 1499830588\nlast_update    : 1499839423\nfuzzer_pid     : 2722\ncycles_done    : 0\nexecs_done     : 7326999\nexecs_per_sec  : 283.54\npaths_total    : 336\npaths_favored  : 80\npaths_found    : 335\npaths_imported : 0\nmax_depth      : 14\ncur_path       : 318\npending_favs   : 4\npending_total  : 222\nvariable_paths : 0\nbitmap_cvg     : 1.99%\nunique_crashes : 100\nunique_hangs   : 4\nlast_path      : 1499839337\nlast_crash     : 1499839230\nlast_hang      : 1499835354\nexec_timeout   : 20\nafl_banner     : fuzzer-master\nafl_version    : 1.85b\ncommand_line   : /home/skaramcheti/.virtualenvs/afl/bin/afl-unix/afl-fuzz -i /dev/shm/work/Multicast_Chat_Server/input -o /dev/shm/work/Multicast_Chat_Server/sync -m 4G -Q -M fuzzer-master -x /dev/shm/work/Multicast_Chat_Server/Multicast_Chat_Server.dict -- data/linux/processed-challenges/Multicast_Chat_Server/bin/Multicast_Chat_Server\n'
p149
I0
tp150
a(I9000
S'start_time     : 1499830588\nlast_update    : 1499839544\nfuzzer_pid     : 2722\ncycles_done    : 0\nexecs_done     : 7403017\nexecs_per_sec  : 778.06\npaths_total    : 338\npaths_favored  : 80\npaths_found    : 337\npaths_imported : 0\nmax_depth      : 15\ncur_path       : 328\npending_favs   : 3\npending_total  : 223\nvariable_paths : 0\nbitmap_cvg     : 1.99%\nunique_crashes : 101\nunique_hangs   : 4\nlast_path      : 1499839534\nlast_crash     : 1499839519\nlast_hang      : 1499835354\nexec_timeout   : 20\nafl_banner     : fuzzer-master\nafl_version    : 1.85b\ncommand_line   : /home/skaramcheti/.virtualenvs/afl/bin/afl-unix/afl-fuzz -i /dev/shm/work/Multicast_Chat_Server/input -o /dev/shm/work/Multicast_Chat_Server/sync -m 4G -Q -M fuzzer-master -x /dev/shm/work/Multicast_Chat_Server/Multicast_Chat_Server.dict -- data/linux/processed-challenges/Multicast_Chat_Server/bin/Multicast_Chat_Server\n'
p151
I2
tp152
a(I9120
S'start_time     : 1499830588\nlast_update    : 1499839664\nfuzzer_pid     : 2722\ncycles_done    : 0\nexecs_done     : 7481590\nexecs_per_sec  : 667.42\npaths_total    : 338\npaths_favored  : 81\npaths_found    : 337\npaths_imported : 0\nmax_depth      : 15\ncur_path       : 333\npending_favs   : 3\npending_total  : 222\nvariable_paths : 0\nbitmap_cvg     : 1.99%\nunique_crashes : 102\nunique_hangs   : 4\nlast_path      : 1499839534\nlast_crash     : 1499839563\nlast_hang      : 1499835354\nexec_timeout   : 20\nafl_banner     : fuzzer-master\nafl_version    : 1.85b\ncommand_line   : /home/skaramcheti/.virtualenvs/afl/bin/afl-unix/afl-fuzz -i /dev/shm/work/Multicast_Chat_Server/input -o /dev/shm/work/Multicast_Chat_Server/sync -m 4G -Q -M fuzzer-master -x /dev/shm/work/Multicast_Chat_Server/Multicast_Chat_Server.dict -- data/linux/processed-challenges/Multicast_Chat_Server/bin/Multicast_Chat_Server\n'
p153
I0
tp154
a(I9240
S'start_time     : 1499830588\nlast_update    : 1499839784\nfuzzer_pid     : 2722\ncycles_done    : 0\nexecs_done     : 7581403\nexecs_per_sec  : 978.03\npaths_total    : 340\npaths_favored  : 81\npaths_found    : 339\npaths_imported : 0\nmax_depth      : 16\ncur_path       : 336\npending_favs   : 2\npending_total  : 223\nvariable_paths : 0\nbitmap_cvg     : 1.99%\nunique_crashes : 105\nunique_hangs   : 4\nlast_path      : 1499839742\nlast_crash     : 1499839751\nlast_hang      : 1499835354\nexec_timeout   : 20\nafl_banner     : fuzzer-master\nafl_version    : 1.85b\ncommand_line   : /home/skaramcheti/.virtualenvs/afl/bin/afl-unix/afl-fuzz -i /dev/shm/work/Multicast_Chat_Server/input -o /dev/shm/work/Multicast_Chat_Server/sync -m 4G -Q -M fuzzer-master -x /dev/shm/work/Multicast_Chat_Server/Multicast_Chat_Server.dict -- data/linux/processed-challenges/Multicast_Chat_Server/bin/Multicast_Chat_Server\n'
p155
I3
tp156
a(I9360
S'start_time     : 1499830588\nlast_update    : 1499839904\nfuzzer_pid     : 2722\ncycles_done    : 1\nexecs_done     : 7700201\nexecs_per_sec  : 1060.31\npaths_total    : 341\npaths_favored  : 82\npaths_found    : 340\npaths_imported : 0\nmax_depth      : 17\ncur_path       : 37\npending_favs   : 0\npending_total  : 216\nvariable_paths : 0\nbitmap_cvg     : 1.99%\nunique_crashes : 105\nunique_hangs   : 4\nlast_path      : 1499839804\nlast_crash     : 1499839751\nlast_hang      : 1499835354\nexec_timeout   : 20\nafl_banner     : fuzzer-master\nafl_version    : 1.85b\ncommand_line   : /home/skaramcheti/.virtualenvs/afl/bin/afl-unix/afl-fuzz -i /dev/shm/work/Multicast_Chat_Server/input -o /dev/shm/work/Multicast_Chat_Server/sync -m 4G -Q -M fuzzer-master -x /dev/shm/work/Multicast_Chat_Server/Multicast_Chat_Server.dict -- data/linux/processed-challenges/Multicast_Chat_Server/bin/Multicast_Chat_Server\n'
p157
I4
tp158
a(I9480
S'start_time     : 1499830588\nlast_update    : 1499840025\nfuzzer_pid     : 2722\ncycles_done    : 1\nexecs_done     : 7817843\nexecs_per_sec  : 700.14\npaths_total    : 345\npaths_favored  : 82\npaths_found    : 344\npaths_imported : 0\nmax_depth      : 17\ncur_path       : 52\npending_favs   : 0\npending_total  : 218\nvariable_paths : 0\nbitmap_cvg     : 1.99%\nunique_crashes : 105\nunique_hangs   : 5\nlast_path      : 1499839957\nlast_crash     : 1499839751\nlast_hang      : 1499839904\nexec_timeout   : 20\nafl_banner     : fuzzer-master\nafl_version    : 1.85b\ncommand_line   : /home/skaramcheti/.virtualenvs/afl/bin/afl-unix/afl-fuzz -i /dev/shm/work/Multicast_Chat_Server/input -o /dev/shm/work/Multicast_Chat_Server/sync -m 4G -Q -M fuzzer-master -x /dev/shm/work/Multicast_Chat_Server/Multicast_Chat_Server.dict -- data/linux/processed-challenges/Multicast_Chat_Server/bin/Multicast_Chat_Server\n'
p159
I0
tp160
a(I9600
S'start_time     : 1499830588\nlast_update    : 1499840145\nfuzzer_pid     : 2722\ncycles_done    : 1\nexecs_done     : 7938443\nexecs_per_sec  : 1029.41\npaths_total    : 345\npaths_favored  : 82\npaths_found    : 344\npaths_imported : 0\nmax_depth      : 17\ncur_path       : 70\npending_favs   : 0\npending_total  : 215\nvariable_paths : 0\nbitmap_cvg     : 1.99%\nunique_crashes : 105\nunique_hangs   : 5\nlast_path      : 1499839957\nlast_crash     : 1499839751\nlast_hang      : 1499839904\nexec_timeout   : 20\nafl_banner     : fuzzer-master\nafl_version    : 1.85b\ncommand_line   : /home/skaramcheti/.virtualenvs/afl/bin/afl-unix/afl-fuzz -i /dev/shm/work/Multicast_Chat_Server/input -o /dev/shm/work/Multicast_Chat_Server/sync -m 4G -Q -M fuzzer-master -x /dev/shm/work/Multicast_Chat_Server/Multicast_Chat_Server.dict -- data/linux/processed-challenges/Multicast_Chat_Server/bin/Multicast_Chat_Server\n'
p161
I2
tp162
a(I9720
S'start_time     : 1499830588\nlast_update    : 1499840265\nfuzzer_pid     : 2722\ncycles_done    : 1\nexecs_done     : 8061189\nexecs_per_sec  : 1024.92\npaths_total    : 349\npaths_favored  : 82\npaths_found    : 348\npaths_imported : 0\nmax_depth      : 17\ncur_path       : 79\npending_favs   : 0\npending_total  : 215\nvariable_paths : 0\nbitmap_cvg     : 1.99%\nunique_crashes : 105\nunique_hangs   : 5\nlast_path      : 1499840239\nlast_crash     : 1499839751\nlast_hang      : 1499839904\nexec_timeout   : 20\nafl_banner     : fuzzer-master\nafl_version    : 1.85b\ncommand_line   : /home/skaramcheti/.virtualenvs/afl/bin/afl-unix/afl-fuzz -i /dev/shm/work/Multicast_Chat_Server/input -o /dev/shm/work/Multicast_Chat_Server/sync -m 4G -Q -M fuzzer-master -x /dev/shm/work/Multicast_Chat_Server/Multicast_Chat_Server.dict -- data/linux/processed-challenges/Multicast_Chat_Server/bin/Multicast_Chat_Server\n'
p163
I3
tp164
a(I9840
S'start_time     : 1499830588\nlast_update    : 1499840385\nfuzzer_pid     : 2722\ncycles_done    : 1\nexecs_done     : 8178553\nexecs_per_sec  : 971.86\npaths_total    : 353\npaths_favored  : 82\npaths_found    : 352\npaths_imported : 0\nmax_depth      : 17\ncur_path       : 98\npending_favs   : 0\npending_total  : 216\nvariable_paths : 0\nbitmap_cvg     : 1.99%\nunique_crashes : 105\nunique_hangs   : 5\nlast_path      : 1499840375\nlast_crash     : 1499839751\nlast_hang      : 1499839904\nexec_timeout   : 20\nafl_banner     : fuzzer-master\nafl_version    : 1.85b\ncommand_line   : /home/skaramcheti/.virtualenvs/afl/bin/afl-unix/afl-fuzz -i /dev/shm/work/Multicast_Chat_Server/input -o /dev/shm/work/Multicast_Chat_Server/sync -m 4G -Q -M fuzzer-master -x /dev/shm/work/Multicast_Chat_Server/Multicast_Chat_Server.dict -- data/linux/processed-challenges/Multicast_Chat_Server/bin/Multicast_Chat_Server\n'
p165
I3
tp166
a(I9960
S'start_time     : 1499830588\nlast_update    : 1499840505\nfuzzer_pid     : 2722\ncycles_done    : 1\nexecs_done     : 8294438\nexecs_per_sec  : 964.18\npaths_total    : 353\npaths_favored  : 82\npaths_found    : 352\npaths_imported : 0\nmax_depth      : 17\ncur_path       : 116\npending_favs   : 0\npending_total  : 214\nvariable_paths : 0\nbitmap_cvg     : 1.99%\nunique_crashes : 105\nunique_hangs   : 5\nlast_path      : 1499840375\nlast_crash     : 1499839751\nlast_hang      : 1499839904\nexec_timeout   : 20\nafl_banner     : fuzzer-master\nafl_version    : 1.85b\ncommand_line   : /home/skaramcheti/.virtualenvs/afl/bin/afl-unix/afl-fuzz -i /dev/shm/work/Multicast_Chat_Server/input -o /dev/shm/work/Multicast_Chat_Server/sync -m 4G -Q -M fuzzer-master -x /dev/shm/work/Multicast_Chat_Server/Multicast_Chat_Server.dict -- data/linux/processed-challenges/Multicast_Chat_Server/bin/Multicast_Chat_Server\n'
p167
I2
tp168
a(I10080
S'start_time     : 1499830588\nlast_update    : 1499840625\nfuzzer_pid     : 2722\ncycles_done    : 1\nexecs_done     : 8400287\nexecs_per_sec  : 872.79\npaths_total    : 355\npaths_favored  : 82\npaths_found    : 354\npaths_imported : 0\nmax_depth      : 17\ncur_path       : 129\npending_favs   : 0\npending_total  : 214\nvariable_paths : 0\nbitmap_cvg     : 1.99%\nunique_crashes : 105\nunique_hangs   : 5\nlast_path      : 1499840550\nlast_crash     : 1499839751\nlast_hang      : 1499839904\nexec_timeout   : 20\nafl_banner     : fuzzer-master\nafl_version    : 1.85b\ncommand_line   : /home/skaramcheti/.virtualenvs/afl/bin/afl-unix/afl-fuzz -i /dev/shm/work/Multicast_Chat_Server/input -o /dev/shm/work/Multicast_Chat_Server/sync -m 4G -Q -M fuzzer-master -x /dev/shm/work/Multicast_Chat_Server/Multicast_Chat_Server.dict -- data/linux/processed-challenges/Multicast_Chat_Server/bin/Multicast_Chat_Server\n'
p169
I1
tp170
a(I10200
S'start_time     : 1499830588\nlast_update    : 1499840746\nfuzzer_pid     : 2722\ncycles_done    : 1\nexecs_done     : 8499896\nexecs_per_sec  : 896.62\npaths_total    : 357\npaths_favored  : 82\npaths_found    : 356\npaths_imported : 0\nmax_depth      : 17\ncur_path       : 136\npending_favs   : 0\npending_total  : 214\nvariable_paths : 0\nbitmap_cvg     : 1.99%\nunique_crashes : 105\nunique_hangs   : 6\nlast_path      : 1499840739\nlast_crash     : 1499839751\nlast_hang      : 1499840738\nexec_timeout   : 20\nafl_banner     : fuzzer-master\nafl_version    : 1.85b\ncommand_line   : /home/skaramcheti/.virtualenvs/afl/bin/afl-unix/afl-fuzz -i /dev/shm/work/Multicast_Chat_Server/input -o /dev/shm/work/Multicast_Chat_Server/sync -m 4G -Q -M fuzzer-master -x /dev/shm/work/Multicast_Chat_Server/Multicast_Chat_Server.dict -- data/linux/processed-challenges/Multicast_Chat_Server/bin/Multicast_Chat_Server\n'
p171
I1
tp172
a(I10320
S'start_time     : 1499830588\nlast_update    : 1499840866\nfuzzer_pid     : 2722\ncycles_done    : 1\nexecs_done     : 8608976\nexecs_per_sec  : 925.03\npaths_total    : 358\npaths_favored  : 82\npaths_found    : 357\npaths_imported : 0\nmax_depth      : 17\ncur_path       : 156\npending_favs   : 0\npending_total  : 213\nvariable_paths : 0\nbitmap_cvg     : 1.99%\nunique_crashes : 105\nunique_hangs   : 9\nlast_path      : 1499840822\nlast_crash     : 1499839751\nlast_hang      : 1499840829\nexec_timeout   : 20\nafl_banner     : fuzzer-master\nafl_version    : 1.85b\ncommand_line   : /home/skaramcheti/.virtualenvs/afl/bin/afl-unix/afl-fuzz -i /dev/shm/work/Multicast_Chat_Server/input -o /dev/shm/work/Multicast_Chat_Server/sync -m 4G -Q -M fuzzer-master -x /dev/shm/work/Multicast_Chat_Server/Multicast_Chat_Server.dict -- data/linux/processed-challenges/Multicast_Chat_Server/bin/Multicast_Chat_Server\n'
p173
I1
tp174
a(I10440
S'start_time     : 1499830588\nlast_update    : 1499840986\nfuzzer_pid     : 2722\ncycles_done    : 1\nexecs_done     : 8699022\nexecs_per_sec  : 846.91\npaths_total    : 359\npaths_favored  : 82\npaths_found    : 358\npaths_imported : 0\nmax_depth      : 17\ncur_path       : 163\npending_favs   : 0\npending_total  : 212\nvariable_paths : 0\nbitmap_cvg     : 1.99%\nunique_crashes : 105\nunique_hangs   : 11\nlast_path      : 1499840976\nlast_crash     : 1499839751\nlast_hang      : 1499840928\nexec_timeout   : 20\nafl_banner     : fuzzer-master\nafl_version    : 1.85b\ncommand_line   : /home/skaramcheti/.virtualenvs/afl/bin/afl-unix/afl-fuzz -i /dev/shm/work/Multicast_Chat_Server/input -o /dev/shm/work/Multicast_Chat_Server/sync -m 4G -Q -M fuzzer-master -x /dev/shm/work/Multicast_Chat_Server/Multicast_Chat_Server.dict -- data/linux/processed-challenges/Multicast_Chat_Server/bin/Multicast_Chat_Server\n'
p175
I9
tp176
a(I10560
S'start_time     : 1499830588\nlast_update    : 1499841106\nfuzzer_pid     : 2722\ncycles_done    : 1\nexecs_done     : 8812281\nexecs_per_sec  : 961.04\npaths_total    : 369\npaths_favored  : 83\npaths_found    : 368\npaths_imported : 0\nmax_depth      : 17\ncur_path       : 304\npending_favs   : 1\npending_total  : 221\nvariable_paths : 0\nbitmap_cvg     : 1.99%\nunique_crashes : 108\nunique_hangs   : 13\nlast_path      : 1499841097\nlast_crash     : 1499841094\nlast_hang      : 1499841011\nexec_timeout   : 20\nafl_banner     : fuzzer-master\nafl_version    : 1.85b\ncommand_line   : /home/skaramcheti/.virtualenvs/afl/bin/afl-unix/afl-fuzz -i /dev/shm/work/Multicast_Chat_Server/input -o /dev/shm/work/Multicast_Chat_Server/sync -m 4G -Q -M fuzzer-master -x /dev/shm/work/Multicast_Chat_Server/Multicast_Chat_Server.dict -- data/linux/processed-challenges/Multicast_Chat_Server/bin/Multicast_Chat_Server\n'
p177
I2
tp178
a(I10680
S'start_time     : 1499830588\nlast_update    : 1499841227\nfuzzer_pid     : 2722\ncycles_done    : 1\nexecs_done     : 8886406\nexecs_per_sec  : 240.03\npaths_total    : 370\npaths_favored  : 83\npaths_found    : 369\npaths_imported : 0\nmax_depth      : 17\ncur_path       : 358\npending_favs   : 1\npending_total  : 222\nvariable_paths : 0\nbitmap_cvg     : 1.99%\nunique_crashes : 110\nunique_hangs   : 15\nlast_path      : 1499841186\nlast_crash     : 1499841132\nlast_hang      : 1499841198\nexec_timeout   : 20\nafl_banner     : fuzzer-master\nafl_version    : 1.85b\ncommand_line   : /home/skaramcheti/.virtualenvs/afl/bin/afl-unix/afl-fuzz -i /dev/shm/work/Multicast_Chat_Server/input -o /dev/shm/work/Multicast_Chat_Server/sync -m 4G -Q -M fuzzer-master -x /dev/shm/work/Multicast_Chat_Server/Multicast_Chat_Server.dict -- data/linux/processed-challenges/Multicast_Chat_Server/bin/Multicast_Chat_Server\n'
p179
I1
tp180
a.