(lp0
(I0
S'start_time     : 1500165983\nlast_update    : 1500165983\nfuzzer_pid     : 2181\ncycles_done    : 0\nexecs_done     : 10\nexecs_per_sec  : 178.57\npaths_total    : 1\npaths_favored  : 1\npaths_found    : 0\npaths_imported : 0\nmax_depth      : 1\ncur_path       : 0\npending_favs   : 1\npending_total  : 1\nvariable_paths : 0\nbitmap_cvg     : 0.19%\nunique_crashes : 0\nunique_hangs   : 0\nlast_path      : 0\nlast_crash     : 0\nlast_hang      : 0\nexec_timeout   : 20\nafl_banner     : fuzzer-master\nafl_version    : 1.85b\ncommand_line   : /home/skaramcheti/.virtualenvs/afl/bin/afl-unix/afl-fuzz -i /dev/shm/work/Personal_Fitness_Manager/input -o /dev/shm/work/Personal_Fitness_Manager/sync -m 4G -Q -M fuzzer-master -x /dev/shm/work/Personal_Fitness_Manager/Personal_Fitness_Manager.dict -- data/linux/processed-challenges/Personal_Fitness_Manager/bin/Personal_Fitness_Manager\n'
p1
I12
tp2
a(I120
S'start_time     : 1500165983\nlast_update    : 1500166103\nfuzzer_pid     : 2181\ncycles_done    : 0\nexecs_done     : 119451\nexecs_per_sec  : 975.04\npaths_total    : 18\npaths_favored  : 1\npaths_found    : 17\npaths_imported : 0\nmax_depth      : 2\ncur_path       : 0\npending_favs   : 1\npending_total  : 18\nvariable_paths : 0\nbitmap_cvg     : 0.23%\nunique_crashes : 0\nunique_hangs   : 0\nlast_path      : 1500166088\nlast_crash     : 0\nlast_hang      : 0\nexec_timeout   : 20\nafl_banner     : fuzzer-master\nafl_version    : 1.85b\ncommand_line   : /home/skaramcheti/.virtualenvs/afl/bin/afl-unix/afl-fuzz -i /dev/shm/work/Personal_Fitness_Manager/input -o /dev/shm/work/Personal_Fitness_Manager/sync -m 4G -Q -M fuzzer-master -x /dev/shm/work/Personal_Fitness_Manager/Personal_Fitness_Manager.dict -- data/linux/processed-challenges/Personal_Fitness_Manager/bin/Personal_Fitness_Manager\n'
p3
I6
tp4
a(I240
S'start_time     : 1500165983\nlast_update    : 1500166223\nfuzzer_pid     : 2181\ncycles_done    : 0\nexecs_done     : 237172\nexecs_per_sec  : 1010.71\npaths_total    : 25\npaths_favored  : 5\npaths_found    : 24\npaths_imported : 0\nmax_depth      : 4\ncur_path       : 18\npending_favs   : 2\npending_total  : 21\nvariable_paths : 0\nbitmap_cvg     : 0.26%\nunique_crashes : 0\nunique_hangs   : 0\nlast_path      : 1500166181\nlast_crash     : 0\nlast_hang      : 0\nexec_timeout   : 20\nafl_banner     : fuzzer-master\nafl_version    : 1.85b\ncommand_line   : /home/skaramcheti/.virtualenvs/afl/bin/afl-unix/afl-fuzz -i /dev/shm/work/Personal_Fitness_Manager/input -o /dev/shm/work/Personal_Fitness_Manager/sync -m 4G -Q -M fuzzer-master -x /dev/shm/work/Personal_Fitness_Manager/Personal_Fitness_Manager.dict -- data/linux/processed-challenges/Personal_Fitness_Manager/bin/Personal_Fitness_Manager\n'
p5
I7
tp6
a(I360
S'start_time     : 1500165983\nlast_update    : 1500166344\nfuzzer_pid     : 2181\ncycles_done    : 0\nexecs_done     : 358002\nexecs_per_sec  : 993.61\npaths_total    : 29\npaths_favored  : 6\npaths_found    : 28\npaths_imported : 0\nmax_depth      : 5\ncur_path       : 21\npending_favs   : 4\npending_total  : 24\nvariable_paths : 0\nbitmap_cvg     : 0.30%\nunique_crashes : 0\nunique_hangs   : 0\nlast_path      : 1500166330\nlast_crash     : 0\nlast_hang      : 0\nexec_timeout   : 20\nafl_banner     : fuzzer-master\nafl_version    : 1.85b\ncommand_line   : /home/skaramcheti/.virtualenvs/afl/bin/afl-unix/afl-fuzz -i /dev/shm/work/Personal_Fitness_Manager/input -o /dev/shm/work/Personal_Fitness_Manager/sync -m 4G -Q -M fuzzer-master -x /dev/shm/work/Personal_Fitness_Manager/Personal_Fitness_Manager.dict -- data/linux/processed-challenges/Personal_Fitness_Manager/bin/Personal_Fitness_Manager\n'
p7
I4
tp8
a(I480
S'start_time     : 1500165983\nlast_update    : 1500166464\nfuzzer_pid     : 2181\ncycles_done    : 0\nexecs_done     : 476359\nexecs_per_sec  : 997.91\npaths_total    : 40\npaths_favored  : 6\npaths_found    : 39\npaths_imported : 0\nmax_depth      : 5\ncur_path       : 26\npending_favs   : 3\npending_total  : 34\nvariable_paths : 0\nbitmap_cvg     : 0.41%\nunique_crashes : 0\nunique_hangs   : 0\nlast_path      : 1500166426\nlast_crash     : 0\nlast_hang      : 0\nexec_timeout   : 20\nafl_banner     : fuzzer-master\nafl_version    : 1.85b\ncommand_line   : /home/skaramcheti/.virtualenvs/afl/bin/afl-unix/afl-fuzz -i /dev/shm/work/Personal_Fitness_Manager/input -o /dev/shm/work/Personal_Fitness_Manager/sync -m 4G -Q -M fuzzer-master -x /dev/shm/work/Personal_Fitness_Manager/Personal_Fitness_Manager.dict -- data/linux/processed-challenges/Personal_Fitness_Manager/bin/Personal_Fitness_Manager\n'
p9
I11
tp10
a(I600
S'start_time     : 1500165983\nlast_update    : 1500166584\nfuzzer_pid     : 2181\ncycles_done    : 0\nexecs_done     : 594251\nexecs_per_sec  : 1025.85\npaths_total    : 51\npaths_favored  : 9\npaths_found    : 50\npaths_imported : 0\nmax_depth      : 6\ncur_path       : 30\npending_favs   : 5\npending_total  : 42\nvariable_paths : 0\nbitmap_cvg     : 0.49%\nunique_crashes : 0\nunique_hangs   : 0\nlast_path      : 1500166561\nlast_crash     : 0\nlast_hang      : 0\nexec_timeout   : 20\nafl_banner     : fuzzer-master\nafl_version    : 1.85b\ncommand_line   : /home/skaramcheti/.virtualenvs/afl/bin/afl-unix/afl-fuzz -i /dev/shm/work/Personal_Fitness_Manager/input -o /dev/shm/work/Personal_Fitness_Manager/sync -m 4G -Q -M fuzzer-master -x /dev/shm/work/Personal_Fitness_Manager/Personal_Fitness_Manager.dict -- data/linux/processed-challenges/Personal_Fitness_Manager/bin/Personal_Fitness_Manager\n'
p11
I11
tp12
a(I720
S'start_time     : 1500165983\nlast_update    : 1500166705\nfuzzer_pid     : 2181\ncycles_done    : 0\nexecs_done     : 714720\nexecs_per_sec  : 998.51\npaths_total    : 59\npaths_favored  : 17\npaths_found    : 58\npaths_imported : 0\nmax_depth      : 6\ncur_path       : 31\npending_favs   : 13\npending_total  : 49\nvariable_paths : 0\nbitmap_cvg     : 0.52%\nunique_crashes : 0\nunique_hangs   : 0\nlast_path      : 1500166683\nlast_crash     : 0\nlast_hang      : 0\nexec_timeout   : 20\nafl_banner     : fuzzer-master\nafl_version    : 1.85b\ncommand_line   : /home/skaramcheti/.virtualenvs/afl/bin/afl-unix/afl-fuzz -i /dev/shm/work/Personal_Fitness_Manager/input -o /dev/shm/work/Personal_Fitness_Manager/sync -m 4G -Q -M fuzzer-master -x /dev/shm/work/Personal_Fitness_Manager/Personal_Fitness_Manager.dict -- data/linux/processed-challenges/Personal_Fitness_Manager/bin/Personal_Fitness_Manager\n'
p13
I8
tp14
a(I840
S'start_time     : 1500165983\nlast_update    : 1500166825\nfuzzer_pid     : 2181\ncycles_done    : 0\nexecs_done     : 836249\nexecs_per_sec  : 1022.37\npaths_total    : 65\npaths_favored  : 17\npaths_found    : 64\npaths_imported : 0\nmax_depth      : 6\ncur_path       : 38\npending_favs   : 12\npending_total  : 54\nvariable_paths : 0\nbitmap_cvg     : 0.53%\nunique_crashes : 0\nunique_hangs   : 0\nlast_path      : 1500166774\nlast_crash     : 0\nlast_hang      : 0\nexec_timeout   : 20\nafl_banner     : fuzzer-master\nafl_version    : 1.85b\ncommand_line   : /home/skaramcheti/.virtualenvs/afl/bin/afl-unix/afl-fuzz -i /dev/shm/work/Personal_Fitness_Manager/input -o /dev/shm/work/Personal_Fitness_Manager/sync -m 4G -Q -M fuzzer-master -x /dev/shm/work/Personal_Fitness_Manager/Personal_Fitness_Manager.dict -- data/linux/processed-challenges/Personal_Fitness_Manager/bin/Personal_Fitness_Manager\n'
p15
I6
tp16
a(I960
S'start_time     : 1500165983\nlast_update    : 1500166945\nfuzzer_pid     : 2181\ncycles_done    : 0\nexecs_done     : 957341\nexecs_per_sec  : 1013.16\npaths_total    : 70\npaths_favored  : 20\npaths_found    : 69\npaths_imported : 0\nmax_depth      : 7\ncur_path       : 41\npending_favs   : 14\npending_total  : 58\nvariable_paths : 0\nbitmap_cvg     : 0.54%\nunique_crashes : 0\nunique_hangs   : 0\nlast_path      : 1500166911\nlast_crash     : 0\nlast_hang      : 0\nexec_timeout   : 20\nafl_banner     : fuzzer-master\nafl_version    : 1.85b\ncommand_line   : /home/skaramcheti/.virtualenvs/afl/bin/afl-unix/afl-fuzz -i /dev/shm/work/Personal_Fitness_Manager/input -o /dev/shm/work/Personal_Fitness_Manager/sync -m 4G -Q -M fuzzer-master -x /dev/shm/work/Personal_Fitness_Manager/Personal_Fitness_Manager.dict -- data/linux/processed-challenges/Personal_Fitness_Manager/bin/Personal_Fitness_Manager\n'
p17
I5
tp18
a(I1080
S'start_time     : 1500165983\nlast_update    : 1500167065\nfuzzer_pid     : 2181\ncycles_done    : 0\nexecs_done     : 1079713\nexecs_per_sec  : 995.85\npaths_total    : 77\npaths_favored  : 22\npaths_found    : 76\npaths_imported : 0\nmax_depth      : 7\ncur_path       : 43\npending_favs   : 15\npending_total  : 63\nvariable_paths : 0\nbitmap_cvg     : 0.58%\nunique_crashes : 0\nunique_hangs   : 0\nlast_path      : 1500167051\nlast_crash     : 0\nlast_hang      : 0\nexec_timeout   : 20\nafl_banner     : fuzzer-master\nafl_version    : 1.85b\ncommand_line   : /home/skaramcheti/.virtualenvs/afl/bin/afl-unix/afl-fuzz -i /dev/shm/work/Personal_Fitness_Manager/input -o /dev/shm/work/Personal_Fitness_Manager/sync -m 4G -Q -M fuzzer-master -x /dev/shm/work/Personal_Fitness_Manager/Personal_Fitness_Manager.dict -- data/linux/processed-challenges/Personal_Fitness_Manager/bin/Personal_Fitness_Manager\n'
p19
I7
tp20
a(I1200
S'start_time     : 1500165983\nlast_update    : 1500167185\nfuzzer_pid     : 2181\ncycles_done    : 0\nexecs_done     : 1199017\nexecs_per_sec  : 987.89\npaths_total    : 80\npaths_favored  : 21\npaths_found    : 79\npaths_imported : 0\nmax_depth      : 7\ncur_path       : 45\npending_favs   : 16\npending_total  : 65\nvariable_paths : 0\nbitmap_cvg     : 0.58%\nunique_crashes : 0\nunique_hangs   : 0\nlast_path      : 1500167175\nlast_crash     : 0\nlast_hang      : 0\nexec_timeout   : 20\nafl_banner     : fuzzer-master\nafl_version    : 1.85b\ncommand_line   : /home/skaramcheti/.virtualenvs/afl/bin/afl-unix/afl-fuzz -i /dev/shm/work/Personal_Fitness_Manager/input -o /dev/shm/work/Personal_Fitness_Manager/sync -m 4G -Q -M fuzzer-master -x /dev/shm/work/Personal_Fitness_Manager/Personal_Fitness_Manager.dict -- data/linux/processed-challenges/Personal_Fitness_Manager/bin/Personal_Fitness_Manager\n'
p21
I3
tp22
a(I1320
S'start_time     : 1500165983\nlast_update    : 1500167246\nfuzzer_pid     : 2181\ncycles_done    : 0\nexecs_done     : 1257381\nexecs_per_sec  : 970.90\npaths_total    : 81\npaths_favored  : 24\npaths_found    : 80\npaths_imported : 0\nmax_depth      : 7\ncur_path       : 49\npending_favs   : 17\npending_total  : 64\nvariable_paths : 0\nbitmap_cvg     : 0.58%\nunique_crashes : 0\nunique_hangs   : 0\nlast_path      : 1500167229\nlast_crash     : 0\nlast_hang      : 0\nexec_timeout   : 20\nafl_banner     : fuzzer-master\nafl_version    : 1.85b\ncommand_line   : /home/skaramcheti/.virtualenvs/afl/bin/afl-unix/afl-fuzz -i /dev/shm/work/Personal_Fitness_Manager/input -o /dev/shm/work/Personal_Fitness_Manager/sync -m 4G -Q -M fuzzer-master -x /dev/shm/work/Personal_Fitness_Manager/Personal_Fitness_Manager.dict -- data/linux/processed-challenges/Personal_Fitness_Manager/bin/Personal_Fitness_Manager\n'
p23
I6
tp24
a(I1440
S'start_time     : 1500165983\nlast_update    : 1500167366\nfuzzer_pid     : 2181\ncycles_done    : 0\nexecs_done     : 1372238\nexecs_per_sec  : 944.49\npaths_total    : 87\npaths_favored  : 24\npaths_found    : 86\npaths_imported : 0\nmax_depth      : 7\ncur_path       : 50\npending_favs   : 16\npending_total  : 69\nvariable_paths : 0\nbitmap_cvg     : 0.58%\nunique_crashes : 0\nunique_hangs   : 0\nlast_path      : 1500167332\nlast_crash     : 0\nlast_hang      : 0\nexec_timeout   : 20\nafl_banner     : fuzzer-master\nafl_version    : 1.85b\ncommand_line   : /home/skaramcheti/.virtualenvs/afl/bin/afl-unix/afl-fuzz -i /dev/shm/work/Personal_Fitness_Manager/input -o /dev/shm/work/Personal_Fitness_Manager/sync -m 4G -Q -M fuzzer-master -x /dev/shm/work/Personal_Fitness_Manager/Personal_Fitness_Manager.dict -- data/linux/processed-challenges/Personal_Fitness_Manager/bin/Personal_Fitness_Manager\n'
p25
I2
tp26
a(I1560
S'start_time     : 1500165983\nlast_update    : 1500167486\nfuzzer_pid     : 2181\ncycles_done    : 0\nexecs_done     : 1486932\nexecs_per_sec  : 959.02\npaths_total    : 91\npaths_favored  : 23\npaths_found    : 90\npaths_imported : 0\nmax_depth      : 7\ncur_path       : 52\npending_favs   : 16\npending_total  : 72\nvariable_paths : 0\nbitmap_cvg     : 0.59%\nunique_crashes : 0\nunique_hangs   : 0\nlast_path      : 1500167451\nlast_crash     : 0\nlast_hang      : 0\nexec_timeout   : 20\nafl_banner     : fuzzer-master\nafl_version    : 1.85b\ncommand_line   : /home/skaramcheti/.virtualenvs/afl/bin/afl-unix/afl-fuzz -i /dev/shm/work/Personal_Fitness_Manager/input -o /dev/shm/work/Personal_Fitness_Manager/sync -m 4G -Q -M fuzzer-master -x /dev/shm/work/Personal_Fitness_Manager/Personal_Fitness_Manager.dict -- data/linux/processed-challenges/Personal_Fitness_Manager/bin/Personal_Fitness_Manager\n'
p27
I5
tp28
a(I1680
S'start_time     : 1500165983\nlast_update    : 1500167606\nfuzzer_pid     : 2181\ncycles_done    : 0\nexecs_done     : 1606709\nexecs_per_sec  : 981.62\npaths_total    : 93\npaths_favored  : 23\npaths_found    : 92\npaths_imported : 0\nmax_depth      : 7\ncur_path       : 52\npending_favs   : 16\npending_total  : 74\nvariable_paths : 0\nbitmap_cvg     : 0.59%\nunique_crashes : 0\nunique_hangs   : 0\nlast_path      : 1500167538\nlast_crash     : 0\nlast_hang      : 0\nexec_timeout   : 20\nafl_banner     : fuzzer-master\nafl_version    : 1.85b\ncommand_line   : /home/skaramcheti/.virtualenvs/afl/bin/afl-unix/afl-fuzz -i /dev/shm/work/Personal_Fitness_Manager/input -o /dev/shm/work/Personal_Fitness_Manager/sync -m 4G -Q -M fuzzer-master -x /dev/shm/work/Personal_Fitness_Manager/Personal_Fitness_Manager.dict -- data/linux/processed-challenges/Personal_Fitness_Manager/bin/Personal_Fitness_Manager\n'
p29
I5
tp30
a(I1800
S'start_time     : 1500165983\nlast_update    : 1500167727\nfuzzer_pid     : 2181\ncycles_done    : 0\nexecs_done     : 1723455\nexecs_per_sec  : 1008.58\npaths_total    : 98\npaths_favored  : 25\npaths_found    : 97\npaths_imported : 0\nmax_depth      : 7\ncur_path       : 57\npending_favs   : 15\npending_total  : 77\nvariable_paths : 0\nbitmap_cvg     : 0.59%\nunique_crashes : 0\nunique_hangs   : 0\nlast_path      : 1500167660\nlast_crash     : 0\nlast_hang      : 0\nexec_timeout   : 20\nafl_banner     : fuzzer-master\nafl_version    : 1.85b\ncommand_line   : /home/skaramcheti/.virtualenvs/afl/bin/afl-unix/afl-fuzz -i /dev/shm/work/Personal_Fitness_Manager/input -o /dev/shm/work/Personal_Fitness_Manager/sync -m 4G -Q -M fuzzer-master -x /dev/shm/work/Personal_Fitness_Manager/Personal_Fitness_Manager.dict -- data/linux/processed-challenges/Personal_Fitness_Manager/bin/Personal_Fitness_Manager\n'
p31
I2
tp32
a(I1920
S'start_time     : 1500165983\nlast_update    : 1500167847\nfuzzer_pid     : 2181\ncycles_done    : 0\nexecs_done     : 1843104\nexecs_per_sec  : 1003.66\npaths_total    : 100\npaths_favored  : 27\npaths_found    : 99\npaths_imported : 0\nmax_depth      : 7\ncur_path       : 67\npending_favs   : 14\npending_total  : 76\nvariable_paths : 0\nbitmap_cvg     : 0.63%\nunique_crashes : 0\nunique_hangs   : 0\nlast_path      : 1500167761\nlast_crash     : 0\nlast_hang      : 0\nexec_timeout   : 20\nafl_banner     : fuzzer-master\nafl_version    : 1.85b\ncommand_line   : /home/skaramcheti/.virtualenvs/afl/bin/afl-unix/afl-fuzz -i /dev/shm/work/Personal_Fitness_Manager/input -o /dev/shm/work/Personal_Fitness_Manager/sync -m 4G -Q -M fuzzer-master -x /dev/shm/work/Personal_Fitness_Manager/Personal_Fitness_Manager.dict -- data/linux/processed-challenges/Personal_Fitness_Manager/bin/Personal_Fitness_Manager\n'
p33
I3
tp34
a(I2040
S'start_time     : 1500165983\nlast_update    : 1500167967\nfuzzer_pid     : 2181\ncycles_done    : 0\nexecs_done     : 1960578\nexecs_per_sec  : 1023.79\npaths_total    : 105\npaths_favored  : 28\npaths_found    : 104\npaths_imported : 0\nmax_depth      : 8\ncur_path       : 70\npending_favs   : 13\npending_total  : 79\nvariable_paths : 0\nbitmap_cvg     : 0.64%\nunique_crashes : 0\nunique_hangs   : 0\nlast_path      : 1500167960\nlast_crash     : 0\nlast_hang      : 0\nexec_timeout   : 20\nafl_banner     : fuzzer-master\nafl_version    : 1.85b\ncommand_line   : /home/skaramcheti/.virtualenvs/afl/bin/afl-unix/afl-fuzz -i /dev/shm/work/Personal_Fitness_Manager/input -o /dev/shm/work/Personal_Fitness_Manager/sync -m 4G -Q -M fuzzer-master -x /dev/shm/work/Personal_Fitness_Manager/Personal_Fitness_Manager.dict -- data/linux/processed-challenges/Personal_Fitness_Manager/bin/Personal_Fitness_Manager\n'
p35
I8
tp36
a(I2160
S'start_time     : 1500165983\nlast_update    : 1500168087\nfuzzer_pid     : 2181\ncycles_done    : 0\nexecs_done     : 2082840\nexecs_per_sec  : 996.00\npaths_total    : 111\npaths_favored  : 30\npaths_found    : 110\npaths_imported : 0\nmax_depth      : 8\ncur_path       : 72\npending_favs   : 13\npending_total  : 83\nvariable_paths : 0\nbitmap_cvg     : 0.64%\nunique_crashes : 0\nunique_hangs   : 0\nlast_path      : 1500168019\nlast_crash     : 0\nlast_hang      : 0\nexec_timeout   : 20\nafl_banner     : fuzzer-master\nafl_version    : 1.85b\ncommand_line   : /home/skaramcheti/.virtualenvs/afl/bin/afl-unix/afl-fuzz -i /dev/shm/work/Personal_Fitness_Manager/input -o /dev/shm/work/Personal_Fitness_Manager/sync -m 4G -Q -M fuzzer-master -x /dev/shm/work/Personal_Fitness_Manager/Personal_Fitness_Manager.dict -- data/linux/processed-challenges/Personal_Fitness_Manager/bin/Personal_Fitness_Manager\n'
p37
I0
tp38
a(I2280
S'start_time     : 1500165983\nlast_update    : 1500168208\nfuzzer_pid     : 2181\ncycles_done    : 0\nexecs_done     : 2202691\nexecs_per_sec  : 1024.56\npaths_total    : 113\npaths_favored  : 31\npaths_found    : 112\npaths_imported : 0\nmax_depth      : 8\ncur_path       : 76\npending_favs   : 12\npending_total  : 83\nvariable_paths : 0\nbitmap_cvg     : 0.64%\nunique_crashes : 0\nunique_hangs   : 0\nlast_path      : 1500168202\nlast_crash     : 0\nlast_hang      : 0\nexec_timeout   : 20\nafl_banner     : fuzzer-master\nafl_version    : 1.85b\ncommand_line   : /home/skaramcheti/.virtualenvs/afl/bin/afl-unix/afl-fuzz -i /dev/shm/work/Personal_Fitness_Manager/input -o /dev/shm/work/Personal_Fitness_Manager/sync -m 4G -Q -M fuzzer-master -x /dev/shm/work/Personal_Fitness_Manager/Personal_Fitness_Manager.dict -- data/linux/processed-challenges/Personal_Fitness_Manager/bin/Personal_Fitness_Manager\n'
p39
I2
tp40
a(I2400
S'start_time     : 1500165983\nlast_update    : 1500168328\nfuzzer_pid     : 2181\ncycles_done    : 0\nexecs_done     : 2315979\nexecs_per_sec  : 860.67\npaths_total    : 115\npaths_favored  : 31\npaths_found    : 114\npaths_imported : 0\nmax_depth      : 8\ncur_path       : 93\npending_favs   : 7\npending_total  : 80\nvariable_paths : 0\nbitmap_cvg     : 0.65%\nunique_crashes : 0\nunique_hangs   : 0\nlast_path      : 1500168321\nlast_crash     : 0\nlast_hang      : 0\nexec_timeout   : 20\nafl_banner     : fuzzer-master\nafl_version    : 1.85b\ncommand_line   : /home/skaramcheti/.virtualenvs/afl/bin/afl-unix/afl-fuzz -i /dev/shm/work/Personal_Fitness_Manager/input -o /dev/shm/work/Personal_Fitness_Manager/sync -m 4G -Q -M fuzzer-master -x /dev/shm/work/Personal_Fitness_Manager/Personal_Fitness_Manager.dict -- data/linux/processed-challenges/Personal_Fitness_Manager/bin/Personal_Fitness_Manager\n'
p41
I5
tp42
a(I2520
S'start_time     : 1500165983\nlast_update    : 1500168448\nfuzzer_pid     : 2181\ncycles_done    : 0\nexecs_done     : 2430073\nexecs_per_sec  : 983.10\npaths_total    : 125\npaths_favored  : 32\npaths_found    : 124\npaths_imported : 0\nmax_depth      : 8\ncur_path       : 99\npending_favs   : 6\npending_total  : 88\nvariable_paths : 0\nbitmap_cvg     : 0.71%\nunique_crashes : 0\nunique_hangs   : 0\nlast_path      : 1500168441\nlast_crash     : 0\nlast_hang      : 0\nexec_timeout   : 20\nafl_banner     : fuzzer-master\nafl_version    : 1.85b\ncommand_line   : /home/skaramcheti/.virtualenvs/afl/bin/afl-unix/afl-fuzz -i /dev/shm/work/Personal_Fitness_Manager/input -o /dev/shm/work/Personal_Fitness_Manager/sync -m 4G -Q -M fuzzer-master -x /dev/shm/work/Personal_Fitness_Manager/Personal_Fitness_Manager.dict -- data/linux/processed-challenges/Personal_Fitness_Manager/bin/Personal_Fitness_Manager\n'
p43
I7
tp44
a(I2640
S'start_time     : 1500165983\nlast_update    : 1500168568\nfuzzer_pid     : 2181\ncycles_done    : 0\nexecs_done     : 2545899\nexecs_per_sec  : 908.23\npaths_total    : 126\npaths_favored  : 36\npaths_found    : 125\npaths_imported : 0\nmax_depth      : 9\ncur_path       : 102\npending_favs   : 11\npending_total  : 88\nvariable_paths : 0\nbitmap_cvg     : 0.73%\nunique_crashes : 0\nunique_hangs   : 0\nlast_path      : 1500168561\nlast_crash     : 0\nlast_hang      : 0\nexec_timeout   : 20\nafl_banner     : fuzzer-master\nafl_version    : 1.85b\ncommand_line   : /home/skaramcheti/.virtualenvs/afl/bin/afl-unix/afl-fuzz -i /dev/shm/work/Personal_Fitness_Manager/input -o /dev/shm/work/Personal_Fitness_Manager/sync -m 4G -Q -M fuzzer-master -x /dev/shm/work/Personal_Fitness_Manager/Personal_Fitness_Manager.dict -- data/linux/processed-challenges/Personal_Fitness_Manager/bin/Personal_Fitness_Manager\n'
p45
I3
tp46
a(I2760
S'start_time     : 1500165983\nlast_update    : 1500168688\nfuzzer_pid     : 2181\ncycles_done    : 0\nexecs_done     : 2665505\nexecs_per_sec  : 1008.76\npaths_total    : 131\npaths_favored  : 34\npaths_found    : 130\npaths_imported : 0\nmax_depth      : 9\ncur_path       : 104\npending_favs   : 10\npending_total  : 91\nvariable_paths : 0\nbitmap_cvg     : 0.75%\nunique_crashes : 0\nunique_hangs   : 0\nlast_path      : 1500168655\nlast_crash     : 0\nlast_hang      : 0\nexec_timeout   : 20\nafl_banner     : fuzzer-master\nafl_version    : 1.85b\ncommand_line   : /home/skaramcheti/.virtualenvs/afl/bin/afl-unix/afl-fuzz -i /dev/shm/work/Personal_Fitness_Manager/input -o /dev/shm/work/Personal_Fitness_Manager/sync -m 4G -Q -M fuzzer-master -x /dev/shm/work/Personal_Fitness_Manager/Personal_Fitness_Manager.dict -- data/linux/processed-challenges/Personal_Fitness_Manager/bin/Personal_Fitness_Manager\n'
p47
I4
tp48
a(I2880
S'start_time     : 1500165983\nlast_update    : 1500168809\nfuzzer_pid     : 2181\ncycles_done    : 0\nexecs_done     : 2786332\nexecs_per_sec  : 1027.53\npaths_total    : 133\npaths_favored  : 34\npaths_found    : 132\npaths_imported : 0\nmax_depth      : 9\ncur_path       : 106\npending_favs   : 10\npending_total  : 92\nvariable_paths : 0\nbitmap_cvg     : 0.75%\nunique_crashes : 0\nunique_hangs   : 0\nlast_path      : 1500168748\nlast_crash     : 0\nlast_hang      : 0\nexec_timeout   : 20\nafl_banner     : fuzzer-master\nafl_version    : 1.85b\ncommand_line   : /home/skaramcheti/.virtualenvs/afl/bin/afl-unix/afl-fuzz -i /dev/shm/work/Personal_Fitness_Manager/input -o /dev/shm/work/Personal_Fitness_Manager/sync -m 4G -Q -M fuzzer-master -x /dev/shm/work/Personal_Fitness_Manager/Personal_Fitness_Manager.dict -- data/linux/processed-challenges/Personal_Fitness_Manager/bin/Personal_Fitness_Manager\n'
p49
I2
tp50
a(I3000
S'start_time     : 1500165983\nlast_update    : 1500168929\nfuzzer_pid     : 2181\ncycles_done    : 0\nexecs_done     : 2902331\nexecs_per_sec  : 993.75\npaths_total    : 136\npaths_favored  : 34\npaths_found    : 135\npaths_imported : 0\nmax_depth      : 9\ncur_path       : 117\npending_favs   : 8\npending_total  : 93\nvariable_paths : 0\nbitmap_cvg     : 0.78%\nunique_crashes : 0\nunique_hangs   : 0\nlast_path      : 1500168876\nlast_crash     : 0\nlast_hang      : 0\nexec_timeout   : 20\nafl_banner     : fuzzer-master\nafl_version    : 1.85b\ncommand_line   : /home/skaramcheti/.virtualenvs/afl/bin/afl-unix/afl-fuzz -i /dev/shm/work/Personal_Fitness_Manager/input -o /dev/shm/work/Personal_Fitness_Manager/sync -m 4G -Q -M fuzzer-master -x /dev/shm/work/Personal_Fitness_Manager/Personal_Fitness_Manager.dict -- data/linux/processed-challenges/Personal_Fitness_Manager/bin/Personal_Fitness_Manager\n'
p51
I2
tp52
a(I3120
S'start_time     : 1500165983\nlast_update    : 1500169049\nfuzzer_pid     : 2181\ncycles_done    : 0\nexecs_done     : 3020220\nexecs_per_sec  : 938.58\npaths_total    : 138\npaths_favored  : 36\npaths_found    : 137\npaths_imported : 0\nmax_depth      : 9\ncur_path       : 120\npending_favs   : 10\npending_total  : 94\nvariable_paths : 0\nbitmap_cvg     : 0.78%\nunique_crashes : 0\nunique_hangs   : 0\nlast_path      : 1500169015\nlast_crash     : 0\nlast_hang      : 0\nexec_timeout   : 20\nafl_banner     : fuzzer-master\nafl_version    : 1.85b\ncommand_line   : /home/skaramcheti/.virtualenvs/afl/bin/afl-unix/afl-fuzz -i /dev/shm/work/Personal_Fitness_Manager/input -o /dev/shm/work/Personal_Fitness_Manager/sync -m 4G -Q -M fuzzer-master -x /dev/shm/work/Personal_Fitness_Manager/Personal_Fitness_Manager.dict -- data/linux/processed-challenges/Personal_Fitness_Manager/bin/Personal_Fitness_Manager\n'
p53
I9
tp54
a(I3240
S'start_time     : 1500165983\nlast_update    : 1500169169\nfuzzer_pid     : 2181\ncycles_done    : 0\nexecs_done     : 3131130\nexecs_per_sec  : 922.75\npaths_total    : 147\npaths_favored  : 36\npaths_found    : 146\npaths_imported : 0\nmax_depth      : 9\ncur_path       : 122\npending_favs   : 9\npending_total  : 102\nvariable_paths : 0\nbitmap_cvg     : 0.79%\nunique_crashes : 0\nunique_hangs   : 0\nlast_path      : 1500169135\nlast_crash     : 0\nlast_hang      : 0\nexec_timeout   : 20\nafl_banner     : fuzzer-master\nafl_version    : 1.85b\ncommand_line   : /home/skaramcheti/.virtualenvs/afl/bin/afl-unix/afl-fuzz -i /dev/shm/work/Personal_Fitness_Manager/input -o /dev/shm/work/Personal_Fitness_Manager/sync -m 4G -Q -M fuzzer-master -x /dev/shm/work/Personal_Fitness_Manager/Personal_Fitness_Manager.dict -- data/linux/processed-challenges/Personal_Fitness_Manager/bin/Personal_Fitness_Manager\n'
p55
I2
tp56
a(I3360
S'start_time     : 1500165983\nlast_update    : 1500169290\nfuzzer_pid     : 2181\ncycles_done    : 0\nexecs_done     : 3242117\nexecs_per_sec  : 942.97\npaths_total    : 149\npaths_favored  : 39\npaths_found    : 148\npaths_imported : 0\nmax_depth      : 9\ncur_path       : 123\npending_favs   : 12\npending_total  : 103\nvariable_paths : 0\nbitmap_cvg     : 0.79%\nunique_crashes : 0\nunique_hangs   : 0\nlast_path      : 1500169261\nlast_crash     : 0\nlast_hang      : 0\nexec_timeout   : 20\nafl_banner     : fuzzer-master\nafl_version    : 1.85b\ncommand_line   : /home/skaramcheti/.virtualenvs/afl/bin/afl-unix/afl-fuzz -i /dev/shm/work/Personal_Fitness_Manager/input -o /dev/shm/work/Personal_Fitness_Manager/sync -m 4G -Q -M fuzzer-master -x /dev/shm/work/Personal_Fitness_Manager/Personal_Fitness_Manager.dict -- data/linux/processed-challenges/Personal_Fitness_Manager/bin/Personal_Fitness_Manager\n'
p57
I5
tp58
a(I3480
S'start_time     : 1500165983\nlast_update    : 1500169410\nfuzzer_pid     : 2181\ncycles_done    : 0\nexecs_done     : 3352541\nexecs_per_sec  : 911.17\npaths_total    : 152\npaths_favored  : 39\npaths_found    : 151\npaths_imported : 0\nmax_depth      : 9\ncur_path       : 123\npending_favs   : 12\npending_total  : 106\nvariable_paths : 0\nbitmap_cvg     : 0.81%\nunique_crashes : 0\nunique_hangs   : 0\nlast_path      : 1500169346\nlast_crash     : 0\nlast_hang      : 0\nexec_timeout   : 20\nafl_banner     : fuzzer-master\nafl_version    : 1.85b\ncommand_line   : /home/skaramcheti/.virtualenvs/afl/bin/afl-unix/afl-fuzz -i /dev/shm/work/Personal_Fitness_Manager/input -o /dev/shm/work/Personal_Fitness_Manager/sync -m 4G -Q -M fuzzer-master -x /dev/shm/work/Personal_Fitness_Manager/Personal_Fitness_Manager.dict -- data/linux/processed-challenges/Personal_Fitness_Manager/bin/Personal_Fitness_Manager\n'
p59
I0
tp60
a(I3600
S'start_time     : 1500165983\nlast_update    : 1500169530\nfuzzer_pid     : 2181\ncycles_done    : 0\nexecs_done     : 3460781\nexecs_per_sec  : 957.83\npaths_total    : 154\npaths_favored  : 39\npaths_found    : 153\npaths_imported : 0\nmax_depth      : 10\ncur_path       : 125\npending_favs   : 11\npending_total  : 106\nvariable_paths : 0\nbitmap_cvg     : 0.81%\nunique_crashes : 0\nunique_hangs   : 0\nlast_path      : 1500169508\nlast_crash     : 0\nlast_hang      : 0\nexec_timeout   : 20\nafl_banner     : fuzzer-master\nafl_version    : 1.85b\ncommand_line   : /home/skaramcheti/.virtualenvs/afl/bin/afl-unix/afl-fuzz -i /dev/shm/work/Personal_Fitness_Manager/input -o /dev/shm/work/Personal_Fitness_Manager/sync -m 4G -Q -M fuzzer-master -x /dev/shm/work/Personal_Fitness_Manager/Personal_Fitness_Manager.dict -- data/linux/processed-challenges/Personal_Fitness_Manager/bin/Personal_Fitness_Manager\n'
p61
I6
tp62
a(I3720
S'start_time     : 1500165983\nlast_update    : 1500169650\nfuzzer_pid     : 2181\ncycles_done    : 0\nexecs_done     : 3568795\nexecs_per_sec  : 882.61\npaths_total    : 163\npaths_favored  : 40\npaths_found    : 162\npaths_imported : 0\nmax_depth      : 10\ncur_path       : 126\npending_favs   : 11\npending_total  : 114\nvariable_paths : 0\nbitmap_cvg     : 0.83%\nunique_crashes : 0\nunique_hangs   : 0\nlast_path      : 1500169599\nlast_crash     : 0\nlast_hang      : 0\nexec_timeout   : 20\nafl_banner     : fuzzer-master\nafl_version    : 1.85b\ncommand_line   : /home/skaramcheti/.virtualenvs/afl/bin/afl-unix/afl-fuzz -i /dev/shm/work/Personal_Fitness_Manager/input -o /dev/shm/work/Personal_Fitness_Manager/sync -m 4G -Q -M fuzzer-master -x /dev/shm/work/Personal_Fitness_Manager/Personal_Fitness_Manager.dict -- data/linux/processed-challenges/Personal_Fitness_Manager/bin/Personal_Fitness_Manager\n'
p63
I5
tp64
a(I3840
S'start_time     : 1500165983\nlast_update    : 1500169771\nfuzzer_pid     : 2181\ncycles_done    : 0\nexecs_done     : 3677126\nexecs_per_sec  : 945.68\npaths_total    : 163\npaths_favored  : 46\npaths_found    : 162\npaths_imported : 0\nmax_depth      : 10\ncur_path       : 128\npending_favs   : 17\npending_total  : 113\nvariable_paths : 0\nbitmap_cvg     : 0.83%\nunique_crashes : 0\nunique_hangs   : 0\nlast_path      : 1500169599\nlast_crash     : 0\nlast_hang      : 0\nexec_timeout   : 20\nafl_banner     : fuzzer-master\nafl_version    : 1.85b\ncommand_line   : /home/skaramcheti/.virtualenvs/afl/bin/afl-unix/afl-fuzz -i /dev/shm/work/Personal_Fitness_Manager/input -o /dev/shm/work/Personal_Fitness_Manager/sync -m 4G -Q -M fuzzer-master -x /dev/shm/work/Personal_Fitness_Manager/Personal_Fitness_Manager.dict -- data/linux/processed-challenges/Personal_Fitness_Manager/bin/Personal_Fitness_Manager\n'
p65
I2
tp66
a(I3960
S'start_time     : 1500165983\nlast_update    : 1500169891\nfuzzer_pid     : 2181\ncycles_done    : 0\nexecs_done     : 3789255\nexecs_per_sec  : 954.55\npaths_total    : 168\npaths_favored  : 46\npaths_found    : 167\npaths_imported : 0\nmax_depth      : 10\ncur_path       : 133\npending_favs   : 16\npending_total  : 117\nvariable_paths : 0\nbitmap_cvg     : 0.84%\nunique_crashes : 0\nunique_hangs   : 1\nlast_path      : 1500169857\nlast_crash     : 0\nlast_hang      : 1500169815\nexec_timeout   : 20\nafl_banner     : fuzzer-master\nafl_version    : 1.85b\ncommand_line   : /home/skaramcheti/.virtualenvs/afl/bin/afl-unix/afl-fuzz -i /dev/shm/work/Personal_Fitness_Manager/input -o /dev/shm/work/Personal_Fitness_Manager/sync -m 4G -Q -M fuzzer-master -x /dev/shm/work/Personal_Fitness_Manager/Personal_Fitness_Manager.dict -- data/linux/processed-challenges/Personal_Fitness_Manager/bin/Personal_Fitness_Manager\n'
p67
I4
tp68
a(I4080
S'start_time     : 1500165983\nlast_update    : 1500170011\nfuzzer_pid     : 2181\ncycles_done    : 0\nexecs_done     : 3899782\nexecs_per_sec  : 893.37\npaths_total    : 173\npaths_favored  : 46\npaths_found    : 172\npaths_imported : 0\nmax_depth      : 10\ncur_path       : 134\npending_favs   : 16\npending_total  : 121\nvariable_paths : 0\nbitmap_cvg     : 0.84%\nunique_crashes : 0\nunique_hangs   : 1\nlast_path      : 1500169998\nlast_crash     : 0\nlast_hang      : 1500169815\nexec_timeout   : 20\nafl_banner     : fuzzer-master\nafl_version    : 1.85b\ncommand_line   : /home/skaramcheti/.virtualenvs/afl/bin/afl-unix/afl-fuzz -i /dev/shm/work/Personal_Fitness_Manager/input -o /dev/shm/work/Personal_Fitness_Manager/sync -m 4G -Q -M fuzzer-master -x /dev/shm/work/Personal_Fitness_Manager/Personal_Fitness_Manager.dict -- data/linux/processed-challenges/Personal_Fitness_Manager/bin/Personal_Fitness_Manager\n'
p69
I5
tp70
a(I4200
S'start_time     : 1500165983\nlast_update    : 1500170131\nfuzzer_pid     : 2181\ncycles_done    : 0\nexecs_done     : 4007473\nexecs_per_sec  : 885.83\npaths_total    : 177\npaths_favored  : 46\npaths_found    : 176\npaths_imported : 0\nmax_depth      : 10\ncur_path       : 135\npending_favs   : 15\npending_total  : 124\nvariable_paths : 0\nbitmap_cvg     : 0.84%\nunique_crashes : 0\nunique_hangs   : 1\nlast_path      : 1500170116\nlast_crash     : 0\nlast_hang      : 1500169815\nexec_timeout   : 20\nafl_banner     : fuzzer-master\nafl_version    : 1.85b\ncommand_line   : /home/skaramcheti/.virtualenvs/afl/bin/afl-unix/afl-fuzz -i /dev/shm/work/Personal_Fitness_Manager/input -o /dev/shm/work/Personal_Fitness_Manager/sync -m 4G -Q -M fuzzer-master -x /dev/shm/work/Personal_Fitness_Manager/Personal_Fitness_Manager.dict -- data/linux/processed-challenges/Personal_Fitness_Manager/bin/Personal_Fitness_Manager\n'
p71
I4
tp72
a(I4320
S'start_time     : 1500165983\nlast_update    : 1500170252\nfuzzer_pid     : 2181\ncycles_done    : 0\nexecs_done     : 4115050\nexecs_per_sec  : 902.82\npaths_total    : 182\npaths_favored  : 46\npaths_found    : 181\npaths_imported : 0\nmax_depth      : 10\ncur_path       : 135\npending_favs   : 15\npending_total  : 129\nvariable_paths : 0\nbitmap_cvg     : 0.85%\nunique_crashes : 0\nunique_hangs   : 1\nlast_path      : 1500170251\nlast_crash     : 0\nlast_hang      : 1500169815\nexec_timeout   : 20\nafl_banner     : fuzzer-master\nafl_version    : 1.85b\ncommand_line   : /home/skaramcheti/.virtualenvs/afl/bin/afl-unix/afl-fuzz -i /dev/shm/work/Personal_Fitness_Manager/input -o /dev/shm/work/Personal_Fitness_Manager/sync -m 4G -Q -M fuzzer-master -x /dev/shm/work/Personal_Fitness_Manager/Personal_Fitness_Manager.dict -- data/linux/processed-challenges/Personal_Fitness_Manager/bin/Personal_Fitness_Manager\n'
p73
I4
tp74
a(I4440
S'start_time     : 1500165983\nlast_update    : 1500170372\nfuzzer_pid     : 2181\ncycles_done    : 0\nexecs_done     : 4223787\nexecs_per_sec  : 955.38\npaths_total    : 187\npaths_favored  : 47\npaths_found    : 186\npaths_imported : 0\nmax_depth      : 10\ncur_path       : 146\npending_favs   : 14\npending_total  : 132\nvariable_paths : 0\nbitmap_cvg     : 0.85%\nunique_crashes : 0\nunique_hangs   : 1\nlast_path      : 1500170347\nlast_crash     : 0\nlast_hang      : 1500169815\nexec_timeout   : 20\nafl_banner     : fuzzer-master\nafl_version    : 1.85b\ncommand_line   : /home/skaramcheti/.virtualenvs/afl/bin/afl-unix/afl-fuzz -i /dev/shm/work/Personal_Fitness_Manager/input -o /dev/shm/work/Personal_Fitness_Manager/sync -m 4G -Q -M fuzzer-master -x /dev/shm/work/Personal_Fitness_Manager/Personal_Fitness_Manager.dict -- data/linux/processed-challenges/Personal_Fitness_Manager/bin/Personal_Fitness_Manager\n'
p75
I6
tp76
a(I4560
S'start_time     : 1500165983\nlast_update    : 1500170492\nfuzzer_pid     : 2181\ncycles_done    : 0\nexecs_done     : 4337479\nexecs_per_sec  : 918.70\npaths_total    : 190\npaths_favored  : 47\npaths_found    : 189\npaths_imported : 0\nmax_depth      : 10\ncur_path       : 146\npending_favs   : 14\npending_total  : 135\nvariable_paths : 0\nbitmap_cvg     : 0.86%\nunique_crashes : 0\nunique_hangs   : 1\nlast_path      : 1500170468\nlast_crash     : 0\nlast_hang      : 1500169815\nexec_timeout   : 20\nafl_banner     : fuzzer-master\nafl_version    : 1.85b\ncommand_line   : /home/skaramcheti/.virtualenvs/afl/bin/afl-unix/afl-fuzz -i /dev/shm/work/Personal_Fitness_Manager/input -o /dev/shm/work/Personal_Fitness_Manager/sync -m 4G -Q -M fuzzer-master -x /dev/shm/work/Personal_Fitness_Manager/Personal_Fitness_Manager.dict -- data/linux/processed-challenges/Personal_Fitness_Manager/bin/Personal_Fitness_Manager\n'
p77
I2
tp78
a(I4680
S'start_time     : 1500165983\nlast_update    : 1500170612\nfuzzer_pid     : 2181\ncycles_done    : 0\nexecs_done     : 4445921\nexecs_per_sec  : 956.58\npaths_total    : 197\npaths_favored  : 50\npaths_found    : 196\npaths_imported : 0\nmax_depth      : 10\ncur_path       : 151\npending_favs   : 17\npending_total  : 140\nvariable_paths : 0\nbitmap_cvg     : 0.87%\nunique_crashes : 0\nunique_hangs   : 1\nlast_path      : 1500170595\nlast_crash     : 0\nlast_hang      : 1500169815\nexec_timeout   : 20\nafl_banner     : fuzzer-master\nafl_version    : 1.85b\ncommand_line   : /home/skaramcheti/.virtualenvs/afl/bin/afl-unix/afl-fuzz -i /dev/shm/work/Personal_Fitness_Manager/input -o /dev/shm/work/Personal_Fitness_Manager/sync -m 4G -Q -M fuzzer-master -x /dev/shm/work/Personal_Fitness_Manager/Personal_Fitness_Manager.dict -- data/linux/processed-challenges/Personal_Fitness_Manager/bin/Personal_Fitness_Manager\n'
p79
I7
tp80
a(I4800
S'start_time     : 1500165983\nlast_update    : 1500170732\nfuzzer_pid     : 2181\ncycles_done    : 0\nexecs_done     : 4558835\nexecs_per_sec  : 910.99\npaths_total    : 199\npaths_favored  : 50\npaths_found    : 198\npaths_imported : 0\nmax_depth      : 10\ncur_path       : 151\npending_favs   : 17\npending_total  : 142\nvariable_paths : 0\nbitmap_cvg     : 0.87%\nunique_crashes : 0\nunique_hangs   : 1\nlast_path      : 1500170678\nlast_crash     : 0\nlast_hang      : 1500169815\nexec_timeout   : 20\nafl_banner     : fuzzer-master\nafl_version    : 1.85b\ncommand_line   : /home/skaramcheti/.virtualenvs/afl/bin/afl-unix/afl-fuzz -i /dev/shm/work/Personal_Fitness_Manager/input -o /dev/shm/work/Personal_Fitness_Manager/sync -m 4G -Q -M fuzzer-master -x /dev/shm/work/Personal_Fitness_Manager/Personal_Fitness_Manager.dict -- data/linux/processed-challenges/Personal_Fitness_Manager/bin/Personal_Fitness_Manager\n'
p81
I3
tp82
a(I4920
S'start_time     : 1500165983\nlast_update    : 1500170852\nfuzzer_pid     : 2181\ncycles_done    : 0\nexecs_done     : 4663113\nexecs_per_sec  : 870.59\npaths_total    : 202\npaths_favored  : 53\npaths_found    : 201\npaths_imported : 0\nmax_depth      : 11\ncur_path       : 155\npending_favs   : 19\npending_total  : 143\nvariable_paths : 0\nbitmap_cvg     : 0.87%\nunique_crashes : 0\nunique_hangs   : 1\nlast_path      : 1500170850\nlast_crash     : 0\nlast_hang      : 1500169815\nexec_timeout   : 20\nafl_banner     : fuzzer-master\nafl_version    : 1.85b\ncommand_line   : /home/skaramcheti/.virtualenvs/afl/bin/afl-unix/afl-fuzz -i /dev/shm/work/Personal_Fitness_Manager/input -o /dev/shm/work/Personal_Fitness_Manager/sync -m 4G -Q -M fuzzer-master -x /dev/shm/work/Personal_Fitness_Manager/Personal_Fitness_Manager.dict -- data/linux/processed-challenges/Personal_Fitness_Manager/bin/Personal_Fitness_Manager\n'
p83
I2
tp84
a(I5040
S'start_time     : 1500165983\nlast_update    : 1500170973\nfuzzer_pid     : 2181\ncycles_done    : 0\nexecs_done     : 4769010\nexecs_per_sec  : 849.67\npaths_total    : 202\npaths_favored  : 53\npaths_found    : 201\npaths_imported : 0\nmax_depth      : 11\ncur_path       : 157\npending_favs   : 17\npending_total  : 141\nvariable_paths : 0\nbitmap_cvg     : 0.87%\nunique_crashes : 0\nunique_hangs   : 1\nlast_path      : 1500170850\nlast_crash     : 0\nlast_hang      : 1500169815\nexec_timeout   : 20\nafl_banner     : fuzzer-master\nafl_version    : 1.85b\ncommand_line   : /home/skaramcheti/.virtualenvs/afl/bin/afl-unix/afl-fuzz -i /dev/shm/work/Personal_Fitness_Manager/input -o /dev/shm/work/Personal_Fitness_Manager/sync -m 4G -Q -M fuzzer-master -x /dev/shm/work/Personal_Fitness_Manager/Personal_Fitness_Manager.dict -- data/linux/processed-challenges/Personal_Fitness_Manager/bin/Personal_Fitness_Manager\n'
p85
I1
tp86
a(I5160
S'start_time     : 1500165983\nlast_update    : 1500171093\nfuzzer_pid     : 2181\ncycles_done    : 0\nexecs_done     : 4876537\nexecs_per_sec  : 924.71\npaths_total    : 203\npaths_favored  : 53\npaths_found    : 202\npaths_imported : 0\nmax_depth      : 11\ncur_path       : 161\npending_favs   : 15\npending_total  : 140\nvariable_paths : 0\nbitmap_cvg     : 0.87%\nunique_crashes : 0\nunique_hangs   : 1\nlast_path      : 1500171005\nlast_crash     : 0\nlast_hang      : 1500169815\nexec_timeout   : 20\nafl_banner     : fuzzer-master\nafl_version    : 1.85b\ncommand_line   : /home/skaramcheti/.virtualenvs/afl/bin/afl-unix/afl-fuzz -i /dev/shm/work/Personal_Fitness_Manager/input -o /dev/shm/work/Personal_Fitness_Manager/sync -m 4G -Q -M fuzzer-master -x /dev/shm/work/Personal_Fitness_Manager/Personal_Fitness_Manager.dict -- data/linux/processed-challenges/Personal_Fitness_Manager/bin/Personal_Fitness_Manager\n'
p87
I1
tp88
a(I5280
S'start_time     : 1500165983\nlast_update    : 1500171213\nfuzzer_pid     : 2181\ncycles_done    : 0\nexecs_done     : 4988568\nexecs_per_sec  : 951.60\npaths_total    : 210\npaths_favored  : 53\npaths_found    : 209\npaths_imported : 0\nmax_depth      : 11\ncur_path       : 167\npending_favs   : 13\npending_total  : 145\nvariable_paths : 0\nbitmap_cvg     : 0.88%\nunique_crashes : 0\nunique_hangs   : 1\nlast_path      : 1500171208\nlast_crash     : 0\nlast_hang      : 1500169815\nexec_timeout   : 20\nafl_banner     : fuzzer-master\nafl_version    : 1.85b\ncommand_line   : /home/skaramcheti/.virtualenvs/afl/bin/afl-unix/afl-fuzz -i /dev/shm/work/Personal_Fitness_Manager/input -o /dev/shm/work/Personal_Fitness_Manager/sync -m 4G -Q -M fuzzer-master -x /dev/shm/work/Personal_Fitness_Manager/Personal_Fitness_Manager.dict -- data/linux/processed-challenges/Personal_Fitness_Manager/bin/Personal_Fitness_Manager\n'
p89
I8
tp90
a(I5400
S'start_time     : 1500165983\nlast_update    : 1500171333\nfuzzer_pid     : 2181\ncycles_done    : 0\nexecs_done     : 5102998\nexecs_per_sec  : 953.52\npaths_total    : 215\npaths_favored  : 53\npaths_found    : 214\npaths_imported : 0\nmax_depth      : 11\ncur_path       : 167\npending_favs   : 13\npending_total  : 150\nvariable_paths : 0\nbitmap_cvg     : 0.88%\nunique_crashes : 0\nunique_hangs   : 2\nlast_path      : 1500171325\nlast_crash     : 0\nlast_hang      : 1500171307\nexec_timeout   : 20\nafl_banner     : fuzzer-master\nafl_version    : 1.85b\ncommand_line   : /home/skaramcheti/.virtualenvs/afl/bin/afl-unix/afl-fuzz -i /dev/shm/work/Personal_Fitness_Manager/input -o /dev/shm/work/Personal_Fitness_Manager/sync -m 4G -Q -M fuzzer-master -x /dev/shm/work/Personal_Fitness_Manager/Personal_Fitness_Manager.dict -- data/linux/processed-challenges/Personal_Fitness_Manager/bin/Personal_Fitness_Manager\n'
p91
I7
tp92
a(I5520
S'start_time     : 1500165983\nlast_update    : 1500171453\nfuzzer_pid     : 2181\ncycles_done    : 0\nexecs_done     : 5216222\nexecs_per_sec  : 948.18\npaths_total    : 219\npaths_favored  : 58\npaths_found    : 218\npaths_imported : 0\nmax_depth      : 11\ncur_path       : 183\npending_favs   : 17\npending_total  : 152\nvariable_paths : 0\nbitmap_cvg     : 0.89%\nunique_crashes : 0\nunique_hangs   : 2\nlast_path      : 1500171385\nlast_crash     : 0\nlast_hang      : 1500171307\nexec_timeout   : 20\nafl_banner     : fuzzer-master\nafl_version    : 1.85b\ncommand_line   : /home/skaramcheti/.virtualenvs/afl/bin/afl-unix/afl-fuzz -i /dev/shm/work/Personal_Fitness_Manager/input -o /dev/shm/work/Personal_Fitness_Manager/sync -m 4G -Q -M fuzzer-master -x /dev/shm/work/Personal_Fitness_Manager/Personal_Fitness_Manager.dict -- data/linux/processed-challenges/Personal_Fitness_Manager/bin/Personal_Fitness_Manager\n'
p93
I4
tp94
a(I5640
S'start_time     : 1500165983\nlast_update    : 1500171574\nfuzzer_pid     : 2181\ncycles_done    : 0\nexecs_done     : 5327910\nexecs_per_sec  : 929.59\npaths_total    : 224\npaths_favored  : 58\npaths_found    : 223\npaths_imported : 0\nmax_depth      : 11\ncur_path       : 186\npending_favs   : 16\npending_total  : 156\nvariable_paths : 0\nbitmap_cvg     : 0.89%\nunique_crashes : 0\nunique_hangs   : 2\nlast_path      : 1500171537\nlast_crash     : 0\nlast_hang      : 1500171307\nexec_timeout   : 20\nafl_banner     : fuzzer-master\nafl_version    : 1.85b\ncommand_line   : /home/skaramcheti/.virtualenvs/afl/bin/afl-unix/afl-fuzz -i /dev/shm/work/Personal_Fitness_Manager/input -o /dev/shm/work/Personal_Fitness_Manager/sync -m 4G -Q -M fuzzer-master -x /dev/shm/work/Personal_Fitness_Manager/Personal_Fitness_Manager.dict -- data/linux/processed-challenges/Personal_Fitness_Manager/bin/Personal_Fitness_Manager\n'
p95
I1
tp96
a(I5760
S'start_time     : 1500165983\nlast_update    : 1500171694\nfuzzer_pid     : 2181\ncycles_done    : 0\nexecs_done     : 5440233\nexecs_per_sec  : 954.38\npaths_total    : 224\npaths_favored  : 56\npaths_found    : 223\npaths_imported : 0\nmax_depth      : 11\ncur_path       : 188\npending_favs   : 16\npending_total  : 154\nvariable_paths : 0\nbitmap_cvg     : 0.89%\nunique_crashes : 0\nunique_hangs   : 2\nlast_path      : 1500171537\nlast_crash     : 0\nlast_hang      : 1500171307\nexec_timeout   : 20\nafl_banner     : fuzzer-master\nafl_version    : 1.85b\ncommand_line   : /home/skaramcheti/.virtualenvs/afl/bin/afl-unix/afl-fuzz -i /dev/shm/work/Personal_Fitness_Manager/input -o /dev/shm/work/Personal_Fitness_Manager/sync -m 4G -Q -M fuzzer-master -x /dev/shm/work/Personal_Fitness_Manager/Personal_Fitness_Manager.dict -- data/linux/processed-challenges/Personal_Fitness_Manager/bin/Personal_Fitness_Manager\n'
p97
I1
tp98
a(I5880
S'start_time     : 1500165983\nlast_update    : 1500171814\nfuzzer_pid     : 2181\ncycles_done    : 0\nexecs_done     : 5550234\nexecs_per_sec  : 874.40\npaths_total    : 226\npaths_favored  : 55\npaths_found    : 225\npaths_imported : 0\nmax_depth      : 11\ncur_path       : 193\npending_favs   : 14\npending_total  : 154\nvariable_paths : 0\nbitmap_cvg     : 0.89%\nunique_crashes : 0\nunique_hangs   : 2\nlast_path      : 1500171771\nlast_crash     : 0\nlast_hang      : 1500171307\nexec_timeout   : 20\nafl_banner     : fuzzer-master\nafl_version    : 1.85b\ncommand_line   : /home/skaramcheti/.virtualenvs/afl/bin/afl-unix/afl-fuzz -i /dev/shm/work/Personal_Fitness_Manager/input -o /dev/shm/work/Personal_Fitness_Manager/sync -m 4G -Q -M fuzzer-master -x /dev/shm/work/Personal_Fitness_Manager/Personal_Fitness_Manager.dict -- data/linux/processed-challenges/Personal_Fitness_Manager/bin/Personal_Fitness_Manager\n'
p99
I1
tp100
a(I6000
S'start_time     : 1500165983\nlast_update    : 1500171934\nfuzzer_pid     : 2181\ncycles_done    : 0\nexecs_done     : 5658431\nexecs_per_sec  : 916.01\npaths_total    : 228\npaths_favored  : 55\npaths_found    : 227\npaths_imported : 0\nmax_depth      : 11\ncur_path       : 194\npending_favs   : 13\npending_total  : 155\nvariable_paths : 0\nbitmap_cvg     : 0.89%\nunique_crashes : 0\nunique_hangs   : 2\nlast_path      : 1500171892\nlast_crash     : 0\nlast_hang      : 1500171307\nexec_timeout   : 20\nafl_banner     : fuzzer-master\nafl_version    : 1.85b\ncommand_line   : /home/skaramcheti/.virtualenvs/afl/bin/afl-unix/afl-fuzz -i /dev/shm/work/Personal_Fitness_Manager/input -o /dev/shm/work/Personal_Fitness_Manager/sync -m 4G -Q -M fuzzer-master -x /dev/shm/work/Personal_Fitness_Manager/Personal_Fitness_Manager.dict -- data/linux/processed-challenges/Personal_Fitness_Manager/bin/Personal_Fitness_Manager\n'
p101
I4
tp102
a(I6120
S'start_time     : 1500165983\nlast_update    : 1500172054\nfuzzer_pid     : 2181\ncycles_done    : 0\nexecs_done     : 5766894\nexecs_per_sec  : 837.08\npaths_total    : 230\npaths_favored  : 54\npaths_found    : 229\npaths_imported : 0\nmax_depth      : 11\ncur_path       : 196\npending_favs   : 13\npending_total  : 156\nvariable_paths : 0\nbitmap_cvg     : 0.89%\nunique_crashes : 0\nunique_hangs   : 2\nlast_path      : 1500171988\nlast_crash     : 0\nlast_hang      : 1500171307\nexec_timeout   : 20\nafl_banner     : fuzzer-master\nafl_version    : 1.85b\ncommand_line   : /home/skaramcheti/.virtualenvs/afl/bin/afl-unix/afl-fuzz -i /dev/shm/work/Personal_Fitness_Manager/input -o /dev/shm/work/Personal_Fitness_Manager/sync -m 4G -Q -M fuzzer-master -x /dev/shm/work/Personal_Fitness_Manager/Personal_Fitness_Manager.dict -- data/linux/processed-challenges/Personal_Fitness_Manager/bin/Personal_Fitness_Manager\n'
p103
I0
tp104
a(I6240
S'start_time     : 1500165983\nlast_update    : 1500172175\nfuzzer_pid     : 2181\ncycles_done    : 0\nexecs_done     : 5875806\nexecs_per_sec  : 927.59\npaths_total    : 233\npaths_favored  : 54\npaths_found    : 232\npaths_imported : 0\nmax_depth      : 11\ncur_path       : 198\npending_favs   : 12\npending_total  : 158\nvariable_paths : 0\nbitmap_cvg     : 0.89%\nunique_crashes : 0\nunique_hangs   : 2\nlast_path      : 1500172162\nlast_crash     : 0\nlast_hang      : 1500171307\nexec_timeout   : 20\nafl_banner     : fuzzer-master\nafl_version    : 1.85b\ncommand_line   : /home/skaramcheti/.virtualenvs/afl/bin/afl-unix/afl-fuzz -i /dev/shm/work/Personal_Fitness_Manager/input -o /dev/shm/work/Personal_Fitness_Manager/sync -m 4G -Q -M fuzzer-master -x /dev/shm/work/Personal_Fitness_Manager/Personal_Fitness_Manager.dict -- data/linux/processed-challenges/Personal_Fitness_Manager/bin/Personal_Fitness_Manager\n'
p105
I3
tp106
a(I6360
S'start_time     : 1500165983\nlast_update    : 1500172295\nfuzzer_pid     : 2181\ncycles_done    : 0\nexecs_done     : 5986485\nexecs_per_sec  : 898.33\npaths_total    : 234\npaths_favored  : 54\npaths_found    : 233\npaths_imported : 0\nmax_depth      : 12\ncur_path       : 204\npending_favs   : 12\npending_total  : 158\nvariable_paths : 0\nbitmap_cvg     : 0.90%\nunique_crashes : 0\nunique_hangs   : 2\nlast_path      : 1500172284\nlast_crash     : 0\nlast_hang      : 1500171307\nexec_timeout   : 20\nafl_banner     : fuzzer-master\nafl_version    : 1.85b\ncommand_line   : /home/skaramcheti/.virtualenvs/afl/bin/afl-unix/afl-fuzz -i /dev/shm/work/Personal_Fitness_Manager/input -o /dev/shm/work/Personal_Fitness_Manager/sync -m 4G -Q -M fuzzer-master -x /dev/shm/work/Personal_Fitness_Manager/Personal_Fitness_Manager.dict -- data/linux/processed-challenges/Personal_Fitness_Manager/bin/Personal_Fitness_Manager\n'
p107
I3
tp108
a(I6480
S'start_time     : 1500165983\nlast_update    : 1500172415\nfuzzer_pid     : 2181\ncycles_done    : 0\nexecs_done     : 6095887\nexecs_per_sec  : 897.23\npaths_total    : 238\npaths_favored  : 55\npaths_found    : 237\npaths_imported : 0\nmax_depth      : 12\ncur_path       : 212\npending_favs   : 12\npending_total  : 160\nvariable_paths : 0\nbitmap_cvg     : 0.90%\nunique_crashes : 0\nunique_hangs   : 2\nlast_path      : 1500172404\nlast_crash     : 0\nlast_hang      : 1500171307\nexec_timeout   : 20\nafl_banner     : fuzzer-master\nafl_version    : 1.85b\ncommand_line   : /home/skaramcheti/.virtualenvs/afl/bin/afl-unix/afl-fuzz -i /dev/shm/work/Personal_Fitness_Manager/input -o /dev/shm/work/Personal_Fitness_Manager/sync -m 4G -Q -M fuzzer-master -x /dev/shm/work/Personal_Fitness_Manager/Personal_Fitness_Manager.dict -- data/linux/processed-challenges/Personal_Fitness_Manager/bin/Personal_Fitness_Manager\n'
p109
I2
tp110
a(I6600
S'start_time     : 1500165983\nlast_update    : 1500172535\nfuzzer_pid     : 2181\ncycles_done    : 0\nexecs_done     : 6205688\nexecs_per_sec  : 944.41\npaths_total    : 240\npaths_favored  : 56\npaths_found    : 239\npaths_imported : 0\nmax_depth      : 12\ncur_path       : 214\npending_favs   : 11\npending_total  : 160\nvariable_paths : 0\nbitmap_cvg     : 0.90%\nunique_crashes : 0\nunique_hangs   : 2\nlast_path      : 1500172529\nlast_crash     : 0\nlast_hang      : 1500171307\nexec_timeout   : 20\nafl_banner     : fuzzer-master\nafl_version    : 1.85b\ncommand_line   : /home/skaramcheti/.virtualenvs/afl/bin/afl-unix/afl-fuzz -i /dev/shm/work/Personal_Fitness_Manager/input -o /dev/shm/work/Personal_Fitness_Manager/sync -m 4G -Q -M fuzzer-master -x /dev/shm/work/Personal_Fitness_Manager/Personal_Fitness_Manager.dict -- data/linux/processed-challenges/Personal_Fitness_Manager/bin/Personal_Fitness_Manager\n'
p111
I4
tp112
a(I6720
S'start_time     : 1500165983\nlast_update    : 1500172655\nfuzzer_pid     : 2181\ncycles_done    : 0\nexecs_done     : 6318654\nexecs_per_sec  : 961.93\npaths_total    : 242\npaths_favored  : 56\npaths_found    : 241\npaths_imported : 0\nmax_depth      : 12\ncur_path       : 214\npending_favs   : 11\npending_total  : 162\nvariable_paths : 0\nbitmap_cvg     : 0.90%\nunique_crashes : 0\nunique_hangs   : 2\nlast_path      : 1500172574\nlast_crash     : 0\nlast_hang      : 1500171307\nexec_timeout   : 20\nafl_banner     : fuzzer-master\nafl_version    : 1.85b\ncommand_line   : /home/skaramcheti/.virtualenvs/afl/bin/afl-unix/afl-fuzz -i /dev/shm/work/Personal_Fitness_Manager/input -o /dev/shm/work/Personal_Fitness_Manager/sync -m 4G -Q -M fuzzer-master -x /dev/shm/work/Personal_Fitness_Manager/Personal_Fitness_Manager.dict -- data/linux/processed-challenges/Personal_Fitness_Manager/bin/Personal_Fitness_Manager\n'
p113
I0
tp114
a(I6840
S'start_time     : 1500165983\nlast_update    : 1500172775\nfuzzer_pid     : 2181\ncycles_done    : 0\nexecs_done     : 6432028\nexecs_per_sec  : 934.30\npaths_total    : 243\npaths_favored  : 56\npaths_found    : 242\npaths_imported : 0\nmax_depth      : 12\ncur_path       : 216\npending_favs   : 9\npending_total  : 161\nvariable_paths : 0\nbitmap_cvg     : 0.90%\nunique_crashes : 0\nunique_hangs   : 2\nlast_path      : 1500172751\nlast_crash     : 0\nlast_hang      : 1500171307\nexec_timeout   : 20\nafl_banner     : fuzzer-master\nafl_version    : 1.85b\ncommand_line   : /home/skaramcheti/.virtualenvs/afl/bin/afl-unix/afl-fuzz -i /dev/shm/work/Personal_Fitness_Manager/input -o /dev/shm/work/Personal_Fitness_Manager/sync -m 4G -Q -M fuzzer-master -x /dev/shm/work/Personal_Fitness_Manager/Personal_Fitness_Manager.dict -- data/linux/processed-challenges/Personal_Fitness_Manager/bin/Personal_Fitness_Manager\n'
p115
I2
tp116
a(I6960
S'start_time     : 1500165983\nlast_update    : 1500172896\nfuzzer_pid     : 2181\ncycles_done    : 0\nexecs_done     : 6539764\nexecs_per_sec  : 912.72\npaths_total    : 245\npaths_favored  : 56\npaths_found    : 244\npaths_imported : 0\nmax_depth      : 12\ncur_path       : 222\npending_favs   : 7\npending_total  : 161\nvariable_paths : 0\nbitmap_cvg     : 0.90%\nunique_crashes : 0\nunique_hangs   : 2\nlast_path      : 1500172879\nlast_crash     : 0\nlast_hang      : 1500171307\nexec_timeout   : 20\nafl_banner     : fuzzer-master\nafl_version    : 1.85b\ncommand_line   : /home/skaramcheti/.virtualenvs/afl/bin/afl-unix/afl-fuzz -i /dev/shm/work/Personal_Fitness_Manager/input -o /dev/shm/work/Personal_Fitness_Manager/sync -m 4G -Q -M fuzzer-master -x /dev/shm/work/Personal_Fitness_Manager/Personal_Fitness_Manager.dict -- data/linux/processed-challenges/Personal_Fitness_Manager/bin/Personal_Fitness_Manager\n'
p117
I2
tp118
a(I7080
S'start_time     : 1500165983\nlast_update    : 1500173016\nfuzzer_pid     : 2181\ncycles_done    : 0\nexecs_done     : 6649410\nexecs_per_sec  : 953.78\npaths_total    : 248\npaths_favored  : 57\npaths_found    : 247\npaths_imported : 0\nmax_depth      : 12\ncur_path       : 224\npending_favs   : 7\npending_total  : 163\nvariable_paths : 0\nbitmap_cvg     : 0.90%\nunique_crashes : 0\nunique_hangs   : 2\nlast_path      : 1500172964\nlast_crash     : 0\nlast_hang      : 1500171307\nexec_timeout   : 20\nafl_banner     : fuzzer-master\nafl_version    : 1.85b\ncommand_line   : /home/skaramcheti/.virtualenvs/afl/bin/afl-unix/afl-fuzz -i /dev/shm/work/Personal_Fitness_Manager/input -o /dev/shm/work/Personal_Fitness_Manager/sync -m 4G -Q -M fuzzer-master -x /dev/shm/work/Personal_Fitness_Manager/Personal_Fitness_Manager.dict -- data/linux/processed-challenges/Personal_Fitness_Manager/bin/Personal_Fitness_Manager\n'
p119
I4
tp120
a(I7200
S'start_time     : 1500165983\nlast_update    : 1500173136\nfuzzer_pid     : 2181\ncycles_done    : 0\nexecs_done     : 6756879\nexecs_per_sec  : 906.19\npaths_total    : 250\npaths_favored  : 58\npaths_found    : 249\npaths_imported : 0\nmax_depth      : 12\ncur_path       : 233\npending_favs   : 6\npending_total  : 162\nvariable_paths : 0\nbitmap_cvg     : 0.96%\nunique_crashes : 0\nunique_hangs   : 2\nlast_path      : 1500173038\nlast_crash     : 0\nlast_hang      : 1500171307\nexec_timeout   : 20\nafl_banner     : fuzzer-master\nafl_version    : 1.85b\ncommand_line   : /home/skaramcheti/.virtualenvs/afl/bin/afl-unix/afl-fuzz -i /dev/shm/work/Personal_Fitness_Manager/input -o /dev/shm/work/Personal_Fitness_Manager/sync -m 4G -Q -M fuzzer-master -x /dev/shm/work/Personal_Fitness_Manager/Personal_Fitness_Manager.dict -- data/linux/processed-challenges/Personal_Fitness_Manager/bin/Personal_Fitness_Manager\n'
p121
I0
tp122
a(I7320
S'start_time     : 1500165983\nlast_update    : 1500173256\nfuzzer_pid     : 2181\ncycles_done    : 0\nexecs_done     : 6868396\nexecs_per_sec  : 888.05\npaths_total    : 250\npaths_favored  : 58\npaths_found    : 249\npaths_imported : 0\nmax_depth      : 12\ncur_path       : 244\npending_favs   : 3\npending_total  : 159\nvariable_paths : 0\nbitmap_cvg     : 0.96%\nunique_crashes : 0\nunique_hangs   : 2\nlast_path      : 1500173038\nlast_crash     : 0\nlast_hang      : 1500171307\nexec_timeout   : 20\nafl_banner     : fuzzer-master\nafl_version    : 1.85b\ncommand_line   : /home/skaramcheti/.virtualenvs/afl/bin/afl-unix/afl-fuzz -i /dev/shm/work/Personal_Fitness_Manager/input -o /dev/shm/work/Personal_Fitness_Manager/sync -m 4G -Q -M fuzzer-master -x /dev/shm/work/Personal_Fitness_Manager/Personal_Fitness_Manager.dict -- data/linux/processed-challenges/Personal_Fitness_Manager/bin/Personal_Fitness_Manager\n'
p123
I2
tp124
a(I7440
S'start_time     : 1500165983\nlast_update    : 1500173377\nfuzzer_pid     : 2181\ncycles_done    : 0\nexecs_done     : 6978241\nexecs_per_sec  : 924.35\npaths_total    : 253\npaths_favored  : 58\npaths_found    : 252\npaths_imported : 0\nmax_depth      : 13\ncur_path       : 244\npending_favs   : 3\npending_total  : 162\nvariable_paths : 0\nbitmap_cvg     : 0.96%\nunique_crashes : 0\nunique_hangs   : 2\nlast_path      : 1500173344\nlast_crash     : 0\nlast_hang      : 1500171307\nexec_timeout   : 20\nafl_banner     : fuzzer-master\nafl_version    : 1.85b\ncommand_line   : /home/skaramcheti/.virtualenvs/afl/bin/afl-unix/afl-fuzz -i /dev/shm/work/Personal_Fitness_Manager/input -o /dev/shm/work/Personal_Fitness_Manager/sync -m 4G -Q -M fuzzer-master -x /dev/shm/work/Personal_Fitness_Manager/Personal_Fitness_Manager.dict -- data/linux/processed-challenges/Personal_Fitness_Manager/bin/Personal_Fitness_Manager\n'
p125
I1
tp126
a(I7560
S'start_time     : 1500165983\nlast_update    : 1500173497\nfuzzer_pid     : 2181\ncycles_done    : 0\nexecs_done     : 7087169\nexecs_per_sec  : 899.45\npaths_total    : 257\npaths_favored  : 58\npaths_found    : 256\npaths_imported : 0\nmax_depth      : 13\ncur_path       : 248\npending_favs   : 2\npending_total  : 165\nvariable_paths : 0\nbitmap_cvg     : 1.03%\nunique_crashes : 0\nunique_hangs   : 2\nlast_path      : 1500173497\nlast_crash     : 0\nlast_hang      : 1500171307\nexec_timeout   : 20\nafl_banner     : fuzzer-master\nafl_version    : 1.85b\ncommand_line   : /home/skaramcheti/.virtualenvs/afl/bin/afl-unix/afl-fuzz -i /dev/shm/work/Personal_Fitness_Manager/input -o /dev/shm/work/Personal_Fitness_Manager/sync -m 4G -Q -M fuzzer-master -x /dev/shm/work/Personal_Fitness_Manager/Personal_Fitness_Manager.dict -- data/linux/processed-challenges/Personal_Fitness_Manager/bin/Personal_Fitness_Manager\n'
p127
I4
tp128
a(I7680
S'start_time     : 1500165983\nlast_update    : 1500173617\nfuzzer_pid     : 2181\ncycles_done    : 0\nexecs_done     : 7197112\nexecs_per_sec  : 858.00\npaths_total    : 258\npaths_favored  : 60\npaths_found    : 257\npaths_imported : 0\nmax_depth      : 13\ncur_path       : 249\npending_favs   : 5\npending_total  : 165\nvariable_paths : 0\nbitmap_cvg     : 1.03%\nunique_crashes : 0\nunique_hangs   : 3\nlast_path      : 1500173581\nlast_crash     : 0\nlast_hang      : 1500173530\nexec_timeout   : 20\nafl_banner     : fuzzer-master\nafl_version    : 1.85b\ncommand_line   : /home/skaramcheti/.virtualenvs/afl/bin/afl-unix/afl-fuzz -i /dev/shm/work/Personal_Fitness_Manager/input -o /dev/shm/work/Personal_Fitness_Manager/sync -m 4G -Q -M fuzzer-master -x /dev/shm/work/Personal_Fitness_Manager/Personal_Fitness_Manager.dict -- data/linux/processed-challenges/Personal_Fitness_Manager/bin/Personal_Fitness_Manager\n'
p129
I4
tp130
a(I7800
S'start_time     : 1500165983\nlast_update    : 1500173737\nfuzzer_pid     : 2181\ncycles_done    : 0\nexecs_done     : 7309679\nexecs_per_sec  : 934.61\npaths_total    : 261\npaths_favored  : 60\npaths_found    : 260\npaths_imported : 0\nmax_depth      : 13\ncur_path       : 249\npending_favs   : 5\npending_total  : 168\nvariable_paths : 0\nbitmap_cvg     : 1.03%\nunique_crashes : 0\nunique_hangs   : 3\nlast_path      : 1500173652\nlast_crash     : 0\nlast_hang      : 1500173530\nexec_timeout   : 20\nafl_banner     : fuzzer-master\nafl_version    : 1.85b\ncommand_line   : /home/skaramcheti/.virtualenvs/afl/bin/afl-unix/afl-fuzz -i /dev/shm/work/Personal_Fitness_Manager/input -o /dev/shm/work/Personal_Fitness_Manager/sync -m 4G -Q -M fuzzer-master -x /dev/shm/work/Personal_Fitness_Manager/Personal_Fitness_Manager.dict -- data/linux/processed-challenges/Personal_Fitness_Manager/bin/Personal_Fitness_Manager\n'
p131
I0
tp132
a(I7920
S'start_time     : 1500165983\nlast_update    : 1500173858\nfuzzer_pid     : 2181\ncycles_done    : 0\nexecs_done     : 7420067\nexecs_per_sec  : 909.13\npaths_total    : 265\npaths_favored  : 60\npaths_found    : 264\npaths_imported : 0\nmax_depth      : 14\ncur_path       : 254\npending_favs   : 3\npending_total  : 170\nvariable_paths : 0\nbitmap_cvg     : 1.07%\nunique_crashes : 0\nunique_hangs   : 3\nlast_path      : 1500173857\nlast_crash     : 0\nlast_hang      : 1500173530\nexec_timeout   : 20\nafl_banner     : fuzzer-master\nafl_version    : 1.85b\ncommand_line   : /home/skaramcheti/.virtualenvs/afl/bin/afl-unix/afl-fuzz -i /dev/shm/work/Personal_Fitness_Manager/input -o /dev/shm/work/Personal_Fitness_Manager/sync -m 4G -Q -M fuzzer-master -x /dev/shm/work/Personal_Fitness_Manager/Personal_Fitness_Manager.dict -- data/linux/processed-challenges/Personal_Fitness_Manager/bin/Personal_Fitness_Manager\n'
p133
I6
tp134
a(I8040
S'start_time     : 1500165983\nlast_update    : 1500173978\nfuzzer_pid     : 2181\ncycles_done    : 0\nexecs_done     : 7533551\nexecs_per_sec  : 941.62\npaths_total    : 268\npaths_favored  : 60\npaths_found    : 267\npaths_imported : 0\nmax_depth      : 14\ncur_path       : 254\npending_favs   : 3\npending_total  : 173\nvariable_paths : 0\nbitmap_cvg     : 1.10%\nunique_crashes : 0\nunique_hangs   : 3\nlast_path      : 1500173948\nlast_crash     : 0\nlast_hang      : 1500173530\nexec_timeout   : 20\nafl_banner     : fuzzer-master\nafl_version    : 1.85b\ncommand_line   : /home/skaramcheti/.virtualenvs/afl/bin/afl-unix/afl-fuzz -i /dev/shm/work/Personal_Fitness_Manager/input -o /dev/shm/work/Personal_Fitness_Manager/sync -m 4G -Q -M fuzzer-master -x /dev/shm/work/Personal_Fitness_Manager/Personal_Fitness_Manager.dict -- data/linux/processed-challenges/Personal_Fitness_Manager/bin/Personal_Fitness_Manager\n'
p135
I3
tp136
a(I8160
S'start_time     : 1500165983\nlast_update    : 1500174098\nfuzzer_pid     : 2181\ncycles_done    : 0\nexecs_done     : 7640721\nexecs_per_sec  : 830.86\npaths_total    : 271\npaths_favored  : 64\npaths_found    : 270\npaths_imported : 0\nmax_depth      : 15\ncur_path       : 261\npending_favs   : 7\npending_total  : 174\nvariable_paths : 0\nbitmap_cvg     : 1.13%\nunique_crashes : 0\nunique_hangs   : 4\nlast_path      : 1500174097\nlast_crash     : 0\nlast_hang      : 1500174086\nexec_timeout   : 20\nafl_banner     : fuzzer-master\nafl_version    : 1.85b\ncommand_line   : /home/skaramcheti/.virtualenvs/afl/bin/afl-unix/afl-fuzz -i /dev/shm/work/Personal_Fitness_Manager/input -o /dev/shm/work/Personal_Fitness_Manager/sync -m 4G -Q -M fuzzer-master -x /dev/shm/work/Personal_Fitness_Manager/Personal_Fitness_Manager.dict -- data/linux/processed-challenges/Personal_Fitness_Manager/bin/Personal_Fitness_Manager\n'
p137
I4
tp138
a(I8280
S'start_time     : 1500165983\nlast_update    : 1500174218\nfuzzer_pid     : 2181\ncycles_done    : 0\nexecs_done     : 7747792\nexecs_per_sec  : 826.02\npaths_total    : 276\npaths_favored  : 66\npaths_found    : 275\npaths_imported : 0\nmax_depth      : 15\ncur_path       : 263\npending_favs   : 9\npending_total  : 178\nvariable_paths : 0\nbitmap_cvg     : 1.17%\nunique_crashes : 0\nunique_hangs   : 4\nlast_path      : 1500174207\nlast_crash     : 0\nlast_hang      : 1500174086\nexec_timeout   : 20\nafl_banner     : fuzzer-master\nafl_version    : 1.85b\ncommand_line   : /home/skaramcheti/.virtualenvs/afl/bin/afl-unix/afl-fuzz -i /dev/shm/work/Personal_Fitness_Manager/input -o /dev/shm/work/Personal_Fitness_Manager/sync -m 4G -Q -M fuzzer-master -x /dev/shm/work/Personal_Fitness_Manager/Personal_Fitness_Manager.dict -- data/linux/processed-challenges/Personal_Fitness_Manager/bin/Personal_Fitness_Manager\n'
p139
I7
tp140
a(I8400
S'start_time     : 1500165983\nlast_update    : 1500174338\nfuzzer_pid     : 2181\ncycles_done    : 0\nexecs_done     : 7849132\nexecs_per_sec  : 875.71\npaths_total    : 283\npaths_favored  : 66\npaths_found    : 282\npaths_imported : 0\nmax_depth      : 15\ncur_path       : 263\npending_favs   : 9\npending_total  : 185\nvariable_paths : 0\nbitmap_cvg     : 1.19%\nunique_crashes : 0\nunique_hangs   : 4\nlast_path      : 1500174316\nlast_crash     : 0\nlast_hang      : 1500174086\nexec_timeout   : 20\nafl_banner     : fuzzer-master\nafl_version    : 1.85b\ncommand_line   : /home/skaramcheti/.virtualenvs/afl/bin/afl-unix/afl-fuzz -i /dev/shm/work/Personal_Fitness_Manager/input -o /dev/shm/work/Personal_Fitness_Manager/sync -m 4G -Q -M fuzzer-master -x /dev/shm/work/Personal_Fitness_Manager/Personal_Fitness_Manager.dict -- data/linux/processed-challenges/Personal_Fitness_Manager/bin/Personal_Fitness_Manager\n'
p141
I9
tp142
a(I8520
S'start_time     : 1500165983\nlast_update    : 1500174459\nfuzzer_pid     : 2181\ncycles_done    : 0\nexecs_done     : 7951120\nexecs_per_sec  : 874.77\npaths_total    : 293\npaths_favored  : 67\npaths_found    : 292\npaths_imported : 0\nmax_depth      : 15\ncur_path       : 264\npending_favs   : 10\npending_total  : 194\nvariable_paths : 0\nbitmap_cvg     : 1.30%\nunique_crashes : 0\nunique_hangs   : 4\nlast_path      : 1500174416\nlast_crash     : 0\nlast_hang      : 1500174086\nexec_timeout   : 20\nafl_banner     : fuzzer-master\nafl_version    : 1.85b\ncommand_line   : /home/skaramcheti/.virtualenvs/afl/bin/afl-unix/afl-fuzz -i /dev/shm/work/Personal_Fitness_Manager/input -o /dev/shm/work/Personal_Fitness_Manager/sync -m 4G -Q -M fuzzer-master -x /dev/shm/work/Personal_Fitness_Manager/Personal_Fitness_Manager.dict -- data/linux/processed-challenges/Personal_Fitness_Manager/bin/Personal_Fitness_Manager\n'
p143
I5
tp144
a(I8640
S'start_time     : 1500165983\nlast_update    : 1500174579\nfuzzer_pid     : 2181\ncycles_done    : 0\nexecs_done     : 8054882\nexecs_per_sec  : 882.50\npaths_total    : 298\npaths_favored  : 74\npaths_found    : 297\npaths_imported : 0\nmax_depth      : 15\ncur_path       : 267\npending_favs   : 18\npending_total  : 198\nvariable_paths : 0\nbitmap_cvg     : 1.31%\nunique_crashes : 0\nunique_hangs   : 4\nlast_path      : 1500174534\nlast_crash     : 0\nlast_hang      : 1500174086\nexec_timeout   : 20\nafl_banner     : fuzzer-master\nafl_version    : 1.85b\ncommand_line   : /home/skaramcheti/.virtualenvs/afl/bin/afl-unix/afl-fuzz -i /dev/shm/work/Personal_Fitness_Manager/input -o /dev/shm/work/Personal_Fitness_Manager/sync -m 4G -Q -M fuzzer-master -x /dev/shm/work/Personal_Fitness_Manager/Personal_Fitness_Manager.dict -- data/linux/processed-challenges/Personal_Fitness_Manager/bin/Personal_Fitness_Manager\n'
p145
I3
tp146
a(I8760
S'start_time     : 1500165983\nlast_update    : 1500174699\nfuzzer_pid     : 2181\ncycles_done    : 0\nexecs_done     : 8160471\nexecs_per_sec  : 829.30\npaths_total    : 298\npaths_favored  : 71\npaths_found    : 297\npaths_imported : 0\nmax_depth      : 15\ncur_path       : 269\npending_favs   : 15\npending_total  : 196\nvariable_paths : 0\nbitmap_cvg     : 1.31%\nunique_crashes : 0\nunique_hangs   : 4\nlast_path      : 1500174534\nlast_crash     : 0\nlast_hang      : 1500174086\nexec_timeout   : 20\nafl_banner     : fuzzer-master\nafl_version    : 1.85b\ncommand_line   : /home/skaramcheti/.virtualenvs/afl/bin/afl-unix/afl-fuzz -i /dev/shm/work/Personal_Fitness_Manager/input -o /dev/shm/work/Personal_Fitness_Manager/sync -m 4G -Q -M fuzzer-master -x /dev/shm/work/Personal_Fitness_Manager/Personal_Fitness_Manager.dict -- data/linux/processed-challenges/Personal_Fitness_Manager/bin/Personal_Fitness_Manager\n'
p147
I0
tp148
a(I8880
S'start_time     : 1500165983\nlast_update    : 1500174819\nfuzzer_pid     : 2181\ncycles_done    : 0\nexecs_done     : 8266884\nexecs_per_sec  : 906.33\npaths_total    : 299\npaths_favored  : 71\npaths_found    : 298\npaths_imported : 0\nmax_depth      : 16\ncur_path       : 270\npending_favs   : 14\npending_total  : 196\nvariable_paths : 0\nbitmap_cvg     : 1.32%\nunique_crashes : 0\nunique_hangs   : 5\nlast_path      : 1500174777\nlast_crash     : 0\nlast_hang      : 1500174751\nexec_timeout   : 20\nafl_banner     : fuzzer-master\nafl_version    : 1.85b\ncommand_line   : /home/skaramcheti/.virtualenvs/afl/bin/afl-unix/afl-fuzz -i /dev/shm/work/Personal_Fitness_Manager/input -o /dev/shm/work/Personal_Fitness_Manager/sync -m 4G -Q -M fuzzer-master -x /dev/shm/work/Personal_Fitness_Manager/Personal_Fitness_Manager.dict -- data/linux/processed-challenges/Personal_Fitness_Manager/bin/Personal_Fitness_Manager\n'
p149
I1
tp150
a(I9000
S'start_time     : 1500165983\nlast_update    : 1500174940\nfuzzer_pid     : 2181\ncycles_done    : 0\nexecs_done     : 8370299\nexecs_per_sec  : 841.15\npaths_total    : 301\npaths_favored  : 72\npaths_found    : 300\npaths_imported : 0\nmax_depth      : 16\ncur_path       : 272\npending_favs   : 14\npending_total  : 197\nvariable_paths : 0\nbitmap_cvg     : 1.33%\nunique_crashes : 0\nunique_hangs   : 5\nlast_path      : 1500174915\nlast_crash     : 0\nlast_hang      : 1500174751\nexec_timeout   : 20\nafl_banner     : fuzzer-master\nafl_version    : 1.85b\ncommand_line   : /home/skaramcheti/.virtualenvs/afl/bin/afl-unix/afl-fuzz -i /dev/shm/work/Personal_Fitness_Manager/input -o /dev/shm/work/Personal_Fitness_Manager/sync -m 4G -Q -M fuzzer-master -x /dev/shm/work/Personal_Fitness_Manager/Personal_Fitness_Manager.dict -- data/linux/processed-challenges/Personal_Fitness_Manager/bin/Personal_Fitness_Manager\n'
p151
I3
tp152
a(I9120
S'start_time     : 1500165983\nlast_update    : 1500175060\nfuzzer_pid     : 2181\ncycles_done    : 0\nexecs_done     : 8472993\nexecs_per_sec  : 881.07\npaths_total    : 303\npaths_favored  : 75\npaths_found    : 302\npaths_imported : 0\nmax_depth      : 16\ncur_path       : 273\npending_favs   : 16\npending_total  : 198\nvariable_paths : 0\nbitmap_cvg     : 1.33%\nunique_crashes : 0\nunique_hangs   : 5\nlast_path      : 1500175022\nlast_crash     : 0\nlast_hang      : 1500174751\nexec_timeout   : 20\nafl_banner     : fuzzer-master\nafl_version    : 1.85b\ncommand_line   : /home/skaramcheti/.virtualenvs/afl/bin/afl-unix/afl-fuzz -i /dev/shm/work/Personal_Fitness_Manager/input -o /dev/shm/work/Personal_Fitness_Manager/sync -m 4G -Q -M fuzzer-master -x /dev/shm/work/Personal_Fitness_Manager/Personal_Fitness_Manager.dict -- data/linux/processed-challenges/Personal_Fitness_Manager/bin/Personal_Fitness_Manager\n'
p153
I4
tp154
a(I9240
S'start_time     : 1500165983\nlast_update    : 1500175180\nfuzzer_pid     : 2181\ncycles_done    : 0\nexecs_done     : 8575085\nexecs_per_sec  : 771.21\npaths_total    : 311\npaths_favored  : 77\npaths_found    : 310\npaths_imported : 0\nmax_depth      : 16\ncur_path       : 278\npending_favs   : 17\npending_total  : 205\nvariable_paths : 0\nbitmap_cvg     : 1.35%\nunique_crashes : 0\nunique_hangs   : 5\nlast_path      : 1500175160\nlast_crash     : 0\nlast_hang      : 1500174751\nexec_timeout   : 20\nafl_banner     : fuzzer-master\nafl_version    : 1.85b\ncommand_line   : /home/skaramcheti/.virtualenvs/afl/bin/afl-unix/afl-fuzz -i /dev/shm/work/Personal_Fitness_Manager/input -o /dev/shm/work/Personal_Fitness_Manager/sync -m 4G -Q -M fuzzer-master -x /dev/shm/work/Personal_Fitness_Manager/Personal_Fitness_Manager.dict -- data/linux/processed-challenges/Personal_Fitness_Manager/bin/Personal_Fitness_Manager\n'
p155
I6
tp156
a(I9360
S'start_time     : 1500165983\nlast_update    : 1500175300\nfuzzer_pid     : 2181\ncycles_done    : 0\nexecs_done     : 8675639\nexecs_per_sec  : 834.10\npaths_total    : 312\npaths_favored  : 79\npaths_found    : 311\npaths_imported : 0\nmax_depth      : 16\ncur_path       : 282\npending_favs   : 20\npending_total  : 205\nvariable_paths : 0\nbitmap_cvg     : 1.35%\nunique_crashes : 0\nunique_hangs   : 5\nlast_path      : 1500175193\nlast_crash     : 0\nlast_hang      : 1500174751\nexec_timeout   : 20\nafl_banner     : fuzzer-master\nafl_version    : 1.85b\ncommand_line   : /home/skaramcheti/.virtualenvs/afl/bin/afl-unix/afl-fuzz -i /dev/shm/work/Personal_Fitness_Manager/input -o /dev/shm/work/Personal_Fitness_Manager/sync -m 4G -Q -M fuzzer-master -x /dev/shm/work/Personal_Fitness_Manager/Personal_Fitness_Manager.dict -- data/linux/processed-challenges/Personal_Fitness_Manager/bin/Personal_Fitness_Manager\n'
p157
I1
tp158
a(I9480
S'start_time     : 1500165983\nlast_update    : 1500175420\nfuzzer_pid     : 2181\ncycles_done    : 0\nexecs_done     : 8779219\nexecs_per_sec  : 898.71\npaths_total    : 314\npaths_favored  : 79\npaths_found    : 313\npaths_imported : 0\nmax_depth      : 16\ncur_path       : 283\npending_favs   : 19\npending_total  : 206\nvariable_paths : 0\nbitmap_cvg     : 1.36%\nunique_crashes : 0\nunique_hangs   : 5\nlast_path      : 1500175410\nlast_crash     : 0\nlast_hang      : 1500174751\nexec_timeout   : 20\nafl_banner     : fuzzer-master\nafl_version    : 1.85b\ncommand_line   : /home/skaramcheti/.virtualenvs/afl/bin/afl-unix/afl-fuzz -i /dev/shm/work/Personal_Fitness_Manager/input -o /dev/shm/work/Personal_Fitness_Manager/sync -m 4G -Q -M fuzzer-master -x /dev/shm/work/Personal_Fitness_Manager/Personal_Fitness_Manager.dict -- data/linux/processed-challenges/Personal_Fitness_Manager/bin/Personal_Fitness_Manager\n'
p159
I1
tp160
a(I9600
S'start_time     : 1500165983\nlast_update    : 1500175540\nfuzzer_pid     : 2181\ncycles_done    : 0\nexecs_done     : 8883831\nexecs_per_sec  : 803.64\npaths_total    : 314\npaths_favored  : 79\npaths_found    : 313\npaths_imported : 0\nmax_depth      : 16\ncur_path       : 285\npending_favs   : 18\npending_total  : 205\nvariable_paths : 0\nbitmap_cvg     : 1.36%\nunique_crashes : 0\nunique_hangs   : 5\nlast_path      : 1500175410\nlast_crash     : 0\nlast_hang      : 1500174751\nexec_timeout   : 20\nafl_banner     : fuzzer-master\nafl_version    : 1.85b\ncommand_line   : /home/skaramcheti/.virtualenvs/afl/bin/afl-unix/afl-fuzz -i /dev/shm/work/Personal_Fitness_Manager/input -o /dev/shm/work/Personal_Fitness_Manager/sync -m 4G -Q -M fuzzer-master -x /dev/shm/work/Personal_Fitness_Manager/Personal_Fitness_Manager.dict -- data/linux/processed-challenges/Personal_Fitness_Manager/bin/Personal_Fitness_Manager\n'
p161
I2
tp162
a(I9720
S'start_time     : 1500165983\nlast_update    : 1500175661\nfuzzer_pid     : 2181\ncycles_done    : 0\nexecs_done     : 8990499\nexecs_per_sec  : 874.23\npaths_total    : 318\npaths_favored  : 79\npaths_found    : 317\npaths_imported : 0\nmax_depth      : 16\ncur_path       : 285\npending_favs   : 18\npending_total  : 209\nvariable_paths : 0\nbitmap_cvg     : 1.38%\nunique_crashes : 0\nunique_hangs   : 5\nlast_path      : 1500175631\nlast_crash     : 0\nlast_hang      : 1500174751\nexec_timeout   : 20\nafl_banner     : fuzzer-master\nafl_version    : 1.85b\ncommand_line   : /home/skaramcheti/.virtualenvs/afl/bin/afl-unix/afl-fuzz -i /dev/shm/work/Personal_Fitness_Manager/input -o /dev/shm/work/Personal_Fitness_Manager/sync -m 4G -Q -M fuzzer-master -x /dev/shm/work/Personal_Fitness_Manager/Personal_Fitness_Manager.dict -- data/linux/processed-challenges/Personal_Fitness_Manager/bin/Personal_Fitness_Manager\n'
p163
I2
tp164
a(I9840
S'start_time     : 1500165983\nlast_update    : 1500175781\nfuzzer_pid     : 2181\ncycles_done    : 0\nexecs_done     : 9092331\nexecs_per_sec  : 869.89\npaths_total    : 321\npaths_favored  : 76\npaths_found    : 320\npaths_imported : 0\nmax_depth      : 16\ncur_path       : 290\npending_favs   : 19\npending_total  : 211\nvariable_paths : 0\nbitmap_cvg     : 1.39%\nunique_crashes : 0\nunique_hangs   : 5\nlast_path      : 1500175772\nlast_crash     : 0\nlast_hang      : 1500174751\nexec_timeout   : 20\nafl_banner     : fuzzer-master\nafl_version    : 1.85b\ncommand_line   : /home/skaramcheti/.virtualenvs/afl/bin/afl-unix/afl-fuzz -i /dev/shm/work/Personal_Fitness_Manager/input -o /dev/shm/work/Personal_Fitness_Manager/sync -m 4G -Q -M fuzzer-master -x /dev/shm/work/Personal_Fitness_Manager/Personal_Fitness_Manager.dict -- data/linux/processed-challenges/Personal_Fitness_Manager/bin/Personal_Fitness_Manager\n'
p165
I5
tp166
a(I9960
S'start_time     : 1500165983\nlast_update    : 1500175901\nfuzzer_pid     : 2181\ncycles_done    : 0\nexecs_done     : 9195254\nexecs_per_sec  : 792.08\npaths_total    : 323\npaths_favored  : 75\npaths_found    : 322\npaths_imported : 0\nmax_depth      : 16\ncur_path       : 292\npending_favs   : 18\npending_total  : 212\nvariable_paths : 0\nbitmap_cvg     : 1.39%\nunique_crashes : 0\nunique_hangs   : 5\nlast_path      : 1500175817\nlast_crash     : 0\nlast_hang      : 1500174751\nexec_timeout   : 20\nafl_banner     : fuzzer-master\nafl_version    : 1.85b\ncommand_line   : /home/skaramcheti/.virtualenvs/afl/bin/afl-unix/afl-fuzz -i /dev/shm/work/Personal_Fitness_Manager/input -o /dev/shm/work/Personal_Fitness_Manager/sync -m 4G -Q -M fuzzer-master -x /dev/shm/work/Personal_Fitness_Manager/Personal_Fitness_Manager.dict -- data/linux/processed-challenges/Personal_Fitness_Manager/bin/Personal_Fitness_Manager\n'
p167
I0
tp168
a(I10080
S'start_time     : 1500165983\nlast_update    : 1500176021\nfuzzer_pid     : 2181\ncycles_done    : 0\nexecs_done     : 9300206\nexecs_per_sec  : 828.27\npaths_total    : 324\npaths_favored  : 75\npaths_found    : 323\npaths_imported : 0\nmax_depth      : 16\ncur_path       : 294\npending_favs   : 17\npending_total  : 212\nvariable_paths : 0\nbitmap_cvg     : 1.39%\nunique_crashes : 0\nunique_hangs   : 5\nlast_path      : 1500175955\nlast_crash     : 0\nlast_hang      : 1500174751\nexec_timeout   : 20\nafl_banner     : fuzzer-master\nafl_version    : 1.85b\ncommand_line   : /home/skaramcheti/.virtualenvs/afl/bin/afl-unix/afl-fuzz -i /dev/shm/work/Personal_Fitness_Manager/input -o /dev/shm/work/Personal_Fitness_Manager/sync -m 4G -Q -M fuzzer-master -x /dev/shm/work/Personal_Fitness_Manager/Personal_Fitness_Manager.dict -- data/linux/processed-challenges/Personal_Fitness_Manager/bin/Personal_Fitness_Manager\n'
p169
I1
tp170
a(I10200
S'start_time     : 1500165983\nlast_update    : 1500176141\nfuzzer_pid     : 2181\ncycles_done    : 0\nexecs_done     : 9401532\nexecs_per_sec  : 841.15\npaths_total    : 325\npaths_favored  : 75\npaths_found    : 324\npaths_imported : 0\nmax_depth      : 16\ncur_path       : 297\npending_favs   : 17\npending_total  : 212\nvariable_paths : 0\nbitmap_cvg     : 1.39%\nunique_crashes : 0\nunique_hangs   : 5\nlast_path      : 1500176140\nlast_crash     : 0\nlast_hang      : 1500174751\nexec_timeout   : 20\nafl_banner     : fuzzer-master\nafl_version    : 1.85b\ncommand_line   : /home/skaramcheti/.virtualenvs/afl/bin/afl-unix/afl-fuzz -i /dev/shm/work/Personal_Fitness_Manager/input -o /dev/shm/work/Personal_Fitness_Manager/sync -m 4G -Q -M fuzzer-master -x /dev/shm/work/Personal_Fitness_Manager/Personal_Fitness_Manager.dict -- data/linux/processed-challenges/Personal_Fitness_Manager/bin/Personal_Fitness_Manager\n'
p171
I1
tp172
a(I10320
S'start_time     : 1500165983\nlast_update    : 1500176262\nfuzzer_pid     : 2181\ncycles_done    : 0\nexecs_done     : 9503478\nexecs_per_sec  : 814.59\npaths_total    : 328\npaths_favored  : 76\npaths_found    : 327\npaths_imported : 0\nmax_depth      : 16\ncur_path       : 298\npending_favs   : 18\npending_total  : 214\nvariable_paths : 0\nbitmap_cvg     : 1.43%\nunique_crashes : 0\nunique_hangs   : 5\nlast_path      : 1500176233\nlast_crash     : 0\nlast_hang      : 1500174751\nexec_timeout   : 20\nafl_banner     : fuzzer-master\nafl_version    : 1.85b\ncommand_line   : /home/skaramcheti/.virtualenvs/afl/bin/afl-unix/afl-fuzz -i /dev/shm/work/Personal_Fitness_Manager/input -o /dev/shm/work/Personal_Fitness_Manager/sync -m 4G -Q -M fuzzer-master -x /dev/shm/work/Personal_Fitness_Manager/Personal_Fitness_Manager.dict -- data/linux/processed-challenges/Personal_Fitness_Manager/bin/Personal_Fitness_Manager\n'
p173
I5
tp174
a(I10440
S'start_time     : 1500165983\nlast_update    : 1500176382\nfuzzer_pid     : 2181\ncycles_done    : 0\nexecs_done     : 9608656\nexecs_per_sec  : 882.31\npaths_total    : 330\npaths_favored  : 76\npaths_found    : 329\npaths_imported : 0\nmax_depth      : 17\ncur_path       : 298\npending_favs   : 18\npending_total  : 216\nvariable_paths : 0\nbitmap_cvg     : 1.43%\nunique_crashes : 0\nunique_hangs   : 6\nlast_path      : 1500176308\nlast_crash     : 0\nlast_hang      : 1500176281\nexec_timeout   : 20\nafl_banner     : fuzzer-master\nafl_version    : 1.85b\ncommand_line   : /home/skaramcheti/.virtualenvs/afl/bin/afl-unix/afl-fuzz -i /dev/shm/work/Personal_Fitness_Manager/input -o /dev/shm/work/Personal_Fitness_Manager/sync -m 4G -Q -M fuzzer-master -x /dev/shm/work/Personal_Fitness_Manager/Personal_Fitness_Manager.dict -- data/linux/processed-challenges/Personal_Fitness_Manager/bin/Personal_Fitness_Manager\n'
p175
I3
tp176
a(I10560
S'start_time     : 1500165983\nlast_update    : 1500176502\nfuzzer_pid     : 2181\ncycles_done    : 0\nexecs_done     : 9710016\nexecs_per_sec  : 873.92\npaths_total    : 336\npaths_favored  : 76\npaths_found    : 335\npaths_imported : 0\nmax_depth      : 17\ncur_path       : 300\npending_favs   : 17\npending_total  : 221\nvariable_paths : 0\nbitmap_cvg     : 1.45%\nunique_crashes : 0\nunique_hangs   : 6\nlast_path      : 1500176462\nlast_crash     : 0\nlast_hang      : 1500176281\nexec_timeout   : 20\nafl_banner     : fuzzer-master\nafl_version    : 1.85b\ncommand_line   : /home/skaramcheti/.virtualenvs/afl/bin/afl-unix/afl-fuzz -i /dev/shm/work/Personal_Fitness_Manager/input -o /dev/shm/work/Personal_Fitness_Manager/sync -m 4G -Q -M fuzzer-master -x /dev/shm/work/Personal_Fitness_Manager/Personal_Fitness_Manager.dict -- data/linux/processed-challenges/Personal_Fitness_Manager/bin/Personal_Fitness_Manager\n'
p177
I4
tp178
a(I10680
S'start_time     : 1500165983\nlast_update    : 1500176622\nfuzzer_pid     : 2181\ncycles_done    : 0\nexecs_done     : 9813013\nexecs_per_sec  : 869.55\npaths_total    : 342\npaths_favored  : 79\npaths_found    : 341\npaths_imported : 0\nmax_depth      : 17\ncur_path       : 304\npending_favs   : 20\npending_total  : 226\nvariable_paths : 0\nbitmap_cvg     : 1.50%\nunique_crashes : 0\nunique_hangs   : 7\nlast_path      : 1500176594\nlast_crash     : 0\nlast_hang      : 1500176573\nexec_timeout   : 20\nafl_banner     : fuzzer-master\nafl_version    : 1.85b\ncommand_line   : /home/skaramcheti/.virtualenvs/afl/bin/afl-unix/afl-fuzz -i /dev/shm/work/Personal_Fitness_Manager/input -o /dev/shm/work/Personal_Fitness_Manager/sync -m 4G -Q -M fuzzer-master -x /dev/shm/work/Personal_Fitness_Manager/Personal_Fitness_Manager.dict -- data/linux/processed-challenges/Personal_Fitness_Manager/bin/Personal_Fitness_Manager\n'
p179
I6
tp180
a.