(lp0
(I0
S'start_time     : 1500371561\nlast_update    : 1500371561\nfuzzer_pid     : 7171\ncycles_done    : 0\nexecs_done     : 10\nexecs_per_sec  : 200.00\npaths_total    : 1\npaths_favored  : 1\npaths_found    : 0\npaths_imported : 0\nmax_depth      : 1\ncur_path       : 0\npending_favs   : 1\npending_total  : 1\nvariable_paths : 0\nbitmap_cvg     : 0.16%\nunique_crashes : 0\nunique_hangs   : 0\nlast_path      : 0\nlast_crash     : 0\nlast_hang      : 0\nexec_timeout   : 20\nafl_banner     : fuzzer-master\nafl_version    : 1.85b\ncommand_line   : /home/skaramcheti/.virtualenvs/afl/bin/afl-unix/afl-fuzz -i /dev/shm/work/Resort_Modeller/input -o /dev/shm/work/Resort_Modeller/sync -m 4G -Q -M fuzzer-master -x /dev/shm/work/Resort_Modeller/Resort_Modeller.dict -- data/linux/processed-challenges/Resort_Modeller/bin/Resort_Modeller\n'
p1
I14
tp2
a(I120
S'start_time     : 1500371561\nlast_update    : 1500371681\nfuzzer_pid     : 7171\ncycles_done    : 0\nexecs_done     : 137239\nexecs_per_sec  : 1150.97\npaths_total    : 17\npaths_favored  : 1\npaths_found    : 16\npaths_imported : 0\nmax_depth      : 2\ncur_path       : 0\npending_favs   : 1\npending_total  : 17\nvariable_paths : 0\nbitmap_cvg     : 0.27%\nunique_crashes : 0\nunique_hangs   : 1\nlast_path      : 1500371627\nlast_crash     : 0\nlast_hang      : 1500371561\nexec_timeout   : 20\nafl_banner     : fuzzer-master\nafl_version    : 1.85b\ncommand_line   : /home/skaramcheti/.virtualenvs/afl/bin/afl-unix/afl-fuzz -i /dev/shm/work/Resort_Modeller/input -o /dev/shm/work/Resort_Modeller/sync -m 4G -Q -M fuzzer-master -x /dev/shm/work/Resort_Modeller/Resort_Modeller.dict -- data/linux/processed-challenges/Resort_Modeller/bin/Resort_Modeller\n'
p3
I3
tp4
a(I240
S'start_time     : 1500371561\nlast_update    : 1500371801\nfuzzer_pid     : 7171\ncycles_done    : 0\nexecs_done     : 242018\nexecs_per_sec  : 692.04\npaths_total    : 26\npaths_favored  : 18\npaths_found    : 25\npaths_imported : 0\nmax_depth      : 4\ncur_path       : 17\npending_favs   : 4\npending_total  : 11\nvariable_paths : 0\nbitmap_cvg     : 0.49%\nunique_crashes : 1\nunique_hangs   : 2\nlast_path      : 1500371790\nlast_crash     : 1500371760\nlast_hang      : 1500371695\nexec_timeout   : 20\nafl_banner     : fuzzer-master\nafl_version    : 1.85b\ncommand_line   : /home/skaramcheti/.virtualenvs/afl/bin/afl-unix/afl-fuzz -i /dev/shm/work/Resort_Modeller/input -o /dev/shm/work/Resort_Modeller/sync -m 4G -Q -M fuzzer-master -x /dev/shm/work/Resort_Modeller/Resort_Modeller.dict -- data/linux/processed-challenges/Resort_Modeller/bin/Resort_Modeller\n'
p5
I10
tp6
a(I360
S'start_time     : 1500371561\nlast_update    : 1500371922\nfuzzer_pid     : 7171\ncycles_done    : 0\nexecs_done     : 299394\nexecs_per_sec  : 615.47\npaths_total    : 31\npaths_favored  : 18\npaths_found    : 30\npaths_imported : 0\nmax_depth      : 6\ncur_path       : 27\npending_favs   : 2\npending_total  : 11\nvariable_paths : 0\nbitmap_cvg     : 0.52%\nunique_crashes : 1\nunique_hangs   : 3\nlast_path      : 1500371916\nlast_crash     : 1500371760\nlast_hang      : 1500371808\nexec_timeout   : 20\nafl_banner     : fuzzer-master\nafl_version    : 1.85b\ncommand_line   : /home/skaramcheti/.virtualenvs/afl/bin/afl-unix/afl-fuzz -i /dev/shm/work/Resort_Modeller/input -o /dev/shm/work/Resort_Modeller/sync -m 4G -Q -M fuzzer-master -x /dev/shm/work/Resort_Modeller/Resort_Modeller.dict -- data/linux/processed-challenges/Resort_Modeller/bin/Resort_Modeller\n'
p7
I4
tp8
a(I480
S'start_time     : 1500371561\nlast_update    : 1500372042\nfuzzer_pid     : 7171\ncycles_done    : 0\nexecs_done     : 357281\nexecs_per_sec  : 494.68\npaths_total    : 37\npaths_favored  : 18\npaths_found    : 36\npaths_imported : 0\nmax_depth      : 6\ncur_path       : 29\npending_favs   : 2\npending_total  : 16\nvariable_paths : 0\nbitmap_cvg     : 0.53%\nunique_crashes : 2\nunique_hangs   : 7\nlast_path      : 1500372024\nlast_crash     : 1500371983\nlast_hang      : 1500372005\nexec_timeout   : 20\nafl_banner     : fuzzer-master\nafl_version    : 1.85b\ncommand_line   : /home/skaramcheti/.virtualenvs/afl/bin/afl-unix/afl-fuzz -i /dev/shm/work/Resort_Modeller/input -o /dev/shm/work/Resort_Modeller/sync -m 4G -Q -M fuzzer-master -x /dev/shm/work/Resort_Modeller/Resort_Modeller.dict -- data/linux/processed-challenges/Resort_Modeller/bin/Resort_Modeller\n'
p9
I6
tp10
a(I600
S'start_time     : 1500371561\nlast_update    : 1500372162\nfuzzer_pid     : 7171\ncycles_done    : 0\nexecs_done     : 409954\nexecs_per_sec  : 436.88\npaths_total    : 38\npaths_favored  : 22\npaths_found    : 37\npaths_imported : 0\nmax_depth      : 7\ncur_path       : 30\npending_favs   : 4\npending_total  : 16\nvariable_paths : 0\nbitmap_cvg     : 0.53%\nunique_crashes : 2\nunique_hangs   : 7\nlast_path      : 1500372127\nlast_crash     : 1500371983\nlast_hang      : 1500372005\nexec_timeout   : 20\nafl_banner     : fuzzer-master\nafl_version    : 1.85b\ncommand_line   : /home/skaramcheti/.virtualenvs/afl/bin/afl-unix/afl-fuzz -i /dev/shm/work/Resort_Modeller/input -o /dev/shm/work/Resort_Modeller/sync -m 4G -Q -M fuzzer-master -x /dev/shm/work/Resort_Modeller/Resort_Modeller.dict -- data/linux/processed-challenges/Resort_Modeller/bin/Resort_Modeller\n'
p11
I1
tp12
a(I720
S'start_time     : 1500371561\nlast_update    : 1500372282\nfuzzer_pid     : 7171\ncycles_done    : 0\nexecs_done     : 468684\nexecs_per_sec  : 509.86\npaths_total    : 41\npaths_favored  : 22\npaths_found    : 40\npaths_imported : 0\nmax_depth      : 7\ncur_path       : 30\npending_favs   : 4\npending_total  : 19\nvariable_paths : 0\nbitmap_cvg     : 0.53%\nunique_crashes : 2\nunique_hangs   : 7\nlast_path      : 1500372232\nlast_crash     : 1500371983\nlast_hang      : 1500372005\nexec_timeout   : 20\nafl_banner     : fuzzer-master\nafl_version    : 1.85b\ncommand_line   : /home/skaramcheti/.virtualenvs/afl/bin/afl-unix/afl-fuzz -i /dev/shm/work/Resort_Modeller/input -o /dev/shm/work/Resort_Modeller/sync -m 4G -Q -M fuzzer-master -x /dev/shm/work/Resort_Modeller/Resort_Modeller.dict -- data/linux/processed-challenges/Resort_Modeller/bin/Resort_Modeller\n'
p13
I3
tp14
a(I840
S'start_time     : 1500371561\nlast_update    : 1500372402\nfuzzer_pid     : 7171\ncycles_done    : 0\nexecs_done     : 521173\nexecs_per_sec  : 517.91\npaths_total    : 41\npaths_favored  : 23\npaths_found    : 40\npaths_imported : 0\nmax_depth      : 7\ncur_path       : 32\npending_favs   : 4\npending_total  : 18\nvariable_paths : 0\nbitmap_cvg     : 0.53%\nunique_crashes : 2\nunique_hangs   : 7\nlast_path      : 1500372232\nlast_crash     : 1500371983\nlast_hang      : 1500372005\nexec_timeout   : 20\nafl_banner     : fuzzer-master\nafl_version    : 1.85b\ncommand_line   : /home/skaramcheti/.virtualenvs/afl/bin/afl-unix/afl-fuzz -i /dev/shm/work/Resort_Modeller/input -o /dev/shm/work/Resort_Modeller/sync -m 4G -Q -M fuzzer-master -x /dev/shm/work/Resort_Modeller/Resort_Modeller.dict -- data/linux/processed-challenges/Resort_Modeller/bin/Resort_Modeller\n'
p15
I0
tp16
a(I960
S'start_time     : 1500371561\nlast_update    : 1500372522\nfuzzer_pid     : 7171\ncycles_done    : 0\nexecs_done     : 571905\nexecs_per_sec  : 58.03\npaths_total    : 44\npaths_favored  : 24\npaths_found    : 43\npaths_imported : 0\nmax_depth      : 7\ncur_path       : 41\npending_favs   : 3\npending_total  : 18\nvariable_paths : 0\nbitmap_cvg     : 0.54%\nunique_crashes : 2\nunique_hangs   : 7\nlast_path      : 1500372476\nlast_crash     : 1500371983\nlast_hang      : 1500372005\nexec_timeout   : 20\nafl_banner     : fuzzer-master\nafl_version    : 1.85b\ncommand_line   : /home/skaramcheti/.virtualenvs/afl/bin/afl-unix/afl-fuzz -i /dev/shm/work/Resort_Modeller/input -o /dev/shm/work/Resort_Modeller/sync -m 4G -Q -M fuzzer-master -x /dev/shm/work/Resort_Modeller/Resort_Modeller.dict -- data/linux/processed-challenges/Resort_Modeller/bin/Resort_Modeller\n'
p17
I3
tp18
a(I1080
S'start_time     : 1500371561\nlast_update    : 1500372643\nfuzzer_pid     : 7171\ncycles_done    : 1\nexecs_done     : 640166\nexecs_per_sec  : 1102.55\npaths_total    : 44\npaths_favored  : 24\npaths_found    : 43\npaths_imported : 0\nmax_depth      : 7\ncur_path       : 6\npending_favs   : 0\npending_total  : 15\nvariable_paths : 0\nbitmap_cvg     : 0.54%\nunique_crashes : 2\nunique_hangs   : 7\nlast_path      : 1500372476\nlast_crash     : 1500371983\nlast_hang      : 1500372005\nexec_timeout   : 20\nafl_banner     : fuzzer-master\nafl_version    : 1.85b\ncommand_line   : /home/skaramcheti/.virtualenvs/afl/bin/afl-unix/afl-fuzz -i /dev/shm/work/Resort_Modeller/input -o /dev/shm/work/Resort_Modeller/sync -m 4G -Q -M fuzzer-master -x /dev/shm/work/Resort_Modeller/Resort_Modeller.dict -- data/linux/processed-challenges/Resort_Modeller/bin/Resort_Modeller\n'
p19
I0
tp20
a(I1200
S'start_time     : 1500371561\nlast_update    : 1500372763\nfuzzer_pid     : 7171\ncycles_done    : 1\nexecs_done     : 725207\nexecs_per_sec  : 458.54\npaths_total    : 44\npaths_favored  : 24\npaths_found    : 43\npaths_imported : 0\nmax_depth      : 7\ncur_path       : 30\npending_favs   : 0\npending_total  : 14\nvariable_paths : 0\nbitmap_cvg     : 0.54%\nunique_crashes : 2\nunique_hangs   : 7\nlast_path      : 1500372476\nlast_crash     : 1500371983\nlast_hang      : 1500372005\nexec_timeout   : 20\nafl_banner     : fuzzer-master\nafl_version    : 1.85b\ncommand_line   : /home/skaramcheti/.virtualenvs/afl/bin/afl-unix/afl-fuzz -i /dev/shm/work/Resort_Modeller/input -o /dev/shm/work/Resort_Modeller/sync -m 4G -Q -M fuzzer-master -x /dev/shm/work/Resort_Modeller/Resort_Modeller.dict -- data/linux/processed-challenges/Resort_Modeller/bin/Resort_Modeller\n'
p21
I0
tp22
a(I1320
S'start_time     : 1500371561\nlast_update    : 1500372883\nfuzzer_pid     : 7171\ncycles_done    : 1\nexecs_done     : 775283\nexecs_per_sec  : 85.46\npaths_total    : 44\npaths_favored  : 24\npaths_found    : 43\npaths_imported : 0\nmax_depth      : 7\ncur_path       : 39\npending_favs   : 0\npending_total  : 13\nvariable_paths : 0\nbitmap_cvg     : 0.54%\nunique_crashes : 3\nunique_hangs   : 7\nlast_path      : 1500372476\nlast_crash     : 1500372873\nlast_hang      : 1500372005\nexec_timeout   : 20\nafl_banner     : fuzzer-master\nafl_version    : 1.85b\ncommand_line   : /home/skaramcheti/.virtualenvs/afl/bin/afl-unix/afl-fuzz -i /dev/shm/work/Resort_Modeller/input -o /dev/shm/work/Resort_Modeller/sync -m 4G -Q -M fuzzer-master -x /dev/shm/work/Resort_Modeller/Resort_Modeller.dict -- data/linux/processed-challenges/Resort_Modeller/bin/Resort_Modeller\n'
p23
I0
tp24
a(I1440
S'start_time     : 1500371561\nlast_update    : 1500373003\nfuzzer_pid     : 7171\ncycles_done    : 2\nexecs_done     : 829602\nexecs_per_sec  : 691.03\npaths_total    : 44\npaths_favored  : 24\npaths_found    : 43\npaths_imported : 0\nmax_depth      : 7\ncur_path       : 2\npending_favs   : 0\npending_total  : 12\nvariable_paths : 0\nbitmap_cvg     : 0.54%\nunique_crashes : 3\nunique_hangs   : 7\nlast_path      : 1500372476\nlast_crash     : 1500372873\nlast_hang      : 1500372005\nexec_timeout   : 20\nafl_banner     : fuzzer-master\nafl_version    : 1.85b\ncommand_line   : /home/skaramcheti/.virtualenvs/afl/bin/afl-unix/afl-fuzz -i /dev/shm/work/Resort_Modeller/input -o /dev/shm/work/Resort_Modeller/sync -m 4G -Q -M fuzzer-master -x /dev/shm/work/Resort_Modeller/Resort_Modeller.dict -- data/linux/processed-challenges/Resort_Modeller/bin/Resort_Modeller\n'
p25
I0
tp26
a(I1560
S'start_time     : 1500371561\nlast_update    : 1500373124\nfuzzer_pid     : 7171\ncycles_done    : 2\nexecs_done     : 940254\nexecs_per_sec  : 929.90\npaths_total    : 45\npaths_favored  : 24\npaths_found    : 44\npaths_imported : 0\nmax_depth      : 7\ncur_path       : 12\npending_favs   : 0\npending_total  : 13\nvariable_paths : 0\nbitmap_cvg     : 0.54%\nunique_crashes : 3\nunique_hangs   : 8\nlast_path      : 1500373084\nlast_crash     : 1500372873\nlast_hang      : 1500373064\nexec_timeout   : 20\nafl_banner     : fuzzer-master\nafl_version    : 1.85b\ncommand_line   : /home/skaramcheti/.virtualenvs/afl/bin/afl-unix/afl-fuzz -i /dev/shm/work/Resort_Modeller/input -o /dev/shm/work/Resort_Modeller/sync -m 4G -Q -M fuzzer-master -x /dev/shm/work/Resort_Modeller/Resort_Modeller.dict -- data/linux/processed-challenges/Resort_Modeller/bin/Resort_Modeller\n'
p27
I1
tp28
a(I1680
S'start_time     : 1500371561\nlast_update    : 1500373244\nfuzzer_pid     : 7171\ncycles_done    : 2\nexecs_done     : 999199\nexecs_per_sec  : 381.40\npaths_total    : 52\npaths_favored  : 25\npaths_found    : 51\npaths_imported : 0\nmax_depth      : 7\ncur_path       : 46\npending_favs   : 1\npending_total  : 20\nvariable_paths : 0\nbitmap_cvg     : 0.55%\nunique_crashes : 4\nunique_hangs   : 11\nlast_path      : 1500373240\nlast_crash     : 1500373190\nlast_hang      : 1500373239\nexec_timeout   : 20\nafl_banner     : fuzzer-master\nafl_version    : 1.85b\ncommand_line   : /home/skaramcheti/.virtualenvs/afl/bin/afl-unix/afl-fuzz -i /dev/shm/work/Resort_Modeller/input -o /dev/shm/work/Resort_Modeller/sync -m 4G -Q -M fuzzer-master -x /dev/shm/work/Resort_Modeller/Resort_Modeller.dict -- data/linux/processed-challenges/Resort_Modeller/bin/Resort_Modeller\n'
p29
I9
tp30
a(I1800
S'start_time     : 1500371561\nlast_update    : 1500373364\nfuzzer_pid     : 7171\ncycles_done    : 2\nexecs_done     : 1048370\nexecs_per_sec  : 409.36\npaths_total    : 57\npaths_favored  : 25\npaths_found    : 56\npaths_imported : 0\nmax_depth      : 7\ncur_path       : 46\npending_favs   : 1\npending_total  : 25\nvariable_paths : 0\nbitmap_cvg     : 0.55%\nunique_crashes : 5\nunique_hangs   : 12\nlast_path      : 1500373361\nlast_crash     : 1500373267\nlast_hang      : 1500373255\nexec_timeout   : 20\nafl_banner     : fuzzer-master\nafl_version    : 1.85b\ncommand_line   : /home/skaramcheti/.virtualenvs/afl/bin/afl-unix/afl-fuzz -i /dev/shm/work/Resort_Modeller/input -o /dev/shm/work/Resort_Modeller/sync -m 4G -Q -M fuzzer-master -x /dev/shm/work/Resort_Modeller/Resort_Modeller.dict -- data/linux/processed-challenges/Resort_Modeller/bin/Resort_Modeller\n'
p31
I3
tp32
a(I1920
S'start_time     : 1500371561\nlast_update    : 1500373484\nfuzzer_pid     : 7171\ncycles_done    : 2\nexecs_done     : 1097314\nexecs_per_sec  : 406.93\npaths_total    : 57\npaths_favored  : 25\npaths_found    : 56\npaths_imported : 0\nmax_depth      : 7\ncur_path       : 46\npending_favs   : 1\npending_total  : 25\nvariable_paths : 0\nbitmap_cvg     : 0.55%\nunique_crashes : 5\nunique_hangs   : 12\nlast_path      : 1500373361\nlast_crash     : 1500373267\nlast_hang      : 1500373255\nexec_timeout   : 20\nafl_banner     : fuzzer-master\nafl_version    : 1.85b\ncommand_line   : /home/skaramcheti/.virtualenvs/afl/bin/afl-unix/afl-fuzz -i /dev/shm/work/Resort_Modeller/input -o /dev/shm/work/Resort_Modeller/sync -m 4G -Q -M fuzzer-master -x /dev/shm/work/Resort_Modeller/Resort_Modeller.dict -- data/linux/processed-challenges/Resort_Modeller/bin/Resort_Modeller\n'
p33
I0
tp34
a(I2040
S'start_time     : 1500371561\nlast_update    : 1500373605\nfuzzer_pid     : 7171\ncycles_done    : 2\nexecs_done     : 1153488\nexecs_per_sec  : 486.19\npaths_total    : 59\npaths_favored  : 28\npaths_found    : 58\npaths_imported : 0\nmax_depth      : 7\ncur_path       : 47\npending_favs   : 7\npending_total  : 26\nvariable_paths : 0\nbitmap_cvg     : 0.56%\nunique_crashes : 5\nunique_hangs   : 12\nlast_path      : 1500373566\nlast_crash     : 1500373267\nlast_hang      : 1500373255\nexec_timeout   : 20\nafl_banner     : fuzzer-master\nafl_version    : 1.85b\ncommand_line   : /home/skaramcheti/.virtualenvs/afl/bin/afl-unix/afl-fuzz -i /dev/shm/work/Resort_Modeller/input -o /dev/shm/work/Resort_Modeller/sync -m 4G -Q -M fuzzer-master -x /dev/shm/work/Resort_Modeller/Resort_Modeller.dict -- data/linux/processed-challenges/Resort_Modeller/bin/Resort_Modeller\n'
p35
I2
tp36
a(I2160
S'start_time     : 1500371561\nlast_update    : 1500373725\nfuzzer_pid     : 7171\ncycles_done    : 2\nexecs_done     : 1213936\nexecs_per_sec  : 493.16\npaths_total    : 60\npaths_favored  : 28\npaths_found    : 59\npaths_imported : 0\nmax_depth      : 7\ncur_path       : 47\npending_favs   : 7\npending_total  : 27\nvariable_paths : 0\nbitmap_cvg     : 0.56%\nunique_crashes : 5\nunique_hangs   : 14\nlast_path      : 1500373610\nlast_crash     : 1500373267\nlast_hang      : 1500373631\nexec_timeout   : 20\nafl_banner     : fuzzer-master\nafl_version    : 1.85b\ncommand_line   : /home/skaramcheti/.virtualenvs/afl/bin/afl-unix/afl-fuzz -i /dev/shm/work/Resort_Modeller/input -o /dev/shm/work/Resort_Modeller/sync -m 4G -Q -M fuzzer-master -x /dev/shm/work/Resort_Modeller/Resort_Modeller.dict -- data/linux/processed-challenges/Resort_Modeller/bin/Resort_Modeller\n'
p37
I1
tp38
a(I2280
S'start_time     : 1500371561\nlast_update    : 1500373845\nfuzzer_pid     : 7171\ncycles_done    : 2\nexecs_done     : 1268429\nexecs_per_sec  : 427.01\npaths_total    : 61\npaths_favored  : 26\npaths_found    : 60\npaths_imported : 0\nmax_depth      : 7\ncur_path       : 49\npending_favs   : 6\npending_total  : 27\nvariable_paths : 0\nbitmap_cvg     : 0.58%\nunique_crashes : 5\nunique_hangs   : 14\nlast_path      : 1500373779\nlast_crash     : 1500373267\nlast_hang      : 1500373631\nexec_timeout   : 20\nafl_banner     : fuzzer-master\nafl_version    : 1.85b\ncommand_line   : /home/skaramcheti/.virtualenvs/afl/bin/afl-unix/afl-fuzz -i /dev/shm/work/Resort_Modeller/input -o /dev/shm/work/Resort_Modeller/sync -m 4G -Q -M fuzzer-master -x /dev/shm/work/Resort_Modeller/Resort_Modeller.dict -- data/linux/processed-challenges/Resort_Modeller/bin/Resort_Modeller\n'
p39
I1
tp40
a(I2400
S'start_time     : 1500371561\nlast_update    : 1500373965\nfuzzer_pid     : 7171\ncycles_done    : 2\nexecs_done     : 1330253\nexecs_per_sec  : 444.00\npaths_total    : 61\npaths_favored  : 26\npaths_found    : 60\npaths_imported : 0\nmax_depth      : 7\ncur_path       : 49\npending_favs   : 6\npending_total  : 27\nvariable_paths : 0\nbitmap_cvg     : 0.58%\nunique_crashes : 5\nunique_hangs   : 14\nlast_path      : 1500373779\nlast_crash     : 1500373267\nlast_hang      : 1500373631\nexec_timeout   : 20\nafl_banner     : fuzzer-master\nafl_version    : 1.85b\ncommand_line   : /home/skaramcheti/.virtualenvs/afl/bin/afl-unix/afl-fuzz -i /dev/shm/work/Resort_Modeller/input -o /dev/shm/work/Resort_Modeller/sync -m 4G -Q -M fuzzer-master -x /dev/shm/work/Resort_Modeller/Resort_Modeller.dict -- data/linux/processed-challenges/Resort_Modeller/bin/Resort_Modeller\n'
p41
I0
tp42
a(I2520
S'start_time     : 1500371561\nlast_update    : 1500374086\nfuzzer_pid     : 7171\ncycles_done    : 2\nexecs_done     : 1381094\nexecs_per_sec  : 460.26\npaths_total    : 63\npaths_favored  : 27\npaths_found    : 62\npaths_imported : 0\nmax_depth      : 7\ncur_path       : 50\npending_favs   : 6\npending_total  : 28\nvariable_paths : 0\nbitmap_cvg     : 0.58%\nunique_crashes : 5\nunique_hangs   : 14\nlast_path      : 1500374000\nlast_crash     : 1500373267\nlast_hang      : 1500373631\nexec_timeout   : 20\nafl_banner     : fuzzer-master\nafl_version    : 1.85b\ncommand_line   : /home/skaramcheti/.virtualenvs/afl/bin/afl-unix/afl-fuzz -i /dev/shm/work/Resort_Modeller/input -o /dev/shm/work/Resort_Modeller/sync -m 4G -Q -M fuzzer-master -x /dev/shm/work/Resort_Modeller/Resort_Modeller.dict -- data/linux/processed-challenges/Resort_Modeller/bin/Resort_Modeller\n'
p43
I2
tp44
a(I2640
S'start_time     : 1500371561\nlast_update    : 1500374206\nfuzzer_pid     : 7171\ncycles_done    : 2\nexecs_done     : 1436452\nexecs_per_sec  : 381.50\npaths_total    : 63\npaths_favored  : 27\npaths_found    : 62\npaths_imported : 0\nmax_depth      : 7\ncur_path       : 51\npending_favs   : 5\npending_total  : 27\nvariable_paths : 0\nbitmap_cvg     : 0.58%\nunique_crashes : 6\nunique_hangs   : 14\nlast_path      : 1500374000\nlast_crash     : 1500374146\nlast_hang      : 1500373631\nexec_timeout   : 20\nafl_banner     : fuzzer-master\nafl_version    : 1.85b\ncommand_line   : /home/skaramcheti/.virtualenvs/afl/bin/afl-unix/afl-fuzz -i /dev/shm/work/Resort_Modeller/input -o /dev/shm/work/Resort_Modeller/sync -m 4G -Q -M fuzzer-master -x /dev/shm/work/Resort_Modeller/Resort_Modeller.dict -- data/linux/processed-challenges/Resort_Modeller/bin/Resort_Modeller\n'
p45
I0
tp46
a(I2760
S'start_time     : 1500371561\nlast_update    : 1500374326\nfuzzer_pid     : 7171\ncycles_done    : 2\nexecs_done     : 1489784\nexecs_per_sec  : 895.81\npaths_total    : 63\npaths_favored  : 27\npaths_found    : 62\npaths_imported : 0\nmax_depth      : 7\ncur_path       : 51\npending_favs   : 5\npending_total  : 27\nvariable_paths : 0\nbitmap_cvg     : 0.58%\nunique_crashes : 6\nunique_hangs   : 14\nlast_path      : 1500374000\nlast_crash     : 1500374146\nlast_hang      : 1500373631\nexec_timeout   : 20\nafl_banner     : fuzzer-master\nafl_version    : 1.85b\ncommand_line   : /home/skaramcheti/.virtualenvs/afl/bin/afl-unix/afl-fuzz -i /dev/shm/work/Resort_Modeller/input -o /dev/shm/work/Resort_Modeller/sync -m 4G -Q -M fuzzer-master -x /dev/shm/work/Resort_Modeller/Resort_Modeller.dict -- data/linux/processed-challenges/Resort_Modeller/bin/Resort_Modeller\n'
p47
I0
tp48
a(I2880
S'start_time     : 1500371561\nlast_update    : 1500374446\nfuzzer_pid     : 7171\ncycles_done    : 2\nexecs_done     : 1550882\nexecs_per_sec  : 407.14\npaths_total    : 65\npaths_favored  : 27\npaths_found    : 64\npaths_imported : 0\nmax_depth      : 7\ncur_path       : 51\npending_favs   : 5\npending_total  : 29\nvariable_paths : 0\nbitmap_cvg     : 0.58%\nunique_crashes : 7\nunique_hangs   : 14\nlast_path      : 1500374363\nlast_crash     : 1500374371\nlast_hang      : 1500373631\nexec_timeout   : 20\nafl_banner     : fuzzer-master\nafl_version    : 1.85b\ncommand_line   : /home/skaramcheti/.virtualenvs/afl/bin/afl-unix/afl-fuzz -i /dev/shm/work/Resort_Modeller/input -o /dev/shm/work/Resort_Modeller/sync -m 4G -Q -M fuzzer-master -x /dev/shm/work/Resort_Modeller/Resort_Modeller.dict -- data/linux/processed-challenges/Resort_Modeller/bin/Resort_Modeller\n'
p49
I2
tp50
a(I3000
S'start_time     : 1500371561\nlast_update    : 1500374566\nfuzzer_pid     : 7171\ncycles_done    : 2\nexecs_done     : 1586260\nexecs_per_sec  : 383.28\npaths_total    : 65\npaths_favored  : 27\npaths_found    : 64\npaths_imported : 0\nmax_depth      : 7\ncur_path       : 55\npending_favs   : 4\npending_total  : 28\nvariable_paths : 0\nbitmap_cvg     : 0.58%\nunique_crashes : 7\nunique_hangs   : 14\nlast_path      : 1500374363\nlast_crash     : 1500374371\nlast_hang      : 1500373631\nexec_timeout   : 20\nafl_banner     : fuzzer-master\nafl_version    : 1.85b\ncommand_line   : /home/skaramcheti/.virtualenvs/afl/bin/afl-unix/afl-fuzz -i /dev/shm/work/Resort_Modeller/input -o /dev/shm/work/Resort_Modeller/sync -m 4G -Q -M fuzzer-master -x /dev/shm/work/Resort_Modeller/Resort_Modeller.dict -- data/linux/processed-challenges/Resort_Modeller/bin/Resort_Modeller\n'
p51
I0
tp52
a(I3120
S'start_time     : 1500371561\nlast_update    : 1500374687\nfuzzer_pid     : 7171\ncycles_done    : 2\nexecs_done     : 1643655\nexecs_per_sec  : 170.30\npaths_total    : 65\npaths_favored  : 27\npaths_found    : 64\npaths_imported : 0\nmax_depth      : 7\ncur_path       : 58\npending_favs   : 3\npending_total  : 27\nvariable_paths : 0\nbitmap_cvg     : 0.58%\nunique_crashes : 8\nunique_hangs   : 17\nlast_path      : 1500374363\nlast_crash     : 1500374628\nlast_hang      : 1500374682\nexec_timeout   : 20\nafl_banner     : fuzzer-master\nafl_version    : 1.85b\ncommand_line   : /home/skaramcheti/.virtualenvs/afl/bin/afl-unix/afl-fuzz -i /dev/shm/work/Resort_Modeller/input -o /dev/shm/work/Resort_Modeller/sync -m 4G -Q -M fuzzer-master -x /dev/shm/work/Resort_Modeller/Resort_Modeller.dict -- data/linux/processed-challenges/Resort_Modeller/bin/Resort_Modeller\n'
p53
I0
tp54
a(I3240
S'start_time     : 1500371561\nlast_update    : 1500374807\nfuzzer_pid     : 7171\ncycles_done    : 2\nexecs_done     : 1672914\nexecs_per_sec  : 567.82\npaths_total    : 66\npaths_favored  : 27\npaths_found    : 65\npaths_imported : 0\nmax_depth      : 7\ncur_path       : 58\npending_favs   : 3\npending_total  : 28\nvariable_paths : 0\nbitmap_cvg     : 0.60%\nunique_crashes : 10\nunique_hangs   : 17\nlast_path      : 1500374709\nlast_crash     : 1500374691\nlast_hang      : 1500374682\nexec_timeout   : 20\nafl_banner     : fuzzer-master\nafl_version    : 1.85b\ncommand_line   : /home/skaramcheti/.virtualenvs/afl/bin/afl-unix/afl-fuzz -i /dev/shm/work/Resort_Modeller/input -o /dev/shm/work/Resort_Modeller/sync -m 4G -Q -M fuzzer-master -x /dev/shm/work/Resort_Modeller/Resort_Modeller.dict -- data/linux/processed-challenges/Resort_Modeller/bin/Resort_Modeller\n'
p55
I1
tp56
a(I3360
S'start_time     : 1500371561\nlast_update    : 1500374927\nfuzzer_pid     : 7171\ncycles_done    : 2\nexecs_done     : 1718865\nexecs_per_sec  : 426.77\npaths_total    : 67\npaths_favored  : 29\npaths_found    : 66\npaths_imported : 0\nmax_depth      : 7\ncur_path       : 60\npending_favs   : 5\npending_total  : 28\nvariable_paths : 0\nbitmap_cvg     : 0.60%\nunique_crashes : 10\nunique_hangs   : 17\nlast_path      : 1500374813\nlast_crash     : 1500374691\nlast_hang      : 1500374682\nexec_timeout   : 20\nafl_banner     : fuzzer-master\nafl_version    : 1.85b\ncommand_line   : /home/skaramcheti/.virtualenvs/afl/bin/afl-unix/afl-fuzz -i /dev/shm/work/Resort_Modeller/input -o /dev/shm/work/Resort_Modeller/sync -m 4G -Q -M fuzzer-master -x /dev/shm/work/Resort_Modeller/Resort_Modeller.dict -- data/linux/processed-challenges/Resort_Modeller/bin/Resort_Modeller\n'
p57
I1
tp58
a(I3480
S'start_time     : 1500371561\nlast_update    : 1500375048\nfuzzer_pid     : 7171\ncycles_done    : 2\nexecs_done     : 1769044\nexecs_per_sec  : 486.82\npaths_total    : 71\npaths_favored  : 29\npaths_found    : 70\npaths_imported : 0\nmax_depth      : 7\ncur_path       : 62\npending_favs   : 4\npending_total  : 31\nvariable_paths : 0\nbitmap_cvg     : 0.60%\nunique_crashes : 10\nunique_hangs   : 17\nlast_path      : 1500375042\nlast_crash     : 1500374691\nlast_hang      : 1500374682\nexec_timeout   : 20\nafl_banner     : fuzzer-master\nafl_version    : 1.85b\ncommand_line   : /home/skaramcheti/.virtualenvs/afl/bin/afl-unix/afl-fuzz -i /dev/shm/work/Resort_Modeller/input -o /dev/shm/work/Resort_Modeller/sync -m 4G -Q -M fuzzer-master -x /dev/shm/work/Resort_Modeller/Resort_Modeller.dict -- data/linux/processed-challenges/Resort_Modeller/bin/Resort_Modeller\n'
p59
I4
tp60
a(I3600
S'start_time     : 1500371561\nlast_update    : 1500375168\nfuzzer_pid     : 7171\ncycles_done    : 2\nexecs_done     : 1808251\nexecs_per_sec  : 346.26\npaths_total    : 73\npaths_favored  : 29\npaths_found    : 72\npaths_imported : 0\nmax_depth      : 7\ncur_path       : 62\npending_favs   : 4\npending_total  : 33\nvariable_paths : 0\nbitmap_cvg     : 0.60%\nunique_crashes : 10\nunique_hangs   : 17\nlast_path      : 1500375135\nlast_crash     : 1500374691\nlast_hang      : 1500374682\nexec_timeout   : 20\nafl_banner     : fuzzer-master\nafl_version    : 1.85b\ncommand_line   : /home/skaramcheti/.virtualenvs/afl/bin/afl-unix/afl-fuzz -i /dev/shm/work/Resort_Modeller/input -o /dev/shm/work/Resort_Modeller/sync -m 4G -Q -M fuzzer-master -x /dev/shm/work/Resort_Modeller/Resort_Modeller.dict -- data/linux/processed-challenges/Resort_Modeller/bin/Resort_Modeller\n'
p61
I2
tp62
a(I3720
S'start_time     : 1500371561\nlast_update    : 1500375288\nfuzzer_pid     : 7171\ncycles_done    : 2\nexecs_done     : 1852137\nexecs_per_sec  : 347.87\npaths_total    : 75\npaths_favored  : 29\npaths_found    : 74\npaths_imported : 0\nmax_depth      : 7\ncur_path       : 62\npending_favs   : 4\npending_total  : 35\nvariable_paths : 0\nbitmap_cvg     : 0.60%\nunique_crashes : 10\nunique_hangs   : 17\nlast_path      : 1500375183\nlast_crash     : 1500374691\nlast_hang      : 1500374682\nexec_timeout   : 20\nafl_banner     : fuzzer-master\nafl_version    : 1.85b\ncommand_line   : /home/skaramcheti/.virtualenvs/afl/bin/afl-unix/afl-fuzz -i /dev/shm/work/Resort_Modeller/input -o /dev/shm/work/Resort_Modeller/sync -m 4G -Q -M fuzzer-master -x /dev/shm/work/Resort_Modeller/Resort_Modeller.dict -- data/linux/processed-challenges/Resort_Modeller/bin/Resort_Modeller\n'
p63
I2
tp64
a(I3840
S'start_time     : 1500371561\nlast_update    : 1500375408\nfuzzer_pid     : 7171\ncycles_done    : 2\nexecs_done     : 1894671\nexecs_per_sec  : 344.83\npaths_total    : 75\npaths_favored  : 29\npaths_found    : 74\npaths_imported : 0\nmax_depth      : 7\ncur_path       : 62\npending_favs   : 4\npending_total  : 35\nvariable_paths : 0\nbitmap_cvg     : 0.60%\nunique_crashes : 10\nunique_hangs   : 18\nlast_path      : 1500375183\nlast_crash     : 1500374691\nlast_hang      : 1500375391\nexec_timeout   : 20\nafl_banner     : fuzzer-master\nafl_version    : 1.85b\ncommand_line   : /home/skaramcheti/.virtualenvs/afl/bin/afl-unix/afl-fuzz -i /dev/shm/work/Resort_Modeller/input -o /dev/shm/work/Resort_Modeller/sync -m 4G -Q -M fuzzer-master -x /dev/shm/work/Resort_Modeller/Resort_Modeller.dict -- data/linux/processed-challenges/Resort_Modeller/bin/Resort_Modeller\n'
p65
I0
tp66
a(I3960
S'start_time     : 1500371561\nlast_update    : 1500375529\nfuzzer_pid     : 7171\ncycles_done    : 2\nexecs_done     : 1951821\nexecs_per_sec  : 351.20\npaths_total    : 75\npaths_favored  : 29\npaths_found    : 74\npaths_imported : 0\nmax_depth      : 7\ncur_path       : 62\npending_favs   : 4\npending_total  : 35\nvariable_paths : 0\nbitmap_cvg     : 0.60%\nunique_crashes : 10\nunique_hangs   : 18\nlast_path      : 1500375183\nlast_crash     : 1500374691\nlast_hang      : 1500375391\nexec_timeout   : 20\nafl_banner     : fuzzer-master\nafl_version    : 1.85b\ncommand_line   : /home/skaramcheti/.virtualenvs/afl/bin/afl-unix/afl-fuzz -i /dev/shm/work/Resort_Modeller/input -o /dev/shm/work/Resort_Modeller/sync -m 4G -Q -M fuzzer-master -x /dev/shm/work/Resort_Modeller/Resort_Modeller.dict -- data/linux/processed-challenges/Resort_Modeller/bin/Resort_Modeller\n'
p67
I0
tp68
a(I4080
S'start_time     : 1500371561\nlast_update    : 1500375649\nfuzzer_pid     : 7171\ncycles_done    : 2\nexecs_done     : 1986185\nexecs_per_sec  : 350.88\npaths_total    : 75\npaths_favored  : 29\npaths_found    : 74\npaths_imported : 0\nmax_depth      : 7\ncur_path       : 63\npending_favs   : 3\npending_total  : 34\nvariable_paths : 0\nbitmap_cvg     : 0.60%\nunique_crashes : 10\nunique_hangs   : 18\nlast_path      : 1500375183\nlast_crash     : 1500374691\nlast_hang      : 1500375391\nexec_timeout   : 20\nafl_banner     : fuzzer-master\nafl_version    : 1.85b\ncommand_line   : /home/skaramcheti/.virtualenvs/afl/bin/afl-unix/afl-fuzz -i /dev/shm/work/Resort_Modeller/input -o /dev/shm/work/Resort_Modeller/sync -m 4G -Q -M fuzzer-master -x /dev/shm/work/Resort_Modeller/Resort_Modeller.dict -- data/linux/processed-challenges/Resort_Modeller/bin/Resort_Modeller\n'
p69
I0
tp70
a(I4200
S'start_time     : 1500371561\nlast_update    : 1500375769\nfuzzer_pid     : 7171\ncycles_done    : 2\nexecs_done     : 2044351\nexecs_per_sec  : 815.79\npaths_total    : 75\npaths_favored  : 29\npaths_found    : 74\npaths_imported : 0\nmax_depth      : 7\ncur_path       : 63\npending_favs   : 3\npending_total  : 34\nvariable_paths : 0\nbitmap_cvg     : 0.60%\nunique_crashes : 10\nunique_hangs   : 18\nlast_path      : 1500375183\nlast_crash     : 1500374691\nlast_hang      : 1500375391\nexec_timeout   : 20\nafl_banner     : fuzzer-master\nafl_version    : 1.85b\ncommand_line   : /home/skaramcheti/.virtualenvs/afl/bin/afl-unix/afl-fuzz -i /dev/shm/work/Resort_Modeller/input -o /dev/shm/work/Resort_Modeller/sync -m 4G -Q -M fuzzer-master -x /dev/shm/work/Resort_Modeller/Resort_Modeller.dict -- data/linux/processed-challenges/Resort_Modeller/bin/Resort_Modeller\n'
p71
I0
tp72
a(I4320
S'start_time     : 1500371561\nlast_update    : 1500375889\nfuzzer_pid     : 7171\ncycles_done    : 2\nexecs_done     : 2096107\nexecs_per_sec  : 443.02\npaths_total    : 75\npaths_favored  : 29\npaths_found    : 74\npaths_imported : 0\nmax_depth      : 7\ncur_path       : 65\npending_favs   : 2\npending_total  : 33\nvariable_paths : 0\nbitmap_cvg     : 0.60%\nunique_crashes : 10\nunique_hangs   : 18\nlast_path      : 1500375183\nlast_crash     : 1500374691\nlast_hang      : 1500375391\nexec_timeout   : 20\nafl_banner     : fuzzer-master\nafl_version    : 1.85b\ncommand_line   : /home/skaramcheti/.virtualenvs/afl/bin/afl-unix/afl-fuzz -i /dev/shm/work/Resort_Modeller/input -o /dev/shm/work/Resort_Modeller/sync -m 4G -Q -M fuzzer-master -x /dev/shm/work/Resort_Modeller/Resort_Modeller.dict -- data/linux/processed-challenges/Resort_Modeller/bin/Resort_Modeller\n'
p73
I0
tp74
a(I4440
S'start_time     : 1500371561\nlast_update    : 1500376009\nfuzzer_pid     : 7171\ncycles_done    : 2\nexecs_done     : 2152417\nexecs_per_sec  : 91.25\npaths_total    : 75\npaths_favored  : 29\npaths_found    : 74\npaths_imported : 0\nmax_depth      : 7\ncur_path       : 66\npending_favs   : 1\npending_total  : 32\nvariable_paths : 0\nbitmap_cvg     : 0.60%\nunique_crashes : 10\nunique_hangs   : 18\nlast_path      : 1500375183\nlast_crash     : 1500374691\nlast_hang      : 1500375391\nexec_timeout   : 20\nafl_banner     : fuzzer-master\nafl_version    : 1.85b\ncommand_line   : /home/skaramcheti/.virtualenvs/afl/bin/afl-unix/afl-fuzz -i /dev/shm/work/Resort_Modeller/input -o /dev/shm/work/Resort_Modeller/sync -m 4G -Q -M fuzzer-master -x /dev/shm/work/Resort_Modeller/Resort_Modeller.dict -- data/linux/processed-challenges/Resort_Modeller/bin/Resort_Modeller\n'
p75
I0
tp76
a(I4560
S'start_time     : 1500371561\nlast_update    : 1500376130\nfuzzer_pid     : 7171\ncycles_done    : 2\nexecs_done     : 2211808\nexecs_per_sec  : 499.97\npaths_total    : 80\npaths_favored  : 29\npaths_found    : 79\npaths_imported : 0\nmax_depth      : 7\ncur_path       : 66\npending_favs   : 1\npending_total  : 37\nvariable_paths : 0\nbitmap_cvg     : 0.60%\nunique_crashes : 10\nunique_hangs   : 18\nlast_path      : 1500376125\nlast_crash     : 1500374691\nlast_hang      : 1500375391\nexec_timeout   : 20\nafl_banner     : fuzzer-master\nafl_version    : 1.85b\ncommand_line   : /home/skaramcheti/.virtualenvs/afl/bin/afl-unix/afl-fuzz -i /dev/shm/work/Resort_Modeller/input -o /dev/shm/work/Resort_Modeller/sync -m 4G -Q -M fuzzer-master -x /dev/shm/work/Resort_Modeller/Resort_Modeller.dict -- data/linux/processed-challenges/Resort_Modeller/bin/Resort_Modeller\n'
p77
I5
tp78
a(I4680
S'start_time     : 1500371561\nlast_update    : 1500376250\nfuzzer_pid     : 7171\ncycles_done    : 2\nexecs_done     : 2244151\nexecs_per_sec  : 78.76\npaths_total    : 81\npaths_favored  : 29\npaths_found    : 80\npaths_imported : 0\nmax_depth      : 7\ncur_path       : 68\npending_favs   : 0\npending_total  : 37\nvariable_paths : 0\nbitmap_cvg     : 0.61%\nunique_crashes : 10\nunique_hangs   : 18\nlast_path      : 1500376160\nlast_crash     : 1500374691\nlast_hang      : 1500375391\nexec_timeout   : 20\nafl_banner     : fuzzer-master\nafl_version    : 1.85b\ncommand_line   : /home/skaramcheti/.virtualenvs/afl/bin/afl-unix/afl-fuzz -i /dev/shm/work/Resort_Modeller/input -o /dev/shm/work/Resort_Modeller/sync -m 4G -Q -M fuzzer-master -x /dev/shm/work/Resort_Modeller/Resort_Modeller.dict -- data/linux/processed-challenges/Resort_Modeller/bin/Resort_Modeller\n'
p79
I1
tp80
a(I4800
S'start_time     : 1500371561\nlast_update    : 1500376370\nfuzzer_pid     : 7171\ncycles_done    : 2\nexecs_done     : 2269657\nexecs_per_sec  : 300.49\npaths_total    : 81\npaths_favored  : 29\npaths_found    : 80\npaths_imported : 0\nmax_depth      : 7\ncur_path       : 68\npending_favs   : 0\npending_total  : 37\nvariable_paths : 0\nbitmap_cvg     : 0.61%\nunique_crashes : 10\nunique_hangs   : 18\nlast_path      : 1500376160\nlast_crash     : 1500374691\nlast_hang      : 1500375391\nexec_timeout   : 20\nafl_banner     : fuzzer-master\nafl_version    : 1.85b\ncommand_line   : /home/skaramcheti/.virtualenvs/afl/bin/afl-unix/afl-fuzz -i /dev/shm/work/Resort_Modeller/input -o /dev/shm/work/Resort_Modeller/sync -m 4G -Q -M fuzzer-master -x /dev/shm/work/Resort_Modeller/Resort_Modeller.dict -- data/linux/processed-challenges/Resort_Modeller/bin/Resort_Modeller\n'
p81
I0
tp82
a(I4920
S'start_time     : 1500371561\nlast_update    : 1500376490\nfuzzer_pid     : 7171\ncycles_done    : 2\nexecs_done     : 2307755\nexecs_per_sec  : 297.44\npaths_total    : 82\npaths_favored  : 29\npaths_found    : 81\npaths_imported : 0\nmax_depth      : 7\ncur_path       : 68\npending_favs   : 0\npending_total  : 38\nvariable_paths : 0\nbitmap_cvg     : 0.61%\nunique_crashes : 10\nunique_hangs   : 19\nlast_path      : 1500376389\nlast_crash     : 1500374691\nlast_hang      : 1500376388\nexec_timeout   : 20\nafl_banner     : fuzzer-master\nafl_version    : 1.85b\ncommand_line   : /home/skaramcheti/.virtualenvs/afl/bin/afl-unix/afl-fuzz -i /dev/shm/work/Resort_Modeller/input -o /dev/shm/work/Resort_Modeller/sync -m 4G -Q -M fuzzer-master -x /dev/shm/work/Resort_Modeller/Resort_Modeller.dict -- data/linux/processed-challenges/Resort_Modeller/bin/Resort_Modeller\n'
p83
I1
tp84
a(I5040
S'start_time     : 1500371561\nlast_update    : 1500376550\nfuzzer_pid     : 7171\ncycles_done    : 2\nexecs_done     : 2327731\nexecs_per_sec  : 394.24\npaths_total    : 82\npaths_favored  : 29\npaths_found    : 81\npaths_imported : 0\nmax_depth      : 7\ncur_path       : 68\npending_favs   : 0\npending_total  : 38\nvariable_paths : 0\nbitmap_cvg     : 0.61%\nunique_crashes : 10\nunique_hangs   : 19\nlast_path      : 1500376389\nlast_crash     : 1500374691\nlast_hang      : 1500376388\nexec_timeout   : 20\nafl_banner     : fuzzer-master\nafl_version    : 1.85b\ncommand_line   : /home/skaramcheti/.virtualenvs/afl/bin/afl-unix/afl-fuzz -i /dev/shm/work/Resort_Modeller/input -o /dev/shm/work/Resort_Modeller/sync -m 4G -Q -M fuzzer-master -x /dev/shm/work/Resort_Modeller/Resort_Modeller.dict -- data/linux/processed-challenges/Resort_Modeller/bin/Resort_Modeller\n'
p85
I0
tp86
a(I5160
S'start_time     : 1500371561\nlast_update    : 1500376670\nfuzzer_pid     : 7171\ncycles_done    : 2\nexecs_done     : 2379273\nexecs_per_sec  : 70.84\npaths_total    : 86\npaths_favored  : 27\npaths_found    : 85\npaths_imported : 0\nmax_depth      : 8\ncur_path       : 76\npending_favs   : 1\npending_total  : 41\nvariable_paths : 0\nbitmap_cvg     : 0.61%\nunique_crashes : 10\nunique_hangs   : 19\nlast_path      : 1500376647\nlast_crash     : 1500374691\nlast_hang      : 1500376388\nexec_timeout   : 20\nafl_banner     : fuzzer-master\nafl_version    : 1.85b\ncommand_line   : /home/skaramcheti/.virtualenvs/afl/bin/afl-unix/afl-fuzz -i /dev/shm/work/Resort_Modeller/input -o /dev/shm/work/Resort_Modeller/sync -m 4G -Q -M fuzzer-master -x /dev/shm/work/Resort_Modeller/Resort_Modeller.dict -- data/linux/processed-challenges/Resort_Modeller/bin/Resort_Modeller\n'
p87
I4
tp88
a(I5280
S'start_time     : 1500371561\nlast_update    : 1500376791\nfuzzer_pid     : 7171\ncycles_done    : 2\nexecs_done     : 2402169\nexecs_per_sec  : 308.15\npaths_total    : 86\npaths_favored  : 27\npaths_found    : 85\npaths_imported : 0\nmax_depth      : 8\ncur_path       : 76\npending_favs   : 1\npending_total  : 41\nvariable_paths : 0\nbitmap_cvg     : 0.61%\nunique_crashes : 10\nunique_hangs   : 19\nlast_path      : 1500376647\nlast_crash     : 1500374691\nlast_hang      : 1500376388\nexec_timeout   : 20\nafl_banner     : fuzzer-master\nafl_version    : 1.85b\ncommand_line   : /home/skaramcheti/.virtualenvs/afl/bin/afl-unix/afl-fuzz -i /dev/shm/work/Resort_Modeller/input -o /dev/shm/work/Resort_Modeller/sync -m 4G -Q -M fuzzer-master -x /dev/shm/work/Resort_Modeller/Resort_Modeller.dict -- data/linux/processed-challenges/Resort_Modeller/bin/Resort_Modeller\n'
p89
I1
tp90
a(I5400
S'start_time     : 1500371561\nlast_update    : 1500376911\nfuzzer_pid     : 7171\ncycles_done    : 2\nexecs_done     : 2443197\nexecs_per_sec  : 324.47\npaths_total    : 88\npaths_favored  : 27\npaths_found    : 87\npaths_imported : 0\nmax_depth      : 8\ncur_path       : 76\npending_favs   : 1\npending_total  : 43\nvariable_paths : 0\nbitmap_cvg     : 0.61%\nunique_crashes : 11\nunique_hangs   : 19\nlast_path      : 1500376883\nlast_crash     : 1500376811\nlast_hang      : 1500376388\nexec_timeout   : 20\nafl_banner     : fuzzer-master\nafl_version    : 1.85b\ncommand_line   : /home/skaramcheti/.virtualenvs/afl/bin/afl-unix/afl-fuzz -i /dev/shm/work/Resort_Modeller/input -o /dev/shm/work/Resort_Modeller/sync -m 4G -Q -M fuzzer-master -x /dev/shm/work/Resort_Modeller/Resort_Modeller.dict -- data/linux/processed-challenges/Resort_Modeller/bin/Resort_Modeller\n'
p91
I1
tp92
a(I5520
S'start_time     : 1500371561\nlast_update    : 1500377031\nfuzzer_pid     : 7171\ncycles_done    : 2\nexecs_done     : 2486085\nexecs_per_sec  : 373.63\npaths_total    : 88\npaths_favored  : 27\npaths_found    : 87\npaths_imported : 0\nmax_depth      : 8\ncur_path       : 76\npending_favs   : 1\npending_total  : 43\nvariable_paths : 0\nbitmap_cvg     : 0.61%\nunique_crashes : 11\nunique_hangs   : 20\nlast_path      : 1500376883\nlast_crash     : 1500376811\nlast_hang      : 1500376925\nexec_timeout   : 20\nafl_banner     : fuzzer-master\nafl_version    : 1.85b\ncommand_line   : /home/skaramcheti/.virtualenvs/afl/bin/afl-unix/afl-fuzz -i /dev/shm/work/Resort_Modeller/input -o /dev/shm/work/Resort_Modeller/sync -m 4G -Q -M fuzzer-master -x /dev/shm/work/Resort_Modeller/Resort_Modeller.dict -- data/linux/processed-challenges/Resort_Modeller/bin/Resort_Modeller\n'
p93
I0
tp94
a(I5640
S'start_time     : 1500371561\nlast_update    : 1500377151\nfuzzer_pid     : 7171\ncycles_done    : 2\nexecs_done     : 2537521\nexecs_per_sec  : 299.26\npaths_total    : 89\npaths_favored  : 27\npaths_found    : 88\npaths_imported : 0\nmax_depth      : 8\ncur_path       : 76\npending_favs   : 1\npending_total  : 44\nvariable_paths : 0\nbitmap_cvg     : 0.61%\nunique_crashes : 11\nunique_hangs   : 20\nlast_path      : 1500377132\nlast_crash     : 1500376811\nlast_hang      : 1500376925\nexec_timeout   : 20\nafl_banner     : fuzzer-master\nafl_version    : 1.85b\ncommand_line   : /home/skaramcheti/.virtualenvs/afl/bin/afl-unix/afl-fuzz -i /dev/shm/work/Resort_Modeller/input -o /dev/shm/work/Resort_Modeller/sync -m 4G -Q -M fuzzer-master -x /dev/shm/work/Resort_Modeller/Resort_Modeller.dict -- data/linux/processed-challenges/Resort_Modeller/bin/Resort_Modeller\n'
p95
I1
tp96
a(I5760
S'start_time     : 1500371561\nlast_update    : 1500377271\nfuzzer_pid     : 7171\ncycles_done    : 2\nexecs_done     : 2590790\nexecs_per_sec  : 68.23\npaths_total    : 94\npaths_favored  : 27\npaths_found    : 93\npaths_imported : 0\nmax_depth      : 8\ncur_path       : 80\npending_favs   : 1\npending_total  : 48\nvariable_paths : 0\nbitmap_cvg     : 0.62%\nunique_crashes : 16\nunique_hangs   : 23\nlast_path      : 1500377269\nlast_crash     : 1500377248\nlast_hang      : 1500377234\nexec_timeout   : 20\nafl_banner     : fuzzer-master\nafl_version    : 1.85b\ncommand_line   : /home/skaramcheti/.virtualenvs/afl/bin/afl-unix/afl-fuzz -i /dev/shm/work/Resort_Modeller/input -o /dev/shm/work/Resort_Modeller/sync -m 4G -Q -M fuzzer-master -x /dev/shm/work/Resort_Modeller/Resort_Modeller.dict -- data/linux/processed-challenges/Resort_Modeller/bin/Resort_Modeller\n'
p97
I5
tp98
a(I5880
S'start_time     : 1500371561\nlast_update    : 1500377391\nfuzzer_pid     : 7171\ncycles_done    : 2\nexecs_done     : 2621799\nexecs_per_sec  : 369.30\npaths_total    : 96\npaths_favored  : 27\npaths_found    : 95\npaths_imported : 0\nmax_depth      : 8\ncur_path       : 80\npending_favs   : 1\npending_total  : 50\nvariable_paths : 0\nbitmap_cvg     : 0.62%\nunique_crashes : 16\nunique_hangs   : 23\nlast_path      : 1500377375\nlast_crash     : 1500377248\nlast_hang      : 1500377234\nexec_timeout   : 20\nafl_banner     : fuzzer-master\nafl_version    : 1.85b\ncommand_line   : /home/skaramcheti/.virtualenvs/afl/bin/afl-unix/afl-fuzz -i /dev/shm/work/Resort_Modeller/input -o /dev/shm/work/Resort_Modeller/sync -m 4G -Q -M fuzzer-master -x /dev/shm/work/Resort_Modeller/Resort_Modeller.dict -- data/linux/processed-challenges/Resort_Modeller/bin/Resort_Modeller\n'
p99
I5
tp100
a(I6000
S'start_time     : 1500371561\nlast_update    : 1500377512\nfuzzer_pid     : 7171\ncycles_done    : 2\nexecs_done     : 2665806\nexecs_per_sec  : 385.69\npaths_total    : 100\npaths_favored  : 27\npaths_found    : 99\npaths_imported : 0\nmax_depth      : 8\ncur_path       : 80\npending_favs   : 1\npending_total  : 54\nvariable_paths : 0\nbitmap_cvg     : 0.62%\nunique_crashes : 16\nunique_hangs   : 24\nlast_path      : 1500377466\nlast_crash     : 1500377248\nlast_hang      : 1500377432\nexec_timeout   : 20\nafl_banner     : fuzzer-master\nafl_version    : 1.85b\ncommand_line   : /home/skaramcheti/.virtualenvs/afl/bin/afl-unix/afl-fuzz -i /dev/shm/work/Resort_Modeller/input -o /dev/shm/work/Resort_Modeller/sync -m 4G -Q -M fuzzer-master -x /dev/shm/work/Resort_Modeller/Resort_Modeller.dict -- data/linux/processed-challenges/Resort_Modeller/bin/Resort_Modeller\n'
p101
I2
tp102
a(I6120
S'start_time     : 1500371561\nlast_update    : 1500377632\nfuzzer_pid     : 7171\ncycles_done    : 2\nexecs_done     : 2709930\nexecs_per_sec  : 376.43\npaths_total    : 101\npaths_favored  : 27\npaths_found    : 100\npaths_imported : 0\nmax_depth      : 8\ncur_path       : 80\npending_favs   : 1\npending_total  : 55\nvariable_paths : 0\nbitmap_cvg     : 0.62%\nunique_crashes : 16\nunique_hangs   : 24\nlast_path      : 1500377552\nlast_crash     : 1500377248\nlast_hang      : 1500377432\nexec_timeout   : 20\nafl_banner     : fuzzer-master\nafl_version    : 1.85b\ncommand_line   : /home/skaramcheti/.virtualenvs/afl/bin/afl-unix/afl-fuzz -i /dev/shm/work/Resort_Modeller/input -o /dev/shm/work/Resort_Modeller/sync -m 4G -Q -M fuzzer-master -x /dev/shm/work/Resort_Modeller/Resort_Modeller.dict -- data/linux/processed-challenges/Resort_Modeller/bin/Resort_Modeller\n'
p103
I0
tp104
a(I6240
S'start_time     : 1500371561\nlast_update    : 1500377752\nfuzzer_pid     : 7171\ncycles_done    : 2\nexecs_done     : 2757120\nexecs_per_sec  : 377.55\npaths_total    : 101\npaths_favored  : 27\npaths_found    : 100\npaths_imported : 0\nmax_depth      : 8\ncur_path       : 80\npending_favs   : 1\npending_total  : 55\nvariable_paths : 0\nbitmap_cvg     : 0.62%\nunique_crashes : 17\nunique_hangs   : 24\nlast_path      : 1500377552\nlast_crash     : 1500377699\nlast_hang      : 1500377432\nexec_timeout   : 20\nafl_banner     : fuzzer-master\nafl_version    : 1.85b\ncommand_line   : /home/skaramcheti/.virtualenvs/afl/bin/afl-unix/afl-fuzz -i /dev/shm/work/Resort_Modeller/input -o /dev/shm/work/Resort_Modeller/sync -m 4G -Q -M fuzzer-master -x /dev/shm/work/Resort_Modeller/Resort_Modeller.dict -- data/linux/processed-challenges/Resort_Modeller/bin/Resort_Modeller\n'
p105
I1
tp106
a(I6360
S'start_time     : 1500371561\nlast_update    : 1500377872\nfuzzer_pid     : 7171\ncycles_done    : 2\nexecs_done     : 2791049\nexecs_per_sec  : 97.12\npaths_total    : 102\npaths_favored  : 30\npaths_found    : 101\npaths_imported : 0\nmax_depth      : 9\ncur_path       : 82\npending_favs   : 4\npending_total  : 55\nvariable_paths : 0\nbitmap_cvg     : 0.63%\nunique_crashes : 18\nunique_hangs   : 24\nlast_path      : 1500377790\nlast_crash     : 1500377802\nlast_hang      : 1500377432\nexec_timeout   : 20\nafl_banner     : fuzzer-master\nafl_version    : 1.85b\ncommand_line   : /home/skaramcheti/.virtualenvs/afl/bin/afl-unix/afl-fuzz -i /dev/shm/work/Resort_Modeller/input -o /dev/shm/work/Resort_Modeller/sync -m 4G -Q -M fuzzer-master -x /dev/shm/work/Resort_Modeller/Resort_Modeller.dict -- data/linux/processed-challenges/Resort_Modeller/bin/Resort_Modeller\n'
p107
I0
tp108
a(I6480
S'start_time     : 1500371561\nlast_update    : 1500377993\nfuzzer_pid     : 7171\ncycles_done    : 2\nexecs_done     : 2829555\nexecs_per_sec  : 343.92\npaths_total    : 102\npaths_favored  : 30\npaths_found    : 101\npaths_imported : 0\nmax_depth      : 9\ncur_path       : 82\npending_favs   : 4\npending_total  : 55\nvariable_paths : 0\nbitmap_cvg     : 0.63%\nunique_crashes : 18\nunique_hangs   : 24\nlast_path      : 1500377790\nlast_crash     : 1500377802\nlast_hang      : 1500377432\nexec_timeout   : 20\nafl_banner     : fuzzer-master\nafl_version    : 1.85b\ncommand_line   : /home/skaramcheti/.virtualenvs/afl/bin/afl-unix/afl-fuzz -i /dev/shm/work/Resort_Modeller/input -o /dev/shm/work/Resort_Modeller/sync -m 4G -Q -M fuzzer-master -x /dev/shm/work/Resort_Modeller/Resort_Modeller.dict -- data/linux/processed-challenges/Resort_Modeller/bin/Resort_Modeller\n'
p109
I0
tp110
a(I6600
S'start_time     : 1500371561\nlast_update    : 1500378113\nfuzzer_pid     : 7171\ncycles_done    : 2\nexecs_done     : 2871379\nexecs_per_sec  : 314.18\npaths_total    : 103\npaths_favored  : 30\npaths_found    : 102\npaths_imported : 0\nmax_depth      : 9\ncur_path       : 82\npending_favs   : 4\npending_total  : 56\nvariable_paths : 0\nbitmap_cvg     : 0.63%\nunique_crashes : 18\nunique_hangs   : 24\nlast_path      : 1500378100\nlast_crash     : 1500377802\nlast_hang      : 1500377432\nexec_timeout   : 20\nafl_banner     : fuzzer-master\nafl_version    : 1.85b\ncommand_line   : /home/skaramcheti/.virtualenvs/afl/bin/afl-unix/afl-fuzz -i /dev/shm/work/Resort_Modeller/input -o /dev/shm/work/Resort_Modeller/sync -m 4G -Q -M fuzzer-master -x /dev/shm/work/Resort_Modeller/Resort_Modeller.dict -- data/linux/processed-challenges/Resort_Modeller/bin/Resort_Modeller\n'
p111
I1
tp112
a(I6720
S'start_time     : 1500371561\nlast_update    : 1500378233\nfuzzer_pid     : 7171\ncycles_done    : 2\nexecs_done     : 2928079\nexecs_per_sec  : 336.27\npaths_total    : 103\npaths_favored  : 30\npaths_found    : 102\npaths_imported : 0\nmax_depth      : 9\ncur_path       : 82\npending_favs   : 4\npending_total  : 56\nvariable_paths : 0\nbitmap_cvg     : 0.63%\nunique_crashes : 18\nunique_hangs   : 24\nlast_path      : 1500378100\nlast_crash     : 1500377802\nlast_hang      : 1500377432\nexec_timeout   : 20\nafl_banner     : fuzzer-master\nafl_version    : 1.85b\ncommand_line   : /home/skaramcheti/.virtualenvs/afl/bin/afl-unix/afl-fuzz -i /dev/shm/work/Resort_Modeller/input -o /dev/shm/work/Resort_Modeller/sync -m 4G -Q -M fuzzer-master -x /dev/shm/work/Resort_Modeller/Resort_Modeller.dict -- data/linux/processed-challenges/Resort_Modeller/bin/Resort_Modeller\n'
p113
I0
tp114
a(I6840
S'start_time     : 1500371561\nlast_update    : 1500378354\nfuzzer_pid     : 7171\ncycles_done    : 2\nexecs_done     : 2981838\nexecs_per_sec  : 75.60\npaths_total    : 103\npaths_favored  : 28\npaths_found    : 102\npaths_imported : 0\nmax_depth      : 9\ncur_path       : 90\npending_favs   : 4\npending_total  : 55\nvariable_paths : 0\nbitmap_cvg     : 0.63%\nunique_crashes : 18\nunique_hangs   : 24\nlast_path      : 1500378100\nlast_crash     : 1500377802\nlast_hang      : 1500377432\nexec_timeout   : 20\nafl_banner     : fuzzer-master\nafl_version    : 1.85b\ncommand_line   : /home/skaramcheti/.virtualenvs/afl/bin/afl-unix/afl-fuzz -i /dev/shm/work/Resort_Modeller/input -o /dev/shm/work/Resort_Modeller/sync -m 4G -Q -M fuzzer-master -x /dev/shm/work/Resort_Modeller/Resort_Modeller.dict -- data/linux/processed-challenges/Resort_Modeller/bin/Resort_Modeller\n'
p115
I0
tp116
a(I6960
S'start_time     : 1500371561\nlast_update    : 1500378474\nfuzzer_pid     : 7171\ncycles_done    : 2\nexecs_done     : 3014446\nexecs_per_sec  : 361.23\npaths_total    : 103\npaths_favored  : 28\npaths_found    : 102\npaths_imported : 0\nmax_depth      : 9\ncur_path       : 90\npending_favs   : 4\npending_total  : 55\nvariable_paths : 0\nbitmap_cvg     : 0.63%\nunique_crashes : 18\nunique_hangs   : 24\nlast_path      : 1500378100\nlast_crash     : 1500377802\nlast_hang      : 1500377432\nexec_timeout   : 20\nafl_banner     : fuzzer-master\nafl_version    : 1.85b\ncommand_line   : /home/skaramcheti/.virtualenvs/afl/bin/afl-unix/afl-fuzz -i /dev/shm/work/Resort_Modeller/input -o /dev/shm/work/Resort_Modeller/sync -m 4G -Q -M fuzzer-master -x /dev/shm/work/Resort_Modeller/Resort_Modeller.dict -- data/linux/processed-challenges/Resort_Modeller/bin/Resort_Modeller\n'
p117
I0
tp118
a(I7080
S'start_time     : 1500371561\nlast_update    : 1500378594\nfuzzer_pid     : 7171\ncycles_done    : 2\nexecs_done     : 3058924\nexecs_per_sec  : 355.61\npaths_total    : 103\npaths_favored  : 28\npaths_found    : 102\npaths_imported : 0\nmax_depth      : 9\ncur_path       : 90\npending_favs   : 4\npending_total  : 55\nvariable_paths : 0\nbitmap_cvg     : 0.63%\nunique_crashes : 18\nunique_hangs   : 24\nlast_path      : 1500378100\nlast_crash     : 1500377802\nlast_hang      : 1500377432\nexec_timeout   : 20\nafl_banner     : fuzzer-master\nafl_version    : 1.85b\ncommand_line   : /home/skaramcheti/.virtualenvs/afl/bin/afl-unix/afl-fuzz -i /dev/shm/work/Resort_Modeller/input -o /dev/shm/work/Resort_Modeller/sync -m 4G -Q -M fuzzer-master -x /dev/shm/work/Resort_Modeller/Resort_Modeller.dict -- data/linux/processed-challenges/Resort_Modeller/bin/Resort_Modeller\n'
p119
I0
tp120
a(I7200
S'start_time     : 1500371561\nlast_update    : 1500378714\nfuzzer_pid     : 7171\ncycles_done    : 2\nexecs_done     : 3111216\nexecs_per_sec  : 381.07\npaths_total    : 103\npaths_favored  : 28\npaths_found    : 102\npaths_imported : 0\nmax_depth      : 9\ncur_path       : 90\npending_favs   : 4\npending_total  : 55\nvariable_paths : 0\nbitmap_cvg     : 0.63%\nunique_crashes : 18\nunique_hangs   : 24\nlast_path      : 1500378100\nlast_crash     : 1500377802\nlast_hang      : 1500377432\nexec_timeout   : 20\nafl_banner     : fuzzer-master\nafl_version    : 1.85b\ncommand_line   : /home/skaramcheti/.virtualenvs/afl/bin/afl-unix/afl-fuzz -i /dev/shm/work/Resort_Modeller/input -o /dev/shm/work/Resort_Modeller/sync -m 4G -Q -M fuzzer-master -x /dev/shm/work/Resort_Modeller/Resort_Modeller.dict -- data/linux/processed-challenges/Resort_Modeller/bin/Resort_Modeller\n'
p121
I1
tp122
a(I7320
S'start_time     : 1500371561\nlast_update    : 1500378834\nfuzzer_pid     : 7171\ncycles_done    : 2\nexecs_done     : 3164939\nexecs_per_sec  : 393.13\npaths_total    : 104\npaths_favored  : 28\npaths_found    : 103\npaths_imported : 0\nmax_depth      : 9\ncur_path       : 90\npending_favs   : 4\npending_total  : 56\nvariable_paths : 0\nbitmap_cvg     : 0.63%\nunique_crashes : 18\nunique_hangs   : 24\nlast_path      : 1500378722\nlast_crash     : 1500377802\nlast_hang      : 1500377432\nexec_timeout   : 20\nafl_banner     : fuzzer-master\nafl_version    : 1.85b\ncommand_line   : /home/skaramcheti/.virtualenvs/afl/bin/afl-unix/afl-fuzz -i /dev/shm/work/Resort_Modeller/input -o /dev/shm/work/Resort_Modeller/sync -m 4G -Q -M fuzzer-master -x /dev/shm/work/Resort_Modeller/Resort_Modeller.dict -- data/linux/processed-challenges/Resort_Modeller/bin/Resort_Modeller\n'
p123
I0
tp124
a(I7440
S'start_time     : 1500371561\nlast_update    : 1500378955\nfuzzer_pid     : 7171\ncycles_done    : 2\nexecs_done     : 3207177\nexecs_per_sec  : 409.19\npaths_total    : 104\npaths_favored  : 29\npaths_found    : 103\npaths_imported : 0\nmax_depth      : 9\ncur_path       : 92\npending_favs   : 4\npending_total  : 55\nvariable_paths : 0\nbitmap_cvg     : 0.63%\nunique_crashes : 18\nunique_hangs   : 24\nlast_path      : 1500378722\nlast_crash     : 1500377802\nlast_hang      : 1500377432\nexec_timeout   : 20\nafl_banner     : fuzzer-master\nafl_version    : 1.85b\ncommand_line   : /home/skaramcheti/.virtualenvs/afl/bin/afl-unix/afl-fuzz -i /dev/shm/work/Resort_Modeller/input -o /dev/shm/work/Resort_Modeller/sync -m 4G -Q -M fuzzer-master -x /dev/shm/work/Resort_Modeller/Resort_Modeller.dict -- data/linux/processed-challenges/Resort_Modeller/bin/Resort_Modeller\n'
p125
I0
tp126
a(I7560
S'start_time     : 1500371561\nlast_update    : 1500379075\nfuzzer_pid     : 7171\ncycles_done    : 2\nexecs_done     : 3258391\nexecs_per_sec  : 510.93\npaths_total    : 104\npaths_favored  : 29\npaths_found    : 103\npaths_imported : 0\nmax_depth      : 9\ncur_path       : 92\npending_favs   : 4\npending_total  : 55\nvariable_paths : 0\nbitmap_cvg     : 0.63%\nunique_crashes : 18\nunique_hangs   : 24\nlast_path      : 1500378722\nlast_crash     : 1500377802\nlast_hang      : 1500377432\nexec_timeout   : 20\nafl_banner     : fuzzer-master\nafl_version    : 1.85b\ncommand_line   : /home/skaramcheti/.virtualenvs/afl/bin/afl-unix/afl-fuzz -i /dev/shm/work/Resort_Modeller/input -o /dev/shm/work/Resort_Modeller/sync -m 4G -Q -M fuzzer-master -x /dev/shm/work/Resort_Modeller/Resort_Modeller.dict -- data/linux/processed-challenges/Resort_Modeller/bin/Resort_Modeller\n'
p127
I4
tp128
a(I7680
S'start_time     : 1500371561\nlast_update    : 1500379195\nfuzzer_pid     : 7171\ncycles_done    : 2\nexecs_done     : 3305856\nexecs_per_sec  : 380.63\npaths_total    : 109\npaths_favored  : 29\npaths_found    : 108\npaths_imported : 0\nmax_depth      : 9\ncur_path       : 92\npending_favs   : 4\npending_total  : 60\nvariable_paths : 0\nbitmap_cvg     : 0.63%\nunique_crashes : 18\nunique_hangs   : 25\nlast_path      : 1500379144\nlast_crash     : 1500377802\nlast_hang      : 1500379128\nexec_timeout   : 20\nafl_banner     : fuzzer-master\nafl_version    : 1.85b\ncommand_line   : /home/skaramcheti/.virtualenvs/afl/bin/afl-unix/afl-fuzz -i /dev/shm/work/Resort_Modeller/input -o /dev/shm/work/Resort_Modeller/sync -m 4G -Q -M fuzzer-master -x /dev/shm/work/Resort_Modeller/Resort_Modeller.dict -- data/linux/processed-challenges/Resort_Modeller/bin/Resort_Modeller\n'
p129
I1
tp130
a(I7800
S'start_time     : 1500371561\nlast_update    : 1500379316\nfuzzer_pid     : 7171\ncycles_done    : 2\nexecs_done     : 3345196\nexecs_per_sec  : 376.68\npaths_total    : 109\npaths_favored  : 28\npaths_found    : 108\npaths_imported : 0\nmax_depth      : 9\ncur_path       : 93\npending_favs   : 4\npending_total  : 59\nvariable_paths : 0\nbitmap_cvg     : 0.63%\nunique_crashes : 18\nunique_hangs   : 25\nlast_path      : 1500379144\nlast_crash     : 1500377802\nlast_hang      : 1500379128\nexec_timeout   : 20\nafl_banner     : fuzzer-master\nafl_version    : 1.85b\ncommand_line   : /home/skaramcheti/.virtualenvs/afl/bin/afl-unix/afl-fuzz -i /dev/shm/work/Resort_Modeller/input -o /dev/shm/work/Resort_Modeller/sync -m 4G -Q -M fuzzer-master -x /dev/shm/work/Resort_Modeller/Resort_Modeller.dict -- data/linux/processed-challenges/Resort_Modeller/bin/Resort_Modeller\n'
p131
I0
tp132
a(I7920
S'start_time     : 1500371561\nlast_update    : 1500379436\nfuzzer_pid     : 7171\ncycles_done    : 2\nexecs_done     : 3394060\nexecs_per_sec  : 379.79\npaths_total    : 110\npaths_favored  : 28\npaths_found    : 109\npaths_imported : 0\nmax_depth      : 9\ncur_path       : 93\npending_favs   : 4\npending_total  : 60\nvariable_paths : 0\nbitmap_cvg     : 0.63%\nunique_crashes : 18\nunique_hangs   : 25\nlast_path      : 1500379425\nlast_crash     : 1500377802\nlast_hang      : 1500379128\nexec_timeout   : 20\nafl_banner     : fuzzer-master\nafl_version    : 1.85b\ncommand_line   : /home/skaramcheti/.virtualenvs/afl/bin/afl-unix/afl-fuzz -i /dev/shm/work/Resort_Modeller/input -o /dev/shm/work/Resort_Modeller/sync -m 4G -Q -M fuzzer-master -x /dev/shm/work/Resort_Modeller/Resort_Modeller.dict -- data/linux/processed-challenges/Resort_Modeller/bin/Resort_Modeller\n'
p133
I1
tp134
a(I8040
S'start_time     : 1500371561\nlast_update    : 1500379556\nfuzzer_pid     : 7171\ncycles_done    : 2\nexecs_done     : 3454750\nexecs_per_sec  : 845.00\npaths_total    : 111\npaths_favored  : 28\npaths_found    : 110\npaths_imported : 0\nmax_depth      : 9\ncur_path       : 97\npending_favs   : 3\npending_total  : 60\nvariable_paths : 0\nbitmap_cvg     : 0.63%\nunique_crashes : 18\nunique_hangs   : 26\nlast_path      : 1500379549\nlast_crash     : 1500377802\nlast_hang      : 1500379521\nexec_timeout   : 20\nafl_banner     : fuzzer-master\nafl_version    : 1.85b\ncommand_line   : /home/skaramcheti/.virtualenvs/afl/bin/afl-unix/afl-fuzz -i /dev/shm/work/Resort_Modeller/input -o /dev/shm/work/Resort_Modeller/sync -m 4G -Q -M fuzzer-master -x /dev/shm/work/Resort_Modeller/Resort_Modeller.dict -- data/linux/processed-challenges/Resort_Modeller/bin/Resort_Modeller\n'
p135
I1
tp136
a(I8160
S'start_time     : 1500371561\nlast_update    : 1500379676\nfuzzer_pid     : 7171\ncycles_done    : 2\nexecs_done     : 3477913\nexecs_per_sec  : 75.44\npaths_total    : 111\npaths_favored  : 28\npaths_found    : 110\npaths_imported : 0\nmax_depth      : 9\ncur_path       : 97\npending_favs   : 3\npending_total  : 60\nvariable_paths : 0\nbitmap_cvg     : 0.63%\nunique_crashes : 18\nunique_hangs   : 26\nlast_path      : 1500379549\nlast_crash     : 1500377802\nlast_hang      : 1500379521\nexec_timeout   : 20\nafl_banner     : fuzzer-master\nafl_version    : 1.85b\ncommand_line   : /home/skaramcheti/.virtualenvs/afl/bin/afl-unix/afl-fuzz -i /dev/shm/work/Resort_Modeller/input -o /dev/shm/work/Resort_Modeller/sync -m 4G -Q -M fuzzer-master -x /dev/shm/work/Resort_Modeller/Resort_Modeller.dict -- data/linux/processed-challenges/Resort_Modeller/bin/Resort_Modeller\n'
p137
I0
tp138
a(I8280
S'start_time     : 1500371561\nlast_update    : 1500379797\nfuzzer_pid     : 7171\ncycles_done    : 2\nexecs_done     : 3512372\nexecs_per_sec  : 341.89\npaths_total    : 111\npaths_favored  : 28\npaths_found    : 110\npaths_imported : 0\nmax_depth      : 9\ncur_path       : 97\npending_favs   : 3\npending_total  : 60\nvariable_paths : 0\nbitmap_cvg     : 0.63%\nunique_crashes : 18\nunique_hangs   : 26\nlast_path      : 1500379549\nlast_crash     : 1500377802\nlast_hang      : 1500379521\nexec_timeout   : 20\nafl_banner     : fuzzer-master\nafl_version    : 1.85b\ncommand_line   : /home/skaramcheti/.virtualenvs/afl/bin/afl-unix/afl-fuzz -i /dev/shm/work/Resort_Modeller/input -o /dev/shm/work/Resort_Modeller/sync -m 4G -Q -M fuzzer-master -x /dev/shm/work/Resort_Modeller/Resort_Modeller.dict -- data/linux/processed-challenges/Resort_Modeller/bin/Resort_Modeller\n'
p139
I0
tp140
a(I8400
S'start_time     : 1500371561\nlast_update    : 1500379917\nfuzzer_pid     : 7171\ncycles_done    : 2\nexecs_done     : 3552750\nexecs_per_sec  : 333.18\npaths_total    : 112\npaths_favored  : 28\npaths_found    : 111\npaths_imported : 0\nmax_depth      : 9\ncur_path       : 97\npending_favs   : 3\npending_total  : 61\nvariable_paths : 0\nbitmap_cvg     : 0.63%\nunique_crashes : 18\nunique_hangs   : 26\nlast_path      : 1500379872\nlast_crash     : 1500377802\nlast_hang      : 1500379521\nexec_timeout   : 20\nafl_banner     : fuzzer-master\nafl_version    : 1.85b\ncommand_line   : /home/skaramcheti/.virtualenvs/afl/bin/afl-unix/afl-fuzz -i /dev/shm/work/Resort_Modeller/input -o /dev/shm/work/Resort_Modeller/sync -m 4G -Q -M fuzzer-master -x /dev/shm/work/Resort_Modeller/Resort_Modeller.dict -- data/linux/processed-challenges/Resort_Modeller/bin/Resort_Modeller\n'
p141
I1
tp142
a(I8520
S'start_time     : 1500371561\nlast_update    : 1500380037\nfuzzer_pid     : 7171\ncycles_done    : 2\nexecs_done     : 3592962\nexecs_per_sec  : 339.74\npaths_total    : 112\npaths_favored  : 28\npaths_found    : 111\npaths_imported : 0\nmax_depth      : 9\ncur_path       : 97\npending_favs   : 3\npending_total  : 61\nvariable_paths : 0\nbitmap_cvg     : 0.63%\nunique_crashes : 18\nunique_hangs   : 26\nlast_path      : 1500379872\nlast_crash     : 1500377802\nlast_hang      : 1500379521\nexec_timeout   : 20\nafl_banner     : fuzzer-master\nafl_version    : 1.85b\ncommand_line   : /home/skaramcheti/.virtualenvs/afl/bin/afl-unix/afl-fuzz -i /dev/shm/work/Resort_Modeller/input -o /dev/shm/work/Resort_Modeller/sync -m 4G -Q -M fuzzer-master -x /dev/shm/work/Resort_Modeller/Resort_Modeller.dict -- data/linux/processed-challenges/Resort_Modeller/bin/Resort_Modeller\n'
p143
I0
tp144
a(I8640
S'start_time     : 1500371561\nlast_update    : 1500380157\nfuzzer_pid     : 7171\ncycles_done    : 2\nexecs_done     : 3634840\nexecs_per_sec  : 390.15\npaths_total    : 112\npaths_favored  : 28\npaths_found    : 111\npaths_imported : 0\nmax_depth      : 9\ncur_path       : 97\npending_favs   : 3\npending_total  : 61\nvariable_paths : 0\nbitmap_cvg     : 0.63%\nunique_crashes : 18\nunique_hangs   : 26\nlast_path      : 1500379872\nlast_crash     : 1500377802\nlast_hang      : 1500379521\nexec_timeout   : 20\nafl_banner     : fuzzer-master\nafl_version    : 1.85b\ncommand_line   : /home/skaramcheti/.virtualenvs/afl/bin/afl-unix/afl-fuzz -i /dev/shm/work/Resort_Modeller/input -o /dev/shm/work/Resort_Modeller/sync -m 4G -Q -M fuzzer-master -x /dev/shm/work/Resort_Modeller/Resort_Modeller.dict -- data/linux/processed-challenges/Resort_Modeller/bin/Resort_Modeller\n'
p145
I0
tp146
a(I8760
S'start_time     : 1500371561\nlast_update    : 1500380278\nfuzzer_pid     : 7171\ncycles_done    : 2\nexecs_done     : 3681357\nexecs_per_sec  : 572.34\npaths_total    : 113\npaths_favored  : 28\npaths_found    : 112\npaths_imported : 0\nmax_depth      : 9\ncur_path       : 97\npending_favs   : 3\npending_total  : 62\nvariable_paths : 0\nbitmap_cvg     : 0.63%\nunique_crashes : 18\nunique_hangs   : 26\nlast_path      : 1500380221\nlast_crash     : 1500377802\nlast_hang      : 1500379521\nexec_timeout   : 20\nafl_banner     : fuzzer-master\nafl_version    : 1.85b\ncommand_line   : /home/skaramcheti/.virtualenvs/afl/bin/afl-unix/afl-fuzz -i /dev/shm/work/Resort_Modeller/input -o /dev/shm/work/Resort_Modeller/sync -m 4G -Q -M fuzzer-master -x /dev/shm/work/Resort_Modeller/Resort_Modeller.dict -- data/linux/processed-challenges/Resort_Modeller/bin/Resort_Modeller\n'
p147
I4
tp148
a(I8880
S'start_time     : 1500371561\nlast_update    : 1500380398\nfuzzer_pid     : 7171\ncycles_done    : 2\nexecs_done     : 3725836\nexecs_per_sec  : 413.41\npaths_total    : 117\npaths_favored  : 28\npaths_found    : 116\npaths_imported : 0\nmax_depth      : 9\ncur_path       : 97\npending_favs   : 3\npending_total  : 66\nvariable_paths : 0\nbitmap_cvg     : 0.63%\nunique_crashes : 18\nunique_hangs   : 26\nlast_path      : 1500380353\nlast_crash     : 1500377802\nlast_hang      : 1500379521\nexec_timeout   : 20\nafl_banner     : fuzzer-master\nafl_version    : 1.85b\ncommand_line   : /home/skaramcheti/.virtualenvs/afl/bin/afl-unix/afl-fuzz -i /dev/shm/work/Resort_Modeller/input -o /dev/shm/work/Resort_Modeller/sync -m 4G -Q -M fuzzer-master -x /dev/shm/work/Resort_Modeller/Resort_Modeller.dict -- data/linux/processed-challenges/Resort_Modeller/bin/Resort_Modeller\n'
p149
I1
tp150
a(I9000
S'start_time     : 1500371561\nlast_update    : 1500380518\nfuzzer_pid     : 7171\ncycles_done    : 2\nexecs_done     : 3768406\nexecs_per_sec  : 400.25\npaths_total    : 117\npaths_favored  : 28\npaths_found    : 116\npaths_imported : 0\nmax_depth      : 9\ncur_path       : 101\npending_favs   : 3\npending_total  : 65\nvariable_paths : 0\nbitmap_cvg     : 0.63%\nunique_crashes : 19\nunique_hangs   : 27\nlast_path      : 1500380353\nlast_crash     : 1500380417\nlast_hang      : 1500380409\nexec_timeout   : 20\nafl_banner     : fuzzer-master\nafl_version    : 1.85b\ncommand_line   : /home/skaramcheti/.virtualenvs/afl/bin/afl-unix/afl-fuzz -i /dev/shm/work/Resort_Modeller/input -o /dev/shm/work/Resort_Modeller/sync -m 4G -Q -M fuzzer-master -x /dev/shm/work/Resort_Modeller/Resort_Modeller.dict -- data/linux/processed-challenges/Resort_Modeller/bin/Resort_Modeller\n'
p151
I0
tp152
a(I9120
S'start_time     : 1500371561\nlast_update    : 1500380638\nfuzzer_pid     : 7171\ncycles_done    : 2\nexecs_done     : 3820112\nexecs_per_sec  : 402.87\npaths_total    : 117\npaths_favored  : 28\npaths_found    : 116\npaths_imported : 0\nmax_depth      : 9\ncur_path       : 101\npending_favs   : 3\npending_total  : 65\nvariable_paths : 0\nbitmap_cvg     : 0.63%\nunique_crashes : 19\nunique_hangs   : 27\nlast_path      : 1500380353\nlast_crash     : 1500380417\nlast_hang      : 1500380409\nexec_timeout   : 20\nafl_banner     : fuzzer-master\nafl_version    : 1.85b\ncommand_line   : /home/skaramcheti/.virtualenvs/afl/bin/afl-unix/afl-fuzz -i /dev/shm/work/Resort_Modeller/input -o /dev/shm/work/Resort_Modeller/sync -m 4G -Q -M fuzzer-master -x /dev/shm/work/Resort_Modeller/Resort_Modeller.dict -- data/linux/processed-challenges/Resort_Modeller/bin/Resort_Modeller\n'
p153
I0
tp154
a(I9240
S'start_time     : 1500371561\nlast_update    : 1500380758\nfuzzer_pid     : 7171\ncycles_done    : 2\nexecs_done     : 3888704\nexecs_per_sec  : 419.79\npaths_total    : 117\npaths_favored  : 28\npaths_found    : 116\npaths_imported : 0\nmax_depth      : 9\ncur_path       : 101\npending_favs   : 3\npending_total  : 65\nvariable_paths : 0\nbitmap_cvg     : 0.63%\nunique_crashes : 19\nunique_hangs   : 27\nlast_path      : 1500380353\nlast_crash     : 1500380417\nlast_hang      : 1500380409\nexec_timeout   : 20\nafl_banner     : fuzzer-master\nafl_version    : 1.85b\ncommand_line   : /home/skaramcheti/.virtualenvs/afl/bin/afl-unix/afl-fuzz -i /dev/shm/work/Resort_Modeller/input -o /dev/shm/work/Resort_Modeller/sync -m 4G -Q -M fuzzer-master -x /dev/shm/work/Resort_Modeller/Resort_Modeller.dict -- data/linux/processed-challenges/Resort_Modeller/bin/Resort_Modeller\n'
p155
I0
tp156
a(I9360
S'start_time     : 1500371561\nlast_update    : 1500380878\nfuzzer_pid     : 7171\ncycles_done    : 2\nexecs_done     : 3942843\nexecs_per_sec  : 481.49\npaths_total    : 117\npaths_favored  : 28\npaths_found    : 116\npaths_imported : 0\nmax_depth      : 9\ncur_path       : 101\npending_favs   : 3\npending_total  : 65\nvariable_paths : 0\nbitmap_cvg     : 0.63%\nunique_crashes : 19\nunique_hangs   : 27\nlast_path      : 1500380353\nlast_crash     : 1500380417\nlast_hang      : 1500380409\nexec_timeout   : 20\nafl_banner     : fuzzer-master\nafl_version    : 1.85b\ncommand_line   : /home/skaramcheti/.virtualenvs/afl/bin/afl-unix/afl-fuzz -i /dev/shm/work/Resort_Modeller/input -o /dev/shm/work/Resort_Modeller/sync -m 4G -Q -M fuzzer-master -x /dev/shm/work/Resort_Modeller/Resort_Modeller.dict -- data/linux/processed-challenges/Resort_Modeller/bin/Resort_Modeller\n'
p157
I0
tp158
a(I9480
S'start_time     : 1500371561\nlast_update    : 1500380999\nfuzzer_pid     : 7171\ncycles_done    : 2\nexecs_done     : 3991447\nexecs_per_sec  : 165.23\npaths_total    : 117\npaths_favored  : 28\npaths_found    : 116\npaths_imported : 0\nmax_depth      : 9\ncur_path       : 103\npending_favs   : 2\npending_total  : 64\nvariable_paths : 0\nbitmap_cvg     : 0.63%\nunique_crashes : 19\nunique_hangs   : 29\nlast_path      : 1500380353\nlast_crash     : 1500380417\nlast_hang      : 1500380995\nexec_timeout   : 20\nafl_banner     : fuzzer-master\nafl_version    : 1.85b\ncommand_line   : /home/skaramcheti/.virtualenvs/afl/bin/afl-unix/afl-fuzz -i /dev/shm/work/Resort_Modeller/input -o /dev/shm/work/Resort_Modeller/sync -m 4G -Q -M fuzzer-master -x /dev/shm/work/Resort_Modeller/Resort_Modeller.dict -- data/linux/processed-challenges/Resort_Modeller/bin/Resort_Modeller\n'
p159
I0
tp160
a(I9600
S'start_time     : 1500371561\nlast_update    : 1500381119\nfuzzer_pid     : 7171\ncycles_done    : 2\nexecs_done     : 4010647\nexecs_per_sec  : 45.39\npaths_total    : 117\npaths_favored  : 28\npaths_found    : 116\npaths_imported : 0\nmax_depth      : 9\ncur_path       : 103\npending_favs   : 2\npending_total  : 64\nvariable_paths : 0\nbitmap_cvg     : 0.63%\nunique_crashes : 20\nunique_hangs   : 29\nlast_path      : 1500380353\nlast_crash     : 1500381035\nlast_hang      : 1500380995\nexec_timeout   : 20\nafl_banner     : fuzzer-master\nafl_version    : 1.85b\ncommand_line   : /home/skaramcheti/.virtualenvs/afl/bin/afl-unix/afl-fuzz -i /dev/shm/work/Resort_Modeller/input -o /dev/shm/work/Resort_Modeller/sync -m 4G -Q -M fuzzer-master -x /dev/shm/work/Resort_Modeller/Resort_Modeller.dict -- data/linux/processed-challenges/Resort_Modeller/bin/Resort_Modeller\n'
p161
I0
tp162
a(I9720
S'start_time     : 1500371561\nlast_update    : 1500381239\nfuzzer_pid     : 7171\ncycles_done    : 2\nexecs_done     : 4032166\nexecs_per_sec  : 237.73\npaths_total    : 118\npaths_favored  : 28\npaths_found    : 117\npaths_imported : 0\nmax_depth      : 10\ncur_path       : 103\npending_favs   : 2\npending_total  : 65\nvariable_paths : 0\nbitmap_cvg     : 0.63%\nunique_crashes : 20\nunique_hangs   : 29\nlast_path      : 1500381235\nlast_crash     : 1500381035\nlast_hang      : 1500380995\nexec_timeout   : 20\nafl_banner     : fuzzer-master\nafl_version    : 1.85b\ncommand_line   : /home/skaramcheti/.virtualenvs/afl/bin/afl-unix/afl-fuzz -i /dev/shm/work/Resort_Modeller/input -o /dev/shm/work/Resort_Modeller/sync -m 4G -Q -M fuzzer-master -x /dev/shm/work/Resort_Modeller/Resort_Modeller.dict -- data/linux/processed-challenges/Resort_Modeller/bin/Resort_Modeller\n'
p163
I1
tp164
a(I9840
S'start_time     : 1500371561\nlast_update    : 1500381359\nfuzzer_pid     : 7171\ncycles_done    : 2\nexecs_done     : 4075604\nexecs_per_sec  : 106.56\npaths_total    : 118\npaths_favored  : 29\npaths_found    : 117\npaths_imported : 0\nmax_depth      : 10\ncur_path       : 110\npending_favs   : 2\npending_total  : 64\nvariable_paths : 0\nbitmap_cvg     : 0.63%\nunique_crashes : 22\nunique_hangs   : 31\nlast_path      : 1500381235\nlast_crash     : 1500381349\nlast_hang      : 1500381294\nexec_timeout   : 20\nafl_banner     : fuzzer-master\nafl_version    : 1.85b\ncommand_line   : /home/skaramcheti/.virtualenvs/afl/bin/afl-unix/afl-fuzz -i /dev/shm/work/Resort_Modeller/input -o /dev/shm/work/Resort_Modeller/sync -m 4G -Q -M fuzzer-master -x /dev/shm/work/Resort_Modeller/Resort_Modeller.dict -- data/linux/processed-challenges/Resort_Modeller/bin/Resort_Modeller\n'
p165
I0
tp166
a(I9960
S'start_time     : 1500371561\nlast_update    : 1500381480\nfuzzer_pid     : 7171\ncycles_done    : 2\nexecs_done     : 4107826\nexecs_per_sec  : 145.44\npaths_total    : 118\npaths_favored  : 29\npaths_found    : 117\npaths_imported : 0\nmax_depth      : 10\ncur_path       : 110\npending_favs   : 2\npending_total  : 64\nvariable_paths : 0\nbitmap_cvg     : 0.63%\nunique_crashes : 22\nunique_hangs   : 31\nlast_path      : 1500381235\nlast_crash     : 1500381349\nlast_hang      : 1500381294\nexec_timeout   : 20\nafl_banner     : fuzzer-master\nafl_version    : 1.85b\ncommand_line   : /home/skaramcheti/.virtualenvs/afl/bin/afl-unix/afl-fuzz -i /dev/shm/work/Resort_Modeller/input -o /dev/shm/work/Resort_Modeller/sync -m 4G -Q -M fuzzer-master -x /dev/shm/work/Resort_Modeller/Resort_Modeller.dict -- data/linux/processed-challenges/Resort_Modeller/bin/Resort_Modeller\n'
p167
I0
tp168
a(I10080
S'start_time     : 1500371561\nlast_update    : 1500381600\nfuzzer_pid     : 7171\ncycles_done    : 2\nexecs_done     : 4151836\nexecs_per_sec  : 352.38\npaths_total    : 118\npaths_favored  : 29\npaths_found    : 117\npaths_imported : 0\nmax_depth      : 10\ncur_path       : 110\npending_favs   : 2\npending_total  : 64\nvariable_paths : 0\nbitmap_cvg     : 0.63%\nunique_crashes : 22\nunique_hangs   : 31\nlast_path      : 1500381235\nlast_crash     : 1500381349\nlast_hang      : 1500381294\nexec_timeout   : 20\nafl_banner     : fuzzer-master\nafl_version    : 1.85b\ncommand_line   : /home/skaramcheti/.virtualenvs/afl/bin/afl-unix/afl-fuzz -i /dev/shm/work/Resort_Modeller/input -o /dev/shm/work/Resort_Modeller/sync -m 4G -Q -M fuzzer-master -x /dev/shm/work/Resort_Modeller/Resort_Modeller.dict -- data/linux/processed-challenges/Resort_Modeller/bin/Resort_Modeller\n'
p169
I0
tp170
a(I10200
S'start_time     : 1500371561\nlast_update    : 1500381720\nfuzzer_pid     : 7171\ncycles_done    : 2\nexecs_done     : 4195254\nexecs_per_sec  : 362.08\npaths_total    : 118\npaths_favored  : 29\npaths_found    : 117\npaths_imported : 0\nmax_depth      : 10\ncur_path       : 110\npending_favs   : 2\npending_total  : 64\nvariable_paths : 0\nbitmap_cvg     : 0.63%\nunique_crashes : 22\nunique_hangs   : 31\nlast_path      : 1500381235\nlast_crash     : 1500381349\nlast_hang      : 1500381294\nexec_timeout   : 20\nafl_banner     : fuzzer-master\nafl_version    : 1.85b\ncommand_line   : /home/skaramcheti/.virtualenvs/afl/bin/afl-unix/afl-fuzz -i /dev/shm/work/Resort_Modeller/input -o /dev/shm/work/Resort_Modeller/sync -m 4G -Q -M fuzzer-master -x /dev/shm/work/Resort_Modeller/Resort_Modeller.dict -- data/linux/processed-challenges/Resort_Modeller/bin/Resort_Modeller\n'
p171
I0
tp172
a(I10320
S'start_time     : 1500371561\nlast_update    : 1500381840\nfuzzer_pid     : 7171\ncycles_done    : 2\nexecs_done     : 4246524\nexecs_per_sec  : 1031.56\npaths_total    : 118\npaths_favored  : 29\npaths_found    : 117\npaths_imported : 0\nmax_depth      : 10\ncur_path       : 110\npending_favs   : 2\npending_total  : 64\nvariable_paths : 0\nbitmap_cvg     : 0.63%\nunique_crashes : 22\nunique_hangs   : 31\nlast_path      : 1500381235\nlast_crash     : 1500381349\nlast_hang      : 1500381294\nexec_timeout   : 20\nafl_banner     : fuzzer-master\nafl_version    : 1.85b\ncommand_line   : /home/skaramcheti/.virtualenvs/afl/bin/afl-unix/afl-fuzz -i /dev/shm/work/Resort_Modeller/input -o /dev/shm/work/Resort_Modeller/sync -m 4G -Q -M fuzzer-master -x /dev/shm/work/Resort_Modeller/Resort_Modeller.dict -- data/linux/processed-challenges/Resort_Modeller/bin/Resort_Modeller\n'
p173
I0
tp174
a(I10440
S'start_time     : 1500371561\nlast_update    : 1500381961\nfuzzer_pid     : 7171\ncycles_done    : 2\nexecs_done     : 4309344\nexecs_per_sec  : 1024.12\npaths_total    : 118\npaths_favored  : 29\npaths_found    : 117\npaths_imported : 0\nmax_depth      : 10\ncur_path       : 110\npending_favs   : 2\npending_total  : 64\nvariable_paths : 0\nbitmap_cvg     : 0.63%\nunique_crashes : 22\nunique_hangs   : 31\nlast_path      : 1500381235\nlast_crash     : 1500381349\nlast_hang      : 1500381294\nexec_timeout   : 20\nafl_banner     : fuzzer-master\nafl_version    : 1.85b\ncommand_line   : /home/skaramcheti/.virtualenvs/afl/bin/afl-unix/afl-fuzz -i /dev/shm/work/Resort_Modeller/input -o /dev/shm/work/Resort_Modeller/sync -m 4G -Q -M fuzzer-master -x /dev/shm/work/Resort_Modeller/Resort_Modeller.dict -- data/linux/processed-challenges/Resort_Modeller/bin/Resort_Modeller\n'
p175
I0
tp176
a(I10560
S'start_time     : 1500371561\nlast_update    : 1500382081\nfuzzer_pid     : 7171\ncycles_done    : 2\nexecs_done     : 4360220\nexecs_per_sec  : 379.40\npaths_total    : 118\npaths_favored  : 29\npaths_found    : 117\npaths_imported : 0\nmax_depth      : 10\ncur_path       : 117\npending_favs   : 1\npending_total  : 63\nvariable_paths : 0\nbitmap_cvg     : 0.63%\nunique_crashes : 22\nunique_hangs   : 31\nlast_path      : 1500381235\nlast_crash     : 1500381349\nlast_hang      : 1500381294\nexec_timeout   : 20\nafl_banner     : fuzzer-master\nafl_version    : 1.85b\ncommand_line   : /home/skaramcheti/.virtualenvs/afl/bin/afl-unix/afl-fuzz -i /dev/shm/work/Resort_Modeller/input -o /dev/shm/work/Resort_Modeller/sync -m 4G -Q -M fuzzer-master -x /dev/shm/work/Resort_Modeller/Resort_Modeller.dict -- data/linux/processed-challenges/Resort_Modeller/bin/Resort_Modeller\n'
p177
I0
tp178
a(I10680
S'start_time     : 1500371561\nlast_update    : 1500382201\nfuzzer_pid     : 7171\ncycles_done    : 2\nexecs_done     : 4407168\nexecs_per_sec  : 405.83\npaths_total    : 119\npaths_favored  : 29\npaths_found    : 118\npaths_imported : 0\nmax_depth      : 11\ncur_path       : 117\npending_favs   : 1\npending_total  : 64\nvariable_paths : 0\nbitmap_cvg     : 0.63%\nunique_crashes : 22\nunique_hangs   : 31\nlast_path      : 1500382191\nlast_crash     : 1500381349\nlast_hang      : 1500381294\nexec_timeout   : 20\nafl_banner     : fuzzer-master\nafl_version    : 1.85b\ncommand_line   : /home/skaramcheti/.virtualenvs/afl/bin/afl-unix/afl-fuzz -i /dev/shm/work/Resort_Modeller/input -o /dev/shm/work/Resort_Modeller/sync -m 4G -Q -M fuzzer-master -x /dev/shm/work/Resort_Modeller/Resort_Modeller.dict -- data/linux/processed-challenges/Resort_Modeller/bin/Resort_Modeller\n'
p179
I1
tp180
a.