(lp0
(I0
S'start_time     : 1500209262\nlast_update    : 1500209262\nfuzzer_pid     : 2106\ncycles_done    : 0\nexecs_done     : 10\nexecs_per_sec  : 188.68\npaths_total    : 1\npaths_favored  : 1\npaths_found    : 0\npaths_imported : 0\nmax_depth      : 1\ncur_path       : 0\npending_favs   : 1\npending_total  : 1\nvariable_paths : 0\nbitmap_cvg     : 0.08%\nunique_crashes : 0\nunique_hangs   : 0\nlast_path      : 0\nlast_crash     : 0\nlast_hang      : 0\nexec_timeout   : 20\nafl_banner     : fuzzer-master\nafl_version    : 1.85b\ncommand_line   : /home/skaramcheti/.virtualenvs/afl/bin/afl-unix/afl-fuzz -i /dev/shm/work/PRU/input -o /dev/shm/work/PRU/sync -m 4G -Q -M fuzzer-master -x /dev/shm/work/PRU/PRU.dict -- data/linux/processed-challenges/PRU/bin/PRU\n'
p1
I14
tp2
a(I120
S'start_time     : 1500209262\nlast_update    : 1500209382\nfuzzer_pid     : 2106\ncycles_done    : 0\nexecs_done     : 126369\nexecs_per_sec  : 1014.22\npaths_total    : 18\npaths_favored  : 1\npaths_found    : 17\npaths_imported : 0\nmax_depth      : 2\ncur_path       : 0\npending_favs   : 1\npending_total  : 18\nvariable_paths : 0\nbitmap_cvg     : 0.42%\nunique_crashes : 0\nunique_hangs   : 0\nlast_path      : 1500209345\nlast_crash     : 0\nlast_hang      : 0\nexec_timeout   : 20\nafl_banner     : fuzzer-master\nafl_version    : 1.85b\ncommand_line   : /home/skaramcheti/.virtualenvs/afl/bin/afl-unix/afl-fuzz -i /dev/shm/work/PRU/input -o /dev/shm/work/PRU/sync -m 4G -Q -M fuzzer-master -x /dev/shm/work/PRU/PRU.dict -- data/linux/processed-challenges/PRU/bin/PRU\n'
p3
I4
tp4
a(I240
S'start_time     : 1500209262\nlast_update    : 1500209502\nfuzzer_pid     : 2106\ncycles_done    : 0\nexecs_done     : 250886\nexecs_per_sec  : 1029.28\npaths_total    : 63\npaths_favored  : 10\npaths_found    : 62\npaths_imported : 0\nmax_depth      : 3\ncur_path       : 14\npending_favs   : 5\npending_total  : 57\nvariable_paths : 0\nbitmap_cvg     : 0.70%\nunique_crashes : 2\nunique_hangs   : 0\nlast_path      : 1500209499\nlast_crash     : 1500209440\nlast_hang      : 0\nexec_timeout   : 20\nafl_banner     : fuzzer-master\nafl_version    : 1.85b\ncommand_line   : /home/skaramcheti/.virtualenvs/afl/bin/afl-unix/afl-fuzz -i /dev/shm/work/PRU/input -o /dev/shm/work/PRU/sync -m 4G -Q -M fuzzer-master -x /dev/shm/work/PRU/PRU.dict -- data/linux/processed-challenges/PRU/bin/PRU\n'
p5
I45
tp6
a(I360
S'start_time     : 1500209262\nlast_update    : 1500209623\nfuzzer_pid     : 2106\ncycles_done    : 0\nexecs_done     : 372026\nexecs_per_sec  : 987.16\npaths_total    : 68\npaths_favored  : 52\npaths_found    : 67\npaths_imported : 0\nmax_depth      : 3\ncur_path       : 20\npending_favs   : 45\npending_total  : 58\nvariable_paths : 0\nbitmap_cvg     : 0.71%\nunique_crashes : 2\nunique_hangs   : 0\nlast_path      : 1500209598\nlast_crash     : 1500209440\nlast_hang      : 0\nexec_timeout   : 20\nafl_banner     : fuzzer-master\nafl_version    : 1.85b\ncommand_line   : /home/skaramcheti/.virtualenvs/afl/bin/afl-unix/afl-fuzz -i /dev/shm/work/PRU/input -o /dev/shm/work/PRU/sync -m 4G -Q -M fuzzer-master -x /dev/shm/work/PRU/PRU.dict -- data/linux/processed-challenges/PRU/bin/PRU\n'
p7
I5
tp8
a(I480
S'start_time     : 1500209262\nlast_update    : 1500209743\nfuzzer_pid     : 2106\ncycles_done    : 0\nexecs_done     : 491573\nexecs_per_sec  : 978.34\npaths_total    : 69\npaths_favored  : 52\npaths_found    : 68\npaths_imported : 0\nmax_depth      : 4\ncur_path       : 41\npending_favs   : 27\npending_total  : 41\nvariable_paths : 0\nbitmap_cvg     : 0.72%\nunique_crashes : 2\nunique_hangs   : 0\nlast_path      : 1500209661\nlast_crash     : 1500209440\nlast_hang      : 0\nexec_timeout   : 20\nafl_banner     : fuzzer-master\nafl_version    : 1.85b\ncommand_line   : /home/skaramcheti/.virtualenvs/afl/bin/afl-unix/afl-fuzz -i /dev/shm/work/PRU/input -o /dev/shm/work/PRU/sync -m 4G -Q -M fuzzer-master -x /dev/shm/work/PRU/PRU.dict -- data/linux/processed-challenges/PRU/bin/PRU\n'
p9
I1
tp10
a(I600
S'start_time     : 1500209262\nlast_update    : 1500209863\nfuzzer_pid     : 2106\ncycles_done    : 0\nexecs_done     : 609067\nexecs_per_sec  : 1000.49\npaths_total    : 70\npaths_favored  : 52\npaths_found    : 69\npaths_imported : 0\nmax_depth      : 4\ncur_path       : 58\npending_favs   : 10\npending_total  : 25\nvariable_paths : 0\nbitmap_cvg     : 0.72%\nunique_crashes : 2\nunique_hangs   : 0\nlast_path      : 1500209862\nlast_crash     : 1500209440\nlast_hang      : 0\nexec_timeout   : 20\nafl_banner     : fuzzer-master\nafl_version    : 1.85b\ncommand_line   : /home/skaramcheti/.virtualenvs/afl/bin/afl-unix/afl-fuzz -i /dev/shm/work/PRU/input -o /dev/shm/work/PRU/sync -m 4G -Q -M fuzzer-master -x /dev/shm/work/PRU/PRU.dict -- data/linux/processed-challenges/PRU/bin/PRU\n'
p11
I1
tp12
a(I720
S'start_time     : 1500209262\nlast_update    : 1500209983\nfuzzer_pid     : 2106\ncycles_done    : 0\nexecs_done     : 728164\nexecs_per_sec  : 1000.43\npaths_total    : 101\npaths_favored  : 52\npaths_found    : 100\npaths_imported : 0\nmax_depth      : 4\ncur_path       : 59\npending_favs   : 9\npending_total  : 55\nvariable_paths : 0\nbitmap_cvg     : 0.80%\nunique_crashes : 5\nunique_hangs   : 0\nlast_path      : 1500209973\nlast_crash     : 1500209891\nlast_hang      : 0\nexec_timeout   : 20\nafl_banner     : fuzzer-master\nafl_version    : 1.85b\ncommand_line   : /home/skaramcheti/.virtualenvs/afl/bin/afl-unix/afl-fuzz -i /dev/shm/work/PRU/input -o /dev/shm/work/PRU/sync -m 4G -Q -M fuzzer-master -x /dev/shm/work/PRU/PRU.dict -- data/linux/processed-challenges/PRU/bin/PRU\n'
p13
I32
tp14
a(I840
S'start_time     : 1500209262\nlast_update    : 1500210103\nfuzzer_pid     : 2106\ncycles_done    : 0\nexecs_done     : 848732\nexecs_per_sec  : 988.39\npaths_total    : 126\npaths_favored  : 70\npaths_found    : 125\npaths_imported : 0\nmax_depth      : 5\ncur_path       : 68\npending_favs   : 31\npending_total  : 74\nvariable_paths : 0\nbitmap_cvg     : 0.82%\nunique_crashes : 5\nunique_hangs   : 0\nlast_path      : 1500210069\nlast_crash     : 1500209891\nlast_hang      : 0\nexec_timeout   : 20\nafl_banner     : fuzzer-master\nafl_version    : 1.85b\ncommand_line   : /home/skaramcheti/.virtualenvs/afl/bin/afl-unix/afl-fuzz -i /dev/shm/work/PRU/input -o /dev/shm/work/PRU/sync -m 4G -Q -M fuzzer-master -x /dev/shm/work/PRU/PRU.dict -- data/linux/processed-challenges/PRU/bin/PRU\n'
p15
I26
tp16
a(I960
S'start_time     : 1500209262\nlast_update    : 1500210223\nfuzzer_pid     : 2106\ncycles_done    : 0\nexecs_done     : 967545\nexecs_per_sec  : 1006.65\npaths_total    : 149\npaths_favored  : 68\npaths_found    : 148\npaths_imported : 0\nmax_depth      : 5\ncur_path       : 83\npending_favs   : 35\npending_total  : 91\nvariable_paths : 0\nbitmap_cvg     : 0.85%\nunique_crashes : 17\nunique_hangs   : 0\nlast_path      : 1500210215\nlast_crash     : 1500210212\nlast_hang      : 0\nexec_timeout   : 20\nafl_banner     : fuzzer-master\nafl_version    : 1.85b\ncommand_line   : /home/skaramcheti/.virtualenvs/afl/bin/afl-unix/afl-fuzz -i /dev/shm/work/PRU/input -o /dev/shm/work/PRU/sync -m 4G -Q -M fuzzer-master -x /dev/shm/work/PRU/PRU.dict -- data/linux/processed-challenges/PRU/bin/PRU\n'
p17
I21
tp18
a(I1080
S'start_time     : 1500209262\nlast_update    : 1500210344\nfuzzer_pid     : 2106\ncycles_done    : 0\nexecs_done     : 1087209\nexecs_per_sec  : 969.68\npaths_total    : 151\npaths_favored  : 68\npaths_found    : 150\npaths_imported : 0\nmax_depth      : 5\ncur_path       : 83\npending_favs   : 35\npending_total  : 93\nvariable_paths : 0\nbitmap_cvg     : 0.85%\nunique_crashes : 17\nunique_hangs   : 0\nlast_path      : 1500210301\nlast_crash     : 1500210212\nlast_hang      : 0\nexec_timeout   : 20\nafl_banner     : fuzzer-master\nafl_version    : 1.85b\ncommand_line   : /home/skaramcheti/.virtualenvs/afl/bin/afl-unix/afl-fuzz -i /dev/shm/work/PRU/input -o /dev/shm/work/PRU/sync -m 4G -Q -M fuzzer-master -x /dev/shm/work/PRU/PRU.dict -- data/linux/processed-challenges/PRU/bin/PRU\n'
p19
I2
tp20
a(I1200
S'start_time     : 1500209262\nlast_update    : 1500210464\nfuzzer_pid     : 2106\ncycles_done    : 0\nexecs_done     : 1204580\nexecs_per_sec  : 1011.55\npaths_total    : 160\npaths_favored  : 73\npaths_found    : 159\npaths_imported : 0\nmax_depth      : 5\ncur_path       : 93\npending_favs   : 36\npending_total  : 95\nvariable_paths : 0\nbitmap_cvg     : 0.87%\nunique_crashes : 18\nunique_hangs   : 0\nlast_path      : 1500210459\nlast_crash     : 1500210364\nlast_hang      : 0\nexec_timeout   : 20\nafl_banner     : fuzzer-master\nafl_version    : 1.85b\ncommand_line   : /home/skaramcheti/.virtualenvs/afl/bin/afl-unix/afl-fuzz -i /dev/shm/work/PRU/input -o /dev/shm/work/PRU/sync -m 4G -Q -M fuzzer-master -x /dev/shm/work/PRU/PRU.dict -- data/linux/processed-challenges/PRU/bin/PRU\n'
p21
I9
tp22
a(I1320
S'start_time     : 1500209262\nlast_update    : 1500210584\nfuzzer_pid     : 2106\ncycles_done    : 0\nexecs_done     : 1322912\nexecs_per_sec  : 980.79\npaths_total    : 168\npaths_favored  : 76\npaths_found    : 167\npaths_imported : 0\nmax_depth      : 5\ncur_path       : 107\npending_favs   : 32\npending_total  : 96\nvariable_paths : 0\nbitmap_cvg     : 0.87%\nunique_crashes : 20\nunique_hangs   : 0\nlast_path      : 1500210559\nlast_crash     : 1500210566\nlast_hang      : 0\nexec_timeout   : 20\nafl_banner     : fuzzer-master\nafl_version    : 1.85b\ncommand_line   : /home/skaramcheti/.virtualenvs/afl/bin/afl-unix/afl-fuzz -i /dev/shm/work/PRU/input -o /dev/shm/work/PRU/sync -m 4G -Q -M fuzzer-master -x /dev/shm/work/PRU/PRU.dict -- data/linux/processed-challenges/PRU/bin/PRU\n'
p23
I8
tp24
a(I1440
S'start_time     : 1500209262\nlast_update    : 1500210704\nfuzzer_pid     : 2106\ncycles_done    : 0\nexecs_done     : 1443423\nexecs_per_sec  : 992.99\npaths_total    : 174\npaths_favored  : 78\npaths_found    : 173\npaths_imported : 0\nmax_depth      : 6\ncur_path       : 114\npending_favs   : 34\npending_total  : 98\nvariable_paths : 0\nbitmap_cvg     : 0.88%\nunique_crashes : 20\nunique_hangs   : 0\nlast_path      : 1500210622\nlast_crash     : 1500210566\nlast_hang      : 0\nexec_timeout   : 20\nafl_banner     : fuzzer-master\nafl_version    : 1.85b\ncommand_line   : /home/skaramcheti/.virtualenvs/afl/bin/afl-unix/afl-fuzz -i /dev/shm/work/PRU/input -o /dev/shm/work/PRU/sync -m 4G -Q -M fuzzer-master -x /dev/shm/work/PRU/PRU.dict -- data/linux/processed-challenges/PRU/bin/PRU\n'
p25
I6
tp26
a(I1560
S'start_time     : 1500209262\nlast_update    : 1500210825\nfuzzer_pid     : 2106\ncycles_done    : 0\nexecs_done     : 1561258\nexecs_per_sec  : 1010.61\npaths_total    : 179\npaths_favored  : 80\npaths_found    : 178\npaths_imported : 0\nmax_depth      : 6\ncur_path       : 133\npending_favs   : 28\npending_total  : 94\nvariable_paths : 0\nbitmap_cvg     : 0.89%\nunique_crashes : 22\nunique_hangs   : 0\nlast_path      : 1500210821\nlast_crash     : 1500210790\nlast_hang      : 0\nexec_timeout   : 20\nafl_banner     : fuzzer-master\nafl_version    : 1.85b\ncommand_line   : /home/skaramcheti/.virtualenvs/afl/bin/afl-unix/afl-fuzz -i /dev/shm/work/PRU/input -o /dev/shm/work/PRU/sync -m 4G -Q -M fuzzer-master -x /dev/shm/work/PRU/PRU.dict -- data/linux/processed-challenges/PRU/bin/PRU\n'
p27
I5
tp28
a(I1680
S'start_time     : 1500209262\nlast_update    : 1500210945\nfuzzer_pid     : 2106\ncycles_done    : 0\nexecs_done     : 1678783\nexecs_per_sec  : 934.72\npaths_total    : 180\npaths_favored  : 81\npaths_found    : 179\npaths_imported : 0\nmax_depth      : 6\ncur_path       : 150\npending_favs   : 21\npending_total  : 86\nvariable_paths : 0\nbitmap_cvg     : 0.89%\nunique_crashes : 23\nunique_hangs   : 0\nlast_path      : 1500210864\nlast_crash     : 1500210841\nlast_hang      : 0\nexec_timeout   : 20\nafl_banner     : fuzzer-master\nafl_version    : 1.85b\ncommand_line   : /home/skaramcheti/.virtualenvs/afl/bin/afl-unix/afl-fuzz -i /dev/shm/work/PRU/input -o /dev/shm/work/PRU/sync -m 4G -Q -M fuzzer-master -x /dev/shm/work/PRU/PRU.dict -- data/linux/processed-challenges/PRU/bin/PRU\n'
p29
I2
tp30
a(I1800
S'start_time     : 1500209262\nlast_update    : 1500211065\nfuzzer_pid     : 2106\ncycles_done    : 0\nexecs_done     : 1793555\nexecs_per_sec  : 1018.51\npaths_total    : 182\npaths_favored  : 81\npaths_found    : 181\npaths_imported : 0\nmax_depth      : 6\ncur_path       : 168\npending_favs   : 14\npending_total  : 78\nvariable_paths : 0\nbitmap_cvg     : 0.89%\nunique_crashes : 24\nunique_hangs   : 0\nlast_path      : 1500210949\nlast_crash     : 1500210974\nlast_hang      : 0\nexec_timeout   : 20\nafl_banner     : fuzzer-master\nafl_version    : 1.85b\ncommand_line   : /home/skaramcheti/.virtualenvs/afl/bin/afl-unix/afl-fuzz -i /dev/shm/work/PRU/input -o /dev/shm/work/PRU/sync -m 4G -Q -M fuzzer-master -x /dev/shm/work/PRU/PRU.dict -- data/linux/processed-challenges/PRU/bin/PRU\n'
p31
I1
tp32
a(I1920
S'start_time     : 1500209262\nlast_update    : 1500211185\nfuzzer_pid     : 2106\ncycles_done    : 0\nexecs_done     : 1916019\nexecs_per_sec  : 1004.24\npaths_total    : 187\npaths_favored  : 83\npaths_found    : 186\npaths_imported : 0\nmax_depth      : 7\ncur_path       : 181\npending_favs   : 6\npending_total  : 72\nvariable_paths : 0\nbitmap_cvg     : 0.89%\nunique_crashes : 25\nunique_hangs   : 0\nlast_path      : 1500211138\nlast_crash     : 1500211153\nlast_hang      : 0\nexec_timeout   : 20\nafl_banner     : fuzzer-master\nafl_version    : 1.85b\ncommand_line   : /home/skaramcheti/.virtualenvs/afl/bin/afl-unix/afl-fuzz -i /dev/shm/work/PRU/input -o /dev/shm/work/PRU/sync -m 4G -Q -M fuzzer-master -x /dev/shm/work/PRU/PRU.dict -- data/linux/processed-challenges/PRU/bin/PRU\n'
p33
I5
tp34
a(I2040
S'start_time     : 1500209262\nlast_update    : 1500211305\nfuzzer_pid     : 2106\ncycles_done    : 1\nexecs_done     : 2037756\nexecs_per_sec  : 1047.39\npaths_total    : 192\npaths_favored  : 83\npaths_found    : 191\npaths_imported : 0\nmax_depth      : 8\ncur_path       : 156\npending_favs   : 0\npending_total  : 69\nvariable_paths : 0\nbitmap_cvg     : 0.89%\nunique_crashes : 25\nunique_hangs   : 0\nlast_path      : 1500211293\nlast_crash     : 1500211153\nlast_hang      : 0\nexec_timeout   : 20\nafl_banner     : fuzzer-master\nafl_version    : 1.85b\ncommand_line   : /home/skaramcheti/.virtualenvs/afl/bin/afl-unix/afl-fuzz -i /dev/shm/work/PRU/input -o /dev/shm/work/PRU/sync -m 4G -Q -M fuzzer-master -x /dev/shm/work/PRU/PRU.dict -- data/linux/processed-challenges/PRU/bin/PRU\n'
p35
I5
tp36
a(I2160
S'start_time     : 1500209262\nlast_update    : 1500211426\nfuzzer_pid     : 2106\ncycles_done    : 1\nexecs_done     : 2162166\nexecs_per_sec  : 1030.20\npaths_total    : 193\npaths_favored  : 83\npaths_found    : 192\npaths_imported : 0\nmax_depth      : 8\ncur_path       : 156\npending_favs   : 0\npending_total  : 70\nvariable_paths : 0\nbitmap_cvg     : 0.89%\nunique_crashes : 25\nunique_hangs   : 0\nlast_path      : 1500211374\nlast_crash     : 1500211153\nlast_hang      : 0\nexec_timeout   : 20\nafl_banner     : fuzzer-master\nafl_version    : 1.85b\ncommand_line   : /home/skaramcheti/.virtualenvs/afl/bin/afl-unix/afl-fuzz -i /dev/shm/work/PRU/input -o /dev/shm/work/PRU/sync -m 4G -Q -M fuzzer-master -x /dev/shm/work/PRU/PRU.dict -- data/linux/processed-challenges/PRU/bin/PRU\n'
p37
I1
tp38
a(I2280
S'start_time     : 1500209262\nlast_update    : 1500211546\nfuzzer_pid     : 2106\ncycles_done    : 1\nexecs_done     : 2285147\nexecs_per_sec  : 998.92\npaths_total    : 203\npaths_favored  : 84\npaths_found    : 202\npaths_imported : 0\nmax_depth      : 8\ncur_path       : 195\npending_favs   : 0\npending_total  : 79\nvariable_paths : 0\nbitmap_cvg     : 0.90%\nunique_crashes : 30\nunique_hangs   : 0\nlast_path      : 1500211544\nlast_crash     : 1500211544\nlast_hang      : 0\nexec_timeout   : 20\nafl_banner     : fuzzer-master\nafl_version    : 1.85b\ncommand_line   : /home/skaramcheti/.virtualenvs/afl/bin/afl-unix/afl-fuzz -i /dev/shm/work/PRU/input -o /dev/shm/work/PRU/sync -m 4G -Q -M fuzzer-master -x /dev/shm/work/PRU/PRU.dict -- data/linux/processed-challenges/PRU/bin/PRU\n'
p39
I10
tp40
a(I2400
S'start_time     : 1500209262\nlast_update    : 1500211666\nfuzzer_pid     : 2106\ncycles_done    : 1\nexecs_done     : 2408112\nexecs_per_sec  : 1007.51\npaths_total    : 213\npaths_favored  : 84\npaths_found    : 212\npaths_imported : 0\nmax_depth      : 8\ncur_path       : 195\npending_favs   : 0\npending_total  : 89\nvariable_paths : 0\nbitmap_cvg     : 0.90%\nunique_crashes : 31\nunique_hangs   : 0\nlast_path      : 1500211655\nlast_crash     : 1500211629\nlast_hang      : 0\nexec_timeout   : 20\nafl_banner     : fuzzer-master\nafl_version    : 1.85b\ncommand_line   : /home/skaramcheti/.virtualenvs/afl/bin/afl-unix/afl-fuzz -i /dev/shm/work/PRU/input -o /dev/shm/work/PRU/sync -m 4G -Q -M fuzzer-master -x /dev/shm/work/PRU/PRU.dict -- data/linux/processed-challenges/PRU/bin/PRU\n'
p41
I11
tp42
a(I2520
S'start_time     : 1500209262\nlast_update    : 1500211786\nfuzzer_pid     : 2106\ncycles_done    : 1\nexecs_done     : 2526714\nexecs_per_sec  : 1005.17\npaths_total    : 231\npaths_favored  : 87\npaths_found    : 230\npaths_imported : 0\nmax_depth      : 9\ncur_path       : 197\npending_favs   : 2\npending_total  : 106\nvariable_paths : 0\nbitmap_cvg     : 0.91%\nunique_crashes : 33\nunique_hangs   : 0\nlast_path      : 1500211768\nlast_crash     : 1500211758\nlast_hang      : 0\nexec_timeout   : 20\nafl_banner     : fuzzer-master\nafl_version    : 1.85b\ncommand_line   : /home/skaramcheti/.virtualenvs/afl/bin/afl-unix/afl-fuzz -i /dev/shm/work/PRU/input -o /dev/shm/work/PRU/sync -m 4G -Q -M fuzzer-master -x /dev/shm/work/PRU/PRU.dict -- data/linux/processed-challenges/PRU/bin/PRU\n'
p43
I18
tp44
a(I2640
S'start_time     : 1500209262\nlast_update    : 1500211907\nfuzzer_pid     : 2106\ncycles_done    : 1\nexecs_done     : 2644103\nexecs_per_sec  : 1016.07\npaths_total    : 236\npaths_favored  : 95\npaths_found    : 235\npaths_imported : 0\nmax_depth      : 10\ncur_path       : 215\npending_favs   : 11\npending_total  : 108\nvariable_paths : 0\nbitmap_cvg     : 0.92%\nunique_crashes : 37\nunique_hangs   : 0\nlast_path      : 1500211893\nlast_crash     : 1500211896\nlast_hang      : 0\nexec_timeout   : 20\nafl_banner     : fuzzer-master\nafl_version    : 1.85b\ncommand_line   : /home/skaramcheti/.virtualenvs/afl/bin/afl-unix/afl-fuzz -i /dev/shm/work/PRU/input -o /dev/shm/work/PRU/sync -m 4G -Q -M fuzzer-master -x /dev/shm/work/PRU/PRU.dict -- data/linux/processed-challenges/PRU/bin/PRU\n'
p45
I4
tp46
a(I2760
S'start_time     : 1500209262\nlast_update    : 1500212027\nfuzzer_pid     : 2106\ncycles_done    : 1\nexecs_done     : 2763533\nexecs_per_sec  : 1017.06\npaths_total    : 239\npaths_favored  : 96\npaths_found    : 238\npaths_imported : 0\nmax_depth      : 10\ncur_path       : 216\npending_favs   : 11\npending_total  : 110\nvariable_paths : 0\nbitmap_cvg     : 0.92%\nunique_crashes : 40\nunique_hangs   : 0\nlast_path      : 1500212009\nlast_crash     : 1500212005\nlast_hang      : 0\nexec_timeout   : 20\nafl_banner     : fuzzer-master\nafl_version    : 1.85b\ncommand_line   : /home/skaramcheti/.virtualenvs/afl/bin/afl-unix/afl-fuzz -i /dev/shm/work/PRU/input -o /dev/shm/work/PRU/sync -m 4G -Q -M fuzzer-master -x /dev/shm/work/PRU/PRU.dict -- data/linux/processed-challenges/PRU/bin/PRU\n'
p47
I3
tp48
a(I2880
S'start_time     : 1500209262\nlast_update    : 1500212147\nfuzzer_pid     : 2106\ncycles_done    : 1\nexecs_done     : 2879836\nexecs_per_sec  : 916.48\npaths_total    : 243\npaths_favored  : 96\npaths_found    : 242\npaths_imported : 0\nmax_depth      : 10\ncur_path       : 219\npending_favs   : 10\npending_total  : 111\nvariable_paths : 0\nbitmap_cvg     : 0.92%\nunique_crashes : 43\nunique_hangs   : 0\nlast_path      : 1500212140\nlast_crash     : 1500212146\nlast_hang      : 0\nexec_timeout   : 20\nafl_banner     : fuzzer-master\nafl_version    : 1.85b\ncommand_line   : /home/skaramcheti/.virtualenvs/afl/bin/afl-unix/afl-fuzz -i /dev/shm/work/PRU/input -o /dev/shm/work/PRU/sync -m 4G -Q -M fuzzer-master -x /dev/shm/work/PRU/PRU.dict -- data/linux/processed-challenges/PRU/bin/PRU\n'
p49
I4
tp50
a(I3000
S'start_time     : 1500209262\nlast_update    : 1500212268\nfuzzer_pid     : 2106\ncycles_done    : 1\nexecs_done     : 2998176\nexecs_per_sec  : 1037.67\npaths_total    : 245\npaths_favored  : 96\npaths_found    : 244\npaths_imported : 0\nmax_depth      : 10\ncur_path       : 225\npending_favs   : 9\npending_total  : 110\nvariable_paths : 0\nbitmap_cvg     : 0.92%\nunique_crashes : 47\nunique_hangs   : 0\nlast_path      : 1500212214\nlast_crash     : 1500212248\nlast_hang      : 0\nexec_timeout   : 20\nafl_banner     : fuzzer-master\nafl_version    : 1.85b\ncommand_line   : /home/skaramcheti/.virtualenvs/afl/bin/afl-unix/afl-fuzz -i /dev/shm/work/PRU/input -o /dev/shm/work/PRU/sync -m 4G -Q -M fuzzer-master -x /dev/shm/work/PRU/PRU.dict -- data/linux/processed-challenges/PRU/bin/PRU\n'
p51
I2
tp52
a(I3120
S'start_time     : 1500209262\nlast_update    : 1500212388\nfuzzer_pid     : 2106\ncycles_done    : 1\nexecs_done     : 3116367\nexecs_per_sec  : 1009.38\npaths_total    : 247\npaths_favored  : 96\npaths_found    : 246\npaths_imported : 0\nmax_depth      : 11\ncur_path       : 233\npending_favs   : 7\npending_total  : 109\nvariable_paths : 0\nbitmap_cvg     : 0.92%\nunique_crashes : 52\nunique_hangs   : 0\nlast_path      : 1500212378\nlast_crash     : 1500212365\nlast_hang      : 0\nexec_timeout   : 20\nafl_banner     : fuzzer-master\nafl_version    : 1.85b\ncommand_line   : /home/skaramcheti/.virtualenvs/afl/bin/afl-unix/afl-fuzz -i /dev/shm/work/PRU/input -o /dev/shm/work/PRU/sync -m 4G -Q -M fuzzer-master -x /dev/shm/work/PRU/PRU.dict -- data/linux/processed-challenges/PRU/bin/PRU\n'
p53
I2
tp54
a(I3240
S'start_time     : 1500209262\nlast_update    : 1500212508\nfuzzer_pid     : 2106\ncycles_done    : 1\nexecs_done     : 3232156\nexecs_per_sec  : 964.09\npaths_total    : 249\npaths_favored  : 97\npaths_found    : 248\npaths_imported : 0\nmax_depth      : 11\ncur_path       : 238\npending_favs   : 6\npending_total  : 109\nvariable_paths : 0\nbitmap_cvg     : 0.92%\nunique_crashes : 52\nunique_hangs   : 0\nlast_path      : 1500212499\nlast_crash     : 1500212365\nlast_hang      : 0\nexec_timeout   : 20\nafl_banner     : fuzzer-master\nafl_version    : 1.85b\ncommand_line   : /home/skaramcheti/.virtualenvs/afl/bin/afl-unix/afl-fuzz -i /dev/shm/work/PRU/input -o /dev/shm/work/PRU/sync -m 4G -Q -M fuzzer-master -x /dev/shm/work/PRU/PRU.dict -- data/linux/processed-challenges/PRU/bin/PRU\n'
p55
I2
tp56
a(I3360
S'start_time     : 1500209262\nlast_update    : 1500212628\nfuzzer_pid     : 2106\ncycles_done    : 1\nexecs_done     : 3349882\nexecs_per_sec  : 996.94\npaths_total    : 253\npaths_favored  : 97\npaths_found    : 252\npaths_imported : 0\nmax_depth      : 11\ncur_path       : 238\npending_favs   : 6\npending_total  : 113\nvariable_paths : 0\nbitmap_cvg     : 0.92%\nunique_crashes : 53\nunique_hangs   : 0\nlast_path      : 1500212568\nlast_crash     : 1500212625\nlast_hang      : 0\nexec_timeout   : 20\nafl_banner     : fuzzer-master\nafl_version    : 1.85b\ncommand_line   : /home/skaramcheti/.virtualenvs/afl/bin/afl-unix/afl-fuzz -i /dev/shm/work/PRU/input -o /dev/shm/work/PRU/sync -m 4G -Q -M fuzzer-master -x /dev/shm/work/PRU/PRU.dict -- data/linux/processed-challenges/PRU/bin/PRU\n'
p57
I4
tp58
a(I3480
S'start_time     : 1500209262\nlast_update    : 1500212748\nfuzzer_pid     : 2106\ncycles_done    : 1\nexecs_done     : 3465602\nexecs_per_sec  : 1012.55\npaths_total    : 257\npaths_favored  : 97\npaths_found    : 256\npaths_imported : 0\nmax_depth      : 11\ncur_path       : 242\npending_favs   : 4\npending_total  : 115\nvariable_paths : 0\nbitmap_cvg     : 0.92%\nunique_crashes : 54\nunique_hangs   : 0\nlast_path      : 1500212744\nlast_crash     : 1500212690\nlast_hang      : 0\nexec_timeout   : 20\nafl_banner     : fuzzer-master\nafl_version    : 1.85b\ncommand_line   : /home/skaramcheti/.virtualenvs/afl/bin/afl-unix/afl-fuzz -i /dev/shm/work/PRU/input -o /dev/shm/work/PRU/sync -m 4G -Q -M fuzzer-master -x /dev/shm/work/PRU/PRU.dict -- data/linux/processed-challenges/PRU/bin/PRU\n'
p59
I4
tp60
a(I3600
S'start_time     : 1500209262\nlast_update    : 1500212868\nfuzzer_pid     : 2106\ncycles_done    : 1\nexecs_done     : 3583597\nexecs_per_sec  : 945.90\npaths_total    : 259\npaths_favored  : 98\npaths_found    : 258\npaths_imported : 0\nmax_depth      : 11\ncur_path       : 244\npending_favs   : 4\npending_total  : 116\nvariable_paths : 0\nbitmap_cvg     : 0.92%\nunique_crashes : 56\nunique_hangs   : 0\nlast_path      : 1500212856\nlast_crash     : 1500212856\nlast_hang      : 0\nexec_timeout   : 20\nafl_banner     : fuzzer-master\nafl_version    : 1.85b\ncommand_line   : /home/skaramcheti/.virtualenvs/afl/bin/afl-unix/afl-fuzz -i /dev/shm/work/PRU/input -o /dev/shm/work/PRU/sync -m 4G -Q -M fuzzer-master -x /dev/shm/work/PRU/PRU.dict -- data/linux/processed-challenges/PRU/bin/PRU\n'
p61
I2
tp62
a(I3720
S'start_time     : 1500209262\nlast_update    : 1500212988\nfuzzer_pid     : 2106\ncycles_done    : 1\nexecs_done     : 3699811\nexecs_per_sec  : 975.66\npaths_total    : 261\npaths_favored  : 98\npaths_found    : 260\npaths_imported : 0\nmax_depth      : 12\ncur_path       : 246\npending_favs   : 4\npending_total  : 116\nvariable_paths : 0\nbitmap_cvg     : 0.93%\nunique_crashes : 59\nunique_hangs   : 0\nlast_path      : 1500212973\nlast_crash     : 1500212960\nlast_hang      : 0\nexec_timeout   : 20\nafl_banner     : fuzzer-master\nafl_version    : 1.85b\ncommand_line   : /home/skaramcheti/.virtualenvs/afl/bin/afl-unix/afl-fuzz -i /dev/shm/work/PRU/input -o /dev/shm/work/PRU/sync -m 4G -Q -M fuzzer-master -x /dev/shm/work/PRU/PRU.dict -- data/linux/processed-challenges/PRU/bin/PRU\n'
p63
I2
tp64
a(I3840
S'start_time     : 1500209262\nlast_update    : 1500213109\nfuzzer_pid     : 2106\ncycles_done    : 1\nexecs_done     : 3816339\nexecs_per_sec  : 980.62\npaths_total    : 263\npaths_favored  : 98\npaths_found    : 262\npaths_imported : 0\nmax_depth      : 12\ncur_path       : 246\npending_favs   : 4\npending_total  : 118\nvariable_paths : 0\nbitmap_cvg     : 0.93%\nunique_crashes : 59\nunique_hangs   : 0\nlast_path      : 1500213009\nlast_crash     : 1500212960\nlast_hang      : 0\nexec_timeout   : 20\nafl_banner     : fuzzer-master\nafl_version    : 1.85b\ncommand_line   : /home/skaramcheti/.virtualenvs/afl/bin/afl-unix/afl-fuzz -i /dev/shm/work/PRU/input -o /dev/shm/work/PRU/sync -m 4G -Q -M fuzzer-master -x /dev/shm/work/PRU/PRU.dict -- data/linux/processed-challenges/PRU/bin/PRU\n'
p65
I2
tp66
a(I3960
S'start_time     : 1500209262\nlast_update    : 1500213229\nfuzzer_pid     : 2106\ncycles_done    : 1\nexecs_done     : 3931376\nexecs_per_sec  : 985.47\npaths_total    : 263\npaths_favored  : 98\npaths_found    : 262\npaths_imported : 0\nmax_depth      : 12\ncur_path       : 258\npending_favs   : 3\npending_total  : 115\nvariable_paths : 0\nbitmap_cvg     : 0.93%\nunique_crashes : 62\nunique_hangs   : 0\nlast_path      : 1500213009\nlast_crash     : 1500213206\nlast_hang      : 0\nexec_timeout   : 20\nafl_banner     : fuzzer-master\nafl_version    : 1.85b\ncommand_line   : /home/skaramcheti/.virtualenvs/afl/bin/afl-unix/afl-fuzz -i /dev/shm/work/PRU/input -o /dev/shm/work/PRU/sync -m 4G -Q -M fuzzer-master -x /dev/shm/work/PRU/PRU.dict -- data/linux/processed-challenges/PRU/bin/PRU\n'
p67
I0
tp68
a(I4080
S'start_time     : 1500209262\nlast_update    : 1500213349\nfuzzer_pid     : 2106\ncycles_done    : 1\nexecs_done     : 4049061\nexecs_per_sec  : 964.22\npaths_total    : 264\npaths_favored  : 98\npaths_found    : 263\npaths_imported : 0\nmax_depth      : 12\ncur_path       : 261\npending_favs   : 2\npending_total  : 114\nvariable_paths : 0\nbitmap_cvg     : 0.93%\nunique_crashes : 63\nunique_hangs   : 0\nlast_path      : 1500213238\nlast_crash     : 1500213271\nlast_hang      : 0\nexec_timeout   : 20\nafl_banner     : fuzzer-master\nafl_version    : 1.85b\ncommand_line   : /home/skaramcheti/.virtualenvs/afl/bin/afl-unix/afl-fuzz -i /dev/shm/work/PRU/input -o /dev/shm/work/PRU/sync -m 4G -Q -M fuzzer-master -x /dev/shm/work/PRU/PRU.dict -- data/linux/processed-challenges/PRU/bin/PRU\n'
p69
I1
tp70
a(I4200
S'start_time     : 1500209262\nlast_update    : 1500213469\nfuzzer_pid     : 2106\ncycles_done    : 2\nexecs_done     : 4168280\nexecs_per_sec  : 1010.19\npaths_total    : 264\npaths_favored  : 97\npaths_found    : 263\npaths_imported : 0\nmax_depth      : 12\ncur_path       : 22\npending_favs   : 0\npending_total  : 108\nvariable_paths : 0\nbitmap_cvg     : 0.93%\nunique_crashes : 64\nunique_hangs   : 0\nlast_path      : 1500213238\nlast_crash     : 1500213402\nlast_hang      : 0\nexec_timeout   : 20\nafl_banner     : fuzzer-master\nafl_version    : 1.85b\ncommand_line   : /home/skaramcheti/.virtualenvs/afl/bin/afl-unix/afl-fuzz -i /dev/shm/work/PRU/input -o /dev/shm/work/PRU/sync -m 4G -Q -M fuzzer-master -x /dev/shm/work/PRU/PRU.dict -- data/linux/processed-challenges/PRU/bin/PRU\n'
p71
I0
tp72
a(I4320
S'start_time     : 1500209262\nlast_update    : 1500213589\nfuzzer_pid     : 2106\ncycles_done    : 2\nexecs_done     : 4289132\nexecs_per_sec  : 978.81\npaths_total    : 264\npaths_favored  : 97\npaths_found    : 263\npaths_imported : 0\nmax_depth      : 12\ncur_path       : 72\npending_favs   : 0\npending_total  : 106\nvariable_paths : 0\nbitmap_cvg     : 0.93%\nunique_crashes : 64\nunique_hangs   : 0\nlast_path      : 1500213238\nlast_crash     : 1500213402\nlast_hang      : 0\nexec_timeout   : 20\nafl_banner     : fuzzer-master\nafl_version    : 1.85b\ncommand_line   : /home/skaramcheti/.virtualenvs/afl/bin/afl-unix/afl-fuzz -i /dev/shm/work/PRU/input -o /dev/shm/work/PRU/sync -m 4G -Q -M fuzzer-master -x /dev/shm/work/PRU/PRU.dict -- data/linux/processed-challenges/PRU/bin/PRU\n'
p73
I0
tp74
a(I4440
S'start_time     : 1500209262\nlast_update    : 1500213710\nfuzzer_pid     : 2106\ncycles_done    : 2\nexecs_done     : 4404278\nexecs_per_sec  : 980.95\npaths_total    : 267\npaths_favored  : 99\npaths_found    : 266\npaths_imported : 0\nmax_depth      : 12\ncur_path       : 265\npending_favs   : 0\npending_total  : 106\nvariable_paths : 0\nbitmap_cvg     : 0.93%\nunique_crashes : 65\nunique_hangs   : 0\nlast_path      : 1500213619\nlast_crash     : 1500213649\nlast_hang      : 0\nexec_timeout   : 20\nafl_banner     : fuzzer-master\nafl_version    : 1.85b\ncommand_line   : /home/skaramcheti/.virtualenvs/afl/bin/afl-unix/afl-fuzz -i /dev/shm/work/PRU/input -o /dev/shm/work/PRU/sync -m 4G -Q -M fuzzer-master -x /dev/shm/work/PRU/PRU.dict -- data/linux/processed-challenges/PRU/bin/PRU\n'
p75
I3
tp76
a(I4560
S'start_time     : 1500209262\nlast_update    : 1500213830\nfuzzer_pid     : 2106\ncycles_done    : 3\nexecs_done     : 4529303\nexecs_per_sec  : 1072.53\npaths_total    : 267\npaths_favored  : 99\npaths_found    : 266\npaths_imported : 0\nmax_depth      : 12\ncur_path       : 45\npending_favs   : 0\npending_total  : 102\nvariable_paths : 0\nbitmap_cvg     : 0.93%\nunique_crashes : 65\nunique_hangs   : 0\nlast_path      : 1500213619\nlast_crash     : 1500213649\nlast_hang      : 0\nexec_timeout   : 20\nafl_banner     : fuzzer-master\nafl_version    : 1.85b\ncommand_line   : /home/skaramcheti/.virtualenvs/afl/bin/afl-unix/afl-fuzz -i /dev/shm/work/PRU/input -o /dev/shm/work/PRU/sync -m 4G -Q -M fuzzer-master -x /dev/shm/work/PRU/PRU.dict -- data/linux/processed-challenges/PRU/bin/PRU\n'
p77
I0
tp78
a(I4680
S'start_time     : 1500209262\nlast_update    : 1500213950\nfuzzer_pid     : 2106\ncycles_done    : 3\nexecs_done     : 4650728\nexecs_per_sec  : 972.46\npaths_total    : 267\npaths_favored  : 99\npaths_found    : 266\npaths_imported : 0\nmax_depth      : 12\ncur_path       : 83\npending_favs   : 0\npending_total  : 99\nvariable_paths : 0\nbitmap_cvg     : 0.93%\nunique_crashes : 65\nunique_hangs   : 0\nlast_path      : 1500213619\nlast_crash     : 1500213649\nlast_hang      : 0\nexec_timeout   : 20\nafl_banner     : fuzzer-master\nafl_version    : 1.85b\ncommand_line   : /home/skaramcheti/.virtualenvs/afl/bin/afl-unix/afl-fuzz -i /dev/shm/work/PRU/input -o /dev/shm/work/PRU/sync -m 4G -Q -M fuzzer-master -x /dev/shm/work/PRU/PRU.dict -- data/linux/processed-challenges/PRU/bin/PRU\n'
p79
I0
tp80
a(I4800
S'start_time     : 1500209262\nlast_update    : 1500214070\nfuzzer_pid     : 2106\ncycles_done    : 3\nexecs_done     : 4771486\nexecs_per_sec  : 1037.65\npaths_total    : 267\npaths_favored  : 99\npaths_found    : 266\npaths_imported : 0\nmax_depth      : 12\ncur_path       : 109\npending_favs   : 0\npending_total  : 98\nvariable_paths : 0\nbitmap_cvg     : 0.93%\nunique_crashes : 65\nunique_hangs   : 0\nlast_path      : 1500213619\nlast_crash     : 1500213649\nlast_hang      : 0\nexec_timeout   : 20\nafl_banner     : fuzzer-master\nafl_version    : 1.85b\ncommand_line   : /home/skaramcheti/.virtualenvs/afl/bin/afl-unix/afl-fuzz -i /dev/shm/work/PRU/input -o /dev/shm/work/PRU/sync -m 4G -Q -M fuzzer-master -x /dev/shm/work/PRU/PRU.dict -- data/linux/processed-challenges/PRU/bin/PRU\n'
p81
I0
tp82
a(I4920
S'start_time     : 1500209262\nlast_update    : 1500214190\nfuzzer_pid     : 2106\ncycles_done    : 3\nexecs_done     : 4895300\nexecs_per_sec  : 1045.63\npaths_total    : 267\npaths_favored  : 99\npaths_found    : 266\npaths_imported : 0\nmax_depth      : 12\ncur_path       : 133\npending_favs   : 0\npending_total  : 96\nvariable_paths : 0\nbitmap_cvg     : 0.93%\nunique_crashes : 65\nunique_hangs   : 0\nlast_path      : 1500213619\nlast_crash     : 1500213649\nlast_hang      : 0\nexec_timeout   : 20\nafl_banner     : fuzzer-master\nafl_version    : 1.85b\ncommand_line   : /home/skaramcheti/.virtualenvs/afl/bin/afl-unix/afl-fuzz -i /dev/shm/work/PRU/input -o /dev/shm/work/PRU/sync -m 4G -Q -M fuzzer-master -x /dev/shm/work/PRU/PRU.dict -- data/linux/processed-challenges/PRU/bin/PRU\n'
p83
I0
tp84
a(I5040
S'start_time     : 1500209262\nlast_update    : 1500214311\nfuzzer_pid     : 2106\ncycles_done    : 3\nexecs_done     : 5016654\nexecs_per_sec  : 1005.73\npaths_total    : 279\npaths_favored  : 99\npaths_found    : 278\npaths_imported : 0\nmax_depth      : 12\ncur_path       : 147\npending_favs   : 0\npending_total  : 108\nvariable_paths : 0\nbitmap_cvg     : 0.93%\nunique_crashes : 66\nunique_hangs   : 0\nlast_path      : 1500214309\nlast_crash     : 1500214253\nlast_hang      : 0\nexec_timeout   : 20\nafl_banner     : fuzzer-master\nafl_version    : 1.85b\ncommand_line   : /home/skaramcheti/.virtualenvs/afl/bin/afl-unix/afl-fuzz -i /dev/shm/work/PRU/input -o /dev/shm/work/PRU/sync -m 4G -Q -M fuzzer-master -x /dev/shm/work/PRU/PRU.dict -- data/linux/processed-challenges/PRU/bin/PRU\n'
p85
I12
tp86
a(I5160
S'start_time     : 1500209262\nlast_update    : 1500214431\nfuzzer_pid     : 2106\ncycles_done    : 3\nexecs_done     : 5138554\nexecs_per_sec  : 1026.88\npaths_total    : 285\npaths_favored  : 99\npaths_found    : 284\npaths_imported : 0\nmax_depth      : 12\ncur_path       : 151\npending_favs   : 0\npending_total  : 113\nvariable_paths : 0\nbitmap_cvg     : 0.93%\nunique_crashes : 66\nunique_hangs   : 0\nlast_path      : 1500214373\nlast_crash     : 1500214253\nlast_hang      : 0\nexec_timeout   : 20\nafl_banner     : fuzzer-master\nafl_version    : 1.85b\ncommand_line   : /home/skaramcheti/.virtualenvs/afl/bin/afl-unix/afl-fuzz -i /dev/shm/work/PRU/input -o /dev/shm/work/PRU/sync -m 4G -Q -M fuzzer-master -x /dev/shm/work/PRU/PRU.dict -- data/linux/processed-challenges/PRU/bin/PRU\n'
p87
I6
tp88
a(I5280
S'start_time     : 1500209262\nlast_update    : 1500214551\nfuzzer_pid     : 2106\ncycles_done    : 3\nexecs_done     : 5263074\nexecs_per_sec  : 1016.93\npaths_total    : 285\npaths_favored  : 99\npaths_found    : 284\npaths_imported : 0\nmax_depth      : 12\ncur_path       : 176\npending_favs   : 0\npending_total  : 113\nvariable_paths : 0\nbitmap_cvg     : 0.93%\nunique_crashes : 66\nunique_hangs   : 0\nlast_path      : 1500214373\nlast_crash     : 1500214253\nlast_hang      : 0\nexec_timeout   : 20\nafl_banner     : fuzzer-master\nafl_version    : 1.85b\ncommand_line   : /home/skaramcheti/.virtualenvs/afl/bin/afl-unix/afl-fuzz -i /dev/shm/work/PRU/input -o /dev/shm/work/PRU/sync -m 4G -Q -M fuzzer-master -x /dev/shm/work/PRU/PRU.dict -- data/linux/processed-challenges/PRU/bin/PRU\n'
p89
I0
tp90
a(I5400
S'start_time     : 1500209262\nlast_update    : 1500214671\nfuzzer_pid     : 2106\ncycles_done    : 3\nexecs_done     : 5384868\nexecs_per_sec  : 1013.66\npaths_total    : 287\npaths_favored  : 99\npaths_found    : 286\npaths_imported : 0\nmax_depth      : 12\ncur_path       : 189\npending_favs   : 0\npending_total  : 114\nvariable_paths : 0\nbitmap_cvg     : 0.93%\nunique_crashes : 66\nunique_hangs   : 0\nlast_path      : 1500214669\nlast_crash     : 1500214253\nlast_hang      : 0\nexec_timeout   : 20\nafl_banner     : fuzzer-master\nafl_version    : 1.85b\ncommand_line   : /home/skaramcheti/.virtualenvs/afl/bin/afl-unix/afl-fuzz -i /dev/shm/work/PRU/input -o /dev/shm/work/PRU/sync -m 4G -Q -M fuzzer-master -x /dev/shm/work/PRU/PRU.dict -- data/linux/processed-challenges/PRU/bin/PRU\n'
p91
I2
tp92
a(I5520
S'start_time     : 1500209262\nlast_update    : 1500214792\nfuzzer_pid     : 2106\ncycles_done    : 3\nexecs_done     : 5507638\nexecs_per_sec  : 1009.50\npaths_total    : 292\npaths_favored  : 99\npaths_found    : 291\npaths_imported : 0\nmax_depth      : 12\ncur_path       : 189\npending_favs   : 0\npending_total  : 119\nvariable_paths : 0\nbitmap_cvg     : 0.93%\nunique_crashes : 68\nunique_hangs   : 0\nlast_path      : 1500214736\nlast_crash     : 1500214758\nlast_hang      : 0\nexec_timeout   : 20\nafl_banner     : fuzzer-master\nafl_version    : 1.85b\ncommand_line   : /home/skaramcheti/.virtualenvs/afl/bin/afl-unix/afl-fuzz -i /dev/shm/work/PRU/input -o /dev/shm/work/PRU/sync -m 4G -Q -M fuzzer-master -x /dev/shm/work/PRU/PRU.dict -- data/linux/processed-challenges/PRU/bin/PRU\n'
p93
I5
tp94
a(I5640
S'start_time     : 1500209262\nlast_update    : 1500214912\nfuzzer_pid     : 2106\ncycles_done    : 3\nexecs_done     : 5630586\nexecs_per_sec  : 1011.31\npaths_total    : 296\npaths_favored  : 99\npaths_found    : 295\npaths_imported : 0\nmax_depth      : 12\ncur_path       : 203\npending_favs   : 0\npending_total  : 121\nvariable_paths : 0\nbitmap_cvg     : 0.93%\nunique_crashes : 68\nunique_hangs   : 0\nlast_path      : 1500214899\nlast_crash     : 1500214758\nlast_hang      : 0\nexec_timeout   : 20\nafl_banner     : fuzzer-master\nafl_version    : 1.85b\ncommand_line   : /home/skaramcheti/.virtualenvs/afl/bin/afl-unix/afl-fuzz -i /dev/shm/work/PRU/input -o /dev/shm/work/PRU/sync -m 4G -Q -M fuzzer-master -x /dev/shm/work/PRU/PRU.dict -- data/linux/processed-challenges/PRU/bin/PRU\n'
p95
I4
tp96
a(I5760
S'start_time     : 1500209262\nlast_update    : 1500215032\nfuzzer_pid     : 2106\ncycles_done    : 3\nexecs_done     : 5754141\nexecs_per_sec  : 1049.72\npaths_total    : 297\npaths_favored  : 99\npaths_found    : 296\npaths_imported : 0\nmax_depth      : 12\ncur_path       : 207\npending_favs   : 0\npending_total  : 121\nvariable_paths : 0\nbitmap_cvg     : 0.93%\nunique_crashes : 69\nunique_hangs   : 0\nlast_path      : 1500215018\nlast_crash     : 1500215022\nlast_hang      : 0\nexec_timeout   : 20\nafl_banner     : fuzzer-master\nafl_version    : 1.85b\ncommand_line   : /home/skaramcheti/.virtualenvs/afl/bin/afl-unix/afl-fuzz -i /dev/shm/work/PRU/input -o /dev/shm/work/PRU/sync -m 4G -Q -M fuzzer-master -x /dev/shm/work/PRU/PRU.dict -- data/linux/processed-challenges/PRU/bin/PRU\n'
p97
I1
tp98
a(I5880
S'start_time     : 1500209262\nlast_update    : 1500215152\nfuzzer_pid     : 2106\ncycles_done    : 3\nexecs_done     : 5879041\nexecs_per_sec  : 1048.41\npaths_total    : 299\npaths_favored  : 99\npaths_found    : 298\npaths_imported : 0\nmax_depth      : 12\ncur_path       : 209\npending_favs   : 0\npending_total  : 122\nvariable_paths : 0\nbitmap_cvg     : 0.93%\nunique_crashes : 70\nunique_hangs   : 1\nlast_path      : 1500215116\nlast_crash     : 1500215099\nlast_hang      : 1500215078\nexec_timeout   : 20\nafl_banner     : fuzzer-master\nafl_version    : 1.85b\ncommand_line   : /home/skaramcheti/.virtualenvs/afl/bin/afl-unix/afl-fuzz -i /dev/shm/work/PRU/input -o /dev/shm/work/PRU/sync -m 4G -Q -M fuzzer-master -x /dev/shm/work/PRU/PRU.dict -- data/linux/processed-challenges/PRU/bin/PRU\n'
p99
I2
tp100
a(I6000
S'start_time     : 1500209262\nlast_update    : 1500215212\nfuzzer_pid     : 2106\ncycles_done    : 3\nexecs_done     : 5940644\nexecs_per_sec  : 1050.67\npaths_total    : 299\npaths_favored  : 99\npaths_found    : 298\npaths_imported : 0\nmax_depth      : 12\ncur_path       : 211\npending_favs   : 0\npending_total  : 121\nvariable_paths : 0\nbitmap_cvg     : 0.93%\nunique_crashes : 70\nunique_hangs   : 1\nlast_path      : 1500215116\nlast_crash     : 1500215099\nlast_hang      : 1500215078\nexec_timeout   : 20\nafl_banner     : fuzzer-master\nafl_version    : 1.85b\ncommand_line   : /home/skaramcheti/.virtualenvs/afl/bin/afl-unix/afl-fuzz -i /dev/shm/work/PRU/input -o /dev/shm/work/PRU/sync -m 4G -Q -M fuzzer-master -x /dev/shm/work/PRU/PRU.dict -- data/linux/processed-challenges/PRU/bin/PRU\n'
p101
I1
tp102
a(I6120
S'start_time     : 1500209262\nlast_update    : 1500215333\nfuzzer_pid     : 2106\ncycles_done    : 3\nexecs_done     : 6064310\nexecs_per_sec  : 1045.89\npaths_total    : 300\npaths_favored  : 99\npaths_found    : 299\npaths_imported : 0\nmax_depth      : 12\ncur_path       : 226\npending_favs   : 0\npending_total  : 120\nvariable_paths : 0\nbitmap_cvg     : 0.93%\nunique_crashes : 71\nunique_hangs   : 1\nlast_path      : 1500215223\nlast_crash     : 1500215242\nlast_hang      : 1500215078\nexec_timeout   : 20\nafl_banner     : fuzzer-master\nafl_version    : 1.85b\ncommand_line   : /home/skaramcheti/.virtualenvs/afl/bin/afl-unix/afl-fuzz -i /dev/shm/work/PRU/input -o /dev/shm/work/PRU/sync -m 4G -Q -M fuzzer-master -x /dev/shm/work/PRU/PRU.dict -- data/linux/processed-challenges/PRU/bin/PRU\n'
p103
I0
tp104
a(I6240
S'start_time     : 1500209262\nlast_update    : 1500215453\nfuzzer_pid     : 2106\ncycles_done    : 3\nexecs_done     : 6183130\nexecs_per_sec  : 961.73\npaths_total    : 300\npaths_favored  : 99\npaths_found    : 299\npaths_imported : 0\nmax_depth      : 12\ncur_path       : 237\npending_favs   : 0\npending_total  : 119\nvariable_paths : 0\nbitmap_cvg     : 0.93%\nunique_crashes : 73\nunique_hangs   : 1\nlast_path      : 1500215223\nlast_crash     : 1500215440\nlast_hang      : 1500215078\nexec_timeout   : 20\nafl_banner     : fuzzer-master\nafl_version    : 1.85b\ncommand_line   : /home/skaramcheti/.virtualenvs/afl/bin/afl-unix/afl-fuzz -i /dev/shm/work/PRU/input -o /dev/shm/work/PRU/sync -m 4G -Q -M fuzzer-master -x /dev/shm/work/PRU/PRU.dict -- data/linux/processed-challenges/PRU/bin/PRU\n'
p105
I0
tp106
a(I6360
S'start_time     : 1500209262\nlast_update    : 1500215573\nfuzzer_pid     : 2106\ncycles_done    : 3\nexecs_done     : 6300967\nexecs_per_sec  : 1001.58\npaths_total    : 301\npaths_favored  : 99\npaths_found    : 300\npaths_imported : 0\nmax_depth      : 12\ncur_path       : 248\npending_favs   : 0\npending_total  : 119\nvariable_paths : 0\nbitmap_cvg     : 0.93%\nunique_crashes : 74\nunique_hangs   : 2\nlast_path      : 1500215551\nlast_crash     : 1500215551\nlast_hang      : 1500215475\nexec_timeout   : 20\nafl_banner     : fuzzer-master\nafl_version    : 1.85b\ncommand_line   : /home/skaramcheti/.virtualenvs/afl/bin/afl-unix/afl-fuzz -i /dev/shm/work/PRU/input -o /dev/shm/work/PRU/sync -m 4G -Q -M fuzzer-master -x /dev/shm/work/PRU/PRU.dict -- data/linux/processed-challenges/PRU/bin/PRU\n'
p107
I5
tp108
a(I6480
S'start_time     : 1500209262\nlast_update    : 1500215694\nfuzzer_pid     : 2106\ncycles_done    : 3\nexecs_done     : 6417344\nexecs_per_sec  : 985.35\npaths_total    : 305\npaths_favored  : 99\npaths_found    : 304\npaths_imported : 0\nmax_depth      : 12\ncur_path       : 257\npending_favs   : 0\npending_total  : 120\nvariable_paths : 0\nbitmap_cvg     : 0.93%\nunique_crashes : 75\nunique_hangs   : 2\nlast_path      : 1500215622\nlast_crash     : 1500215617\nlast_hang      : 1500215475\nexec_timeout   : 20\nafl_banner     : fuzzer-master\nafl_version    : 1.85b\ncommand_line   : /home/skaramcheti/.virtualenvs/afl/bin/afl-unix/afl-fuzz -i /dev/shm/work/PRU/input -o /dev/shm/work/PRU/sync -m 4G -Q -M fuzzer-master -x /dev/shm/work/PRU/PRU.dict -- data/linux/processed-challenges/PRU/bin/PRU\n'
p109
I0
tp110
a(I6600
S'start_time     : 1500209262\nlast_update    : 1500215814\nfuzzer_pid     : 2106\ncycles_done    : 3\nexecs_done     : 6540759\nexecs_per_sec  : 1043.60\npaths_total    : 306\npaths_favored  : 99\npaths_found    : 305\npaths_imported : 0\nmax_depth      : 12\ncur_path       : 273\npending_favs   : 0\npending_total  : 120\nvariable_paths : 0\nbitmap_cvg     : 0.93%\nunique_crashes : 77\nunique_hangs   : 2\nlast_path      : 1500215778\nlast_crash     : 1500215793\nlast_hang      : 1500215475\nexec_timeout   : 20\nafl_banner     : fuzzer-master\nafl_version    : 1.85b\ncommand_line   : /home/skaramcheti/.virtualenvs/afl/bin/afl-unix/afl-fuzz -i /dev/shm/work/PRU/input -o /dev/shm/work/PRU/sync -m 4G -Q -M fuzzer-master -x /dev/shm/work/PRU/PRU.dict -- data/linux/processed-challenges/PRU/bin/PRU\n'
p111
I2
tp112
a(I6720
S'start_time     : 1500209262\nlast_update    : 1500215934\nfuzzer_pid     : 2106\ncycles_done    : 3\nexecs_done     : 6661303\nexecs_per_sec  : 1015.53\npaths_total    : 321\npaths_favored  : 99\npaths_found    : 320\npaths_imported : 0\nmax_depth      : 12\ncur_path       : 285\npending_favs   : 0\npending_total  : 131\nvariable_paths : 0\nbitmap_cvg     : 0.93%\nunique_crashes : 78\nunique_hangs   : 3\nlast_path      : 1500215932\nlast_crash     : 1500215877\nlast_hang      : 1500215862\nexec_timeout   : 20\nafl_banner     : fuzzer-master\nafl_version    : 1.85b\ncommand_line   : /home/skaramcheti/.virtualenvs/afl/bin/afl-unix/afl-fuzz -i /dev/shm/work/PRU/input -o /dev/shm/work/PRU/sync -m 4G -Q -M fuzzer-master -x /dev/shm/work/PRU/PRU.dict -- data/linux/processed-challenges/PRU/bin/PRU\n'
p113
I21
tp114
a(I6840
S'start_time     : 1500209262\nlast_update    : 1500216054\nfuzzer_pid     : 2106\ncycles_done    : 3\nexecs_done     : 6784483\nexecs_per_sec  : 1006.59\npaths_total    : 335\npaths_favored  : 99\npaths_found    : 334\npaths_imported : 0\nmax_depth      : 12\ncur_path       : 285\npending_favs   : 0\npending_total  : 145\nvariable_paths : 0\nbitmap_cvg     : 0.93%\nunique_crashes : 79\nunique_hangs   : 3\nlast_path      : 1500216048\nlast_crash     : 1500215940\nlast_hang      : 1500215862\nexec_timeout   : 20\nafl_banner     : fuzzer-master\nafl_version    : 1.85b\ncommand_line   : /home/skaramcheti/.virtualenvs/afl/bin/afl-unix/afl-fuzz -i /dev/shm/work/PRU/input -o /dev/shm/work/PRU/sync -m 4G -Q -M fuzzer-master -x /dev/shm/work/PRU/PRU.dict -- data/linux/processed-challenges/PRU/bin/PRU\n'
p115
I10
tp116
a(I6960
S'start_time     : 1500209262\nlast_update    : 1500216174\nfuzzer_pid     : 2106\ncycles_done    : 3\nexecs_done     : 6903013\nexecs_per_sec  : 982.99\npaths_total    : 339\npaths_favored  : 99\npaths_found    : 338\npaths_imported : 0\nmax_depth      : 12\ncur_path       : 295\npending_favs   : 0\npending_total  : 147\nvariable_paths : 0\nbitmap_cvg     : 0.93%\nunique_crashes : 80\nunique_hangs   : 3\nlast_path      : 1500216164\nlast_crash     : 1500216133\nlast_hang      : 1500215862\nexec_timeout   : 20\nafl_banner     : fuzzer-master\nafl_version    : 1.85b\ncommand_line   : /home/skaramcheti/.virtualenvs/afl/bin/afl-unix/afl-fuzz -i /dev/shm/work/PRU/input -o /dev/shm/work/PRU/sync -m 4G -Q -M fuzzer-master -x /dev/shm/work/PRU/PRU.dict -- data/linux/processed-challenges/PRU/bin/PRU\n'
p117
I5
tp118
a(I7080
S'start_time     : 1500209262\nlast_update    : 1500216294\nfuzzer_pid     : 2106\ncycles_done    : 3\nexecs_done     : 7020663\nexecs_per_sec  : 1008.00\npaths_total    : 345\npaths_favored  : 99\npaths_found    : 344\npaths_imported : 0\nmax_depth      : 12\ncur_path       : 301\npending_favs   : 0\npending_total  : 152\nvariable_paths : 0\nbitmap_cvg     : 0.93%\nunique_crashes : 80\nunique_hangs   : 3\nlast_path      : 1500216246\nlast_crash     : 1500216133\nlast_hang      : 1500215862\nexec_timeout   : 20\nafl_banner     : fuzzer-master\nafl_version    : 1.85b\ncommand_line   : /home/skaramcheti/.virtualenvs/afl/bin/afl-unix/afl-fuzz -i /dev/shm/work/PRU/input -o /dev/shm/work/PRU/sync -m 4G -Q -M fuzzer-master -x /dev/shm/work/PRU/PRU.dict -- data/linux/processed-challenges/PRU/bin/PRU\n'
p119
I4
tp120
a(I7200
S'start_time     : 1500209262\nlast_update    : 1500216415\nfuzzer_pid     : 2106\ncycles_done    : 3\nexecs_done     : 7136540\nexecs_per_sec  : 994.38\npaths_total    : 350\npaths_favored  : 99\npaths_found    : 349\npaths_imported : 0\nmax_depth      : 12\ncur_path       : 307\npending_favs   : 0\npending_total  : 155\nvariable_paths : 0\nbitmap_cvg     : 0.93%\nunique_crashes : 80\nunique_hangs   : 3\nlast_path      : 1500216407\nlast_crash     : 1500216133\nlast_hang      : 1500215862\nexec_timeout   : 20\nafl_banner     : fuzzer-master\nafl_version    : 1.85b\ncommand_line   : /home/skaramcheti/.virtualenvs/afl/bin/afl-unix/afl-fuzz -i /dev/shm/work/PRU/input -o /dev/shm/work/PRU/sync -m 4G -Q -M fuzzer-master -x /dev/shm/work/PRU/PRU.dict -- data/linux/processed-challenges/PRU/bin/PRU\n'
p121
I4
tp122
a(I7320
S'start_time     : 1500209262\nlast_update    : 1500216535\nfuzzer_pid     : 2106\ncycles_done    : 3\nexecs_done     : 7254981\nexecs_per_sec  : 1013.21\npaths_total    : 354\npaths_favored  : 99\npaths_found    : 353\npaths_imported : 0\nmax_depth      : 12\ncur_path       : 310\npending_favs   : 0\npending_total  : 158\nvariable_paths : 0\nbitmap_cvg     : 0.93%\nunique_crashes : 80\nunique_hangs   : 3\nlast_path      : 1500216517\nlast_crash     : 1500216133\nlast_hang      : 1500215862\nexec_timeout   : 20\nafl_banner     : fuzzer-master\nafl_version    : 1.85b\ncommand_line   : /home/skaramcheti/.virtualenvs/afl/bin/afl-unix/afl-fuzz -i /dev/shm/work/PRU/input -o /dev/shm/work/PRU/sync -m 4G -Q -M fuzzer-master -x /dev/shm/work/PRU/PRU.dict -- data/linux/processed-challenges/PRU/bin/PRU\n'
p123
I3
tp124
a(I7440
S'start_time     : 1500209262\nlast_update    : 1500216655\nfuzzer_pid     : 2106\ncycles_done    : 3\nexecs_done     : 7375601\nexecs_per_sec  : 1009.88\npaths_total    : 354\npaths_favored  : 99\npaths_found    : 353\npaths_imported : 0\nmax_depth      : 12\ncur_path       : 310\npending_favs   : 0\npending_total  : 158\nvariable_paths : 0\nbitmap_cvg     : 0.93%\nunique_crashes : 80\nunique_hangs   : 3\nlast_path      : 1500216517\nlast_crash     : 1500216133\nlast_hang      : 1500215862\nexec_timeout   : 20\nafl_banner     : fuzzer-master\nafl_version    : 1.85b\ncommand_line   : /home/skaramcheti/.virtualenvs/afl/bin/afl-unix/afl-fuzz -i /dev/shm/work/PRU/input -o /dev/shm/work/PRU/sync -m 4G -Q -M fuzzer-master -x /dev/shm/work/PRU/PRU.dict -- data/linux/processed-challenges/PRU/bin/PRU\n'
p125
I2
tp126
a(I7560
S'start_time     : 1500209262\nlast_update    : 1500216775\nfuzzer_pid     : 2106\ncycles_done    : 3\nexecs_done     : 7494361\nexecs_per_sec  : 1025.60\npaths_total    : 356\npaths_favored  : 99\npaths_found    : 355\npaths_imported : 0\nmax_depth      : 12\ncur_path       : 319\npending_favs   : 0\npending_total  : 159\nvariable_paths : 0\nbitmap_cvg     : 0.93%\nunique_crashes : 81\nunique_hangs   : 5\nlast_path      : 1500216705\nlast_crash     : 1500216679\nlast_hang      : 1500216683\nexec_timeout   : 20\nafl_banner     : fuzzer-master\nafl_version    : 1.85b\ncommand_line   : /home/skaramcheti/.virtualenvs/afl/bin/afl-unix/afl-fuzz -i /dev/shm/work/PRU/input -o /dev/shm/work/PRU/sync -m 4G -Q -M fuzzer-master -x /dev/shm/work/PRU/PRU.dict -- data/linux/processed-challenges/PRU/bin/PRU\n'
p127
I0
tp128
a(I7680
S'start_time     : 1500209262\nlast_update    : 1500216896\nfuzzer_pid     : 2106\ncycles_done    : 3\nexecs_done     : 7611719\nexecs_per_sec  : 976.72\npaths_total    : 359\npaths_favored  : 99\npaths_found    : 358\npaths_imported : 0\nmax_depth      : 12\ncur_path       : 329\npending_favs   : 0\npending_total  : 160\nvariable_paths : 0\nbitmap_cvg     : 0.93%\nunique_crashes : 84\nunique_hangs   : 5\nlast_path      : 1500216887\nlast_crash     : 1500216892\nlast_hang      : 1500216683\nexec_timeout   : 20\nafl_banner     : fuzzer-master\nafl_version    : 1.85b\ncommand_line   : /home/skaramcheti/.virtualenvs/afl/bin/afl-unix/afl-fuzz -i /dev/shm/work/PRU/input -o /dev/shm/work/PRU/sync -m 4G -Q -M fuzzer-master -x /dev/shm/work/PRU/PRU.dict -- data/linux/processed-challenges/PRU/bin/PRU\n'
p129
I3
tp130
a(I7800
S'start_time     : 1500209262\nlast_update    : 1500217016\nfuzzer_pid     : 2106\ncycles_done    : 3\nexecs_done     : 7732070\nexecs_per_sec  : 1012.97\npaths_total    : 361\npaths_favored  : 99\npaths_found    : 360\npaths_imported : 0\nmax_depth      : 12\ncur_path       : 356\npending_favs   : 1\npending_total  : 161\nvariable_paths : 0\nbitmap_cvg     : 0.93%\nunique_crashes : 88\nunique_hangs   : 5\nlast_path      : 1500217005\nlast_crash     : 1500217000\nlast_hang      : 1500216683\nexec_timeout   : 20\nafl_banner     : fuzzer-master\nafl_version    : 1.85b\ncommand_line   : /home/skaramcheti/.virtualenvs/afl/bin/afl-unix/afl-fuzz -i /dev/shm/work/PRU/input -o /dev/shm/work/PRU/sync -m 4G -Q -M fuzzer-master -x /dev/shm/work/PRU/PRU.dict -- data/linux/processed-challenges/PRU/bin/PRU\n'
p131
I2
tp132
a(I7920
S'start_time     : 1500209262\nlast_update    : 1500217136\nfuzzer_pid     : 2106\ncycles_done    : 3\nexecs_done     : 7851785\nexecs_per_sec  : 956.62\npaths_total    : 361\npaths_favored  : 97\npaths_found    : 360\npaths_imported : 0\nmax_depth      : 12\ncur_path       : 359\npending_favs   : 1\npending_total  : 160\nvariable_paths : 0\nbitmap_cvg     : 0.93%\nunique_crashes : 88\nunique_hangs   : 5\nlast_path      : 1500217005\nlast_crash     : 1500217000\nlast_hang      : 1500216683\nexec_timeout   : 20\nafl_banner     : fuzzer-master\nafl_version    : 1.85b\ncommand_line   : /home/skaramcheti/.virtualenvs/afl/bin/afl-unix/afl-fuzz -i /dev/shm/work/PRU/input -o /dev/shm/work/PRU/sync -m 4G -Q -M fuzzer-master -x /dev/shm/work/PRU/PRU.dict -- data/linux/processed-challenges/PRU/bin/PRU\n'
p133
I1
tp134
a(I8040
S'start_time     : 1500209262\nlast_update    : 1500217256\nfuzzer_pid     : 2106\ncycles_done    : 3\nexecs_done     : 7965918\nexecs_per_sec  : 963.07\npaths_total    : 366\npaths_favored  : 97\npaths_found    : 365\npaths_imported : 0\nmax_depth      : 12\ncur_path       : 361\npending_favs   : 0\npending_total  : 164\nvariable_paths : 0\nbitmap_cvg     : 0.93%\nunique_crashes : 89\nunique_hangs   : 5\nlast_path      : 1500217249\nlast_crash     : 1500217136\nlast_hang      : 1500216683\nexec_timeout   : 20\nafl_banner     : fuzzer-master\nafl_version    : 1.85b\ncommand_line   : /home/skaramcheti/.virtualenvs/afl/bin/afl-unix/afl-fuzz -i /dev/shm/work/PRU/input -o /dev/shm/work/PRU/sync -m 4G -Q -M fuzzer-master -x /dev/shm/work/PRU/PRU.dict -- data/linux/processed-challenges/PRU/bin/PRU\n'
p135
I13
tp136
a(I8160
S'start_time     : 1500209262\nlast_update    : 1500217376\nfuzzer_pid     : 2106\ncycles_done    : 3\nexecs_done     : 8080474\nexecs_per_sec  : 956.18\npaths_total    : 376\npaths_favored  : 97\npaths_found    : 375\npaths_imported : 0\nmax_depth      : 12\ncur_path       : 361\npending_favs   : 0\npending_total  : 174\nvariable_paths : 0\nbitmap_cvg     : 0.93%\nunique_crashes : 89\nunique_hangs   : 6\nlast_path      : 1500217359\nlast_crash     : 1500217136\nlast_hang      : 1500217336\nexec_timeout   : 20\nafl_banner     : fuzzer-master\nafl_version    : 1.85b\ncommand_line   : /home/skaramcheti/.virtualenvs/afl/bin/afl-unix/afl-fuzz -i /dev/shm/work/PRU/input -o /dev/shm/work/PRU/sync -m 4G -Q -M fuzzer-master -x /dev/shm/work/PRU/PRU.dict -- data/linux/processed-challenges/PRU/bin/PRU\n'
p137
I3
tp138
a(I8280
S'start_time     : 1500209262\nlast_update    : 1500217496\nfuzzer_pid     : 2106\ncycles_done    : 3\nexecs_done     : 8190927\nexecs_per_sec  : 851.15\npaths_total    : 378\npaths_favored  : 97\npaths_found    : 377\npaths_imported : 0\nmax_depth      : 12\ncur_path       : 366\npending_favs   : 0\npending_total  : 174\nvariable_paths : 0\nbitmap_cvg     : 0.93%\nunique_crashes : 91\nunique_hangs   : 6\nlast_path      : 1500217390\nlast_crash     : 1500217435\nlast_hang      : 1500217336\nexec_timeout   : 20\nafl_banner     : fuzzer-master\nafl_version    : 1.85b\ncommand_line   : /home/skaramcheti/.virtualenvs/afl/bin/afl-unix/afl-fuzz -i /dev/shm/work/PRU/input -o /dev/shm/work/PRU/sync -m 4G -Q -M fuzzer-master -x /dev/shm/work/PRU/PRU.dict -- data/linux/processed-challenges/PRU/bin/PRU\n'
p139
I1
tp140
a(I8400
S'start_time     : 1500209262\nlast_update    : 1500217616\nfuzzer_pid     : 2106\ncycles_done    : 3\nexecs_done     : 8303982\nexecs_per_sec  : 980.87\npaths_total    : 379\npaths_favored  : 97\npaths_found    : 378\npaths_imported : 0\nmax_depth      : 13\ncur_path       : 369\npending_favs   : 0\npending_total  : 174\nvariable_paths : 0\nbitmap_cvg     : 0.93%\nunique_crashes : 91\nunique_hangs   : 6\nlast_path      : 1500217510\nlast_crash     : 1500217435\nlast_hang      : 1500217336\nexec_timeout   : 20\nafl_banner     : fuzzer-master\nafl_version    : 1.85b\ncommand_line   : /home/skaramcheti/.virtualenvs/afl/bin/afl-unix/afl-fuzz -i /dev/shm/work/PRU/input -o /dev/shm/work/PRU/sync -m 4G -Q -M fuzzer-master -x /dev/shm/work/PRU/PRU.dict -- data/linux/processed-challenges/PRU/bin/PRU\n'
p141
I0
tp142
a(I8520
S'start_time     : 1500209262\nlast_update    : 1500217736\nfuzzer_pid     : 2106\ncycles_done    : 4\nexecs_done     : 8426630\nexecs_per_sec  : 1031.32\npaths_total    : 379\npaths_favored  : 97\npaths_found    : 378\npaths_imported : 0\nmax_depth      : 13\ncur_path       : 51\npending_favs   : 0\npending_total  : 173\nvariable_paths : 0\nbitmap_cvg     : 0.93%\nunique_crashes : 91\nunique_hangs   : 6\nlast_path      : 1500217510\nlast_crash     : 1500217435\nlast_hang      : 1500217336\nexec_timeout   : 20\nafl_banner     : fuzzer-master\nafl_version    : 1.85b\ncommand_line   : /home/skaramcheti/.virtualenvs/afl/bin/afl-unix/afl-fuzz -i /dev/shm/work/PRU/input -o /dev/shm/work/PRU/sync -m 4G -Q -M fuzzer-master -x /dev/shm/work/PRU/PRU.dict -- data/linux/processed-challenges/PRU/bin/PRU\n'
p143
I0
tp144
a(I8640
S'start_time     : 1500209262\nlast_update    : 1500217856\nfuzzer_pid     : 2106\ncycles_done    : 4\nexecs_done     : 8549053\nexecs_per_sec  : 1043.42\npaths_total    : 379\npaths_favored  : 97\npaths_found    : 378\npaths_imported : 0\nmax_depth      : 13\ncur_path       : 89\npending_favs   : 0\npending_total  : 170\nvariable_paths : 0\nbitmap_cvg     : 0.93%\nunique_crashes : 91\nunique_hangs   : 6\nlast_path      : 1500217510\nlast_crash     : 1500217435\nlast_hang      : 1500217336\nexec_timeout   : 20\nafl_banner     : fuzzer-master\nafl_version    : 1.85b\ncommand_line   : /home/skaramcheti/.virtualenvs/afl/bin/afl-unix/afl-fuzz -i /dev/shm/work/PRU/input -o /dev/shm/work/PRU/sync -m 4G -Q -M fuzzer-master -x /dev/shm/work/PRU/PRU.dict -- data/linux/processed-challenges/PRU/bin/PRU\n'
p145
I0
tp146
a(I8760
S'start_time     : 1500209262\nlast_update    : 1500217977\nfuzzer_pid     : 2106\ncycles_done    : 4\nexecs_done     : 8672930\nexecs_per_sec  : 1057.22\npaths_total    : 379\npaths_favored  : 97\npaths_found    : 378\npaths_imported : 0\nmax_depth      : 13\ncur_path       : 115\npending_favs   : 0\npending_total  : 168\nvariable_paths : 0\nbitmap_cvg     : 0.93%\nunique_crashes : 91\nunique_hangs   : 6\nlast_path      : 1500217510\nlast_crash     : 1500217435\nlast_hang      : 1500217336\nexec_timeout   : 20\nafl_banner     : fuzzer-master\nafl_version    : 1.85b\ncommand_line   : /home/skaramcheti/.virtualenvs/afl/bin/afl-unix/afl-fuzz -i /dev/shm/work/PRU/input -o /dev/shm/work/PRU/sync -m 4G -Q -M fuzzer-master -x /dev/shm/work/PRU/PRU.dict -- data/linux/processed-challenges/PRU/bin/PRU\n'
p147
I0
tp148
a(I8880
S'start_time     : 1500209262\nlast_update    : 1500218097\nfuzzer_pid     : 2106\ncycles_done    : 4\nexecs_done     : 8795861\nexecs_per_sec  : 978.05\npaths_total    : 379\npaths_favored  : 97\npaths_found    : 378\npaths_imported : 0\nmax_depth      : 13\ncur_path       : 141\npending_favs   : 0\npending_total  : 166\nvariable_paths : 0\nbitmap_cvg     : 0.93%\nunique_crashes : 91\nunique_hangs   : 6\nlast_path      : 1500217510\nlast_crash     : 1500217435\nlast_hang      : 1500217336\nexec_timeout   : 20\nafl_banner     : fuzzer-master\nafl_version    : 1.85b\ncommand_line   : /home/skaramcheti/.virtualenvs/afl/bin/afl-unix/afl-fuzz -i /dev/shm/work/PRU/input -o /dev/shm/work/PRU/sync -m 4G -Q -M fuzzer-master -x /dev/shm/work/PRU/PRU.dict -- data/linux/processed-challenges/PRU/bin/PRU\n'
p149
I1
tp150
a(I9000
S'start_time     : 1500209262\nlast_update    : 1500218217\nfuzzer_pid     : 2106\ncycles_done    : 4\nexecs_done     : 8913614\nexecs_per_sec  : 952.24\npaths_total    : 380\npaths_favored  : 97\npaths_found    : 379\npaths_imported : 0\nmax_depth      : 13\ncur_path       : 159\npending_favs   : 0\npending_total  : 164\nvariable_paths : 0\nbitmap_cvg     : 0.93%\nunique_crashes : 91\nunique_hangs   : 6\nlast_path      : 1500218112\nlast_crash     : 1500217435\nlast_hang      : 1500217336\nexec_timeout   : 20\nafl_banner     : fuzzer-master\nafl_version    : 1.85b\ncommand_line   : /home/skaramcheti/.virtualenvs/afl/bin/afl-unix/afl-fuzz -i /dev/shm/work/PRU/input -o /dev/shm/work/PRU/sync -m 4G -Q -M fuzzer-master -x /dev/shm/work/PRU/PRU.dict -- data/linux/processed-challenges/PRU/bin/PRU\n'
p151
I0
tp152
a(I9120
S'start_time     : 1500209262\nlast_update    : 1500218337\nfuzzer_pid     : 2106\ncycles_done    : 4\nexecs_done     : 9034141\nexecs_per_sec  : 1011.86\npaths_total    : 380\npaths_favored  : 97\npaths_found    : 379\npaths_imported : 0\nmax_depth      : 13\ncur_path       : 176\npending_favs   : 0\npending_total  : 161\nvariable_paths : 0\nbitmap_cvg     : 0.93%\nunique_crashes : 91\nunique_hangs   : 6\nlast_path      : 1500218112\nlast_crash     : 1500217435\nlast_hang      : 1500217336\nexec_timeout   : 20\nafl_banner     : fuzzer-master\nafl_version    : 1.85b\ncommand_line   : /home/skaramcheti/.virtualenvs/afl/bin/afl-unix/afl-fuzz -i /dev/shm/work/PRU/input -o /dev/shm/work/PRU/sync -m 4G -Q -M fuzzer-master -x /dev/shm/work/PRU/PRU.dict -- data/linux/processed-challenges/PRU/bin/PRU\n'
p153
I0
tp154
a(I9240
S'start_time     : 1500209262\nlast_update    : 1500218457\nfuzzer_pid     : 2106\ncycles_done    : 4\nexecs_done     : 9153960\nexecs_per_sec  : 1000.53\npaths_total    : 380\npaths_favored  : 97\npaths_found    : 379\npaths_imported : 0\nmax_depth      : 13\ncur_path       : 196\npending_favs   : 0\npending_total  : 160\nvariable_paths : 0\nbitmap_cvg     : 0.93%\nunique_crashes : 91\nunique_hangs   : 6\nlast_path      : 1500218112\nlast_crash     : 1500217435\nlast_hang      : 1500217336\nexec_timeout   : 20\nafl_banner     : fuzzer-master\nafl_version    : 1.85b\ncommand_line   : /home/skaramcheti/.virtualenvs/afl/bin/afl-unix/afl-fuzz -i /dev/shm/work/PRU/input -o /dev/shm/work/PRU/sync -m 4G -Q -M fuzzer-master -x /dev/shm/work/PRU/PRU.dict -- data/linux/processed-challenges/PRU/bin/PRU\n'
p155
I0
tp156
a(I9360
S'start_time     : 1500209262\nlast_update    : 1500218578\nfuzzer_pid     : 2106\ncycles_done    : 4\nexecs_done     : 9275468\nexecs_per_sec  : 1046.09\npaths_total    : 380\npaths_favored  : 97\npaths_found    : 379\npaths_imported : 0\nmax_depth      : 13\ncur_path       : 224\npending_favs   : 0\npending_total  : 159\nvariable_paths : 0\nbitmap_cvg     : 0.93%\nunique_crashes : 91\nunique_hangs   : 6\nlast_path      : 1500218112\nlast_crash     : 1500217435\nlast_hang      : 1500217336\nexec_timeout   : 20\nafl_banner     : fuzzer-master\nafl_version    : 1.85b\ncommand_line   : /home/skaramcheti/.virtualenvs/afl/bin/afl-unix/afl-fuzz -i /dev/shm/work/PRU/input -o /dev/shm/work/PRU/sync -m 4G -Q -M fuzzer-master -x /dev/shm/work/PRU/PRU.dict -- data/linux/processed-challenges/PRU/bin/PRU\n'
p157
I0
tp158
a(I9480
S'start_time     : 1500209262\nlast_update    : 1500218698\nfuzzer_pid     : 2106\ncycles_done    : 4\nexecs_done     : 9393725\nexecs_per_sec  : 957.77\npaths_total    : 380\npaths_favored  : 97\npaths_found    : 379\npaths_imported : 0\nmax_depth      : 13\ncur_path       : 234\npending_favs   : 0\npending_total  : 158\nvariable_paths : 0\nbitmap_cvg     : 0.93%\nunique_crashes : 92\nunique_hangs   : 6\nlast_path      : 1500218112\nlast_crash     : 1500218666\nlast_hang      : 1500217336\nexec_timeout   : 20\nafl_banner     : fuzzer-master\nafl_version    : 1.85b\ncommand_line   : /home/skaramcheti/.virtualenvs/afl/bin/afl-unix/afl-fuzz -i /dev/shm/work/PRU/input -o /dev/shm/work/PRU/sync -m 4G -Q -M fuzzer-master -x /dev/shm/work/PRU/PRU.dict -- data/linux/processed-challenges/PRU/bin/PRU\n'
p159
I0
tp160
a(I9600
S'start_time     : 1500209262\nlast_update    : 1500218818\nfuzzer_pid     : 2106\ncycles_done    : 4\nexecs_done     : 9511370\nexecs_per_sec  : 1003.22\npaths_total    : 380\npaths_favored  : 97\npaths_found    : 379\npaths_imported : 0\nmax_depth      : 13\ncur_path       : 251\npending_favs   : 0\npending_total  : 157\nvariable_paths : 0\nbitmap_cvg     : 0.93%\nunique_crashes : 92\nunique_hangs   : 6\nlast_path      : 1500218112\nlast_crash     : 1500218666\nlast_hang      : 1500217336\nexec_timeout   : 20\nafl_banner     : fuzzer-master\nafl_version    : 1.85b\ncommand_line   : /home/skaramcheti/.virtualenvs/afl/bin/afl-unix/afl-fuzz -i /dev/shm/work/PRU/input -o /dev/shm/work/PRU/sync -m 4G -Q -M fuzzer-master -x /dev/shm/work/PRU/PRU.dict -- data/linux/processed-challenges/PRU/bin/PRU\n'
p161
I0
tp162
a(I9720
S'start_time     : 1500209262\nlast_update    : 1500218938\nfuzzer_pid     : 2106\ncycles_done    : 4\nexecs_done     : 9632572\nexecs_per_sec  : 996.33\npaths_total    : 380\npaths_favored  : 97\npaths_found    : 379\npaths_imported : 0\nmax_depth      : 13\ncur_path       : 270\npending_favs   : 0\npending_total  : 156\nvariable_paths : 0\nbitmap_cvg     : 0.93%\nunique_crashes : 92\nunique_hangs   : 6\nlast_path      : 1500218112\nlast_crash     : 1500218666\nlast_hang      : 1500217336\nexec_timeout   : 20\nafl_banner     : fuzzer-master\nafl_version    : 1.85b\ncommand_line   : /home/skaramcheti/.virtualenvs/afl/bin/afl-unix/afl-fuzz -i /dev/shm/work/PRU/input -o /dev/shm/work/PRU/sync -m 4G -Q -M fuzzer-master -x /dev/shm/work/PRU/PRU.dict -- data/linux/processed-challenges/PRU/bin/PRU\n'
p163
I0
tp164
a(I9840
S'start_time     : 1500209262\nlast_update    : 1500219058\nfuzzer_pid     : 2106\ncycles_done    : 4\nexecs_done     : 9751212\nexecs_per_sec  : 940.79\npaths_total    : 380\npaths_favored  : 97\npaths_found    : 379\npaths_imported : 0\nmax_depth      : 13\ncur_path       : 296\npending_favs   : 0\npending_total  : 152\nvariable_paths : 0\nbitmap_cvg     : 0.93%\nunique_crashes : 94\nunique_hangs   : 6\nlast_path      : 1500218112\nlast_crash     : 1500219001\nlast_hang      : 1500217336\nexec_timeout   : 20\nafl_banner     : fuzzer-master\nafl_version    : 1.85b\ncommand_line   : /home/skaramcheti/.virtualenvs/afl/bin/afl-unix/afl-fuzz -i /dev/shm/work/PRU/input -o /dev/shm/work/PRU/sync -m 4G -Q -M fuzzer-master -x /dev/shm/work/PRU/PRU.dict -- data/linux/processed-challenges/PRU/bin/PRU\n'
p165
I0
tp166
a(I9960
S'start_time     : 1500209262\nlast_update    : 1500219179\nfuzzer_pid     : 2106\ncycles_done    : 4\nexecs_done     : 9869435\nexecs_per_sec  : 1025.59\npaths_total    : 380\npaths_favored  : 97\npaths_found    : 379\npaths_imported : 0\nmax_depth      : 13\ncur_path       : 300\npending_favs   : 0\npending_total  : 150\nvariable_paths : 0\nbitmap_cvg     : 0.93%\nunique_crashes : 94\nunique_hangs   : 6\nlast_path      : 1500218112\nlast_crash     : 1500219001\nlast_hang      : 1500217336\nexec_timeout   : 20\nafl_banner     : fuzzer-master\nafl_version    : 1.85b\ncommand_line   : /home/skaramcheti/.virtualenvs/afl/bin/afl-unix/afl-fuzz -i /dev/shm/work/PRU/input -o /dev/shm/work/PRU/sync -m 4G -Q -M fuzzer-master -x /dev/shm/work/PRU/PRU.dict -- data/linux/processed-challenges/PRU/bin/PRU\n'
p167
I0
tp168
a(I10080
S'start_time     : 1500209262\nlast_update    : 1500219299\nfuzzer_pid     : 2106\ncycles_done    : 4\nexecs_done     : 9981187\nexecs_per_sec  : 921.38\npaths_total    : 380\npaths_favored  : 97\npaths_found    : 379\npaths_imported : 0\nmax_depth      : 13\ncur_path       : 309\npending_favs   : 0\npending_total  : 146\nvariable_paths : 0\nbitmap_cvg     : 0.93%\nunique_crashes : 94\nunique_hangs   : 6\nlast_path      : 1500218112\nlast_crash     : 1500219001\nlast_hang      : 1500217336\nexec_timeout   : 20\nafl_banner     : fuzzer-master\nafl_version    : 1.85b\ncommand_line   : /home/skaramcheti/.virtualenvs/afl/bin/afl-unix/afl-fuzz -i /dev/shm/work/PRU/input -o /dev/shm/work/PRU/sync -m 4G -Q -M fuzzer-master -x /dev/shm/work/PRU/PRU.dict -- data/linux/processed-challenges/PRU/bin/PRU\n'
p169
I0
tp170
a(I10200
S'start_time     : 1500209262\nlast_update    : 1500219419\nfuzzer_pid     : 2106\ncycles_done    : 4\nexecs_done     : 10093462\nexecs_per_sec  : 1007.62\npaths_total    : 380\npaths_favored  : 97\npaths_found    : 379\npaths_imported : 0\nmax_depth      : 13\ncur_path       : 315\npending_favs   : 0\npending_total  : 144\nvariable_paths : 0\nbitmap_cvg     : 0.93%\nunique_crashes : 94\nunique_hangs   : 6\nlast_path      : 1500218112\nlast_crash     : 1500219001\nlast_hang      : 1500217336\nexec_timeout   : 20\nafl_banner     : fuzzer-master\nafl_version    : 1.85b\ncommand_line   : /home/skaramcheti/.virtualenvs/afl/bin/afl-unix/afl-fuzz -i /dev/shm/work/PRU/input -o /dev/shm/work/PRU/sync -m 4G -Q -M fuzzer-master -x /dev/shm/work/PRU/PRU.dict -- data/linux/processed-challenges/PRU/bin/PRU\n'
p171
I0
tp172
a(I10320
S'start_time     : 1500209262\nlast_update    : 1500219539\nfuzzer_pid     : 2106\ncycles_done    : 4\nexecs_done     : 10209728\nexecs_per_sec  : 714.83\npaths_total    : 380\npaths_favored  : 97\npaths_found    : 379\npaths_imported : 0\nmax_depth      : 13\ncur_path       : 333\npending_favs   : 0\npending_total  : 141\nvariable_paths : 0\nbitmap_cvg     : 0.93%\nunique_crashes : 94\nunique_hangs   : 6\nlast_path      : 1500218112\nlast_crash     : 1500219001\nlast_hang      : 1500217336\nexec_timeout   : 20\nafl_banner     : fuzzer-master\nafl_version    : 1.85b\ncommand_line   : /home/skaramcheti/.virtualenvs/afl/bin/afl-unix/afl-fuzz -i /dev/shm/work/PRU/input -o /dev/shm/work/PRU/sync -m 4G -Q -M fuzzer-master -x /dev/shm/work/PRU/PRU.dict -- data/linux/processed-challenges/PRU/bin/PRU\n'
p173
I0
tp174
a(I10440
S'start_time     : 1500209262\nlast_update    : 1500219660\nfuzzer_pid     : 2106\ncycles_done    : 4\nexecs_done     : 10321740\nexecs_per_sec  : 976.47\npaths_total    : 380\npaths_favored  : 97\npaths_found    : 379\npaths_imported : 0\nmax_depth      : 13\ncur_path       : 342\npending_favs   : 0\npending_total  : 139\nvariable_paths : 0\nbitmap_cvg     : 0.93%\nunique_crashes : 95\nunique_hangs   : 6\nlast_path      : 1500218112\nlast_crash     : 1500219645\nlast_hang      : 1500217336\nexec_timeout   : 20\nafl_banner     : fuzzer-master\nafl_version    : 1.85b\ncommand_line   : /home/skaramcheti/.virtualenvs/afl/bin/afl-unix/afl-fuzz -i /dev/shm/work/PRU/input -o /dev/shm/work/PRU/sync -m 4G -Q -M fuzzer-master -x /dev/shm/work/PRU/PRU.dict -- data/linux/processed-challenges/PRU/bin/PRU\n'
p175
I0
tp176
a(I10560
S'start_time     : 1500209262\nlast_update    : 1500219780\nfuzzer_pid     : 2106\ncycles_done    : 4\nexecs_done     : 10428295\nexecs_per_sec  : 974.05\npaths_total    : 380\npaths_favored  : 97\npaths_found    : 379\npaths_imported : 0\nmax_depth      : 13\ncur_path       : 348\npending_favs   : 0\npending_total  : 137\nvariable_paths : 0\nbitmap_cvg     : 0.93%\nunique_crashes : 95\nunique_hangs   : 6\nlast_path      : 1500218112\nlast_crash     : 1500219645\nlast_hang      : 1500217336\nexec_timeout   : 20\nafl_banner     : fuzzer-master\nafl_version    : 1.85b\ncommand_line   : /home/skaramcheti/.virtualenvs/afl/bin/afl-unix/afl-fuzz -i /dev/shm/work/PRU/input -o /dev/shm/work/PRU/sync -m 4G -Q -M fuzzer-master -x /dev/shm/work/PRU/PRU.dict -- data/linux/processed-challenges/PRU/bin/PRU\n'
p177
I0
tp178
a(I10680
S'start_time     : 1500209262\nlast_update    : 1500219900\nfuzzer_pid     : 2106\ncycles_done    : 4\nexecs_done     : 10537734\nexecs_per_sec  : 995.04\npaths_total    : 380\npaths_favored  : 97\npaths_found    : 379\npaths_imported : 0\nmax_depth      : 13\ncur_path       : 355\npending_favs   : 0\npending_total  : 135\nvariable_paths : 0\nbitmap_cvg     : 0.93%\nunique_crashes : 95\nunique_hangs   : 6\nlast_path      : 1500218112\nlast_crash     : 1500219645\nlast_hang      : 1500217336\nexec_timeout   : 20\nafl_banner     : fuzzer-master\nafl_version    : 1.85b\ncommand_line   : /home/skaramcheti/.virtualenvs/afl/bin/afl-unix/afl-fuzz -i /dev/shm/work/PRU/input -o /dev/shm/work/PRU/sync -m 4G -Q -M fuzzer-master -x /dev/shm/work/PRU/PRU.dict -- data/linux/processed-challenges/PRU/bin/PRU\n'
p179
I0
tp180
a.