(lp0
(I0
S'start_time     : 1500371786\nlast_update    : 1500371787\nfuzzer_pid     : 8879\ncycles_done    : 0\nexecs_done     : 10\nexecs_per_sec  : 129.87\npaths_total    : 1\npaths_favored  : 1\npaths_found    : 0\npaths_imported : 0\nmax_depth      : 1\ncur_path       : 0\npending_favs   : 1\npending_total  : 1\nvariable_paths : 0\nbitmap_cvg     : 1.28%\nunique_crashes : 0\nunique_hangs   : 0\nlast_path      : 0\nlast_crash     : 0\nlast_hang      : 0\nexec_timeout   : 20\nafl_banner     : fuzzer-master\nafl_version    : 1.85b\ncommand_line   : /home/skaramcheti/.virtualenvs/afl/bin/afl-unix/afl-fuzz -i /dev/shm/work/Water_Treatment_Facility_Simulator/input -o /dev/shm/work/Water_Treatment_Facility_Simulator/sync -m 4G -Q -M fuzzer-master -x /dev/shm/work/Water_Treatment_Facility_Simulator/Water_Treatment_Facility_Simulator.dict -- data/linux/processed-challenges/Water_Treatment_Facility_Simulator/bin/Water_Treatment_Facility_Simulator\n'
p1
I32
tp2
a(I120
S'start_time     : 1500371786\nlast_update    : 1500371907\nfuzzer_pid     : 8879\ncycles_done    : 0\nexecs_done     : 47900\nexecs_per_sec  : 395.38\npaths_total    : 48\npaths_favored  : 1\npaths_found    : 47\npaths_imported : 0\nmax_depth      : 2\ncur_path       : 0\npending_favs   : 1\npending_total  : 48\nvariable_paths : 0\nbitmap_cvg     : 1.36%\nunique_crashes : 0\nunique_hangs   : 0\nlast_path      : 1500371902\nlast_crash     : 0\nlast_hang      : 0\nexec_timeout   : 20\nafl_banner     : fuzzer-master\nafl_version    : 1.85b\ncommand_line   : /home/skaramcheti/.virtualenvs/afl/bin/afl-unix/afl-fuzz -i /dev/shm/work/Water_Treatment_Facility_Simulator/input -o /dev/shm/work/Water_Treatment_Facility_Simulator/sync -m 4G -Q -M fuzzer-master -x /dev/shm/work/Water_Treatment_Facility_Simulator/Water_Treatment_Facility_Simulator.dict -- data/linux/processed-challenges/Water_Treatment_Facility_Simulator/bin/Water_Treatment_Facility_Simulator\n'
p3
I16
tp4
a(I240
S'start_time     : 1500371786\nlast_update    : 1500372027\nfuzzer_pid     : 8879\ncycles_done    : 0\nexecs_done     : 96020\nexecs_per_sec  : 396.48\npaths_total    : 51\npaths_favored  : 1\npaths_found    : 50\npaths_imported : 0\nmax_depth      : 2\ncur_path       : 0\npending_favs   : 1\npending_total  : 51\nvariable_paths : 0\nbitmap_cvg     : 1.39%\nunique_crashes : 0\nunique_hangs   : 1\nlast_path      : 1500372016\nlast_crash     : 0\nlast_hang      : 1500371975\nexec_timeout   : 20\nafl_banner     : fuzzer-master\nafl_version    : 1.85b\ncommand_line   : /home/skaramcheti/.virtualenvs/afl/bin/afl-unix/afl-fuzz -i /dev/shm/work/Water_Treatment_Facility_Simulator/input -o /dev/shm/work/Water_Treatment_Facility_Simulator/sync -m 4G -Q -M fuzzer-master -x /dev/shm/work/Water_Treatment_Facility_Simulator/Water_Treatment_Facility_Simulator.dict -- data/linux/processed-challenges/Water_Treatment_Facility_Simulator/bin/Water_Treatment_Facility_Simulator\n'
p5
I3
tp6
a(I360
S'start_time     : 1500371786\nlast_update    : 1500372147\nfuzzer_pid     : 8879\ncycles_done    : 0\nexecs_done     : 144005\nexecs_per_sec  : 401.54\npaths_total    : 52\npaths_favored  : 1\npaths_found    : 51\npaths_imported : 0\nmax_depth      : 2\ncur_path       : 0\npending_favs   : 1\npending_total  : 52\nvariable_paths : 0\nbitmap_cvg     : 1.39%\nunique_crashes : 0\nunique_hangs   : 1\nlast_path      : 1500372079\nlast_crash     : 0\nlast_hang      : 1500371975\nexec_timeout   : 20\nafl_banner     : fuzzer-master\nafl_version    : 1.85b\ncommand_line   : /home/skaramcheti/.virtualenvs/afl/bin/afl-unix/afl-fuzz -i /dev/shm/work/Water_Treatment_Facility_Simulator/input -o /dev/shm/work/Water_Treatment_Facility_Simulator/sync -m 4G -Q -M fuzzer-master -x /dev/shm/work/Water_Treatment_Facility_Simulator/Water_Treatment_Facility_Simulator.dict -- data/linux/processed-challenges/Water_Treatment_Facility_Simulator/bin/Water_Treatment_Facility_Simulator\n'
p7
I1
tp8
a(I480
S'start_time     : 1500371786\nlast_update    : 1500372267\nfuzzer_pid     : 8879\ncycles_done    : 0\nexecs_done     : 192169\nexecs_per_sec  : 399.17\npaths_total    : 58\npaths_favored  : 9\npaths_found    : 57\npaths_imported : 0\nmax_depth      : 3\ncur_path       : 40\npending_favs   : 8\npending_total  : 56\nvariable_paths : 0\nbitmap_cvg     : 1.51%\nunique_crashes : 0\nunique_hangs   : 1\nlast_path      : 1500372264\nlast_crash     : 0\nlast_hang      : 1500371975\nexec_timeout   : 20\nafl_banner     : fuzzer-master\nafl_version    : 1.85b\ncommand_line   : /home/skaramcheti/.virtualenvs/afl/bin/afl-unix/afl-fuzz -i /dev/shm/work/Water_Treatment_Facility_Simulator/input -o /dev/shm/work/Water_Treatment_Facility_Simulator/sync -m 4G -Q -M fuzzer-master -x /dev/shm/work/Water_Treatment_Facility_Simulator/Water_Treatment_Facility_Simulator.dict -- data/linux/processed-challenges/Water_Treatment_Facility_Simulator/bin/Water_Treatment_Facility_Simulator\n'
p9
I6
tp10
a(I600
S'start_time     : 1500371786\nlast_update    : 1500372388\nfuzzer_pid     : 8879\ncycles_done    : 0\nexecs_done     : 240462\nexecs_per_sec  : 395.45\npaths_total    : 58\npaths_favored  : 9\npaths_found    : 57\npaths_imported : 0\nmax_depth      : 3\ncur_path       : 40\npending_favs   : 8\npending_total  : 56\nvariable_paths : 0\nbitmap_cvg     : 1.51%\nunique_crashes : 0\nunique_hangs   : 1\nlast_path      : 1500372264\nlast_crash     : 0\nlast_hang      : 1500371975\nexec_timeout   : 20\nafl_banner     : fuzzer-master\nafl_version    : 1.85b\ncommand_line   : /home/skaramcheti/.virtualenvs/afl/bin/afl-unix/afl-fuzz -i /dev/shm/work/Water_Treatment_Facility_Simulator/input -o /dev/shm/work/Water_Treatment_Facility_Simulator/sync -m 4G -Q -M fuzzer-master -x /dev/shm/work/Water_Treatment_Facility_Simulator/Water_Treatment_Facility_Simulator.dict -- data/linux/processed-challenges/Water_Treatment_Facility_Simulator/bin/Water_Treatment_Facility_Simulator\n'
p11
I0
tp12
a(I720
S'start_time     : 1500371786\nlast_update    : 1500372508\nfuzzer_pid     : 8879\ncycles_done    : 0\nexecs_done     : 288345\nexecs_per_sec  : 395.64\npaths_total    : 70\npaths_favored  : 12\npaths_found    : 69\npaths_imported : 0\nmax_depth      : 3\ncur_path       : 41\npending_favs   : 10\npending_total  : 67\nvariable_paths : 0\nbitmap_cvg     : 1.60%\nunique_crashes : 0\nunique_hangs   : 1\nlast_path      : 1500372499\nlast_crash     : 0\nlast_hang      : 1500371975\nexec_timeout   : 20\nafl_banner     : fuzzer-master\nafl_version    : 1.85b\ncommand_line   : /home/skaramcheti/.virtualenvs/afl/bin/afl-unix/afl-fuzz -i /dev/shm/work/Water_Treatment_Facility_Simulator/input -o /dev/shm/work/Water_Treatment_Facility_Simulator/sync -m 4G -Q -M fuzzer-master -x /dev/shm/work/Water_Treatment_Facility_Simulator/Water_Treatment_Facility_Simulator.dict -- data/linux/processed-challenges/Water_Treatment_Facility_Simulator/bin/Water_Treatment_Facility_Simulator\n'
p13
I14
tp14
a(I840
S'start_time     : 1500371786\nlast_update    : 1500372628\nfuzzer_pid     : 8879\ncycles_done    : 0\nexecs_done     : 336213\nexecs_per_sec  : 401.77\npaths_total    : 79\npaths_favored  : 12\npaths_found    : 78\npaths_imported : 0\nmax_depth      : 3\ncur_path       : 41\npending_favs   : 10\npending_total  : 76\nvariable_paths : 0\nbitmap_cvg     : 1.64%\nunique_crashes : 0\nunique_hangs   : 1\nlast_path      : 1500372617\nlast_crash     : 0\nlast_hang      : 1500371975\nexec_timeout   : 20\nafl_banner     : fuzzer-master\nafl_version    : 1.85b\ncommand_line   : /home/skaramcheti/.virtualenvs/afl/bin/afl-unix/afl-fuzz -i /dev/shm/work/Water_Treatment_Facility_Simulator/input -o /dev/shm/work/Water_Treatment_Facility_Simulator/sync -m 4G -Q -M fuzzer-master -x /dev/shm/work/Water_Treatment_Facility_Simulator/Water_Treatment_Facility_Simulator.dict -- data/linux/processed-challenges/Water_Treatment_Facility_Simulator/bin/Water_Treatment_Facility_Simulator\n'
p15
I7
tp16
a(I960
S'start_time     : 1500371786\nlast_update    : 1500372748\nfuzzer_pid     : 8879\ncycles_done    : 0\nexecs_done     : 383890\nexecs_per_sec  : 394.39\npaths_total    : 80\npaths_favored  : 12\npaths_found    : 79\npaths_imported : 0\nmax_depth      : 3\ncur_path       : 41\npending_favs   : 10\npending_total  : 77\nvariable_paths : 0\nbitmap_cvg     : 1.67%\nunique_crashes : 0\nunique_hangs   : 1\nlast_path      : 1500372710\nlast_crash     : 0\nlast_hang      : 1500371975\nexec_timeout   : 20\nafl_banner     : fuzzer-master\nafl_version    : 1.85b\ncommand_line   : /home/skaramcheti/.virtualenvs/afl/bin/afl-unix/afl-fuzz -i /dev/shm/work/Water_Treatment_Facility_Simulator/input -o /dev/shm/work/Water_Treatment_Facility_Simulator/sync -m 4G -Q -M fuzzer-master -x /dev/shm/work/Water_Treatment_Facility_Simulator/Water_Treatment_Facility_Simulator.dict -- data/linux/processed-challenges/Water_Treatment_Facility_Simulator/bin/Water_Treatment_Facility_Simulator\n'
p17
I1
tp18
a(I1080
S'start_time     : 1500371786\nlast_update    : 1500372869\nfuzzer_pid     : 8879\ncycles_done    : 0\nexecs_done     : 431146\nexecs_per_sec  : 396.04\npaths_total    : 88\npaths_favored  : 22\npaths_found    : 87\npaths_imported : 0\nmax_depth      : 4\ncur_path       : 56\npending_favs   : 19\npending_total  : 83\nvariable_paths : 0\nbitmap_cvg     : 1.69%\nunique_crashes : 0\nunique_hangs   : 1\nlast_path      : 1500372864\nlast_crash     : 0\nlast_hang      : 1500371975\nexec_timeout   : 20\nafl_banner     : fuzzer-master\nafl_version    : 1.85b\ncommand_line   : /home/skaramcheti/.virtualenvs/afl/bin/afl-unix/afl-fuzz -i /dev/shm/work/Water_Treatment_Facility_Simulator/input -o /dev/shm/work/Water_Treatment_Facility_Simulator/sync -m 4G -Q -M fuzzer-master -x /dev/shm/work/Water_Treatment_Facility_Simulator/Water_Treatment_Facility_Simulator.dict -- data/linux/processed-challenges/Water_Treatment_Facility_Simulator/bin/Water_Treatment_Facility_Simulator\n'
p19
I8
tp20
a(I1200
S'start_time     : 1500371786\nlast_update    : 1500372989\nfuzzer_pid     : 8879\ncycles_done    : 0\nexecs_done     : 479455\nexecs_per_sec  : 396.22\npaths_total    : 98\npaths_favored  : 22\npaths_found    : 97\npaths_imported : 0\nmax_depth      : 4\ncur_path       : 56\npending_favs   : 19\npending_total  : 93\nvariable_paths : 0\nbitmap_cvg     : 1.70%\nunique_crashes : 0\nunique_hangs   : 1\nlast_path      : 1500372985\nlast_crash     : 0\nlast_hang      : 1500371975\nexec_timeout   : 20\nafl_banner     : fuzzer-master\nafl_version    : 1.85b\ncommand_line   : /home/skaramcheti/.virtualenvs/afl/bin/afl-unix/afl-fuzz -i /dev/shm/work/Water_Treatment_Facility_Simulator/input -o /dev/shm/work/Water_Treatment_Facility_Simulator/sync -m 4G -Q -M fuzzer-master -x /dev/shm/work/Water_Treatment_Facility_Simulator/Water_Treatment_Facility_Simulator.dict -- data/linux/processed-challenges/Water_Treatment_Facility_Simulator/bin/Water_Treatment_Facility_Simulator\n'
p21
I10
tp22
a(I1320
S'start_time     : 1500371786\nlast_update    : 1500373109\nfuzzer_pid     : 8879\ncycles_done    : 0\nexecs_done     : 526620\nexecs_per_sec  : 391.96\npaths_total    : 100\npaths_favored  : 22\npaths_found    : 99\npaths_imported : 0\nmax_depth      : 4\ncur_path       : 56\npending_favs   : 19\npending_total  : 95\nvariable_paths : 0\nbitmap_cvg     : 1.71%\nunique_crashes : 0\nunique_hangs   : 1\nlast_path      : 1500373082\nlast_crash     : 0\nlast_hang      : 1500371975\nexec_timeout   : 20\nafl_banner     : fuzzer-master\nafl_version    : 1.85b\ncommand_line   : /home/skaramcheti/.virtualenvs/afl/bin/afl-unix/afl-fuzz -i /dev/shm/work/Water_Treatment_Facility_Simulator/input -o /dev/shm/work/Water_Treatment_Facility_Simulator/sync -m 4G -Q -M fuzzer-master -x /dev/shm/work/Water_Treatment_Facility_Simulator/Water_Treatment_Facility_Simulator.dict -- data/linux/processed-challenges/Water_Treatment_Facility_Simulator/bin/Water_Treatment_Facility_Simulator\n'
p23
I2
tp24
a(I1440
S'start_time     : 1500371786\nlast_update    : 1500373229\nfuzzer_pid     : 8879\ncycles_done    : 0\nexecs_done     : 574467\nexecs_per_sec  : 401.89\npaths_total    : 103\npaths_favored  : 22\npaths_found    : 102\npaths_imported : 0\nmax_depth      : 4\ncur_path       : 56\npending_favs   : 19\npending_total  : 98\nvariable_paths : 0\nbitmap_cvg     : 1.71%\nunique_crashes : 0\nunique_hangs   : 1\nlast_path      : 1500373186\nlast_crash     : 0\nlast_hang      : 1500371975\nexec_timeout   : 20\nafl_banner     : fuzzer-master\nafl_version    : 1.85b\ncommand_line   : /home/skaramcheti/.virtualenvs/afl/bin/afl-unix/afl-fuzz -i /dev/shm/work/Water_Treatment_Facility_Simulator/input -o /dev/shm/work/Water_Treatment_Facility_Simulator/sync -m 4G -Q -M fuzzer-master -x /dev/shm/work/Water_Treatment_Facility_Simulator/Water_Treatment_Facility_Simulator.dict -- data/linux/processed-challenges/Water_Treatment_Facility_Simulator/bin/Water_Treatment_Facility_Simulator\n'
p25
I3
tp26
a(I1560
S'start_time     : 1500371786\nlast_update    : 1500373349\nfuzzer_pid     : 8879\ncycles_done    : 0\nexecs_done     : 622432\nexecs_per_sec  : 402.51\npaths_total    : 112\npaths_favored  : 27\npaths_found    : 111\npaths_imported : 0\nmax_depth      : 4\ncur_path       : 58\npending_favs   : 24\npending_total  : 106\nvariable_paths : 0\nbitmap_cvg     : 1.74%\nunique_crashes : 0\nunique_hangs   : 1\nlast_path      : 1500373348\nlast_crash     : 0\nlast_hang      : 1500371975\nexec_timeout   : 20\nafl_banner     : fuzzer-master\nafl_version    : 1.85b\ncommand_line   : /home/skaramcheti/.virtualenvs/afl/bin/afl-unix/afl-fuzz -i /dev/shm/work/Water_Treatment_Facility_Simulator/input -o /dev/shm/work/Water_Treatment_Facility_Simulator/sync -m 4G -Q -M fuzzer-master -x /dev/shm/work/Water_Treatment_Facility_Simulator/Water_Treatment_Facility_Simulator.dict -- data/linux/processed-challenges/Water_Treatment_Facility_Simulator/bin/Water_Treatment_Facility_Simulator\n'
p27
I9
tp28
a(I1680
S'start_time     : 1500371786\nlast_update    : 1500373469\nfuzzer_pid     : 8879\ncycles_done    : 0\nexecs_done     : 670231\nexecs_per_sec  : 390.82\npaths_total    : 120\npaths_favored  : 27\npaths_found    : 119\npaths_imported : 0\nmax_depth      : 4\ncur_path       : 58\npending_favs   : 24\npending_total  : 114\nvariable_paths : 0\nbitmap_cvg     : 1.76%\nunique_crashes : 0\nunique_hangs   : 1\nlast_path      : 1500373460\nlast_crash     : 0\nlast_hang      : 1500371975\nexec_timeout   : 20\nafl_banner     : fuzzer-master\nafl_version    : 1.85b\ncommand_line   : /home/skaramcheti/.virtualenvs/afl/bin/afl-unix/afl-fuzz -i /dev/shm/work/Water_Treatment_Facility_Simulator/input -o /dev/shm/work/Water_Treatment_Facility_Simulator/sync -m 4G -Q -M fuzzer-master -x /dev/shm/work/Water_Treatment_Facility_Simulator/Water_Treatment_Facility_Simulator.dict -- data/linux/processed-challenges/Water_Treatment_Facility_Simulator/bin/Water_Treatment_Facility_Simulator\n'
p29
I8
tp30
a(I1800
S'start_time     : 1500371786\nlast_update    : 1500373590\nfuzzer_pid     : 8879\ncycles_done    : 0\nexecs_done     : 717828\nexecs_per_sec  : 394.27\npaths_total    : 126\npaths_favored  : 27\npaths_found    : 125\npaths_imported : 0\nmax_depth      : 4\ncur_path       : 58\npending_favs   : 24\npending_total  : 120\nvariable_paths : 0\nbitmap_cvg     : 1.78%\nunique_crashes : 0\nunique_hangs   : 1\nlast_path      : 1500373514\nlast_crash     : 0\nlast_hang      : 1500371975\nexec_timeout   : 20\nafl_banner     : fuzzer-master\nafl_version    : 1.85b\ncommand_line   : /home/skaramcheti/.virtualenvs/afl/bin/afl-unix/afl-fuzz -i /dev/shm/work/Water_Treatment_Facility_Simulator/input -o /dev/shm/work/Water_Treatment_Facility_Simulator/sync -m 4G -Q -M fuzzer-master -x /dev/shm/work/Water_Treatment_Facility_Simulator/Water_Treatment_Facility_Simulator.dict -- data/linux/processed-challenges/Water_Treatment_Facility_Simulator/bin/Water_Treatment_Facility_Simulator\n'
p31
I6
tp32
a(I1920
S'start_time     : 1500371786\nlast_update    : 1500373710\nfuzzer_pid     : 8879\ncycles_done    : 0\nexecs_done     : 764617\nexecs_per_sec  : 388.82\npaths_total    : 141\npaths_favored  : 35\npaths_found    : 140\npaths_imported : 0\nmax_depth      : 4\ncur_path       : 59\npending_favs   : 32\npending_total  : 134\nvariable_paths : 0\nbitmap_cvg     : 1.80%\nunique_crashes : 0\nunique_hangs   : 1\nlast_path      : 1500373708\nlast_crash     : 0\nlast_hang      : 1500371975\nexec_timeout   : 20\nafl_banner     : fuzzer-master\nafl_version    : 1.85b\ncommand_line   : /home/skaramcheti/.virtualenvs/afl/bin/afl-unix/afl-fuzz -i /dev/shm/work/Water_Treatment_Facility_Simulator/input -o /dev/shm/work/Water_Treatment_Facility_Simulator/sync -m 4G -Q -M fuzzer-master -x /dev/shm/work/Water_Treatment_Facility_Simulator/Water_Treatment_Facility_Simulator.dict -- data/linux/processed-challenges/Water_Treatment_Facility_Simulator/bin/Water_Treatment_Facility_Simulator\n'
p33
I15
tp34
a(I2040
S'start_time     : 1500371786\nlast_update    : 1500373830\nfuzzer_pid     : 8879\ncycles_done    : 0\nexecs_done     : 811186\nexecs_per_sec  : 382.98\npaths_total    : 145\npaths_favored  : 35\npaths_found    : 144\npaths_imported : 0\nmax_depth      : 4\ncur_path       : 59\npending_favs   : 32\npending_total  : 138\nvariable_paths : 0\nbitmap_cvg     : 1.81%\nunique_crashes : 0\nunique_hangs   : 1\nlast_path      : 1500373806\nlast_crash     : 0\nlast_hang      : 1500371975\nexec_timeout   : 20\nafl_banner     : fuzzer-master\nafl_version    : 1.85b\ncommand_line   : /home/skaramcheti/.virtualenvs/afl/bin/afl-unix/afl-fuzz -i /dev/shm/work/Water_Treatment_Facility_Simulator/input -o /dev/shm/work/Water_Treatment_Facility_Simulator/sync -m 4G -Q -M fuzzer-master -x /dev/shm/work/Water_Treatment_Facility_Simulator/Water_Treatment_Facility_Simulator.dict -- data/linux/processed-challenges/Water_Treatment_Facility_Simulator/bin/Water_Treatment_Facility_Simulator\n'
p35
I4
tp36
a(I2160
S'start_time     : 1500371786\nlast_update    : 1500373950\nfuzzer_pid     : 8879\ncycles_done    : 0\nexecs_done     : 857611\nexecs_per_sec  : 394.15\npaths_total    : 150\npaths_favored  : 35\npaths_found    : 149\npaths_imported : 0\nmax_depth      : 4\ncur_path       : 59\npending_favs   : 32\npending_total  : 143\nvariable_paths : 0\nbitmap_cvg     : 1.82%\nunique_crashes : 0\nunique_hangs   : 1\nlast_path      : 1500373904\nlast_crash     : 0\nlast_hang      : 1500371975\nexec_timeout   : 20\nafl_banner     : fuzzer-master\nafl_version    : 1.85b\ncommand_line   : /home/skaramcheti/.virtualenvs/afl/bin/afl-unix/afl-fuzz -i /dev/shm/work/Water_Treatment_Facility_Simulator/input -o /dev/shm/work/Water_Treatment_Facility_Simulator/sync -m 4G -Q -M fuzzer-master -x /dev/shm/work/Water_Treatment_Facility_Simulator/Water_Treatment_Facility_Simulator.dict -- data/linux/processed-challenges/Water_Treatment_Facility_Simulator/bin/Water_Treatment_Facility_Simulator\n'
p37
I5
tp38
a(I2280
S'start_time     : 1500371786\nlast_update    : 1500374070\nfuzzer_pid     : 8879\ncycles_done    : 0\nexecs_done     : 904117\nexecs_per_sec  : 391.70\npaths_total    : 154\npaths_favored  : 35\npaths_found    : 153\npaths_imported : 0\nmax_depth      : 4\ncur_path       : 59\npending_favs   : 32\npending_total  : 147\nvariable_paths : 0\nbitmap_cvg     : 1.83%\nunique_crashes : 0\nunique_hangs   : 1\nlast_path      : 1500374064\nlast_crash     : 0\nlast_hang      : 1500371975\nexec_timeout   : 20\nafl_banner     : fuzzer-master\nafl_version    : 1.85b\ncommand_line   : /home/skaramcheti/.virtualenvs/afl/bin/afl-unix/afl-fuzz -i /dev/shm/work/Water_Treatment_Facility_Simulator/input -o /dev/shm/work/Water_Treatment_Facility_Simulator/sync -m 4G -Q -M fuzzer-master -x /dev/shm/work/Water_Treatment_Facility_Simulator/Water_Treatment_Facility_Simulator.dict -- data/linux/processed-challenges/Water_Treatment_Facility_Simulator/bin/Water_Treatment_Facility_Simulator\n'
p39
I4
tp40
a(I2400
S'start_time     : 1500371786\nlast_update    : 1500374190\nfuzzer_pid     : 8879\ncycles_done    : 0\nexecs_done     : 950521\nexecs_per_sec  : 397.39\npaths_total    : 167\npaths_favored  : 44\npaths_found    : 166\npaths_imported : 0\nmax_depth      : 4\ncur_path       : 61\npending_favs   : 40\npending_total  : 159\nvariable_paths : 0\nbitmap_cvg     : 1.85%\nunique_crashes : 0\nunique_hangs   : 1\nlast_path      : 1500374172\nlast_crash     : 0\nlast_hang      : 1500371975\nexec_timeout   : 20\nafl_banner     : fuzzer-master\nafl_version    : 1.85b\ncommand_line   : /home/skaramcheti/.virtualenvs/afl/bin/afl-unix/afl-fuzz -i /dev/shm/work/Water_Treatment_Facility_Simulator/input -o /dev/shm/work/Water_Treatment_Facility_Simulator/sync -m 4G -Q -M fuzzer-master -x /dev/shm/work/Water_Treatment_Facility_Simulator/Water_Treatment_Facility_Simulator.dict -- data/linux/processed-challenges/Water_Treatment_Facility_Simulator/bin/Water_Treatment_Facility_Simulator\n'
p41
I13
tp42
a(I2520
S'start_time     : 1500371786\nlast_update    : 1500374311\nfuzzer_pid     : 8879\ncycles_done    : 0\nexecs_done     : 997576\nexecs_per_sec  : 387.71\npaths_total    : 172\npaths_favored  : 44\npaths_found    : 171\npaths_imported : 0\nmax_depth      : 4\ncur_path       : 61\npending_favs   : 40\npending_total  : 164\nvariable_paths : 0\nbitmap_cvg     : 1.89%\nunique_crashes : 0\nunique_hangs   : 1\nlast_path      : 1500374302\nlast_crash     : 0\nlast_hang      : 1500371975\nexec_timeout   : 20\nafl_banner     : fuzzer-master\nafl_version    : 1.85b\ncommand_line   : /home/skaramcheti/.virtualenvs/afl/bin/afl-unix/afl-fuzz -i /dev/shm/work/Water_Treatment_Facility_Simulator/input -o /dev/shm/work/Water_Treatment_Facility_Simulator/sync -m 4G -Q -M fuzzer-master -x /dev/shm/work/Water_Treatment_Facility_Simulator/Water_Treatment_Facility_Simulator.dict -- data/linux/processed-challenges/Water_Treatment_Facility_Simulator/bin/Water_Treatment_Facility_Simulator\n'
p43
I5
tp44
a(I2640
S'start_time     : 1500371786\nlast_update    : 1500374431\nfuzzer_pid     : 8879\ncycles_done    : 0\nexecs_done     : 1044499\nexecs_per_sec  : 390.43\npaths_total    : 175\npaths_favored  : 44\npaths_found    : 174\npaths_imported : 0\nmax_depth      : 4\ncur_path       : 61\npending_favs   : 40\npending_total  : 167\nvariable_paths : 0\nbitmap_cvg     : 1.90%\nunique_crashes : 0\nunique_hangs   : 1\nlast_path      : 1500374394\nlast_crash     : 0\nlast_hang      : 1500371975\nexec_timeout   : 20\nafl_banner     : fuzzer-master\nafl_version    : 1.85b\ncommand_line   : /home/skaramcheti/.virtualenvs/afl/bin/afl-unix/afl-fuzz -i /dev/shm/work/Water_Treatment_Facility_Simulator/input -o /dev/shm/work/Water_Treatment_Facility_Simulator/sync -m 4G -Q -M fuzzer-master -x /dev/shm/work/Water_Treatment_Facility_Simulator/Water_Treatment_Facility_Simulator.dict -- data/linux/processed-challenges/Water_Treatment_Facility_Simulator/bin/Water_Treatment_Facility_Simulator\n'
p45
I3
tp46
a(I2760
S'start_time     : 1500371786\nlast_update    : 1500374551\nfuzzer_pid     : 8879\ncycles_done    : 0\nexecs_done     : 1091123\nexecs_per_sec  : 385.79\npaths_total    : 193\npaths_favored  : 54\npaths_found    : 192\npaths_imported : 0\nmax_depth      : 4\ncur_path       : 63\npending_favs   : 49\npending_total  : 184\nvariable_paths : 0\nbitmap_cvg     : 1.93%\nunique_crashes : 0\nunique_hangs   : 1\nlast_path      : 1500374548\nlast_crash     : 0\nlast_hang      : 1500371975\nexec_timeout   : 20\nafl_banner     : fuzzer-master\nafl_version    : 1.85b\ncommand_line   : /home/skaramcheti/.virtualenvs/afl/bin/afl-unix/afl-fuzz -i /dev/shm/work/Water_Treatment_Facility_Simulator/input -o /dev/shm/work/Water_Treatment_Facility_Simulator/sync -m 4G -Q -M fuzzer-master -x /dev/shm/work/Water_Treatment_Facility_Simulator/Water_Treatment_Facility_Simulator.dict -- data/linux/processed-challenges/Water_Treatment_Facility_Simulator/bin/Water_Treatment_Facility_Simulator\n'
p47
I18
tp48
a(I2880
S'start_time     : 1500371786\nlast_update    : 1500374671\nfuzzer_pid     : 8879\ncycles_done    : 0\nexecs_done     : 1137701\nexecs_per_sec  : 385.14\npaths_total    : 200\npaths_favored  : 54\npaths_found    : 199\npaths_imported : 0\nmax_depth      : 4\ncur_path       : 63\npending_favs   : 49\npending_total  : 191\nvariable_paths : 0\nbitmap_cvg     : 1.94%\nunique_crashes : 0\nunique_hangs   : 1\nlast_path      : 1500374660\nlast_crash     : 0\nlast_hang      : 1500371975\nexec_timeout   : 20\nafl_banner     : fuzzer-master\nafl_version    : 1.85b\ncommand_line   : /home/skaramcheti/.virtualenvs/afl/bin/afl-unix/afl-fuzz -i /dev/shm/work/Water_Treatment_Facility_Simulator/input -o /dev/shm/work/Water_Treatment_Facility_Simulator/sync -m 4G -Q -M fuzzer-master -x /dev/shm/work/Water_Treatment_Facility_Simulator/Water_Treatment_Facility_Simulator.dict -- data/linux/processed-challenges/Water_Treatment_Facility_Simulator/bin/Water_Treatment_Facility_Simulator\n'
p49
I7
tp50
a(I3000
S'start_time     : 1500371786\nlast_update    : 1500374792\nfuzzer_pid     : 8879\ncycles_done    : 0\nexecs_done     : 1184552\nexecs_per_sec  : 384.50\npaths_total    : 207\npaths_favored  : 54\npaths_found    : 206\npaths_imported : 0\nmax_depth      : 4\ncur_path       : 63\npending_favs   : 49\npending_total  : 198\nvariable_paths : 0\nbitmap_cvg     : 1.95%\nunique_crashes : 0\nunique_hangs   : 1\nlast_path      : 1500374749\nlast_crash     : 0\nlast_hang      : 1500371975\nexec_timeout   : 20\nafl_banner     : fuzzer-master\nafl_version    : 1.85b\ncommand_line   : /home/skaramcheti/.virtualenvs/afl/bin/afl-unix/afl-fuzz -i /dev/shm/work/Water_Treatment_Facility_Simulator/input -o /dev/shm/work/Water_Treatment_Facility_Simulator/sync -m 4G -Q -M fuzzer-master -x /dev/shm/work/Water_Treatment_Facility_Simulator/Water_Treatment_Facility_Simulator.dict -- data/linux/processed-challenges/Water_Treatment_Facility_Simulator/bin/Water_Treatment_Facility_Simulator\n'
p51
I7
tp52
a(I3120
S'start_time     : 1500371786\nlast_update    : 1500374912\nfuzzer_pid     : 8879\ncycles_done    : 0\nexecs_done     : 1231341\nexecs_per_sec  : 385.47\npaths_total    : 212\npaths_favored  : 54\npaths_found    : 211\npaths_imported : 0\nmax_depth      : 4\ncur_path       : 63\npending_favs   : 49\npending_total  : 203\nvariable_paths : 0\nbitmap_cvg     : 1.97%\nunique_crashes : 0\nunique_hangs   : 1\nlast_path      : 1500374865\nlast_crash     : 0\nlast_hang      : 1500371975\nexec_timeout   : 20\nafl_banner     : fuzzer-master\nafl_version    : 1.85b\ncommand_line   : /home/skaramcheti/.virtualenvs/afl/bin/afl-unix/afl-fuzz -i /dev/shm/work/Water_Treatment_Facility_Simulator/input -o /dev/shm/work/Water_Treatment_Facility_Simulator/sync -m 4G -Q -M fuzzer-master -x /dev/shm/work/Water_Treatment_Facility_Simulator/Water_Treatment_Facility_Simulator.dict -- data/linux/processed-challenges/Water_Treatment_Facility_Simulator/bin/Water_Treatment_Facility_Simulator\n'
p53
I5
tp54
a(I3240
S'start_time     : 1500371786\nlast_update    : 1500375032\nfuzzer_pid     : 8879\ncycles_done    : 0\nexecs_done     : 1277712\nexecs_per_sec  : 393.13\npaths_total    : 226\npaths_favored  : 57\npaths_found    : 225\npaths_imported : 0\nmax_depth      : 4\ncur_path       : 64\npending_favs   : 52\npending_total  : 216\nvariable_paths : 0\nbitmap_cvg     : 2.02%\nunique_crashes : 0\nunique_hangs   : 1\nlast_path      : 1500375032\nlast_crash     : 0\nlast_hang      : 1500371975\nexec_timeout   : 20\nafl_banner     : fuzzer-master\nafl_version    : 1.85b\ncommand_line   : /home/skaramcheti/.virtualenvs/afl/bin/afl-unix/afl-fuzz -i /dev/shm/work/Water_Treatment_Facility_Simulator/input -o /dev/shm/work/Water_Treatment_Facility_Simulator/sync -m 4G -Q -M fuzzer-master -x /dev/shm/work/Water_Treatment_Facility_Simulator/Water_Treatment_Facility_Simulator.dict -- data/linux/processed-challenges/Water_Treatment_Facility_Simulator/bin/Water_Treatment_Facility_Simulator\n'
p55
I14
tp56
a(I3360
S'start_time     : 1500371786\nlast_update    : 1500375152\nfuzzer_pid     : 8879\ncycles_done    : 0\nexecs_done     : 1324720\nexecs_per_sec  : 388.00\npaths_total    : 227\npaths_favored  : 57\npaths_found    : 226\npaths_imported : 0\nmax_depth      : 4\ncur_path       : 64\npending_favs   : 52\npending_total  : 217\nvariable_paths : 0\nbitmap_cvg     : 2.02%\nunique_crashes : 0\nunique_hangs   : 1\nlast_path      : 1500375046\nlast_crash     : 0\nlast_hang      : 1500371975\nexec_timeout   : 20\nafl_banner     : fuzzer-master\nafl_version    : 1.85b\ncommand_line   : /home/skaramcheti/.virtualenvs/afl/bin/afl-unix/afl-fuzz -i /dev/shm/work/Water_Treatment_Facility_Simulator/input -o /dev/shm/work/Water_Treatment_Facility_Simulator/sync -m 4G -Q -M fuzzer-master -x /dev/shm/work/Water_Treatment_Facility_Simulator/Water_Treatment_Facility_Simulator.dict -- data/linux/processed-challenges/Water_Treatment_Facility_Simulator/bin/Water_Treatment_Facility_Simulator\n'
p57
I1
tp58
a(I3480
S'start_time     : 1500371786\nlast_update    : 1500375273\nfuzzer_pid     : 8879\ncycles_done    : 0\nexecs_done     : 1371531\nexecs_per_sec  : 394.65\npaths_total    : 230\npaths_favored  : 57\npaths_found    : 229\npaths_imported : 0\nmax_depth      : 4\ncur_path       : 64\npending_favs   : 52\npending_total  : 220\nvariable_paths : 0\nbitmap_cvg     : 2.04%\nunique_crashes : 0\nunique_hangs   : 1\nlast_path      : 1500375270\nlast_crash     : 0\nlast_hang      : 1500371975\nexec_timeout   : 20\nafl_banner     : fuzzer-master\nafl_version    : 1.85b\ncommand_line   : /home/skaramcheti/.virtualenvs/afl/bin/afl-unix/afl-fuzz -i /dev/shm/work/Water_Treatment_Facility_Simulator/input -o /dev/shm/work/Water_Treatment_Facility_Simulator/sync -m 4G -Q -M fuzzer-master -x /dev/shm/work/Water_Treatment_Facility_Simulator/Water_Treatment_Facility_Simulator.dict -- data/linux/processed-challenges/Water_Treatment_Facility_Simulator/bin/Water_Treatment_Facility_Simulator\n'
p59
I3
tp60
a(I3600
S'start_time     : 1500371786\nlast_update    : 1500375393\nfuzzer_pid     : 8879\ncycles_done    : 0\nexecs_done     : 1418393\nexecs_per_sec  : 388.68\npaths_total    : 247\npaths_favored  : 65\npaths_found    : 246\npaths_imported : 0\nmax_depth      : 4\ncur_path       : 79\npending_favs   : 58\npending_total  : 235\nvariable_paths : 0\nbitmap_cvg     : 2.10%\nunique_crashes : 0\nunique_hangs   : 1\nlast_path      : 1500375390\nlast_crash     : 0\nlast_hang      : 1500371975\nexec_timeout   : 20\nafl_banner     : fuzzer-master\nafl_version    : 1.85b\ncommand_line   : /home/skaramcheti/.virtualenvs/afl/bin/afl-unix/afl-fuzz -i /dev/shm/work/Water_Treatment_Facility_Simulator/input -o /dev/shm/work/Water_Treatment_Facility_Simulator/sync -m 4G -Q -M fuzzer-master -x /dev/shm/work/Water_Treatment_Facility_Simulator/Water_Treatment_Facility_Simulator.dict -- data/linux/processed-challenges/Water_Treatment_Facility_Simulator/bin/Water_Treatment_Facility_Simulator\n'
p61
I17
tp62
a(I3720
S'start_time     : 1500371786\nlast_update    : 1500375513\nfuzzer_pid     : 8879\ncycles_done    : 0\nexecs_done     : 1465091\nexecs_per_sec  : 390.56\npaths_total    : 275\npaths_favored  : 65\npaths_found    : 274\npaths_imported : 0\nmax_depth      : 4\ncur_path       : 79\npending_favs   : 58\npending_total  : 263\nvariable_paths : 0\nbitmap_cvg     : 2.16%\nunique_crashes : 0\nunique_hangs   : 1\nlast_path      : 1500375507\nlast_crash     : 0\nlast_hang      : 1500371975\nexec_timeout   : 20\nafl_banner     : fuzzer-master\nafl_version    : 1.85b\ncommand_line   : /home/skaramcheti/.virtualenvs/afl/bin/afl-unix/afl-fuzz -i /dev/shm/work/Water_Treatment_Facility_Simulator/input -o /dev/shm/work/Water_Treatment_Facility_Simulator/sync -m 4G -Q -M fuzzer-master -x /dev/shm/work/Water_Treatment_Facility_Simulator/Water_Treatment_Facility_Simulator.dict -- data/linux/processed-challenges/Water_Treatment_Facility_Simulator/bin/Water_Treatment_Facility_Simulator\n'
p63
I28
tp64
a(I3840
S'start_time     : 1500371786\nlast_update    : 1500375633\nfuzzer_pid     : 8879\ncycles_done    : 0\nexecs_done     : 1512277\nexecs_per_sec  : 393.30\npaths_total    : 284\npaths_favored  : 65\npaths_found    : 283\npaths_imported : 0\nmax_depth      : 4\ncur_path       : 79\npending_favs   : 58\npending_total  : 272\nvariable_paths : 0\nbitmap_cvg     : 2.18%\nunique_crashes : 0\nunique_hangs   : 1\nlast_path      : 1500375630\nlast_crash     : 0\nlast_hang      : 1500371975\nexec_timeout   : 20\nafl_banner     : fuzzer-master\nafl_version    : 1.85b\ncommand_line   : /home/skaramcheti/.virtualenvs/afl/bin/afl-unix/afl-fuzz -i /dev/shm/work/Water_Treatment_Facility_Simulator/input -o /dev/shm/work/Water_Treatment_Facility_Simulator/sync -m 4G -Q -M fuzzer-master -x /dev/shm/work/Water_Treatment_Facility_Simulator/Water_Treatment_Facility_Simulator.dict -- data/linux/processed-challenges/Water_Treatment_Facility_Simulator/bin/Water_Treatment_Facility_Simulator\n'
p65
I9
tp66
a(I3960
S'start_time     : 1500371786\nlast_update    : 1500375754\nfuzzer_pid     : 8879\ncycles_done    : 0\nexecs_done     : 1559692\nexecs_per_sec  : 394.35\npaths_total    : 290\npaths_favored  : 65\npaths_found    : 289\npaths_imported : 0\nmax_depth      : 4\ncur_path       : 79\npending_favs   : 58\npending_total  : 278\nvariable_paths : 0\nbitmap_cvg     : 2.20%\nunique_crashes : 0\nunique_hangs   : 1\nlast_path      : 1500375742\nlast_crash     : 0\nlast_hang      : 1500371975\nexec_timeout   : 20\nafl_banner     : fuzzer-master\nafl_version    : 1.85b\ncommand_line   : /home/skaramcheti/.virtualenvs/afl/bin/afl-unix/afl-fuzz -i /dev/shm/work/Water_Treatment_Facility_Simulator/input -o /dev/shm/work/Water_Treatment_Facility_Simulator/sync -m 4G -Q -M fuzzer-master -x /dev/shm/work/Water_Treatment_Facility_Simulator/Water_Treatment_Facility_Simulator.dict -- data/linux/processed-challenges/Water_Treatment_Facility_Simulator/bin/Water_Treatment_Facility_Simulator\n'
p67
I6
tp68
a(I4080
S'start_time     : 1500371786\nlast_update    : 1500375874\nfuzzer_pid     : 8879\ncycles_done    : 0\nexecs_done     : 1606244\nexecs_per_sec  : 397.57\npaths_total    : 306\npaths_favored  : 91\npaths_found    : 305\npaths_imported : 0\nmax_depth      : 4\ncur_path       : 82\npending_favs   : 85\npending_total  : 292\nvariable_paths : 0\nbitmap_cvg     : 2.30%\nunique_crashes : 0\nunique_hangs   : 1\nlast_path      : 1500375874\nlast_crash     : 0\nlast_hang      : 1500371975\nexec_timeout   : 20\nafl_banner     : fuzzer-master\nafl_version    : 1.85b\ncommand_line   : /home/skaramcheti/.virtualenvs/afl/bin/afl-unix/afl-fuzz -i /dev/shm/work/Water_Treatment_Facility_Simulator/input -o /dev/shm/work/Water_Treatment_Facility_Simulator/sync -m 4G -Q -M fuzzer-master -x /dev/shm/work/Water_Treatment_Facility_Simulator/Water_Treatment_Facility_Simulator.dict -- data/linux/processed-challenges/Water_Treatment_Facility_Simulator/bin/Water_Treatment_Facility_Simulator\n'
p69
I17
tp70
a(I4200
S'start_time     : 1500371786\nlast_update    : 1500375994\nfuzzer_pid     : 8879\ncycles_done    : 0\nexecs_done     : 1652695\nexecs_per_sec  : 391.53\npaths_total    : 315\npaths_favored  : 91\npaths_found    : 314\npaths_imported : 0\nmax_depth      : 4\ncur_path       : 82\npending_favs   : 85\npending_total  : 301\nvariable_paths : 0\nbitmap_cvg     : 2.31%\nunique_crashes : 0\nunique_hangs   : 1\nlast_path      : 1500375990\nlast_crash     : 0\nlast_hang      : 1500371975\nexec_timeout   : 20\nafl_banner     : fuzzer-master\nafl_version    : 1.85b\ncommand_line   : /home/skaramcheti/.virtualenvs/afl/bin/afl-unix/afl-fuzz -i /dev/shm/work/Water_Treatment_Facility_Simulator/input -o /dev/shm/work/Water_Treatment_Facility_Simulator/sync -m 4G -Q -M fuzzer-master -x /dev/shm/work/Water_Treatment_Facility_Simulator/Water_Treatment_Facility_Simulator.dict -- data/linux/processed-challenges/Water_Treatment_Facility_Simulator/bin/Water_Treatment_Facility_Simulator\n'
p71
I8
tp72
a(I4320
S'start_time     : 1500371786\nlast_update    : 1500376114\nfuzzer_pid     : 8879\ncycles_done    : 0\nexecs_done     : 1699253\nexecs_per_sec  : 391.72\npaths_total    : 320\npaths_favored  : 91\npaths_found    : 319\npaths_imported : 0\nmax_depth      : 4\ncur_path       : 82\npending_favs   : 85\npending_total  : 306\nvariable_paths : 0\nbitmap_cvg     : 2.31%\nunique_crashes : 0\nunique_hangs   : 1\nlast_path      : 1500376105\nlast_crash     : 0\nlast_hang      : 1500371975\nexec_timeout   : 20\nafl_banner     : fuzzer-master\nafl_version    : 1.85b\ncommand_line   : /home/skaramcheti/.virtualenvs/afl/bin/afl-unix/afl-fuzz -i /dev/shm/work/Water_Treatment_Facility_Simulator/input -o /dev/shm/work/Water_Treatment_Facility_Simulator/sync -m 4G -Q -M fuzzer-master -x /dev/shm/work/Water_Treatment_Facility_Simulator/Water_Treatment_Facility_Simulator.dict -- data/linux/processed-challenges/Water_Treatment_Facility_Simulator/bin/Water_Treatment_Facility_Simulator\n'
p73
I5
tp74
a(I4440
S'start_time     : 1500371786\nlast_update    : 1500376234\nfuzzer_pid     : 8879\ncycles_done    : 0\nexecs_done     : 1746249\nexecs_per_sec  : 385.90\npaths_total    : 324\npaths_favored  : 91\npaths_found    : 323\npaths_imported : 0\nmax_depth      : 4\ncur_path       : 82\npending_favs   : 85\npending_total  : 310\nvariable_paths : 0\nbitmap_cvg     : 2.32%\nunique_crashes : 0\nunique_hangs   : 1\nlast_path      : 1500376181\nlast_crash     : 0\nlast_hang      : 1500371975\nexec_timeout   : 20\nafl_banner     : fuzzer-master\nafl_version    : 1.85b\ncommand_line   : /home/skaramcheti/.virtualenvs/afl/bin/afl-unix/afl-fuzz -i /dev/shm/work/Water_Treatment_Facility_Simulator/input -o /dev/shm/work/Water_Treatment_Facility_Simulator/sync -m 4G -Q -M fuzzer-master -x /dev/shm/work/Water_Treatment_Facility_Simulator/Water_Treatment_Facility_Simulator.dict -- data/linux/processed-challenges/Water_Treatment_Facility_Simulator/bin/Water_Treatment_Facility_Simulator\n'
p75
I4
tp76
a(I4560
S'start_time     : 1500371786\nlast_update    : 1500376294\nfuzzer_pid     : 8879\ncycles_done    : 0\nexecs_done     : 1767875\nexecs_per_sec  : 348.93\npaths_total    : 325\npaths_favored  : 95\npaths_found    : 324\npaths_imported : 0\nmax_depth      : 4\ncur_path       : 84\npending_favs   : 89\npending_total  : 309\nvariable_paths : 0\nbitmap_cvg     : 2.32%\nunique_crashes : 0\nunique_hangs   : 1\nlast_path      : 1500376240\nlast_crash     : 0\nlast_hang      : 1500371975\nexec_timeout   : 20\nafl_banner     : fuzzer-master\nafl_version    : 1.85b\ncommand_line   : /home/skaramcheti/.virtualenvs/afl/bin/afl-unix/afl-fuzz -i /dev/shm/work/Water_Treatment_Facility_Simulator/input -o /dev/shm/work/Water_Treatment_Facility_Simulator/sync -m 4G -Q -M fuzzer-master -x /dev/shm/work/Water_Treatment_Facility_Simulator/Water_Treatment_Facility_Simulator.dict -- data/linux/processed-challenges/Water_Treatment_Facility_Simulator/bin/Water_Treatment_Facility_Simulator\n'
p77
I7
tp78
a(I4680
S'start_time     : 1500371786\nlast_update    : 1500376415\nfuzzer_pid     : 8879\ncycles_done    : 0\nexecs_done     : 1815223\nexecs_per_sec  : 401.88\npaths_total    : 333\npaths_favored  : 95\npaths_found    : 332\npaths_imported : 0\nmax_depth      : 5\ncur_path       : 86\npending_favs   : 88\npending_total  : 316\nvariable_paths : 0\nbitmap_cvg     : 2.33%\nunique_crashes : 0\nunique_hangs   : 1\nlast_path      : 1500376397\nlast_crash     : 0\nlast_hang      : 1500371975\nexec_timeout   : 20\nafl_banner     : fuzzer-master\nafl_version    : 1.85b\ncommand_line   : /home/skaramcheti/.virtualenvs/afl/bin/afl-unix/afl-fuzz -i /dev/shm/work/Water_Treatment_Facility_Simulator/input -o /dev/shm/work/Water_Treatment_Facility_Simulator/sync -m 4G -Q -M fuzzer-master -x /dev/shm/work/Water_Treatment_Facility_Simulator/Water_Treatment_Facility_Simulator.dict -- data/linux/processed-challenges/Water_Treatment_Facility_Simulator/bin/Water_Treatment_Facility_Simulator\n'
p79
I2
tp80
a(I4800
S'start_time     : 1500371786\nlast_update    : 1500376535\nfuzzer_pid     : 8879\ncycles_done    : 0\nexecs_done     : 1863056\nexecs_per_sec  : 388.67\npaths_total    : 334\npaths_favored  : 95\npaths_found    : 333\npaths_imported : 0\nmax_depth      : 5\ncur_path       : 86\npending_favs   : 88\npending_total  : 317\nvariable_paths : 0\nbitmap_cvg     : 2.34%\nunique_crashes : 0\nunique_hangs   : 1\nlast_path      : 1500376481\nlast_crash     : 0\nlast_hang      : 1500371975\nexec_timeout   : 20\nafl_banner     : fuzzer-master\nafl_version    : 1.85b\ncommand_line   : /home/skaramcheti/.virtualenvs/afl/bin/afl-unix/afl-fuzz -i /dev/shm/work/Water_Treatment_Facility_Simulator/input -o /dev/shm/work/Water_Treatment_Facility_Simulator/sync -m 4G -Q -M fuzzer-master -x /dev/shm/work/Water_Treatment_Facility_Simulator/Water_Treatment_Facility_Simulator.dict -- data/linux/processed-challenges/Water_Treatment_Facility_Simulator/bin/Water_Treatment_Facility_Simulator\n'
p81
I2
tp82
a(I4920
S'start_time     : 1500371786\nlast_update    : 1500376655\nfuzzer_pid     : 8879\ncycles_done    : 0\nexecs_done     : 1910176\nexecs_per_sec  : 390.31\npaths_total    : 335\npaths_favored  : 95\npaths_found    : 334\npaths_imported : 0\nmax_depth      : 5\ncur_path       : 86\npending_favs   : 88\npending_total  : 318\nvariable_paths : 0\nbitmap_cvg     : 2.34%\nunique_crashes : 0\nunique_hangs   : 2\nlast_path      : 1500376562\nlast_crash     : 0\nlast_hang      : 1500376577\nexec_timeout   : 20\nafl_banner     : fuzzer-master\nafl_version    : 1.85b\ncommand_line   : /home/skaramcheti/.virtualenvs/afl/bin/afl-unix/afl-fuzz -i /dev/shm/work/Water_Treatment_Facility_Simulator/input -o /dev/shm/work/Water_Treatment_Facility_Simulator/sync -m 4G -Q -M fuzzer-master -x /dev/shm/work/Water_Treatment_Facility_Simulator/Water_Treatment_Facility_Simulator.dict -- data/linux/processed-challenges/Water_Treatment_Facility_Simulator/bin/Water_Treatment_Facility_Simulator\n'
p83
I0
tp84
a(I5040
S'start_time     : 1500371786\nlast_update    : 1500376775\nfuzzer_pid     : 8879\ncycles_done    : 0\nexecs_done     : 1957516\nexecs_per_sec  : 400.18\npaths_total    : 341\npaths_favored  : 98\npaths_found    : 340\npaths_imported : 0\nmax_depth      : 5\ncur_path       : 91\npending_favs   : 91\npending_total  : 323\nvariable_paths : 0\nbitmap_cvg     : 2.35%\nunique_crashes : 0\nunique_hangs   : 2\nlast_path      : 1500376772\nlast_crash     : 0\nlast_hang      : 1500376577\nexec_timeout   : 20\nafl_banner     : fuzzer-master\nafl_version    : 1.85b\ncommand_line   : /home/skaramcheti/.virtualenvs/afl/bin/afl-unix/afl-fuzz -i /dev/shm/work/Water_Treatment_Facility_Simulator/input -o /dev/shm/work/Water_Treatment_Facility_Simulator/sync -m 4G -Q -M fuzzer-master -x /dev/shm/work/Water_Treatment_Facility_Simulator/Water_Treatment_Facility_Simulator.dict -- data/linux/processed-challenges/Water_Treatment_Facility_Simulator/bin/Water_Treatment_Facility_Simulator\n'
p85
I8
tp86
a(I5160
S'start_time     : 1500371786\nlast_update    : 1500376896\nfuzzer_pid     : 8879\ncycles_done    : 0\nexecs_done     : 2004945\nexecs_per_sec  : 395.61\npaths_total    : 347\npaths_favored  : 98\npaths_found    : 346\npaths_imported : 0\nmax_depth      : 5\ncur_path       : 91\npending_favs   : 91\npending_total  : 329\nvariable_paths : 0\nbitmap_cvg     : 2.38%\nunique_crashes : 0\nunique_hangs   : 2\nlast_path      : 1500376881\nlast_crash     : 0\nlast_hang      : 1500376577\nexec_timeout   : 20\nafl_banner     : fuzzer-master\nafl_version    : 1.85b\ncommand_line   : /home/skaramcheti/.virtualenvs/afl/bin/afl-unix/afl-fuzz -i /dev/shm/work/Water_Treatment_Facility_Simulator/input -o /dev/shm/work/Water_Treatment_Facility_Simulator/sync -m 4G -Q -M fuzzer-master -x /dev/shm/work/Water_Treatment_Facility_Simulator/Water_Treatment_Facility_Simulator.dict -- data/linux/processed-challenges/Water_Treatment_Facility_Simulator/bin/Water_Treatment_Facility_Simulator\n'
p87
I5
tp88
a(I5280
S'start_time     : 1500371786\nlast_update    : 1500377016\nfuzzer_pid     : 8879\ncycles_done    : 0\nexecs_done     : 2052592\nexecs_per_sec  : 398.93\npaths_total    : 349\npaths_favored  : 98\npaths_found    : 348\npaths_imported : 0\nmax_depth      : 5\ncur_path       : 91\npending_favs   : 91\npending_total  : 331\nvariable_paths : 0\nbitmap_cvg     : 2.38%\nunique_crashes : 0\nunique_hangs   : 2\nlast_path      : 1500376960\nlast_crash     : 0\nlast_hang      : 1500376577\nexec_timeout   : 20\nafl_banner     : fuzzer-master\nafl_version    : 1.85b\ncommand_line   : /home/skaramcheti/.virtualenvs/afl/bin/afl-unix/afl-fuzz -i /dev/shm/work/Water_Treatment_Facility_Simulator/input -o /dev/shm/work/Water_Treatment_Facility_Simulator/sync -m 4G -Q -M fuzzer-master -x /dev/shm/work/Water_Treatment_Facility_Simulator/Water_Treatment_Facility_Simulator.dict -- data/linux/processed-challenges/Water_Treatment_Facility_Simulator/bin/Water_Treatment_Facility_Simulator\n'
p89
I1
tp90
a(I5400
S'start_time     : 1500371786\nlast_update    : 1500377136\nfuzzer_pid     : 8879\ncycles_done    : 0\nexecs_done     : 2099865\nexecs_per_sec  : 372.75\npaths_total    : 350\npaths_favored  : 105\npaths_found    : 349\npaths_imported : 0\nmax_depth      : 5\ncur_path       : 93\npending_favs   : 98\npending_total  : 331\nvariable_paths : 0\nbitmap_cvg     : 2.38%\nunique_crashes : 0\nunique_hangs   : 2\nlast_path      : 1500377075\nlast_crash     : 0\nlast_hang      : 1500376577\nexec_timeout   : 20\nafl_banner     : fuzzer-master\nafl_version    : 1.85b\ncommand_line   : /home/skaramcheti/.virtualenvs/afl/bin/afl-unix/afl-fuzz -i /dev/shm/work/Water_Treatment_Facility_Simulator/input -o /dev/shm/work/Water_Treatment_Facility_Simulator/sync -m 4G -Q -M fuzzer-master -x /dev/shm/work/Water_Treatment_Facility_Simulator/Water_Treatment_Facility_Simulator.dict -- data/linux/processed-challenges/Water_Treatment_Facility_Simulator/bin/Water_Treatment_Facility_Simulator\n'
p91
I3
tp92
a(I5520
S'start_time     : 1500371786\nlast_update    : 1500377256\nfuzzer_pid     : 8879\ncycles_done    : 0\nexecs_done     : 2146498\nexecs_per_sec  : 382.04\npaths_total    : 353\npaths_favored  : 105\npaths_found    : 352\npaths_imported : 0\nmax_depth      : 5\ncur_path       : 99\npending_favs   : 97\npending_total  : 333\nvariable_paths : 0\nbitmap_cvg     : 2.39%\nunique_crashes : 0\nunique_hangs   : 2\nlast_path      : 1500377196\nlast_crash     : 0\nlast_hang      : 1500376577\nexec_timeout   : 20\nafl_banner     : fuzzer-master\nafl_version    : 1.85b\ncommand_line   : /home/skaramcheti/.virtualenvs/afl/bin/afl-unix/afl-fuzz -i /dev/shm/work/Water_Treatment_Facility_Simulator/input -o /dev/shm/work/Water_Treatment_Facility_Simulator/sync -m 4G -Q -M fuzzer-master -x /dev/shm/work/Water_Treatment_Facility_Simulator/Water_Treatment_Facility_Simulator.dict -- data/linux/processed-challenges/Water_Treatment_Facility_Simulator/bin/Water_Treatment_Facility_Simulator\n'
p93
I2
tp94
a(I5640
S'start_time     : 1500371786\nlast_update    : 1500377376\nfuzzer_pid     : 8879\ncycles_done    : 0\nexecs_done     : 2193324\nexecs_per_sec  : 391.24\npaths_total    : 354\npaths_favored  : 105\npaths_found    : 353\npaths_imported : 0\nmax_depth      : 5\ncur_path       : 99\npending_favs   : 97\npending_total  : 334\nvariable_paths : 0\nbitmap_cvg     : 2.39%\nunique_crashes : 0\nunique_hangs   : 2\nlast_path      : 1500377270\nlast_crash     : 0\nlast_hang      : 1500376577\nexec_timeout   : 20\nafl_banner     : fuzzer-master\nafl_version    : 1.85b\ncommand_line   : /home/skaramcheti/.virtualenvs/afl/bin/afl-unix/afl-fuzz -i /dev/shm/work/Water_Treatment_Facility_Simulator/input -o /dev/shm/work/Water_Treatment_Facility_Simulator/sync -m 4G -Q -M fuzzer-master -x /dev/shm/work/Water_Treatment_Facility_Simulator/Water_Treatment_Facility_Simulator.dict -- data/linux/processed-challenges/Water_Treatment_Facility_Simulator/bin/Water_Treatment_Facility_Simulator\n'
p95
I0
tp96
a(I5760
S'start_time     : 1500371786\nlast_update    : 1500377497\nfuzzer_pid     : 8879\ncycles_done    : 0\nexecs_done     : 2240007\nexecs_per_sec  : 392.01\npaths_total    : 354\npaths_favored  : 105\npaths_found    : 353\npaths_imported : 0\nmax_depth      : 5\ncur_path       : 99\npending_favs   : 97\npending_total  : 334\nvariable_paths : 0\nbitmap_cvg     : 2.39%\nunique_crashes : 0\nunique_hangs   : 2\nlast_path      : 1500377270\nlast_crash     : 0\nlast_hang      : 1500376577\nexec_timeout   : 20\nafl_banner     : fuzzer-master\nafl_version    : 1.85b\ncommand_line   : /home/skaramcheti/.virtualenvs/afl/bin/afl-unix/afl-fuzz -i /dev/shm/work/Water_Treatment_Facility_Simulator/input -o /dev/shm/work/Water_Treatment_Facility_Simulator/sync -m 4G -Q -M fuzzer-master -x /dev/shm/work/Water_Treatment_Facility_Simulator/Water_Treatment_Facility_Simulator.dict -- data/linux/processed-challenges/Water_Treatment_Facility_Simulator/bin/Water_Treatment_Facility_Simulator\n'
p97
I1
tp98
a(I5880
S'start_time     : 1500371786\nlast_update    : 1500377617\nfuzzer_pid     : 8879\ncycles_done    : 0\nexecs_done     : 2286493\nexecs_per_sec  : 385.56\npaths_total    : 370\npaths_favored  : 107\npaths_found    : 369\npaths_imported : 0\nmax_depth      : 5\ncur_path       : 110\npending_favs   : 99\npending_total  : 349\nvariable_paths : 0\nbitmap_cvg     : 2.42%\nunique_crashes : 0\nunique_hangs   : 2\nlast_path      : 1500377607\nlast_crash     : 0\nlast_hang      : 1500376577\nexec_timeout   : 20\nafl_banner     : fuzzer-master\nafl_version    : 1.85b\ncommand_line   : /home/skaramcheti/.virtualenvs/afl/bin/afl-unix/afl-fuzz -i /dev/shm/work/Water_Treatment_Facility_Simulator/input -o /dev/shm/work/Water_Treatment_Facility_Simulator/sync -m 4G -Q -M fuzzer-master -x /dev/shm/work/Water_Treatment_Facility_Simulator/Water_Treatment_Facility_Simulator.dict -- data/linux/processed-challenges/Water_Treatment_Facility_Simulator/bin/Water_Treatment_Facility_Simulator\n'
p99
I31
tp100
a(I6000
S'start_time     : 1500371786\nlast_update    : 1500377737\nfuzzer_pid     : 8879\ncycles_done    : 0\nexecs_done     : 2332987\nexecs_per_sec  : 390.49\npaths_total    : 391\npaths_favored  : 107\npaths_found    : 390\npaths_imported : 0\nmax_depth      : 5\ncur_path       : 110\npending_favs   : 99\npending_total  : 370\nvariable_paths : 0\nbitmap_cvg     : 2.45%\nunique_crashes : 0\nunique_hangs   : 2\nlast_path      : 1500377735\nlast_crash     : 0\nlast_hang      : 1500376577\nexec_timeout   : 20\nafl_banner     : fuzzer-master\nafl_version    : 1.85b\ncommand_line   : /home/skaramcheti/.virtualenvs/afl/bin/afl-unix/afl-fuzz -i /dev/shm/work/Water_Treatment_Facility_Simulator/input -o /dev/shm/work/Water_Treatment_Facility_Simulator/sync -m 4G -Q -M fuzzer-master -x /dev/shm/work/Water_Treatment_Facility_Simulator/Water_Treatment_Facility_Simulator.dict -- data/linux/processed-challenges/Water_Treatment_Facility_Simulator/bin/Water_Treatment_Facility_Simulator\n'
p101
I9
tp102
a(I6120
S'start_time     : 1500371786\nlast_update    : 1500377857\nfuzzer_pid     : 8879\ncycles_done    : 0\nexecs_done     : 2379645\nexecs_per_sec  : 387.19\npaths_total    : 399\npaths_favored  : 107\npaths_found    : 398\npaths_imported : 0\nmax_depth      : 5\ncur_path       : 110\npending_favs   : 99\npending_total  : 378\nvariable_paths : 0\nbitmap_cvg     : 2.45%\nunique_crashes : 0\nunique_hangs   : 2\nlast_path      : 1500377855\nlast_crash     : 0\nlast_hang      : 1500376577\nexec_timeout   : 20\nafl_banner     : fuzzer-master\nafl_version    : 1.85b\ncommand_line   : /home/skaramcheti/.virtualenvs/afl/bin/afl-unix/afl-fuzz -i /dev/shm/work/Water_Treatment_Facility_Simulator/input -o /dev/shm/work/Water_Treatment_Facility_Simulator/sync -m 4G -Q -M fuzzer-master -x /dev/shm/work/Water_Treatment_Facility_Simulator/Water_Treatment_Facility_Simulator.dict -- data/linux/processed-challenges/Water_Treatment_Facility_Simulator/bin/Water_Treatment_Facility_Simulator\n'
p103
I8
tp104
a(I6240
S'start_time     : 1500371786\nlast_update    : 1500377977\nfuzzer_pid     : 8879\ncycles_done    : 0\nexecs_done     : 2426349\nexecs_per_sec  : 385.29\npaths_total    : 406\npaths_favored  : 107\npaths_found    : 405\npaths_imported : 0\nmax_depth      : 5\ncur_path       : 110\npending_favs   : 99\npending_total  : 385\nvariable_paths : 0\nbitmap_cvg     : 2.45%\nunique_crashes : 0\nunique_hangs   : 2\nlast_path      : 1500377974\nlast_crash     : 0\nlast_hang      : 1500376577\nexec_timeout   : 20\nafl_banner     : fuzzer-master\nafl_version    : 1.85b\ncommand_line   : /home/skaramcheti/.virtualenvs/afl/bin/afl-unix/afl-fuzz -i /dev/shm/work/Water_Treatment_Facility_Simulator/input -o /dev/shm/work/Water_Treatment_Facility_Simulator/sync -m 4G -Q -M fuzzer-master -x /dev/shm/work/Water_Treatment_Facility_Simulator/Water_Treatment_Facility_Simulator.dict -- data/linux/processed-challenges/Water_Treatment_Facility_Simulator/bin/Water_Treatment_Facility_Simulator\n'
p105
I5
tp106
a(I6360
S'start_time     : 1500371786\nlast_update    : 1500378098\nfuzzer_pid     : 8879\ncycles_done    : 0\nexecs_done     : 2473401\nexecs_per_sec  : 396.65\npaths_total    : 410\npaths_favored  : 126\npaths_found    : 409\npaths_imported : 0\nmax_depth      : 5\ncur_path       : 111\npending_favs   : 117\npending_total  : 388\nvariable_paths : 0\nbitmap_cvg     : 2.47%\nunique_crashes : 0\nunique_hangs   : 2\nlast_path      : 1500378091\nlast_crash     : 0\nlast_hang      : 1500376577\nexec_timeout   : 20\nafl_banner     : fuzzer-master\nafl_version    : 1.85b\ncommand_line   : /home/skaramcheti/.virtualenvs/afl/bin/afl-unix/afl-fuzz -i /dev/shm/work/Water_Treatment_Facility_Simulator/input -o /dev/shm/work/Water_Treatment_Facility_Simulator/sync -m 4G -Q -M fuzzer-master -x /dev/shm/work/Water_Treatment_Facility_Simulator/Water_Treatment_Facility_Simulator.dict -- data/linux/processed-challenges/Water_Treatment_Facility_Simulator/bin/Water_Treatment_Facility_Simulator\n'
p107
I2
tp108
a(I6480
S'start_time     : 1500371786\nlast_update    : 1500378218\nfuzzer_pid     : 8879\ncycles_done    : 0\nexecs_done     : 2520430\nexecs_per_sec  : 390.01\npaths_total    : 411\npaths_favored  : 126\npaths_found    : 410\npaths_imported : 0\nmax_depth      : 5\ncur_path       : 111\npending_favs   : 117\npending_total  : 389\nvariable_paths : 0\nbitmap_cvg     : 2.47%\nunique_crashes : 0\nunique_hangs   : 2\nlast_path      : 1500378160\nlast_crash     : 0\nlast_hang      : 1500376577\nexec_timeout   : 20\nafl_banner     : fuzzer-master\nafl_version    : 1.85b\ncommand_line   : /home/skaramcheti/.virtualenvs/afl/bin/afl-unix/afl-fuzz -i /dev/shm/work/Water_Treatment_Facility_Simulator/input -o /dev/shm/work/Water_Treatment_Facility_Simulator/sync -m 4G -Q -M fuzzer-master -x /dev/shm/work/Water_Treatment_Facility_Simulator/Water_Treatment_Facility_Simulator.dict -- data/linux/processed-challenges/Water_Treatment_Facility_Simulator/bin/Water_Treatment_Facility_Simulator\n'
p109
I2
tp110
a(I6600
S'start_time     : 1500371786\nlast_update    : 1500378338\nfuzzer_pid     : 8879\ncycles_done    : 0\nexecs_done     : 2567602\nexecs_per_sec  : 394.70\npaths_total    : 413\npaths_favored  : 126\npaths_found    : 412\npaths_imported : 0\nmax_depth      : 5\ncur_path       : 111\npending_favs   : 117\npending_total  : 391\nvariable_paths : 0\nbitmap_cvg     : 2.47%\nunique_crashes : 0\nunique_hangs   : 2\nlast_path      : 1500378297\nlast_crash     : 0\nlast_hang      : 1500376577\nexec_timeout   : 20\nafl_banner     : fuzzer-master\nafl_version    : 1.85b\ncommand_line   : /home/skaramcheti/.virtualenvs/afl/bin/afl-unix/afl-fuzz -i /dev/shm/work/Water_Treatment_Facility_Simulator/input -o /dev/shm/work/Water_Treatment_Facility_Simulator/sync -m 4G -Q -M fuzzer-master -x /dev/shm/work/Water_Treatment_Facility_Simulator/Water_Treatment_Facility_Simulator.dict -- data/linux/processed-challenges/Water_Treatment_Facility_Simulator/bin/Water_Treatment_Facility_Simulator\n'
p111
I1
tp112
a(I6720
S'start_time     : 1500371786\nlast_update    : 1500378458\nfuzzer_pid     : 8879\ncycles_done    : 0\nexecs_done     : 2612906\nexecs_per_sec  : 388.54\npaths_total    : 414\npaths_favored  : 127\npaths_found    : 413\npaths_imported : 0\nmax_depth      : 5\ncur_path       : 119\npending_favs   : 117\npending_total  : 391\nvariable_paths : 0\nbitmap_cvg     : 2.47%\nunique_crashes : 0\nunique_hangs   : 2\nlast_path      : 1500378430\nlast_crash     : 0\nlast_hang      : 1500376577\nexec_timeout   : 20\nafl_banner     : fuzzer-master\nafl_version    : 1.85b\ncommand_line   : /home/skaramcheti/.virtualenvs/afl/bin/afl-unix/afl-fuzz -i /dev/shm/work/Water_Treatment_Facility_Simulator/input -o /dev/shm/work/Water_Treatment_Facility_Simulator/sync -m 4G -Q -M fuzzer-master -x /dev/shm/work/Water_Treatment_Facility_Simulator/Water_Treatment_Facility_Simulator.dict -- data/linux/processed-challenges/Water_Treatment_Facility_Simulator/bin/Water_Treatment_Facility_Simulator\n'
p113
I1
tp114
a(I6840
S'start_time     : 1500371786\nlast_update    : 1500378578\nfuzzer_pid     : 8879\ncycles_done    : 0\nexecs_done     : 2658320\nexecs_per_sec  : 383.76\npaths_total    : 414\npaths_favored  : 127\npaths_found    : 413\npaths_imported : 0\nmax_depth      : 5\ncur_path       : 128\npending_favs   : 115\npending_total  : 388\nvariable_paths : 0\nbitmap_cvg     : 2.47%\nunique_crashes : 0\nunique_hangs   : 2\nlast_path      : 1500378430\nlast_crash     : 0\nlast_hang      : 1500376577\nexec_timeout   : 20\nafl_banner     : fuzzer-master\nafl_version    : 1.85b\ncommand_line   : /home/skaramcheti/.virtualenvs/afl/bin/afl-unix/afl-fuzz -i /dev/shm/work/Water_Treatment_Facility_Simulator/input -o /dev/shm/work/Water_Treatment_Facility_Simulator/sync -m 4G -Q -M fuzzer-master -x /dev/shm/work/Water_Treatment_Facility_Simulator/Water_Treatment_Facility_Simulator.dict -- data/linux/processed-challenges/Water_Treatment_Facility_Simulator/bin/Water_Treatment_Facility_Simulator\n'
p115
I6
tp116
a(I6960
S'start_time     : 1500371786\nlast_update    : 1500378699\nfuzzer_pid     : 8879\ncycles_done    : 0\nexecs_done     : 2703546\nexecs_per_sec  : 386.65\npaths_total    : 421\npaths_favored  : 127\npaths_found    : 420\npaths_imported : 0\nmax_depth      : 5\ncur_path       : 138\npending_favs   : 113\npending_total  : 393\nvariable_paths : 0\nbitmap_cvg     : 2.49%\nunique_crashes : 0\nunique_hangs   : 2\nlast_path      : 1500378640\nlast_crash     : 0\nlast_hang      : 1500376577\nexec_timeout   : 20\nafl_banner     : fuzzer-master\nafl_version    : 1.85b\ncommand_line   : /home/skaramcheti/.virtualenvs/afl/bin/afl-unix/afl-fuzz -i /dev/shm/work/Water_Treatment_Facility_Simulator/input -o /dev/shm/work/Water_Treatment_Facility_Simulator/sync -m 4G -Q -M fuzzer-master -x /dev/shm/work/Water_Treatment_Facility_Simulator/Water_Treatment_Facility_Simulator.dict -- data/linux/processed-challenges/Water_Treatment_Facility_Simulator/bin/Water_Treatment_Facility_Simulator\n'
p117
I3
tp118
a(I7080
S'start_time     : 1500371786\nlast_update    : 1500378819\nfuzzer_pid     : 8879\ncycles_done    : 0\nexecs_done     : 2749874\nexecs_per_sec  : 383.23\npaths_total    : 424\npaths_favored  : 127\npaths_found    : 423\npaths_imported : 0\nmax_depth      : 5\ncur_path       : 138\npending_favs   : 113\npending_total  : 396\nvariable_paths : 0\nbitmap_cvg     : 2.49%\nunique_crashes : 0\nunique_hangs   : 2\nlast_path      : 1500378810\nlast_crash     : 0\nlast_hang      : 1500376577\nexec_timeout   : 20\nafl_banner     : fuzzer-master\nafl_version    : 1.85b\ncommand_line   : /home/skaramcheti/.virtualenvs/afl/bin/afl-unix/afl-fuzz -i /dev/shm/work/Water_Treatment_Facility_Simulator/input -o /dev/shm/work/Water_Treatment_Facility_Simulator/sync -m 4G -Q -M fuzzer-master -x /dev/shm/work/Water_Treatment_Facility_Simulator/Water_Treatment_Facility_Simulator.dict -- data/linux/processed-challenges/Water_Treatment_Facility_Simulator/bin/Water_Treatment_Facility_Simulator\n'
p119
I2
tp120
a(I7200
S'start_time     : 1500371786\nlast_update    : 1500378939\nfuzzer_pid     : 8879\ncycles_done    : 0\nexecs_done     : 2796234\nexecs_per_sec  : 382.08\npaths_total    : 426\npaths_favored  : 127\npaths_found    : 425\npaths_imported : 0\nmax_depth      : 5\ncur_path       : 138\npending_favs   : 113\npending_total  : 398\nvariable_paths : 0\nbitmap_cvg     : 2.50%\nunique_crashes : 0\nunique_hangs   : 2\nlast_path      : 1500378892\nlast_crash     : 0\nlast_hang      : 1500376577\nexec_timeout   : 20\nafl_banner     : fuzzer-master\nafl_version    : 1.85b\ncommand_line   : /home/skaramcheti/.virtualenvs/afl/bin/afl-unix/afl-fuzz -i /dev/shm/work/Water_Treatment_Facility_Simulator/input -o /dev/shm/work/Water_Treatment_Facility_Simulator/sync -m 4G -Q -M fuzzer-master -x /dev/shm/work/Water_Treatment_Facility_Simulator/Water_Treatment_Facility_Simulator.dict -- data/linux/processed-challenges/Water_Treatment_Facility_Simulator/bin/Water_Treatment_Facility_Simulator\n'
p121
I1
tp122
a(I7320
S'start_time     : 1500371786\nlast_update    : 1500379059\nfuzzer_pid     : 8879\ncycles_done    : 0\nexecs_done     : 2842562\nexecs_per_sec  : 385.46\npaths_total    : 426\npaths_favored  : 130\npaths_found    : 425\npaths_imported : 0\nmax_depth      : 5\ncur_path       : 142\npending_favs   : 115\npending_total  : 397\nvariable_paths : 0\nbitmap_cvg     : 2.50%\nunique_crashes : 0\nunique_hangs   : 2\nlast_path      : 1500378892\nlast_crash     : 0\nlast_hang      : 1500376577\nexec_timeout   : 20\nafl_banner     : fuzzer-master\nafl_version    : 1.85b\ncommand_line   : /home/skaramcheti/.virtualenvs/afl/bin/afl-unix/afl-fuzz -i /dev/shm/work/Water_Treatment_Facility_Simulator/input -o /dev/shm/work/Water_Treatment_Facility_Simulator/sync -m 4G -Q -M fuzzer-master -x /dev/shm/work/Water_Treatment_Facility_Simulator/Water_Treatment_Facility_Simulator.dict -- data/linux/processed-challenges/Water_Treatment_Facility_Simulator/bin/Water_Treatment_Facility_Simulator\n'
p123
I2
tp124
a(I7440
S'start_time     : 1500371786\nlast_update    : 1500379179\nfuzzer_pid     : 8879\ncycles_done    : 0\nexecs_done     : 2888988\nexecs_per_sec  : 394.87\npaths_total    : 429\npaths_favored  : 130\npaths_found    : 428\npaths_imported : 0\nmax_depth      : 5\ncur_path       : 142\npending_favs   : 115\npending_total  : 400\nvariable_paths : 0\nbitmap_cvg     : 2.50%\nunique_crashes : 0\nunique_hangs   : 2\nlast_path      : 1500379151\nlast_crash     : 0\nlast_hang      : 1500376577\nexec_timeout   : 20\nafl_banner     : fuzzer-master\nafl_version    : 1.85b\ncommand_line   : /home/skaramcheti/.virtualenvs/afl/bin/afl-unix/afl-fuzz -i /dev/shm/work/Water_Treatment_Facility_Simulator/input -o /dev/shm/work/Water_Treatment_Facility_Simulator/sync -m 4G -Q -M fuzzer-master -x /dev/shm/work/Water_Treatment_Facility_Simulator/Water_Treatment_Facility_Simulator.dict -- data/linux/processed-challenges/Water_Treatment_Facility_Simulator/bin/Water_Treatment_Facility_Simulator\n'
p125
I1
tp126
a(I7560
S'start_time     : 1500371786\nlast_update    : 1500379300\nfuzzer_pid     : 8879\ncycles_done    : 0\nexecs_done     : 2935628\nexecs_per_sec  : 395.12\npaths_total    : 430\npaths_favored  : 130\npaths_found    : 429\npaths_imported : 0\nmax_depth      : 5\ncur_path       : 147\npending_favs   : 114\npending_total  : 400\nvariable_paths : 0\nbitmap_cvg     : 2.50%\nunique_crashes : 0\nunique_hangs   : 2\nlast_path      : 1500379282\nlast_crash     : 0\nlast_hang      : 1500376577\nexec_timeout   : 20\nafl_banner     : fuzzer-master\nafl_version    : 1.85b\ncommand_line   : /home/skaramcheti/.virtualenvs/afl/bin/afl-unix/afl-fuzz -i /dev/shm/work/Water_Treatment_Facility_Simulator/input -o /dev/shm/work/Water_Treatment_Facility_Simulator/sync -m 4G -Q -M fuzzer-master -x /dev/shm/work/Water_Treatment_Facility_Simulator/Water_Treatment_Facility_Simulator.dict -- data/linux/processed-challenges/Water_Treatment_Facility_Simulator/bin/Water_Treatment_Facility_Simulator\n'
p127
I1
tp128
a(I7680
S'start_time     : 1500371786\nlast_update    : 1500379420\nfuzzer_pid     : 8879\ncycles_done    : 0\nexecs_done     : 2980342\nexecs_per_sec  : 373.46\npaths_total    : 430\npaths_favored  : 130\npaths_found    : 429\npaths_imported : 0\nmax_depth      : 5\ncur_path       : 156\npending_favs   : 111\npending_total  : 397\nvariable_paths : 0\nbitmap_cvg     : 2.50%\nunique_crashes : 0\nunique_hangs   : 2\nlast_path      : 1500379282\nlast_crash     : 0\nlast_hang      : 1500376577\nexec_timeout   : 20\nafl_banner     : fuzzer-master\nafl_version    : 1.85b\ncommand_line   : /home/skaramcheti/.virtualenvs/afl/bin/afl-unix/afl-fuzz -i /dev/shm/work/Water_Treatment_Facility_Simulator/input -o /dev/shm/work/Water_Treatment_Facility_Simulator/sync -m 4G -Q -M fuzzer-master -x /dev/shm/work/Water_Treatment_Facility_Simulator/Water_Treatment_Facility_Simulator.dict -- data/linux/processed-challenges/Water_Treatment_Facility_Simulator/bin/Water_Treatment_Facility_Simulator\n'
p129
I3
tp130
a(I7800
S'start_time     : 1500371786\nlast_update    : 1500379540\nfuzzer_pid     : 8879\ncycles_done    : 0\nexecs_done     : 3025017\nexecs_per_sec  : 373.21\npaths_total    : 437\npaths_favored  : 130\npaths_found    : 436\npaths_imported : 0\nmax_depth      : 5\ncur_path       : 165\npending_favs   : 110\npending_total  : 403\nvariable_paths : 0\nbitmap_cvg     : 2.51%\nunique_crashes : 0\nunique_hangs   : 2\nlast_path      : 1500379506\nlast_crash     : 0\nlast_hang      : 1500376577\nexec_timeout   : 20\nafl_banner     : fuzzer-master\nafl_version    : 1.85b\ncommand_line   : /home/skaramcheti/.virtualenvs/afl/bin/afl-unix/afl-fuzz -i /dev/shm/work/Water_Treatment_Facility_Simulator/input -o /dev/shm/work/Water_Treatment_Facility_Simulator/sync -m 4G -Q -M fuzzer-master -x /dev/shm/work/Water_Treatment_Facility_Simulator/Water_Treatment_Facility_Simulator.dict -- data/linux/processed-challenges/Water_Treatment_Facility_Simulator/bin/Water_Treatment_Facility_Simulator\n'
p131
I5
tp132
a(I7920
S'start_time     : 1500371786\nlast_update    : 1500379660\nfuzzer_pid     : 8879\ncycles_done    : 0\nexecs_done     : 3070880\nexecs_per_sec  : 382.36\npaths_total    : 439\npaths_favored  : 130\npaths_found    : 438\npaths_imported : 0\nmax_depth      : 5\ncur_path       : 165\npending_favs   : 110\npending_total  : 405\nvariable_paths : 0\nbitmap_cvg     : 2.51%\nunique_crashes : 0\nunique_hangs   : 2\nlast_path      : 1500379609\nlast_crash     : 0\nlast_hang      : 1500376577\nexec_timeout   : 20\nafl_banner     : fuzzer-master\nafl_version    : 1.85b\ncommand_line   : /home/skaramcheti/.virtualenvs/afl/bin/afl-unix/afl-fuzz -i /dev/shm/work/Water_Treatment_Facility_Simulator/input -o /dev/shm/work/Water_Treatment_Facility_Simulator/sync -m 4G -Q -M fuzzer-master -x /dev/shm/work/Water_Treatment_Facility_Simulator/Water_Treatment_Facility_Simulator.dict -- data/linux/processed-challenges/Water_Treatment_Facility_Simulator/bin/Water_Treatment_Facility_Simulator\n'
p133
I2
tp134
a(I8040
S'start_time     : 1500371786\nlast_update    : 1500379780\nfuzzer_pid     : 8879\ncycles_done    : 0\nexecs_done     : 3116348\nexecs_per_sec  : 383.37\npaths_total    : 440\npaths_favored  : 130\npaths_found    : 439\npaths_imported : 0\nmax_depth      : 5\ncur_path       : 165\npending_favs   : 110\npending_total  : 406\nvariable_paths : 0\nbitmap_cvg     : 2.51%\nunique_crashes : 0\nunique_hangs   : 2\nlast_path      : 1500379692\nlast_crash     : 0\nlast_hang      : 1500376577\nexec_timeout   : 20\nafl_banner     : fuzzer-master\nafl_version    : 1.85b\ncommand_line   : /home/skaramcheti/.virtualenvs/afl/bin/afl-unix/afl-fuzz -i /dev/shm/work/Water_Treatment_Facility_Simulator/input -o /dev/shm/work/Water_Treatment_Facility_Simulator/sync -m 4G -Q -M fuzzer-master -x /dev/shm/work/Water_Treatment_Facility_Simulator/Water_Treatment_Facility_Simulator.dict -- data/linux/processed-challenges/Water_Treatment_Facility_Simulator/bin/Water_Treatment_Facility_Simulator\n'
p135
I1
tp136
a(I8160
S'start_time     : 1500371786\nlast_update    : 1500379900\nfuzzer_pid     : 8879\ncycles_done    : 0\nexecs_done     : 3160778\nexecs_per_sec  : 340.65\npaths_total    : 441\npaths_favored  : 131\npaths_found    : 440\npaths_imported : 0\nmax_depth      : 5\ncur_path       : 167\npending_favs   : 110\npending_total  : 406\nvariable_paths : 0\nbitmap_cvg     : 2.51%\nunique_crashes : 0\nunique_hangs   : 2\nlast_path      : 1500379813\nlast_crash     : 0\nlast_hang      : 1500376577\nexec_timeout   : 20\nafl_banner     : fuzzer-master\nafl_version    : 1.85b\ncommand_line   : /home/skaramcheti/.virtualenvs/afl/bin/afl-unix/afl-fuzz -i /dev/shm/work/Water_Treatment_Facility_Simulator/input -o /dev/shm/work/Water_Treatment_Facility_Simulator/sync -m 4G -Q -M fuzzer-master -x /dev/shm/work/Water_Treatment_Facility_Simulator/Water_Treatment_Facility_Simulator.dict -- data/linux/processed-challenges/Water_Treatment_Facility_Simulator/bin/Water_Treatment_Facility_Simulator\n'
p137
I2
tp138
a(I8280
S'start_time     : 1500371786\nlast_update    : 1500380021\nfuzzer_pid     : 8879\ncycles_done    : 0\nexecs_done     : 3204515\nexecs_per_sec  : 367.28\npaths_total    : 445\npaths_favored  : 131\npaths_found    : 444\npaths_imported : 0\nmax_depth      : 5\ncur_path       : 167\npending_favs   : 110\npending_total  : 410\nvariable_paths : 0\nbitmap_cvg     : 2.51%\nunique_crashes : 0\nunique_hangs   : 2\nlast_path      : 1500380006\nlast_crash     : 0\nlast_hang      : 1500376577\nexec_timeout   : 20\nafl_banner     : fuzzer-master\nafl_version    : 1.85b\ncommand_line   : /home/skaramcheti/.virtualenvs/afl/bin/afl-unix/afl-fuzz -i /dev/shm/work/Water_Treatment_Facility_Simulator/input -o /dev/shm/work/Water_Treatment_Facility_Simulator/sync -m 4G -Q -M fuzzer-master -x /dev/shm/work/Water_Treatment_Facility_Simulator/Water_Treatment_Facility_Simulator.dict -- data/linux/processed-challenges/Water_Treatment_Facility_Simulator/bin/Water_Treatment_Facility_Simulator\n'
p139
I3
tp140
a(I8400
S'start_time     : 1500371786\nlast_update    : 1500380141\nfuzzer_pid     : 8879\ncycles_done    : 0\nexecs_done     : 3248870\nexecs_per_sec  : 374.87\npaths_total    : 446\npaths_favored  : 131\npaths_found    : 445\npaths_imported : 0\nmax_depth      : 5\ncur_path       : 167\npending_favs   : 110\npending_total  : 411\nvariable_paths : 0\nbitmap_cvg     : 2.51%\nunique_crashes : 0\nunique_hangs   : 2\nlast_path      : 1500380062\nlast_crash     : 0\nlast_hang      : 1500376577\nexec_timeout   : 20\nafl_banner     : fuzzer-master\nafl_version    : 1.85b\ncommand_line   : /home/skaramcheti/.virtualenvs/afl/bin/afl-unix/afl-fuzz -i /dev/shm/work/Water_Treatment_Facility_Simulator/input -o /dev/shm/work/Water_Treatment_Facility_Simulator/sync -m 4G -Q -M fuzzer-master -x /dev/shm/work/Water_Treatment_Facility_Simulator/Water_Treatment_Facility_Simulator.dict -- data/linux/processed-challenges/Water_Treatment_Facility_Simulator/bin/Water_Treatment_Facility_Simulator\n'
p141
I3
tp142
a(I8520
S'start_time     : 1500371786\nlast_update    : 1500380261\nfuzzer_pid     : 8879\ncycles_done    : 0\nexecs_done     : 3292985\nexecs_per_sec  : 367.17\npaths_total    : 451\npaths_favored  : 131\npaths_found    : 450\npaths_imported : 0\nmax_depth      : 5\ncur_path       : 167\npending_favs   : 110\npending_total  : 416\nvariable_paths : 0\nbitmap_cvg     : 2.51%\nunique_crashes : 0\nunique_hangs   : 2\nlast_path      : 1500380258\nlast_crash     : 0\nlast_hang      : 1500376577\nexec_timeout   : 20\nafl_banner     : fuzzer-master\nafl_version    : 1.85b\ncommand_line   : /home/skaramcheti/.virtualenvs/afl/bin/afl-unix/afl-fuzz -i /dev/shm/work/Water_Treatment_Facility_Simulator/input -o /dev/shm/work/Water_Treatment_Facility_Simulator/sync -m 4G -Q -M fuzzer-master -x /dev/shm/work/Water_Treatment_Facility_Simulator/Water_Treatment_Facility_Simulator.dict -- data/linux/processed-challenges/Water_Treatment_Facility_Simulator/bin/Water_Treatment_Facility_Simulator\n'
p143
I3
tp144
a(I8640
S'start_time     : 1500371786\nlast_update    : 1500380381\nfuzzer_pid     : 8879\ncycles_done    : 0\nexecs_done     : 3337549\nexecs_per_sec  : 384.64\npaths_total    : 453\npaths_favored  : 130\npaths_found    : 452\npaths_imported : 0\nmax_depth      : 5\ncur_path       : 168\npending_favs   : 108\npending_total  : 417\nvariable_paths : 0\nbitmap_cvg     : 2.52%\nunique_crashes : 0\nunique_hangs   : 2\nlast_path      : 1500380375\nlast_crash     : 0\nlast_hang      : 1500376577\nexec_timeout   : 20\nafl_banner     : fuzzer-master\nafl_version    : 1.85b\ncommand_line   : /home/skaramcheti/.virtualenvs/afl/bin/afl-unix/afl-fuzz -i /dev/shm/work/Water_Treatment_Facility_Simulator/input -o /dev/shm/work/Water_Treatment_Facility_Simulator/sync -m 4G -Q -M fuzzer-master -x /dev/shm/work/Water_Treatment_Facility_Simulator/Water_Treatment_Facility_Simulator.dict -- data/linux/processed-challenges/Water_Treatment_Facility_Simulator/bin/Water_Treatment_Facility_Simulator\n'
p145
I1
tp146
a(I8760
S'start_time     : 1500371786\nlast_update    : 1500380501\nfuzzer_pid     : 8879\ncycles_done    : 0\nexecs_done     : 3380232\nexecs_per_sec  : 307.74\npaths_total    : 453\npaths_favored  : 131\npaths_found    : 452\npaths_imported : 0\nmax_depth      : 5\ncur_path       : 197\npending_favs   : 107\npending_total  : 415\nvariable_paths : 0\nbitmap_cvg     : 2.52%\nunique_crashes : 0\nunique_hangs   : 2\nlast_path      : 1500380375\nlast_crash     : 0\nlast_hang      : 1500376577\nexec_timeout   : 20\nafl_banner     : fuzzer-master\nafl_version    : 1.85b\ncommand_line   : /home/skaramcheti/.virtualenvs/afl/bin/afl-unix/afl-fuzz -i /dev/shm/work/Water_Treatment_Facility_Simulator/input -o /dev/shm/work/Water_Treatment_Facility_Simulator/sync -m 4G -Q -M fuzzer-master -x /dev/shm/work/Water_Treatment_Facility_Simulator/Water_Treatment_Facility_Simulator.dict -- data/linux/processed-challenges/Water_Treatment_Facility_Simulator/bin/Water_Treatment_Facility_Simulator\n'
p147
I0
tp148
a(I8880
S'start_time     : 1500371786\nlast_update    : 1500380621\nfuzzer_pid     : 8879\ncycles_done    : 0\nexecs_done     : 3416994\nexecs_per_sec  : 317.46\npaths_total    : 453\npaths_favored  : 131\npaths_found    : 452\npaths_imported : 0\nmax_depth      : 5\ncur_path       : 197\npending_favs   : 107\npending_total  : 415\nvariable_paths : 0\nbitmap_cvg     : 2.52%\nunique_crashes : 0\nunique_hangs   : 2\nlast_path      : 1500380375\nlast_crash     : 0\nlast_hang      : 1500376577\nexec_timeout   : 20\nafl_banner     : fuzzer-master\nafl_version    : 1.85b\ncommand_line   : /home/skaramcheti/.virtualenvs/afl/bin/afl-unix/afl-fuzz -i /dev/shm/work/Water_Treatment_Facility_Simulator/input -o /dev/shm/work/Water_Treatment_Facility_Simulator/sync -m 4G -Q -M fuzzer-master -x /dev/shm/work/Water_Treatment_Facility_Simulator/Water_Treatment_Facility_Simulator.dict -- data/linux/processed-challenges/Water_Treatment_Facility_Simulator/bin/Water_Treatment_Facility_Simulator\n'
p149
I0
tp150
a(I9000
S'start_time     : 1500371786\nlast_update    : 1500380742\nfuzzer_pid     : 8879\ncycles_done    : 0\nexecs_done     : 3453778\nexecs_per_sec  : 315.74\npaths_total    : 460\npaths_favored  : 131\npaths_found    : 459\npaths_imported : 0\nmax_depth      : 5\ncur_path       : 197\npending_favs   : 107\npending_total  : 422\nvariable_paths : 0\nbitmap_cvg     : 2.52%\nunique_crashes : 0\nunique_hangs   : 2\nlast_path      : 1500380735\nlast_crash     : 0\nlast_hang      : 1500376577\nexec_timeout   : 20\nafl_banner     : fuzzer-master\nafl_version    : 1.85b\ncommand_line   : /home/skaramcheti/.virtualenvs/afl/bin/afl-unix/afl-fuzz -i /dev/shm/work/Water_Treatment_Facility_Simulator/input -o /dev/shm/work/Water_Treatment_Facility_Simulator/sync -m 4G -Q -M fuzzer-master -x /dev/shm/work/Water_Treatment_Facility_Simulator/Water_Treatment_Facility_Simulator.dict -- data/linux/processed-challenges/Water_Treatment_Facility_Simulator/bin/Water_Treatment_Facility_Simulator\n'
p151
I8
tp152
a(I9120
S'start_time     : 1500371786\nlast_update    : 1500380862\nfuzzer_pid     : 8879\ncycles_done    : 0\nexecs_done     : 3491890\nexecs_per_sec  : 317.71\npaths_total    : 463\npaths_favored  : 131\npaths_found    : 462\npaths_imported : 0\nmax_depth      : 5\ncur_path       : 197\npending_favs   : 107\npending_total  : 425\nvariable_paths : 0\nbitmap_cvg     : 2.52%\nunique_crashes : 0\nunique_hangs   : 2\nlast_path      : 1500380858\nlast_crash     : 0\nlast_hang      : 1500376577\nexec_timeout   : 20\nafl_banner     : fuzzer-master\nafl_version    : 1.85b\ncommand_line   : /home/skaramcheti/.virtualenvs/afl/bin/afl-unix/afl-fuzz -i /dev/shm/work/Water_Treatment_Facility_Simulator/input -o /dev/shm/work/Water_Treatment_Facility_Simulator/sync -m 4G -Q -M fuzzer-master -x /dev/shm/work/Water_Treatment_Facility_Simulator/Water_Treatment_Facility_Simulator.dict -- data/linux/processed-challenges/Water_Treatment_Facility_Simulator/bin/Water_Treatment_Facility_Simulator\n'
p153
I2
tp154
a(I9240
S'start_time     : 1500371786\nlast_update    : 1500380982\nfuzzer_pid     : 8879\ncycles_done    : 0\nexecs_done     : 3530170\nexecs_per_sec  : 323.21\npaths_total    : 463\npaths_favored  : 131\npaths_found    : 462\npaths_imported : 0\nmax_depth      : 5\ncur_path       : 197\npending_favs   : 107\npending_total  : 425\nvariable_paths : 0\nbitmap_cvg     : 2.52%\nunique_crashes : 0\nunique_hangs   : 2\nlast_path      : 1500380858\nlast_crash     : 0\nlast_hang      : 1500376577\nexec_timeout   : 20\nafl_banner     : fuzzer-master\nafl_version    : 1.85b\ncommand_line   : /home/skaramcheti/.virtualenvs/afl/bin/afl-unix/afl-fuzz -i /dev/shm/work/Water_Treatment_Facility_Simulator/input -o /dev/shm/work/Water_Treatment_Facility_Simulator/sync -m 4G -Q -M fuzzer-master -x /dev/shm/work/Water_Treatment_Facility_Simulator/Water_Treatment_Facility_Simulator.dict -- data/linux/processed-challenges/Water_Treatment_Facility_Simulator/bin/Water_Treatment_Facility_Simulator\n'
p155
I0
tp156
a(I9360
S'start_time     : 1500371786\nlast_update    : 1500381102\nfuzzer_pid     : 8879\ncycles_done    : 0\nexecs_done     : 3568694\nexecs_per_sec  : 323.50\npaths_total    : 464\npaths_favored  : 131\npaths_found    : 463\npaths_imported : 0\nmax_depth      : 5\ncur_path       : 197\npending_favs   : 107\npending_total  : 426\nvariable_paths : 0\nbitmap_cvg     : 2.52%\nunique_crashes : 0\nunique_hangs   : 2\nlast_path      : 1500381053\nlast_crash     : 0\nlast_hang      : 1500376577\nexec_timeout   : 20\nafl_banner     : fuzzer-master\nafl_version    : 1.85b\ncommand_line   : /home/skaramcheti/.virtualenvs/afl/bin/afl-unix/afl-fuzz -i /dev/shm/work/Water_Treatment_Facility_Simulator/input -o /dev/shm/work/Water_Treatment_Facility_Simulator/sync -m 4G -Q -M fuzzer-master -x /dev/shm/work/Water_Treatment_Facility_Simulator/Water_Treatment_Facility_Simulator.dict -- data/linux/processed-challenges/Water_Treatment_Facility_Simulator/bin/Water_Treatment_Facility_Simulator\n'
p157
I1
tp158
a(I9480
S'start_time     : 1500371786\nlast_update    : 1500381222\nfuzzer_pid     : 8879\ncycles_done    : 0\nexecs_done     : 3608132\nexecs_per_sec  : 368.35\npaths_total    : 465\npaths_favored  : 131\npaths_found    : 464\npaths_imported : 0\nmax_depth      : 5\ncur_path       : 204\npending_favs   : 106\npending_total  : 426\nvariable_paths : 0\nbitmap_cvg     : 2.52%\nunique_crashes : 0\nunique_hangs   : 2\nlast_path      : 1500381220\nlast_crash     : 0\nlast_hang      : 1500376577\nexec_timeout   : 20\nafl_banner     : fuzzer-master\nafl_version    : 1.85b\ncommand_line   : /home/skaramcheti/.virtualenvs/afl/bin/afl-unix/afl-fuzz -i /dev/shm/work/Water_Treatment_Facility_Simulator/input -o /dev/shm/work/Water_Treatment_Facility_Simulator/sync -m 4G -Q -M fuzzer-master -x /dev/shm/work/Water_Treatment_Facility_Simulator/Water_Treatment_Facility_Simulator.dict -- data/linux/processed-challenges/Water_Treatment_Facility_Simulator/bin/Water_Treatment_Facility_Simulator\n'
p159
I5
tp160
a(I9600
S'start_time     : 1500371786\nlast_update    : 1500381343\nfuzzer_pid     : 8879\ncycles_done    : 0\nexecs_done     : 3653989\nexecs_per_sec  : 376.40\npaths_total    : 472\npaths_favored  : 131\npaths_found    : 471\npaths_imported : 0\nmax_depth      : 5\ncur_path       : 204\npending_favs   : 106\npending_total  : 433\nvariable_paths : 0\nbitmap_cvg     : 2.52%\nunique_crashes : 0\nunique_hangs   : 2\nlast_path      : 1500381312\nlast_crash     : 0\nlast_hang      : 1500376577\nexec_timeout   : 20\nafl_banner     : fuzzer-master\nafl_version    : 1.85b\ncommand_line   : /home/skaramcheti/.virtualenvs/afl/bin/afl-unix/afl-fuzz -i /dev/shm/work/Water_Treatment_Facility_Simulator/input -o /dev/shm/work/Water_Treatment_Facility_Simulator/sync -m 4G -Q -M fuzzer-master -x /dev/shm/work/Water_Treatment_Facility_Simulator/Water_Treatment_Facility_Simulator.dict -- data/linux/processed-challenges/Water_Treatment_Facility_Simulator/bin/Water_Treatment_Facility_Simulator\n'
p161
I4
tp162
a(I9720
S'start_time     : 1500371786\nlast_update    : 1500381463\nfuzzer_pid     : 8879\ncycles_done    : 0\nexecs_done     : 3700241\nexecs_per_sec  : 383.05\npaths_total    : 473\npaths_favored  : 131\npaths_found    : 472\npaths_imported : 0\nmax_depth      : 5\ncur_path       : 204\npending_favs   : 106\npending_total  : 434\nvariable_paths : 0\nbitmap_cvg     : 2.52%\nunique_crashes : 0\nunique_hangs   : 2\nlast_path      : 1500381349\nlast_crash     : 0\nlast_hang      : 1500376577\nexec_timeout   : 20\nafl_banner     : fuzzer-master\nafl_version    : 1.85b\ncommand_line   : /home/skaramcheti/.virtualenvs/afl/bin/afl-unix/afl-fuzz -i /dev/shm/work/Water_Treatment_Facility_Simulator/input -o /dev/shm/work/Water_Treatment_Facility_Simulator/sync -m 4G -Q -M fuzzer-master -x /dev/shm/work/Water_Treatment_Facility_Simulator/Water_Treatment_Facility_Simulator.dict -- data/linux/processed-challenges/Water_Treatment_Facility_Simulator/bin/Water_Treatment_Facility_Simulator\n'
p163
I0
tp164
a(I9840
S'start_time     : 1500371786\nlast_update    : 1500381583\nfuzzer_pid     : 8879\ncycles_done    : 0\nexecs_done     : 3745939\nexecs_per_sec  : 385.87\npaths_total    : 476\npaths_favored  : 131\npaths_found    : 475\npaths_imported : 0\nmax_depth      : 5\ncur_path       : 204\npending_favs   : 106\npending_total  : 437\nvariable_paths : 0\nbitmap_cvg     : 2.52%\nunique_crashes : 0\nunique_hangs   : 2\nlast_path      : 1500381579\nlast_crash     : 0\nlast_hang      : 1500376577\nexec_timeout   : 20\nafl_banner     : fuzzer-master\nafl_version    : 1.85b\ncommand_line   : /home/skaramcheti/.virtualenvs/afl/bin/afl-unix/afl-fuzz -i /dev/shm/work/Water_Treatment_Facility_Simulator/input -o /dev/shm/work/Water_Treatment_Facility_Simulator/sync -m 4G -Q -M fuzzer-master -x /dev/shm/work/Water_Treatment_Facility_Simulator/Water_Treatment_Facility_Simulator.dict -- data/linux/processed-challenges/Water_Treatment_Facility_Simulator/bin/Water_Treatment_Facility_Simulator\n'
p165
I3
tp166
a(I9960
S'start_time     : 1500371786\nlast_update    : 1500381703\nfuzzer_pid     : 8879\ncycles_done    : 0\nexecs_done     : 3792063\nexecs_per_sec  : 387.37\npaths_total    : 478\npaths_favored  : 132\npaths_found    : 477\npaths_imported : 0\nmax_depth      : 5\ncur_path       : 215\npending_favs   : 107\npending_total  : 438\nvariable_paths : 0\nbitmap_cvg     : 2.52%\nunique_crashes : 0\nunique_hangs   : 2\nlast_path      : 1500381681\nlast_crash     : 0\nlast_hang      : 1500376577\nexec_timeout   : 20\nafl_banner     : fuzzer-master\nafl_version    : 1.85b\ncommand_line   : /home/skaramcheti/.virtualenvs/afl/bin/afl-unix/afl-fuzz -i /dev/shm/work/Water_Treatment_Facility_Simulator/input -o /dev/shm/work/Water_Treatment_Facility_Simulator/sync -m 4G -Q -M fuzzer-master -x /dev/shm/work/Water_Treatment_Facility_Simulator/Water_Treatment_Facility_Simulator.dict -- data/linux/processed-challenges/Water_Treatment_Facility_Simulator/bin/Water_Treatment_Facility_Simulator\n'
p167
I6
tp168
a(I10080
S'start_time     : 1500371786\nlast_update    : 1500381824\nfuzzer_pid     : 8879\ncycles_done    : 0\nexecs_done     : 3839051\nexecs_per_sec  : 387.85\npaths_total    : 484\npaths_favored  : 132\npaths_found    : 483\npaths_imported : 0\nmax_depth      : 5\ncur_path       : 215\npending_favs   : 107\npending_total  : 444\nvariable_paths : 0\nbitmap_cvg     : 2.53%\nunique_crashes : 0\nunique_hangs   : 2\nlast_path      : 1500381804\nlast_crash     : 0\nlast_hang      : 1500376577\nexec_timeout   : 20\nafl_banner     : fuzzer-master\nafl_version    : 1.85b\ncommand_line   : /home/skaramcheti/.virtualenvs/afl/bin/afl-unix/afl-fuzz -i /dev/shm/work/Water_Treatment_Facility_Simulator/input -o /dev/shm/work/Water_Treatment_Facility_Simulator/sync -m 4G -Q -M fuzzer-master -x /dev/shm/work/Water_Treatment_Facility_Simulator/Water_Treatment_Facility_Simulator.dict -- data/linux/processed-challenges/Water_Treatment_Facility_Simulator/bin/Water_Treatment_Facility_Simulator\n'
p169
I4
tp170
a(I10200
S'start_time     : 1500371786\nlast_update    : 1500381944\nfuzzer_pid     : 8879\ncycles_done    : 0\nexecs_done     : 3885399\nexecs_per_sec  : 383.75\npaths_total    : 489\npaths_favored  : 132\npaths_found    : 488\npaths_imported : 0\nmax_depth      : 5\ncur_path       : 215\npending_favs   : 107\npending_total  : 449\nvariable_paths : 0\nbitmap_cvg     : 2.54%\nunique_crashes : 0\nunique_hangs   : 2\nlast_path      : 1500381916\nlast_crash     : 0\nlast_hang      : 1500376577\nexec_timeout   : 20\nafl_banner     : fuzzer-master\nafl_version    : 1.85b\ncommand_line   : /home/skaramcheti/.virtualenvs/afl/bin/afl-unix/afl-fuzz -i /dev/shm/work/Water_Treatment_Facility_Simulator/input -o /dev/shm/work/Water_Treatment_Facility_Simulator/sync -m 4G -Q -M fuzzer-master -x /dev/shm/work/Water_Treatment_Facility_Simulator/Water_Treatment_Facility_Simulator.dict -- data/linux/processed-challenges/Water_Treatment_Facility_Simulator/bin/Water_Treatment_Facility_Simulator\n'
p171
I5
tp172
a(I10320
S'start_time     : 1500371786\nlast_update    : 1500382064\nfuzzer_pid     : 8879\ncycles_done    : 0\nexecs_done     : 3931899\nexecs_per_sec  : 393.63\npaths_total    : 491\npaths_favored  : 132\npaths_found    : 490\npaths_imported : 0\nmax_depth      : 5\ncur_path       : 215\npending_favs   : 107\npending_total  : 451\nvariable_paths : 0\nbitmap_cvg     : 2.54%\nunique_crashes : 0\nunique_hangs   : 2\nlast_path      : 1500381966\nlast_crash     : 0\nlast_hang      : 1500376577\nexec_timeout   : 20\nafl_banner     : fuzzer-master\nafl_version    : 1.85b\ncommand_line   : /home/skaramcheti/.virtualenvs/afl/bin/afl-unix/afl-fuzz -i /dev/shm/work/Water_Treatment_Facility_Simulator/input -o /dev/shm/work/Water_Treatment_Facility_Simulator/sync -m 4G -Q -M fuzzer-master -x /dev/shm/work/Water_Treatment_Facility_Simulator/Water_Treatment_Facility_Simulator.dict -- data/linux/processed-challenges/Water_Treatment_Facility_Simulator/bin/Water_Treatment_Facility_Simulator\n'
p173
I6
tp174
a(I10440
S'start_time     : 1500371786\nlast_update    : 1500382184\nfuzzer_pid     : 8879\ncycles_done    : 0\nexecs_done     : 3977069\nexecs_per_sec  : 381.42\npaths_total    : 499\npaths_favored  : 139\npaths_found    : 498\npaths_imported : 0\nmax_depth      : 5\ncur_path       : 219\npending_favs   : 113\npending_total  : 458\nvariable_paths : 0\nbitmap_cvg     : 2.54%\nunique_crashes : 0\nunique_hangs   : 2\nlast_path      : 1500382161\nlast_crash     : 0\nlast_hang      : 1500376577\nexec_timeout   : 20\nafl_banner     : fuzzer-master\nafl_version    : 1.85b\ncommand_line   : /home/skaramcheti/.virtualenvs/afl/bin/afl-unix/afl-fuzz -i /dev/shm/work/Water_Treatment_Facility_Simulator/input -o /dev/shm/work/Water_Treatment_Facility_Simulator/sync -m 4G -Q -M fuzzer-master -x /dev/shm/work/Water_Treatment_Facility_Simulator/Water_Treatment_Facility_Simulator.dict -- data/linux/processed-challenges/Water_Treatment_Facility_Simulator/bin/Water_Treatment_Facility_Simulator\n'
p175
I5
tp176
a(I10560
S'start_time     : 1500371786\nlast_update    : 1500382304\nfuzzer_pid     : 8879\ncycles_done    : 0\nexecs_done     : 4023321\nexecs_per_sec  : 389.42\npaths_total    : 507\npaths_favored  : 139\npaths_found    : 506\npaths_imported : 0\nmax_depth      : 5\ncur_path       : 219\npending_favs   : 113\npending_total  : 466\nvariable_paths : 0\nbitmap_cvg     : 2.54%\nunique_crashes : 0\nunique_hangs   : 2\nlast_path      : 1500382296\nlast_crash     : 0\nlast_hang      : 1500376577\nexec_timeout   : 20\nafl_banner     : fuzzer-master\nafl_version    : 1.85b\ncommand_line   : /home/skaramcheti/.virtualenvs/afl/bin/afl-unix/afl-fuzz -i /dev/shm/work/Water_Treatment_Facility_Simulator/input -o /dev/shm/work/Water_Treatment_Facility_Simulator/sync -m 4G -Q -M fuzzer-master -x /dev/shm/work/Water_Treatment_Facility_Simulator/Water_Treatment_Facility_Simulator.dict -- data/linux/processed-challenges/Water_Treatment_Facility_Simulator/bin/Water_Treatment_Facility_Simulator\n'
p177
I7
tp178
a(I10680
S'start_time     : 1500371786\nlast_update    : 1500382425\nfuzzer_pid     : 8879\ncycles_done    : 0\nexecs_done     : 4069569\nexecs_per_sec  : 386.38\npaths_total    : 509\npaths_favored  : 139\npaths_found    : 508\npaths_imported : 0\nmax_depth      : 5\ncur_path       : 219\npending_favs   : 113\npending_total  : 468\nvariable_paths : 0\nbitmap_cvg     : 2.54%\nunique_crashes : 0\nunique_hangs   : 2\nlast_path      : 1500382331\nlast_crash     : 0\nlast_hang      : 1500376577\nexec_timeout   : 20\nafl_banner     : fuzzer-master\nafl_version    : 1.85b\ncommand_line   : /home/skaramcheti/.virtualenvs/afl/bin/afl-unix/afl-fuzz -i /dev/shm/work/Water_Treatment_Facility_Simulator/input -o /dev/shm/work/Water_Treatment_Facility_Simulator/sync -m 4G -Q -M fuzzer-master -x /dev/shm/work/Water_Treatment_Facility_Simulator/Water_Treatment_Facility_Simulator.dict -- data/linux/processed-challenges/Water_Treatment_Facility_Simulator/bin/Water_Treatment_Facility_Simulator\n'
p179
I2
tp180
a.