(lp0
(I0
S'start_time     : 1500328288\nlast_update    : 1500328288\nfuzzer_pid     : 3874\ncycles_done    : 0\nexecs_done     : 10\nexecs_per_sec  : 125.00\npaths_total    : 1\npaths_favored  : 1\npaths_found    : 0\npaths_imported : 0\nmax_depth      : 1\ncur_path       : 0\npending_favs   : 1\npending_total  : 1\nvariable_paths : 0\nbitmap_cvg     : 0.36%\nunique_crashes : 0\nunique_hangs   : 0\nlast_path      : 0\nlast_crash     : 0\nlast_hang      : 0\nexec_timeout   : 40\nafl_banner     : fuzzer-master\nafl_version    : 1.85b\ncommand_line   : /home/skaramcheti/.virtualenvs/afl/bin/afl-unix/afl-fuzz -i /dev/shm/work/REMATCH_3--Address_Resolution_Service--SQL_Slammer/input -o /dev/shm/work/REMATCH_3--Address_Resolution_Service--SQL_Slammer/sync -m 4G -Q -M fuzzer-master -x /dev/shm/work/REMATCH_3--Address_Resolution_Service--SQL_Slammer/REMATCH_3--Address_Resolution_Service--SQL_Slammer.dict -- data/linux/processed-challenges/REMATCH_3--Address_Resolution_Service--SQL_Slammer/bin/REMATCH_3--Address_Resolution_Service--SQL_Slammer\n'
p1
I16
tp2
a(I120
S'start_time     : 1500328288\nlast_update    : 1500328408\nfuzzer_pid     : 3874\ncycles_done    : 0\nexecs_done     : 33667\nexecs_per_sec  : 275.83\npaths_total    : 30\npaths_favored  : 1\npaths_found    : 29\npaths_imported : 0\nmax_depth      : 2\ncur_path       : 0\npending_favs   : 1\npending_total  : 30\nvariable_paths : 0\nbitmap_cvg     : 0.71%\nunique_crashes : 0\nunique_hangs   : 0\nlast_path      : 1500328383\nlast_crash     : 0\nlast_hang      : 0\nexec_timeout   : 40\nafl_banner     : fuzzer-master\nafl_version    : 1.85b\ncommand_line   : /home/skaramcheti/.virtualenvs/afl/bin/afl-unix/afl-fuzz -i /dev/shm/work/REMATCH_3--Address_Resolution_Service--SQL_Slammer/input -o /dev/shm/work/REMATCH_3--Address_Resolution_Service--SQL_Slammer/sync -m 4G -Q -M fuzzer-master -x /dev/shm/work/REMATCH_3--Address_Resolution_Service--SQL_Slammer/REMATCH_3--Address_Resolution_Service--SQL_Slammer.dict -- data/linux/processed-challenges/REMATCH_3--Address_Resolution_Service--SQL_Slammer/bin/REMATCH_3--Address_Resolution_Service--SQL_Slammer\n'
p3
I15
tp4
a(I240
S'start_time     : 1500328288\nlast_update    : 1500328529\nfuzzer_pid     : 3874\ncycles_done    : 0\nexecs_done     : 67152\nexecs_per_sec  : 276.42\npaths_total    : 35\npaths_favored  : 1\npaths_found    : 34\npaths_imported : 0\nmax_depth      : 2\ncur_path       : 0\npending_favs   : 1\npending_total  : 35\nvariable_paths : 0\nbitmap_cvg     : 0.72%\nunique_crashes : 0\nunique_hangs   : 0\nlast_path      : 1500328449\nlast_crash     : 0\nlast_hang      : 0\nexec_timeout   : 40\nafl_banner     : fuzzer-master\nafl_version    : 1.85b\ncommand_line   : /home/skaramcheti/.virtualenvs/afl/bin/afl-unix/afl-fuzz -i /dev/shm/work/REMATCH_3--Address_Resolution_Service--SQL_Slammer/input -o /dev/shm/work/REMATCH_3--Address_Resolution_Service--SQL_Slammer/sync -m 4G -Q -M fuzzer-master -x /dev/shm/work/REMATCH_3--Address_Resolution_Service--SQL_Slammer/REMATCH_3--Address_Resolution_Service--SQL_Slammer.dict -- data/linux/processed-challenges/REMATCH_3--Address_Resolution_Service--SQL_Slammer/bin/REMATCH_3--Address_Resolution_Service--SQL_Slammer\n'
p5
I4
tp6
a(I360
S'start_time     : 1500328288\nlast_update    : 1500328649\nfuzzer_pid     : 3874\ncycles_done    : 0\nexecs_done     : 100742\nexecs_per_sec  : 276.56\npaths_total    : 38\npaths_favored  : 1\npaths_found    : 37\npaths_imported : 0\nmax_depth      : 2\ncur_path       : 0\npending_favs   : 1\npending_total  : 38\nvariable_paths : 0\nbitmap_cvg     : 0.72%\nunique_crashes : 0\nunique_hangs   : 0\nlast_path      : 1500328598\nlast_crash     : 0\nlast_hang      : 0\nexec_timeout   : 40\nafl_banner     : fuzzer-master\nafl_version    : 1.85b\ncommand_line   : /home/skaramcheti/.virtualenvs/afl/bin/afl-unix/afl-fuzz -i /dev/shm/work/REMATCH_3--Address_Resolution_Service--SQL_Slammer/input -o /dev/shm/work/REMATCH_3--Address_Resolution_Service--SQL_Slammer/sync -m 4G -Q -M fuzzer-master -x /dev/shm/work/REMATCH_3--Address_Resolution_Service--SQL_Slammer/REMATCH_3--Address_Resolution_Service--SQL_Slammer.dict -- data/linux/processed-challenges/REMATCH_3--Address_Resolution_Service--SQL_Slammer/bin/REMATCH_3--Address_Resolution_Service--SQL_Slammer\n'
p7
I4
tp8
a(I480
S'start_time     : 1500328288\nlast_update    : 1500328769\nfuzzer_pid     : 3874\ncycles_done    : 0\nexecs_done     : 134427\nexecs_per_sec  : 284.00\npaths_total    : 42\npaths_favored  : 1\npaths_found    : 41\npaths_imported : 0\nmax_depth      : 2\ncur_path       : 0\npending_favs   : 1\npending_total  : 42\nvariable_paths : 0\nbitmap_cvg     : 0.72%\nunique_crashes : 0\nunique_hangs   : 0\nlast_path      : 1500328727\nlast_crash     : 0\nlast_hang      : 0\nexec_timeout   : 40\nafl_banner     : fuzzer-master\nafl_version    : 1.85b\ncommand_line   : /home/skaramcheti/.virtualenvs/afl/bin/afl-unix/afl-fuzz -i /dev/shm/work/REMATCH_3--Address_Resolution_Service--SQL_Slammer/input -o /dev/shm/work/REMATCH_3--Address_Resolution_Service--SQL_Slammer/sync -m 4G -Q -M fuzzer-master -x /dev/shm/work/REMATCH_3--Address_Resolution_Service--SQL_Slammer/REMATCH_3--Address_Resolution_Service--SQL_Slammer.dict -- data/linux/processed-challenges/REMATCH_3--Address_Resolution_Service--SQL_Slammer/bin/REMATCH_3--Address_Resolution_Service--SQL_Slammer\n'
p9
I3
tp10
a(I600
S'start_time     : 1500328288\nlast_update    : 1500328889\nfuzzer_pid     : 3874\ncycles_done    : 0\nexecs_done     : 167843\nexecs_per_sec  : 277.56\npaths_total    : 43\npaths_favored  : 19\npaths_found    : 42\npaths_imported : 0\nmax_depth      : 2\ncur_path       : 10\npending_favs   : 18\npending_total  : 41\nvariable_paths : 0\nbitmap_cvg     : 0.75%\nunique_crashes : 0\nunique_hangs   : 0\nlast_path      : 1500328862\nlast_crash     : 0\nlast_hang      : 0\nexec_timeout   : 40\nafl_banner     : fuzzer-master\nafl_version    : 1.85b\ncommand_line   : /home/skaramcheti/.virtualenvs/afl/bin/afl-unix/afl-fuzz -i /dev/shm/work/REMATCH_3--Address_Resolution_Service--SQL_Slammer/input -o /dev/shm/work/REMATCH_3--Address_Resolution_Service--SQL_Slammer/sync -m 4G -Q -M fuzzer-master -x /dev/shm/work/REMATCH_3--Address_Resolution_Service--SQL_Slammer/REMATCH_3--Address_Resolution_Service--SQL_Slammer.dict -- data/linux/processed-challenges/REMATCH_3--Address_Resolution_Service--SQL_Slammer/bin/REMATCH_3--Address_Resolution_Service--SQL_Slammer\n'
p11
I1
tp12
a(I720
S'start_time     : 1500328288\nlast_update    : 1500329009\nfuzzer_pid     : 3874\ncycles_done    : 0\nexecs_done     : 201182\nexecs_per_sec  : 275.72\npaths_total    : 44\npaths_favored  : 19\npaths_found    : 43\npaths_imported : 0\nmax_depth      : 3\ncur_path       : 24\npending_favs   : 13\npending_total  : 36\nvariable_paths : 0\nbitmap_cvg     : 0.75%\nunique_crashes : 0\nunique_hangs   : 0\nlast_path      : 1500328926\nlast_crash     : 0\nlast_hang      : 0\nexec_timeout   : 40\nafl_banner     : fuzzer-master\nafl_version    : 1.85b\ncommand_line   : /home/skaramcheti/.virtualenvs/afl/bin/afl-unix/afl-fuzz -i /dev/shm/work/REMATCH_3--Address_Resolution_Service--SQL_Slammer/input -o /dev/shm/work/REMATCH_3--Address_Resolution_Service--SQL_Slammer/sync -m 4G -Q -M fuzzer-master -x /dev/shm/work/REMATCH_3--Address_Resolution_Service--SQL_Slammer/REMATCH_3--Address_Resolution_Service--SQL_Slammer.dict -- data/linux/processed-challenges/REMATCH_3--Address_Resolution_Service--SQL_Slammer/bin/REMATCH_3--Address_Resolution_Service--SQL_Slammer\n'
p13
I1
tp14
a(I840
S'start_time     : 1500328288\nlast_update    : 1500329129\nfuzzer_pid     : 3874\ncycles_done    : 0\nexecs_done     : 234782\nexecs_per_sec  : 280.36\npaths_total    : 49\npaths_favored  : 19\npaths_found    : 48\npaths_imported : 0\nmax_depth      : 3\ncur_path       : 25\npending_favs   : 12\npending_total  : 40\nvariable_paths : 0\nbitmap_cvg     : 0.77%\nunique_crashes : 0\nunique_hangs   : 0\nlast_path      : 1500329119\nlast_crash     : 0\nlast_hang      : 0\nexec_timeout   : 40\nafl_banner     : fuzzer-master\nafl_version    : 1.85b\ncommand_line   : /home/skaramcheti/.virtualenvs/afl/bin/afl-unix/afl-fuzz -i /dev/shm/work/REMATCH_3--Address_Resolution_Service--SQL_Slammer/input -o /dev/shm/work/REMATCH_3--Address_Resolution_Service--SQL_Slammer/sync -m 4G -Q -M fuzzer-master -x /dev/shm/work/REMATCH_3--Address_Resolution_Service--SQL_Slammer/REMATCH_3--Address_Resolution_Service--SQL_Slammer.dict -- data/linux/processed-challenges/REMATCH_3--Address_Resolution_Service--SQL_Slammer/bin/REMATCH_3--Address_Resolution_Service--SQL_Slammer\n'
p15
I5
tp16
a(I960
S'start_time     : 1500328288\nlast_update    : 1500329250\nfuzzer_pid     : 3874\ncycles_done    : 0\nexecs_done     : 268357\nexecs_per_sec  : 282.31\npaths_total    : 52\npaths_favored  : 19\npaths_found    : 51\npaths_imported : 0\nmax_depth      : 3\ncur_path       : 25\npending_favs   : 12\npending_total  : 43\nvariable_paths : 0\nbitmap_cvg     : 0.78%\nunique_crashes : 0\nunique_hangs   : 0\nlast_path      : 1500329249\nlast_crash     : 0\nlast_hang      : 0\nexec_timeout   : 40\nafl_banner     : fuzzer-master\nafl_version    : 1.85b\ncommand_line   : /home/skaramcheti/.virtualenvs/afl/bin/afl-unix/afl-fuzz -i /dev/shm/work/REMATCH_3--Address_Resolution_Service--SQL_Slammer/input -o /dev/shm/work/REMATCH_3--Address_Resolution_Service--SQL_Slammer/sync -m 4G -Q -M fuzzer-master -x /dev/shm/work/REMATCH_3--Address_Resolution_Service--SQL_Slammer/REMATCH_3--Address_Resolution_Service--SQL_Slammer.dict -- data/linux/processed-challenges/REMATCH_3--Address_Resolution_Service--SQL_Slammer/bin/REMATCH_3--Address_Resolution_Service--SQL_Slammer\n'
p17
I3
tp18
a(I1080
S'start_time     : 1500328288\nlast_update    : 1500329370\nfuzzer_pid     : 3874\ncycles_done    : 0\nexecs_done     : 302192\nexecs_per_sec  : 289.24\npaths_total    : 52\npaths_favored  : 19\npaths_found    : 51\npaths_imported : 0\nmax_depth      : 3\ncur_path       : 25\npending_favs   : 12\npending_total  : 43\nvariable_paths : 0\nbitmap_cvg     : 0.78%\nunique_crashes : 0\nunique_hangs   : 0\nlast_path      : 1500329249\nlast_crash     : 0\nlast_hang      : 0\nexec_timeout   : 40\nafl_banner     : fuzzer-master\nafl_version    : 1.85b\ncommand_line   : /home/skaramcheti/.virtualenvs/afl/bin/afl-unix/afl-fuzz -i /dev/shm/work/REMATCH_3--Address_Resolution_Service--SQL_Slammer/input -o /dev/shm/work/REMATCH_3--Address_Resolution_Service--SQL_Slammer/sync -m 4G -Q -M fuzzer-master -x /dev/shm/work/REMATCH_3--Address_Resolution_Service--SQL_Slammer/REMATCH_3--Address_Resolution_Service--SQL_Slammer.dict -- data/linux/processed-challenges/REMATCH_3--Address_Resolution_Service--SQL_Slammer/bin/REMATCH_3--Address_Resolution_Service--SQL_Slammer\n'
p19
I0
tp20
a(I1200
S'start_time     : 1500328288\nlast_update    : 1500329490\nfuzzer_pid     : 3874\ncycles_done    : 0\nexecs_done     : 335872\nexecs_per_sec  : 278.66\npaths_total    : 54\npaths_favored  : 19\npaths_found    : 53\npaths_imported : 0\nmax_depth      : 3\ncur_path       : 25\npending_favs   : 12\npending_total  : 45\nvariable_paths : 0\nbitmap_cvg     : 0.78%\nunique_crashes : 0\nunique_hangs   : 0\nlast_path      : 1500329455\nlast_crash     : 0\nlast_hang      : 0\nexec_timeout   : 40\nafl_banner     : fuzzer-master\nafl_version    : 1.85b\ncommand_line   : /home/skaramcheti/.virtualenvs/afl/bin/afl-unix/afl-fuzz -i /dev/shm/work/REMATCH_3--Address_Resolution_Service--SQL_Slammer/input -o /dev/shm/work/REMATCH_3--Address_Resolution_Service--SQL_Slammer/sync -m 4G -Q -M fuzzer-master -x /dev/shm/work/REMATCH_3--Address_Resolution_Service--SQL_Slammer/REMATCH_3--Address_Resolution_Service--SQL_Slammer.dict -- data/linux/processed-challenges/REMATCH_3--Address_Resolution_Service--SQL_Slammer/bin/REMATCH_3--Address_Resolution_Service--SQL_Slammer\n'
p21
I2
tp22
a(I1320
S'start_time     : 1500328288\nlast_update    : 1500329610\nfuzzer_pid     : 3874\ncycles_done    : 0\nexecs_done     : 369618\nexecs_per_sec  : 279.84\npaths_total    : 54\npaths_favored  : 17\npaths_found    : 53\npaths_imported : 0\nmax_depth      : 3\ncur_path       : 31\npending_favs   : 11\npending_total  : 44\nvariable_paths : 0\nbitmap_cvg     : 0.78%\nunique_crashes : 0\nunique_hangs   : 0\nlast_path      : 1500329455\nlast_crash     : 0\nlast_hang      : 0\nexec_timeout   : 40\nafl_banner     : fuzzer-master\nafl_version    : 1.85b\ncommand_line   : /home/skaramcheti/.virtualenvs/afl/bin/afl-unix/afl-fuzz -i /dev/shm/work/REMATCH_3--Address_Resolution_Service--SQL_Slammer/input -o /dev/shm/work/REMATCH_3--Address_Resolution_Service--SQL_Slammer/sync -m 4G -Q -M fuzzer-master -x /dev/shm/work/REMATCH_3--Address_Resolution_Service--SQL_Slammer/REMATCH_3--Address_Resolution_Service--SQL_Slammer.dict -- data/linux/processed-challenges/REMATCH_3--Address_Resolution_Service--SQL_Slammer/bin/REMATCH_3--Address_Resolution_Service--SQL_Slammer\n'
p23
I0
tp24
a(I1440
S'start_time     : 1500328288\nlast_update    : 1500329730\nfuzzer_pid     : 3874\ncycles_done    : 0\nexecs_done     : 403166\nexecs_per_sec  : 267.83\npaths_total    : 57\npaths_favored  : 19\npaths_found    : 56\npaths_imported : 0\nmax_depth      : 3\ncur_path       : 40\npending_favs   : 10\npending_total  : 44\nvariable_paths : 0\nbitmap_cvg     : 0.78%\nunique_crashes : 0\nunique_hangs   : 0\nlast_path      : 1500329668\nlast_crash     : 0\nlast_hang      : 0\nexec_timeout   : 40\nafl_banner     : fuzzer-master\nafl_version    : 1.85b\ncommand_line   : /home/skaramcheti/.virtualenvs/afl/bin/afl-unix/afl-fuzz -i /dev/shm/work/REMATCH_3--Address_Resolution_Service--SQL_Slammer/input -o /dev/shm/work/REMATCH_3--Address_Resolution_Service--SQL_Slammer/sync -m 4G -Q -M fuzzer-master -x /dev/shm/work/REMATCH_3--Address_Resolution_Service--SQL_Slammer/REMATCH_3--Address_Resolution_Service--SQL_Slammer.dict -- data/linux/processed-challenges/REMATCH_3--Address_Resolution_Service--SQL_Slammer/bin/REMATCH_3--Address_Resolution_Service--SQL_Slammer\n'
p25
I3
tp26
a(I1560
S'start_time     : 1500328288\nlast_update    : 1500329851\nfuzzer_pid     : 3874\ncycles_done    : 0\nexecs_done     : 435732\nexecs_per_sec  : 271.82\npaths_total    : 62\npaths_favored  : 19\npaths_found    : 61\npaths_imported : 0\nmax_depth      : 3\ncur_path       : 42\npending_favs   : 9\npending_total  : 48\nvariable_paths : 0\nbitmap_cvg     : 0.78%\nunique_crashes : 0\nunique_hangs   : 0\nlast_path      : 1500329822\nlast_crash     : 0\nlast_hang      : 0\nexec_timeout   : 40\nafl_banner     : fuzzer-master\nafl_version    : 1.85b\ncommand_line   : /home/skaramcheti/.virtualenvs/afl/bin/afl-unix/afl-fuzz -i /dev/shm/work/REMATCH_3--Address_Resolution_Service--SQL_Slammer/input -o /dev/shm/work/REMATCH_3--Address_Resolution_Service--SQL_Slammer/sync -m 4G -Q -M fuzzer-master -x /dev/shm/work/REMATCH_3--Address_Resolution_Service--SQL_Slammer/REMATCH_3--Address_Resolution_Service--SQL_Slammer.dict -- data/linux/processed-challenges/REMATCH_3--Address_Resolution_Service--SQL_Slammer/bin/REMATCH_3--Address_Resolution_Service--SQL_Slammer\n'
p27
I5
tp28
a(I1680
S'start_time     : 1500328288\nlast_update    : 1500329971\nfuzzer_pid     : 3874\ncycles_done    : 0\nexecs_done     : 468122\nexecs_per_sec  : 269.63\npaths_total    : 62\npaths_favored  : 19\npaths_found    : 61\npaths_imported : 0\nmax_depth      : 3\ncur_path       : 42\npending_favs   : 9\npending_total  : 48\nvariable_paths : 0\nbitmap_cvg     : 0.78%\nunique_crashes : 0\nunique_hangs   : 0\nlast_path      : 1500329822\nlast_crash     : 0\nlast_hang      : 0\nexec_timeout   : 40\nafl_banner     : fuzzer-master\nafl_version    : 1.85b\ncommand_line   : /home/skaramcheti/.virtualenvs/afl/bin/afl-unix/afl-fuzz -i /dev/shm/work/REMATCH_3--Address_Resolution_Service--SQL_Slammer/input -o /dev/shm/work/REMATCH_3--Address_Resolution_Service--SQL_Slammer/sync -m 4G -Q -M fuzzer-master -x /dev/shm/work/REMATCH_3--Address_Resolution_Service--SQL_Slammer/REMATCH_3--Address_Resolution_Service--SQL_Slammer.dict -- data/linux/processed-challenges/REMATCH_3--Address_Resolution_Service--SQL_Slammer/bin/REMATCH_3--Address_Resolution_Service--SQL_Slammer\n'
p29
I0
tp30
a(I1800
S'start_time     : 1500328288\nlast_update    : 1500330091\nfuzzer_pid     : 3874\ncycles_done    : 0\nexecs_done     : 500352\nexecs_per_sec  : 273.82\npaths_total    : 63\npaths_favored  : 19\npaths_found    : 62\npaths_imported : 0\nmax_depth      : 3\ncur_path       : 42\npending_favs   : 9\npending_total  : 49\nvariable_paths : 0\nbitmap_cvg     : 0.78%\nunique_crashes : 0\nunique_hangs   : 0\nlast_path      : 1500330030\nlast_crash     : 0\nlast_hang      : 0\nexec_timeout   : 40\nafl_banner     : fuzzer-master\nafl_version    : 1.85b\ncommand_line   : /home/skaramcheti/.virtualenvs/afl/bin/afl-unix/afl-fuzz -i /dev/shm/work/REMATCH_3--Address_Resolution_Service--SQL_Slammer/input -o /dev/shm/work/REMATCH_3--Address_Resolution_Service--SQL_Slammer/sync -m 4G -Q -M fuzzer-master -x /dev/shm/work/REMATCH_3--Address_Resolution_Service--SQL_Slammer/REMATCH_3--Address_Resolution_Service--SQL_Slammer.dict -- data/linux/processed-challenges/REMATCH_3--Address_Resolution_Service--SQL_Slammer/bin/REMATCH_3--Address_Resolution_Service--SQL_Slammer\n'
p31
I1
tp32
a(I1920
S'start_time     : 1500328288\nlast_update    : 1500330211\nfuzzer_pid     : 3874\ncycles_done    : 0\nexecs_done     : 532607\nexecs_per_sec  : 270.62\npaths_total    : 64\npaths_favored  : 19\npaths_found    : 63\npaths_imported : 0\nmax_depth      : 3\ncur_path       : 42\npending_favs   : 9\npending_total  : 50\nvariable_paths : 0\nbitmap_cvg     : 0.79%\nunique_crashes : 0\nunique_hangs   : 0\nlast_path      : 1500330125\nlast_crash     : 0\nlast_hang      : 0\nexec_timeout   : 40\nafl_banner     : fuzzer-master\nafl_version    : 1.85b\ncommand_line   : /home/skaramcheti/.virtualenvs/afl/bin/afl-unix/afl-fuzz -i /dev/shm/work/REMATCH_3--Address_Resolution_Service--SQL_Slammer/input -o /dev/shm/work/REMATCH_3--Address_Resolution_Service--SQL_Slammer/sync -m 4G -Q -M fuzzer-master -x /dev/shm/work/REMATCH_3--Address_Resolution_Service--SQL_Slammer/REMATCH_3--Address_Resolution_Service--SQL_Slammer.dict -- data/linux/processed-challenges/REMATCH_3--Address_Resolution_Service--SQL_Slammer/bin/REMATCH_3--Address_Resolution_Service--SQL_Slammer\n'
p33
I1
tp34
a(I2040
S'start_time     : 1500328288\nlast_update    : 1500330331\nfuzzer_pid     : 3874\ncycles_done    : 0\nexecs_done     : 565002\nexecs_per_sec  : 274.17\npaths_total    : 65\npaths_favored  : 19\npaths_found    : 64\npaths_imported : 0\nmax_depth      : 3\ncur_path       : 42\npending_favs   : 9\npending_total  : 51\nvariable_paths : 0\nbitmap_cvg     : 0.79%\nunique_crashes : 0\nunique_hangs   : 0\nlast_path      : 1500330226\nlast_crash     : 0\nlast_hang      : 0\nexec_timeout   : 40\nafl_banner     : fuzzer-master\nafl_version    : 1.85b\ncommand_line   : /home/skaramcheti/.virtualenvs/afl/bin/afl-unix/afl-fuzz -i /dev/shm/work/REMATCH_3--Address_Resolution_Service--SQL_Slammer/input -o /dev/shm/work/REMATCH_3--Address_Resolution_Service--SQL_Slammer/sync -m 4G -Q -M fuzzer-master -x /dev/shm/work/REMATCH_3--Address_Resolution_Service--SQL_Slammer/REMATCH_3--Address_Resolution_Service--SQL_Slammer.dict -- data/linux/processed-challenges/REMATCH_3--Address_Resolution_Service--SQL_Slammer/bin/REMATCH_3--Address_Resolution_Service--SQL_Slammer\n'
p35
I1
tp36
a(I2160
S'start_time     : 1500328288\nlast_update    : 1500330452\nfuzzer_pid     : 3874\ncycles_done    : 0\nexecs_done     : 598591\nexecs_per_sec  : 277.02\npaths_total    : 71\npaths_favored  : 19\npaths_found    : 70\npaths_imported : 0\nmax_depth      : 4\ncur_path       : 45\npending_favs   : 8\npending_total  : 56\nvariable_paths : 0\nbitmap_cvg     : 0.79%\nunique_crashes : 0\nunique_hangs   : 0\nlast_path      : 1500330410\nlast_crash     : 0\nlast_hang      : 0\nexec_timeout   : 40\nafl_banner     : fuzzer-master\nafl_version    : 1.85b\ncommand_line   : /home/skaramcheti/.virtualenvs/afl/bin/afl-unix/afl-fuzz -i /dev/shm/work/REMATCH_3--Address_Resolution_Service--SQL_Slammer/input -o /dev/shm/work/REMATCH_3--Address_Resolution_Service--SQL_Slammer/sync -m 4G -Q -M fuzzer-master -x /dev/shm/work/REMATCH_3--Address_Resolution_Service--SQL_Slammer/REMATCH_3--Address_Resolution_Service--SQL_Slammer.dict -- data/linux/processed-challenges/REMATCH_3--Address_Resolution_Service--SQL_Slammer/bin/REMATCH_3--Address_Resolution_Service--SQL_Slammer\n'
p37
I6
tp38
a(I2280
S'start_time     : 1500328288\nlast_update    : 1500330572\nfuzzer_pid     : 3874\ncycles_done    : 0\nexecs_done     : 632331\nexecs_per_sec  : 278.38\npaths_total    : 73\npaths_favored  : 19\npaths_found    : 72\npaths_imported : 0\nmax_depth      : 4\ncur_path       : 45\npending_favs   : 8\npending_total  : 58\nvariable_paths : 0\nbitmap_cvg     : 0.79%\nunique_crashes : 0\nunique_hangs   : 0\nlast_path      : 1500330507\nlast_crash     : 0\nlast_hang      : 0\nexec_timeout   : 40\nafl_banner     : fuzzer-master\nafl_version    : 1.85b\ncommand_line   : /home/skaramcheti/.virtualenvs/afl/bin/afl-unix/afl-fuzz -i /dev/shm/work/REMATCH_3--Address_Resolution_Service--SQL_Slammer/input -o /dev/shm/work/REMATCH_3--Address_Resolution_Service--SQL_Slammer/sync -m 4G -Q -M fuzzer-master -x /dev/shm/work/REMATCH_3--Address_Resolution_Service--SQL_Slammer/REMATCH_3--Address_Resolution_Service--SQL_Slammer.dict -- data/linux/processed-challenges/REMATCH_3--Address_Resolution_Service--SQL_Slammer/bin/REMATCH_3--Address_Resolution_Service--SQL_Slammer\n'
p39
I2
tp40
a(I2400
S'start_time     : 1500328288\nlast_update    : 1500330692\nfuzzer_pid     : 3874\ncycles_done    : 0\nexecs_done     : 665791\nexecs_per_sec  : 276.22\npaths_total    : 73\npaths_favored  : 19\npaths_found    : 72\npaths_imported : 0\nmax_depth      : 4\ncur_path       : 45\npending_favs   : 8\npending_total  : 58\nvariable_paths : 0\nbitmap_cvg     : 0.79%\nunique_crashes : 0\nunique_hangs   : 0\nlast_path      : 1500330507\nlast_crash     : 0\nlast_hang      : 0\nexec_timeout   : 40\nafl_banner     : fuzzer-master\nafl_version    : 1.85b\ncommand_line   : /home/skaramcheti/.virtualenvs/afl/bin/afl-unix/afl-fuzz -i /dev/shm/work/REMATCH_3--Address_Resolution_Service--SQL_Slammer/input -o /dev/shm/work/REMATCH_3--Address_Resolution_Service--SQL_Slammer/sync -m 4G -Q -M fuzzer-master -x /dev/shm/work/REMATCH_3--Address_Resolution_Service--SQL_Slammer/REMATCH_3--Address_Resolution_Service--SQL_Slammer.dict -- data/linux/processed-challenges/REMATCH_3--Address_Resolution_Service--SQL_Slammer/bin/REMATCH_3--Address_Resolution_Service--SQL_Slammer\n'
p41
I0
tp42
a(I2520
S'start_time     : 1500328288\nlast_update    : 1500330812\nfuzzer_pid     : 3874\ncycles_done    : 0\nexecs_done     : 699131\nexecs_per_sec  : 274.65\npaths_total    : 74\npaths_favored  : 19\npaths_found    : 73\npaths_imported : 0\nmax_depth      : 4\ncur_path       : 45\npending_favs   : 8\npending_total  : 59\nvariable_paths : 0\nbitmap_cvg     : 0.79%\nunique_crashes : 0\nunique_hangs   : 0\nlast_path      : 1500330755\nlast_crash     : 0\nlast_hang      : 0\nexec_timeout   : 40\nafl_banner     : fuzzer-master\nafl_version    : 1.85b\ncommand_line   : /home/skaramcheti/.virtualenvs/afl/bin/afl-unix/afl-fuzz -i /dev/shm/work/REMATCH_3--Address_Resolution_Service--SQL_Slammer/input -o /dev/shm/work/REMATCH_3--Address_Resolution_Service--SQL_Slammer/sync -m 4G -Q -M fuzzer-master -x /dev/shm/work/REMATCH_3--Address_Resolution_Service--SQL_Slammer/REMATCH_3--Address_Resolution_Service--SQL_Slammer.dict -- data/linux/processed-challenges/REMATCH_3--Address_Resolution_Service--SQL_Slammer/bin/REMATCH_3--Address_Resolution_Service--SQL_Slammer\n'
p43
I1
tp44
a(I2640
S'start_time     : 1500328288\nlast_update    : 1500330932\nfuzzer_pid     : 3874\ncycles_done    : 0\nexecs_done     : 732513\nexecs_per_sec  : 285.35\npaths_total    : 76\npaths_favored  : 19\npaths_found    : 75\npaths_imported : 0\nmax_depth      : 4\ncur_path       : 47\npending_favs   : 7\npending_total  : 60\nvariable_paths : 0\nbitmap_cvg     : 0.79%\nunique_crashes : 0\nunique_hangs   : 0\nlast_path      : 1500330921\nlast_crash     : 0\nlast_hang      : 0\nexec_timeout   : 40\nafl_banner     : fuzzer-master\nafl_version    : 1.85b\ncommand_line   : /home/skaramcheti/.virtualenvs/afl/bin/afl-unix/afl-fuzz -i /dev/shm/work/REMATCH_3--Address_Resolution_Service--SQL_Slammer/input -o /dev/shm/work/REMATCH_3--Address_Resolution_Service--SQL_Slammer/sync -m 4G -Q -M fuzzer-master -x /dev/shm/work/REMATCH_3--Address_Resolution_Service--SQL_Slammer/REMATCH_3--Address_Resolution_Service--SQL_Slammer.dict -- data/linux/processed-challenges/REMATCH_3--Address_Resolution_Service--SQL_Slammer/bin/REMATCH_3--Address_Resolution_Service--SQL_Slammer\n'
p45
I2
tp46
a(I2760
S'start_time     : 1500328288\nlast_update    : 1500331052\nfuzzer_pid     : 3874\ncycles_done    : 0\nexecs_done     : 765199\nexecs_per_sec  : 225.26\npaths_total    : 78\npaths_favored  : 18\npaths_found    : 77\npaths_imported : 0\nmax_depth      : 4\ncur_path       : 53\npending_favs   : 5\npending_total  : 59\nvariable_paths : 0\nbitmap_cvg     : 0.79%\nunique_crashes : 0\nunique_hangs   : 0\nlast_path      : 1500330951\nlast_crash     : 0\nlast_hang      : 0\nexec_timeout   : 40\nafl_banner     : fuzzer-master\nafl_version    : 1.85b\ncommand_line   : /home/skaramcheti/.virtualenvs/afl/bin/afl-unix/afl-fuzz -i /dev/shm/work/REMATCH_3--Address_Resolution_Service--SQL_Slammer/input -o /dev/shm/work/REMATCH_3--Address_Resolution_Service--SQL_Slammer/sync -m 4G -Q -M fuzzer-master -x /dev/shm/work/REMATCH_3--Address_Resolution_Service--SQL_Slammer/REMATCH_3--Address_Resolution_Service--SQL_Slammer.dict -- data/linux/processed-challenges/REMATCH_3--Address_Resolution_Service--SQL_Slammer/bin/REMATCH_3--Address_Resolution_Service--SQL_Slammer\n'
p47
I2
tp48
a(I2880
S'start_time     : 1500328288\nlast_update    : 1500331172\nfuzzer_pid     : 3874\ncycles_done    : 0\nexecs_done     : 795499\nexecs_per_sec  : 204.09\npaths_total    : 80\npaths_favored  : 18\npaths_found    : 79\npaths_imported : 0\nmax_depth      : 4\ncur_path       : 63\npending_favs   : 3\npending_total  : 59\nvariable_paths : 0\nbitmap_cvg     : 0.79%\nunique_crashes : 0\nunique_hangs   : 0\nlast_path      : 1500331092\nlast_crash     : 0\nlast_hang      : 0\nexec_timeout   : 40\nafl_banner     : fuzzer-master\nafl_version    : 1.85b\ncommand_line   : /home/skaramcheti/.virtualenvs/afl/bin/afl-unix/afl-fuzz -i /dev/shm/work/REMATCH_3--Address_Resolution_Service--SQL_Slammer/input -o /dev/shm/work/REMATCH_3--Address_Resolution_Service--SQL_Slammer/sync -m 4G -Q -M fuzzer-master -x /dev/shm/work/REMATCH_3--Address_Resolution_Service--SQL_Slammer/REMATCH_3--Address_Resolution_Service--SQL_Slammer.dict -- data/linux/processed-challenges/REMATCH_3--Address_Resolution_Service--SQL_Slammer/bin/REMATCH_3--Address_Resolution_Service--SQL_Slammer\n'
p49
I2
tp50
a(I3000
S'start_time     : 1500328288\nlast_update    : 1500331292\nfuzzer_pid     : 3874\ncycles_done    : 0\nexecs_done     : 821651\nexecs_per_sec  : 239.57\npaths_total    : 81\npaths_favored  : 18\npaths_found    : 80\npaths_imported : 0\nmax_depth      : 4\ncur_path       : 64\npending_favs   : 2\npending_total  : 59\nvariable_paths : 0\nbitmap_cvg     : 0.79%\nunique_crashes : 1\nunique_hangs   : 0\nlast_path      : 1500331265\nlast_crash     : 1500331256\nlast_hang      : 0\nexec_timeout   : 40\nafl_banner     : fuzzer-master\nafl_version    : 1.85b\ncommand_line   : /home/skaramcheti/.virtualenvs/afl/bin/afl-unix/afl-fuzz -i /dev/shm/work/REMATCH_3--Address_Resolution_Service--SQL_Slammer/input -o /dev/shm/work/REMATCH_3--Address_Resolution_Service--SQL_Slammer/sync -m 4G -Q -M fuzzer-master -x /dev/shm/work/REMATCH_3--Address_Resolution_Service--SQL_Slammer/REMATCH_3--Address_Resolution_Service--SQL_Slammer.dict -- data/linux/processed-challenges/REMATCH_3--Address_Resolution_Service--SQL_Slammer/bin/REMATCH_3--Address_Resolution_Service--SQL_Slammer\n'
p51
I1
tp52
a(I3120
S'start_time     : 1500328288\nlast_update    : 1500331413\nfuzzer_pid     : 3874\ncycles_done    : 0\nexecs_done     : 854689\nexecs_per_sec  : 286.13\npaths_total    : 87\npaths_favored  : 18\npaths_found    : 86\npaths_imported : 0\nmax_depth      : 5\ncur_path       : 76\npending_favs   : 0\npending_total  : 63\nvariable_paths : 0\nbitmap_cvg     : 0.79%\nunique_crashes : 1\nunique_hangs   : 0\nlast_path      : 1500331396\nlast_crash     : 1500331256\nlast_hang      : 0\nexec_timeout   : 40\nafl_banner     : fuzzer-master\nafl_version    : 1.85b\ncommand_line   : /home/skaramcheti/.virtualenvs/afl/bin/afl-unix/afl-fuzz -i /dev/shm/work/REMATCH_3--Address_Resolution_Service--SQL_Slammer/input -o /dev/shm/work/REMATCH_3--Address_Resolution_Service--SQL_Slammer/sync -m 4G -Q -M fuzzer-master -x /dev/shm/work/REMATCH_3--Address_Resolution_Service--SQL_Slammer/REMATCH_3--Address_Resolution_Service--SQL_Slammer.dict -- data/linux/processed-challenges/REMATCH_3--Address_Resolution_Service--SQL_Slammer/bin/REMATCH_3--Address_Resolution_Service--SQL_Slammer\n'
p53
I6
tp54
a(I3240
S'start_time     : 1500328288\nlast_update    : 1500331533\nfuzzer_pid     : 3874\ncycles_done    : 0\nexecs_done     : 887844\nexecs_per_sec  : 273.70\npaths_total    : 89\npaths_favored  : 18\npaths_found    : 88\npaths_imported : 0\nmax_depth      : 5\ncur_path       : 76\npending_favs   : 0\npending_total  : 65\nvariable_paths : 0\nbitmap_cvg     : 0.79%\nunique_crashes : 1\nunique_hangs   : 0\nlast_path      : 1500331520\nlast_crash     : 1500331256\nlast_hang      : 0\nexec_timeout   : 40\nafl_banner     : fuzzer-master\nafl_version    : 1.85b\ncommand_line   : /home/skaramcheti/.virtualenvs/afl/bin/afl-unix/afl-fuzz -i /dev/shm/work/REMATCH_3--Address_Resolution_Service--SQL_Slammer/input -o /dev/shm/work/REMATCH_3--Address_Resolution_Service--SQL_Slammer/sync -m 4G -Q -M fuzzer-master -x /dev/shm/work/REMATCH_3--Address_Resolution_Service--SQL_Slammer/REMATCH_3--Address_Resolution_Service--SQL_Slammer.dict -- data/linux/processed-challenges/REMATCH_3--Address_Resolution_Service--SQL_Slammer/bin/REMATCH_3--Address_Resolution_Service--SQL_Slammer\n'
p55
I2
tp56
a(I3360
S'start_time     : 1500328288\nlast_update    : 1500331653\nfuzzer_pid     : 3874\ncycles_done    : 0\nexecs_done     : 921194\nexecs_per_sec  : 275.72\npaths_total    : 89\npaths_favored  : 18\npaths_found    : 88\npaths_imported : 0\nmax_depth      : 5\ncur_path       : 76\npending_favs   : 0\npending_total  : 65\nvariable_paths : 0\nbitmap_cvg     : 0.79%\nunique_crashes : 1\nunique_hangs   : 0\nlast_path      : 1500331520\nlast_crash     : 1500331256\nlast_hang      : 0\nexec_timeout   : 40\nafl_banner     : fuzzer-master\nafl_version    : 1.85b\ncommand_line   : /home/skaramcheti/.virtualenvs/afl/bin/afl-unix/afl-fuzz -i /dev/shm/work/REMATCH_3--Address_Resolution_Service--SQL_Slammer/input -o /dev/shm/work/REMATCH_3--Address_Resolution_Service--SQL_Slammer/sync -m 4G -Q -M fuzzer-master -x /dev/shm/work/REMATCH_3--Address_Resolution_Service--SQL_Slammer/REMATCH_3--Address_Resolution_Service--SQL_Slammer.dict -- data/linux/processed-challenges/REMATCH_3--Address_Resolution_Service--SQL_Slammer/bin/REMATCH_3--Address_Resolution_Service--SQL_Slammer\n'
p57
I0
tp58
a(I3480
S'start_time     : 1500328288\nlast_update    : 1500331773\nfuzzer_pid     : 3874\ncycles_done    : 0\nexecs_done     : 954779\nexecs_per_sec  : 281.33\npaths_total    : 90\npaths_favored  : 18\npaths_found    : 89\npaths_imported : 0\nmax_depth      : 5\ncur_path       : 76\npending_favs   : 0\npending_total  : 66\nvariable_paths : 0\nbitmap_cvg     : 0.79%\nunique_crashes : 1\nunique_hangs   : 0\nlast_path      : 1500331682\nlast_crash     : 1500331256\nlast_hang      : 0\nexec_timeout   : 40\nafl_banner     : fuzzer-master\nafl_version    : 1.85b\ncommand_line   : /home/skaramcheti/.virtualenvs/afl/bin/afl-unix/afl-fuzz -i /dev/shm/work/REMATCH_3--Address_Resolution_Service--SQL_Slammer/input -o /dev/shm/work/REMATCH_3--Address_Resolution_Service--SQL_Slammer/sync -m 4G -Q -M fuzzer-master -x /dev/shm/work/REMATCH_3--Address_Resolution_Service--SQL_Slammer/REMATCH_3--Address_Resolution_Service--SQL_Slammer.dict -- data/linux/processed-challenges/REMATCH_3--Address_Resolution_Service--SQL_Slammer/bin/REMATCH_3--Address_Resolution_Service--SQL_Slammer\n'
p59
I1
tp60
a(I3600
S'start_time     : 1500328288\nlast_update    : 1500331894\nfuzzer_pid     : 3874\ncycles_done    : 0\nexecs_done     : 988214\nexecs_per_sec  : 276.21\npaths_total    : 90\npaths_favored  : 18\npaths_found    : 89\npaths_imported : 0\nmax_depth      : 5\ncur_path       : 76\npending_favs   : 0\npending_total  : 66\nvariable_paths : 0\nbitmap_cvg     : 0.79%\nunique_crashes : 1\nunique_hangs   : 0\nlast_path      : 1500331682\nlast_crash     : 1500331256\nlast_hang      : 0\nexec_timeout   : 40\nafl_banner     : fuzzer-master\nafl_version    : 1.85b\ncommand_line   : /home/skaramcheti/.virtualenvs/afl/bin/afl-unix/afl-fuzz -i /dev/shm/work/REMATCH_3--Address_Resolution_Service--SQL_Slammer/input -o /dev/shm/work/REMATCH_3--Address_Resolution_Service--SQL_Slammer/sync -m 4G -Q -M fuzzer-master -x /dev/shm/work/REMATCH_3--Address_Resolution_Service--SQL_Slammer/REMATCH_3--Address_Resolution_Service--SQL_Slammer.dict -- data/linux/processed-challenges/REMATCH_3--Address_Resolution_Service--SQL_Slammer/bin/REMATCH_3--Address_Resolution_Service--SQL_Slammer\n'
p61
I0
tp62
a(I3720
S'start_time     : 1500328288\nlast_update    : 1500332014\nfuzzer_pid     : 3874\ncycles_done    : 0\nexecs_done     : 1011885\nexecs_per_sec  : 150.66\npaths_total    : 92\npaths_favored  : 18\npaths_found    : 91\npaths_imported : 0\nmax_depth      : 5\ncur_path       : 78\npending_favs   : 0\npending_total  : 67\nvariable_paths : 0\nbitmap_cvg     : 0.79%\nunique_crashes : 1\nunique_hangs   : 0\nlast_path      : 1500331963\nlast_crash     : 1500331256\nlast_hang      : 0\nexec_timeout   : 40\nafl_banner     : fuzzer-master\nafl_version    : 1.85b\ncommand_line   : /home/skaramcheti/.virtualenvs/afl/bin/afl-unix/afl-fuzz -i /dev/shm/work/REMATCH_3--Address_Resolution_Service--SQL_Slammer/input -o /dev/shm/work/REMATCH_3--Address_Resolution_Service--SQL_Slammer/sync -m 4G -Q -M fuzzer-master -x /dev/shm/work/REMATCH_3--Address_Resolution_Service--SQL_Slammer/REMATCH_3--Address_Resolution_Service--SQL_Slammer.dict -- data/linux/processed-challenges/REMATCH_3--Address_Resolution_Service--SQL_Slammer/bin/REMATCH_3--Address_Resolution_Service--SQL_Slammer\n'
p63
I2
tp64
a(I3840
S'start_time     : 1500328288\nlast_update    : 1500332134\nfuzzer_pid     : 3874\ncycles_done    : 0\nexecs_done     : 1035208\nexecs_per_sec  : 212.84\npaths_total    : 98\npaths_favored  : 18\npaths_found    : 97\npaths_imported : 0\nmax_depth      : 5\ncur_path       : 78\npending_favs   : 0\npending_total  : 73\nvariable_paths : 0\nbitmap_cvg     : 0.79%\nunique_crashes : 1\nunique_hangs   : 0\nlast_path      : 1500332112\nlast_crash     : 1500331256\nlast_hang      : 0\nexec_timeout   : 40\nafl_banner     : fuzzer-master\nafl_version    : 1.85b\ncommand_line   : /home/skaramcheti/.virtualenvs/afl/bin/afl-unix/afl-fuzz -i /dev/shm/work/REMATCH_3--Address_Resolution_Service--SQL_Slammer/input -o /dev/shm/work/REMATCH_3--Address_Resolution_Service--SQL_Slammer/sync -m 4G -Q -M fuzzer-master -x /dev/shm/work/REMATCH_3--Address_Resolution_Service--SQL_Slammer/REMATCH_3--Address_Resolution_Service--SQL_Slammer.dict -- data/linux/processed-challenges/REMATCH_3--Address_Resolution_Service--SQL_Slammer/bin/REMATCH_3--Address_Resolution_Service--SQL_Slammer\n'
p65
I7
tp66
a(I3960
S'start_time     : 1500328288\nlast_update    : 1500332254\nfuzzer_pid     : 3874\ncycles_done    : 0\nexecs_done     : 1060796\nexecs_per_sec  : 208.05\npaths_total    : 100\npaths_favored  : 18\npaths_found    : 99\npaths_imported : 0\nmax_depth      : 5\ncur_path       : 78\npending_favs   : 0\npending_total  : 75\nvariable_paths : 0\nbitmap_cvg     : 0.79%\nunique_crashes : 2\nunique_hangs   : 0\nlast_path      : 1500332194\nlast_crash     : 1500332178\nlast_hang      : 0\nexec_timeout   : 40\nafl_banner     : fuzzer-master\nafl_version    : 1.85b\ncommand_line   : /home/skaramcheti/.virtualenvs/afl/bin/afl-unix/afl-fuzz -i /dev/shm/work/REMATCH_3--Address_Resolution_Service--SQL_Slammer/input -o /dev/shm/work/REMATCH_3--Address_Resolution_Service--SQL_Slammer/sync -m 4G -Q -M fuzzer-master -x /dev/shm/work/REMATCH_3--Address_Resolution_Service--SQL_Slammer/REMATCH_3--Address_Resolution_Service--SQL_Slammer.dict -- data/linux/processed-challenges/REMATCH_3--Address_Resolution_Service--SQL_Slammer/bin/REMATCH_3--Address_Resolution_Service--SQL_Slammer\n'
p67
I1
tp68
a(I4080
S'start_time     : 1500328288\nlast_update    : 1500332374\nfuzzer_pid     : 3874\ncycles_done    : 0\nexecs_done     : 1086516\nexecs_per_sec  : 215.83\npaths_total    : 100\npaths_favored  : 18\npaths_found    : 99\npaths_imported : 0\nmax_depth      : 5\ncur_path       : 78\npending_favs   : 0\npending_total  : 75\nvariable_paths : 0\nbitmap_cvg     : 0.79%\nunique_crashes : 2\nunique_hangs   : 0\nlast_path      : 1500332194\nlast_crash     : 1500332178\nlast_hang      : 0\nexec_timeout   : 40\nafl_banner     : fuzzer-master\nafl_version    : 1.85b\ncommand_line   : /home/skaramcheti/.virtualenvs/afl/bin/afl-unix/afl-fuzz -i /dev/shm/work/REMATCH_3--Address_Resolution_Service--SQL_Slammer/input -o /dev/shm/work/REMATCH_3--Address_Resolution_Service--SQL_Slammer/sync -m 4G -Q -M fuzzer-master -x /dev/shm/work/REMATCH_3--Address_Resolution_Service--SQL_Slammer/REMATCH_3--Address_Resolution_Service--SQL_Slammer.dict -- data/linux/processed-challenges/REMATCH_3--Address_Resolution_Service--SQL_Slammer/bin/REMATCH_3--Address_Resolution_Service--SQL_Slammer\n'
p69
I0
tp70
a(I4200
S'start_time     : 1500328288\nlast_update    : 1500332494\nfuzzer_pid     : 3874\ncycles_done    : 0\nexecs_done     : 1112084\nexecs_per_sec  : 216.31\npaths_total    : 100\npaths_favored  : 18\npaths_found    : 99\npaths_imported : 0\nmax_depth      : 5\ncur_path       : 78\npending_favs   : 0\npending_total  : 75\nvariable_paths : 0\nbitmap_cvg     : 0.79%\nunique_crashes : 2\nunique_hangs   : 0\nlast_path      : 1500332194\nlast_crash     : 1500332178\nlast_hang      : 0\nexec_timeout   : 40\nafl_banner     : fuzzer-master\nafl_version    : 1.85b\ncommand_line   : /home/skaramcheti/.virtualenvs/afl/bin/afl-unix/afl-fuzz -i /dev/shm/work/REMATCH_3--Address_Resolution_Service--SQL_Slammer/input -o /dev/shm/work/REMATCH_3--Address_Resolution_Service--SQL_Slammer/sync -m 4G -Q -M fuzzer-master -x /dev/shm/work/REMATCH_3--Address_Resolution_Service--SQL_Slammer/REMATCH_3--Address_Resolution_Service--SQL_Slammer.dict -- data/linux/processed-challenges/REMATCH_3--Address_Resolution_Service--SQL_Slammer/bin/REMATCH_3--Address_Resolution_Service--SQL_Slammer\n'
p71
I0
tp72
a(I4320
S'start_time     : 1500328288\nlast_update    : 1500332614\nfuzzer_pid     : 3874\ncycles_done    : 0\nexecs_done     : 1137502\nexecs_per_sec  : 216.68\npaths_total    : 101\npaths_favored  : 18\npaths_found    : 100\npaths_imported : 0\nmax_depth      : 5\ncur_path       : 78\npending_favs   : 0\npending_total  : 76\nvariable_paths : 0\nbitmap_cvg     : 0.79%\nunique_crashes : 2\nunique_hangs   : 0\nlast_path      : 1500332515\nlast_crash     : 1500332178\nlast_hang      : 0\nexec_timeout   : 40\nafl_banner     : fuzzer-master\nafl_version    : 1.85b\ncommand_line   : /home/skaramcheti/.virtualenvs/afl/bin/afl-unix/afl-fuzz -i /dev/shm/work/REMATCH_3--Address_Resolution_Service--SQL_Slammer/input -o /dev/shm/work/REMATCH_3--Address_Resolution_Service--SQL_Slammer/sync -m 4G -Q -M fuzzer-master -x /dev/shm/work/REMATCH_3--Address_Resolution_Service--SQL_Slammer/REMATCH_3--Address_Resolution_Service--SQL_Slammer.dict -- data/linux/processed-challenges/REMATCH_3--Address_Resolution_Service--SQL_Slammer/bin/REMATCH_3--Address_Resolution_Service--SQL_Slammer\n'
p73
I1
tp74
a(I4440
S'start_time     : 1500328288\nlast_update    : 1500332735\nfuzzer_pid     : 3874\ncycles_done    : 0\nexecs_done     : 1162474\nexecs_per_sec  : 208.03\npaths_total    : 101\npaths_favored  : 18\npaths_found    : 100\npaths_imported : 0\nmax_depth      : 5\ncur_path       : 78\npending_favs   : 0\npending_total  : 76\nvariable_paths : 0\nbitmap_cvg     : 0.79%\nunique_crashes : 2\nunique_hangs   : 0\nlast_path      : 1500332515\nlast_crash     : 1500332178\nlast_hang      : 0\nexec_timeout   : 40\nafl_banner     : fuzzer-master\nafl_version    : 1.85b\ncommand_line   : /home/skaramcheti/.virtualenvs/afl/bin/afl-unix/afl-fuzz -i /dev/shm/work/REMATCH_3--Address_Resolution_Service--SQL_Slammer/input -o /dev/shm/work/REMATCH_3--Address_Resolution_Service--SQL_Slammer/sync -m 4G -Q -M fuzzer-master -x /dev/shm/work/REMATCH_3--Address_Resolution_Service--SQL_Slammer/REMATCH_3--Address_Resolution_Service--SQL_Slammer.dict -- data/linux/processed-challenges/REMATCH_3--Address_Resolution_Service--SQL_Slammer/bin/REMATCH_3--Address_Resolution_Service--SQL_Slammer\n'
p75
I0
tp76
a(I4560
S'start_time     : 1500328288\nlast_update    : 1500332855\nfuzzer_pid     : 3874\ncycles_done    : 0\nexecs_done     : 1180596\nexecs_per_sec  : 77.52\npaths_total    : 101\npaths_favored  : 18\npaths_found    : 100\npaths_imported : 0\nmax_depth      : 5\ncur_path       : 98\npending_favs   : 0\npending_total  : 75\nvariable_paths : 0\nbitmap_cvg     : 0.79%\nunique_crashes : 2\nunique_hangs   : 0\nlast_path      : 1500332515\nlast_crash     : 1500332178\nlast_hang      : 0\nexec_timeout   : 40\nafl_banner     : fuzzer-master\nafl_version    : 1.85b\ncommand_line   : /home/skaramcheti/.virtualenvs/afl/bin/afl-unix/afl-fuzz -i /dev/shm/work/REMATCH_3--Address_Resolution_Service--SQL_Slammer/input -o /dev/shm/work/REMATCH_3--Address_Resolution_Service--SQL_Slammer/sync -m 4G -Q -M fuzzer-master -x /dev/shm/work/REMATCH_3--Address_Resolution_Service--SQL_Slammer/REMATCH_3--Address_Resolution_Service--SQL_Slammer.dict -- data/linux/processed-challenges/REMATCH_3--Address_Resolution_Service--SQL_Slammer/bin/REMATCH_3--Address_Resolution_Service--SQL_Slammer\n'
p77
I0
tp78
a(I4680
S'start_time     : 1500328288\nlast_update    : 1500332975\nfuzzer_pid     : 3874\ncycles_done    : 0\nexecs_done     : 1189885\nexecs_per_sec  : 73.07\npaths_total    : 101\npaths_favored  : 18\npaths_found    : 100\npaths_imported : 0\nmax_depth      : 5\ncur_path       : 98\npending_favs   : 0\npending_total  : 75\nvariable_paths : 0\nbitmap_cvg     : 0.79%\nunique_crashes : 2\nunique_hangs   : 0\nlast_path      : 1500332515\nlast_crash     : 1500332178\nlast_hang      : 0\nexec_timeout   : 40\nafl_banner     : fuzzer-master\nafl_version    : 1.85b\ncommand_line   : /home/skaramcheti/.virtualenvs/afl/bin/afl-unix/afl-fuzz -i /dev/shm/work/REMATCH_3--Address_Resolution_Service--SQL_Slammer/input -o /dev/shm/work/REMATCH_3--Address_Resolution_Service--SQL_Slammer/sync -m 4G -Q -M fuzzer-master -x /dev/shm/work/REMATCH_3--Address_Resolution_Service--SQL_Slammer/REMATCH_3--Address_Resolution_Service--SQL_Slammer.dict -- data/linux/processed-challenges/REMATCH_3--Address_Resolution_Service--SQL_Slammer/bin/REMATCH_3--Address_Resolution_Service--SQL_Slammer\n'
p79
I0
tp80
a(I4800
S'start_time     : 1500328288\nlast_update    : 1500333095\nfuzzer_pid     : 3874\ncycles_done    : 0\nexecs_done     : 1200284\nexecs_per_sec  : 89.65\npaths_total    : 101\npaths_favored  : 18\npaths_found    : 100\npaths_imported : 0\nmax_depth      : 5\ncur_path       : 98\npending_favs   : 0\npending_total  : 75\nvariable_paths : 0\nbitmap_cvg     : 0.79%\nunique_crashes : 2\nunique_hangs   : 0\nlast_path      : 1500332515\nlast_crash     : 1500332178\nlast_hang      : 0\nexec_timeout   : 40\nafl_banner     : fuzzer-master\nafl_version    : 1.85b\ncommand_line   : /home/skaramcheti/.virtualenvs/afl/bin/afl-unix/afl-fuzz -i /dev/shm/work/REMATCH_3--Address_Resolution_Service--SQL_Slammer/input -o /dev/shm/work/REMATCH_3--Address_Resolution_Service--SQL_Slammer/sync -m 4G -Q -M fuzzer-master -x /dev/shm/work/REMATCH_3--Address_Resolution_Service--SQL_Slammer/REMATCH_3--Address_Resolution_Service--SQL_Slammer.dict -- data/linux/processed-challenges/REMATCH_3--Address_Resolution_Service--SQL_Slammer/bin/REMATCH_3--Address_Resolution_Service--SQL_Slammer\n'
p81
I0
tp82
a(I4920
S'start_time     : 1500328288\nlast_update    : 1500333215\nfuzzer_pid     : 3874\ncycles_done    : 0\nexecs_done     : 1216029\nexecs_per_sec  : 151.54\npaths_total    : 107\npaths_favored  : 18\npaths_found    : 106\npaths_imported : 0\nmax_depth      : 6\ncur_path       : 98\npending_favs   : 0\npending_total  : 81\nvariable_paths : 0\nbitmap_cvg     : 0.79%\nunique_crashes : 3\nunique_hangs   : 0\nlast_path      : 1500333203\nlast_crash     : 1500333171\nlast_hang      : 0\nexec_timeout   : 40\nafl_banner     : fuzzer-master\nafl_version    : 1.85b\ncommand_line   : /home/skaramcheti/.virtualenvs/afl/bin/afl-unix/afl-fuzz -i /dev/shm/work/REMATCH_3--Address_Resolution_Service--SQL_Slammer/input -o /dev/shm/work/REMATCH_3--Address_Resolution_Service--SQL_Slammer/sync -m 4G -Q -M fuzzer-master -x /dev/shm/work/REMATCH_3--Address_Resolution_Service--SQL_Slammer/REMATCH_3--Address_Resolution_Service--SQL_Slammer.dict -- data/linux/processed-challenges/REMATCH_3--Address_Resolution_Service--SQL_Slammer/bin/REMATCH_3--Address_Resolution_Service--SQL_Slammer\n'
p83
I6
tp84
a(I5040
S'start_time     : 1500328288\nlast_update    : 1500333336\nfuzzer_pid     : 3874\ncycles_done    : 0\nexecs_done     : 1234560\nexecs_per_sec  : 154.12\npaths_total    : 110\npaths_favored  : 18\npaths_found    : 109\npaths_imported : 0\nmax_depth      : 6\ncur_path       : 98\npending_favs   : 0\npending_total  : 84\nvariable_paths : 0\nbitmap_cvg     : 0.79%\nunique_crashes : 3\nunique_hangs   : 0\nlast_path      : 1500333277\nlast_crash     : 1500333171\nlast_hang      : 0\nexec_timeout   : 40\nafl_banner     : fuzzer-master\nafl_version    : 1.85b\ncommand_line   : /home/skaramcheti/.virtualenvs/afl/bin/afl-unix/afl-fuzz -i /dev/shm/work/REMATCH_3--Address_Resolution_Service--SQL_Slammer/input -o /dev/shm/work/REMATCH_3--Address_Resolution_Service--SQL_Slammer/sync -m 4G -Q -M fuzzer-master -x /dev/shm/work/REMATCH_3--Address_Resolution_Service--SQL_Slammer/REMATCH_3--Address_Resolution_Service--SQL_Slammer.dict -- data/linux/processed-challenges/REMATCH_3--Address_Resolution_Service--SQL_Slammer/bin/REMATCH_3--Address_Resolution_Service--SQL_Slammer\n'
p85
I3
tp86
a(I5160
S'start_time     : 1500328288\nlast_update    : 1500333456\nfuzzer_pid     : 3874\ncycles_done    : 0\nexecs_done     : 1253088\nexecs_per_sec  : 156.68\npaths_total    : 110\npaths_favored  : 18\npaths_found    : 109\npaths_imported : 0\nmax_depth      : 6\ncur_path       : 98\npending_favs   : 0\npending_total  : 84\nvariable_paths : 0\nbitmap_cvg     : 0.79%\nunique_crashes : 3\nunique_hangs   : 0\nlast_path      : 1500333277\nlast_crash     : 1500333171\nlast_hang      : 0\nexec_timeout   : 40\nafl_banner     : fuzzer-master\nafl_version    : 1.85b\ncommand_line   : /home/skaramcheti/.virtualenvs/afl/bin/afl-unix/afl-fuzz -i /dev/shm/work/REMATCH_3--Address_Resolution_Service--SQL_Slammer/input -o /dev/shm/work/REMATCH_3--Address_Resolution_Service--SQL_Slammer/sync -m 4G -Q -M fuzzer-master -x /dev/shm/work/REMATCH_3--Address_Resolution_Service--SQL_Slammer/REMATCH_3--Address_Resolution_Service--SQL_Slammer.dict -- data/linux/processed-challenges/REMATCH_3--Address_Resolution_Service--SQL_Slammer/bin/REMATCH_3--Address_Resolution_Service--SQL_Slammer\n'
p87
I0
tp88
a(I5280
S'start_time     : 1500328288\nlast_update    : 1500333576\nfuzzer_pid     : 3874\ncycles_done    : 0\nexecs_done     : 1271537\nexecs_per_sec  : 148.03\npaths_total    : 110\npaths_favored  : 18\npaths_found    : 109\npaths_imported : 0\nmax_depth      : 6\ncur_path       : 98\npending_favs   : 0\npending_total  : 84\nvariable_paths : 0\nbitmap_cvg     : 0.79%\nunique_crashes : 3\nunique_hangs   : 0\nlast_path      : 1500333277\nlast_crash     : 1500333171\nlast_hang      : 0\nexec_timeout   : 40\nafl_banner     : fuzzer-master\nafl_version    : 1.85b\ncommand_line   : /home/skaramcheti/.virtualenvs/afl/bin/afl-unix/afl-fuzz -i /dev/shm/work/REMATCH_3--Address_Resolution_Service--SQL_Slammer/input -o /dev/shm/work/REMATCH_3--Address_Resolution_Service--SQL_Slammer/sync -m 4G -Q -M fuzzer-master -x /dev/shm/work/REMATCH_3--Address_Resolution_Service--SQL_Slammer/REMATCH_3--Address_Resolution_Service--SQL_Slammer.dict -- data/linux/processed-challenges/REMATCH_3--Address_Resolution_Service--SQL_Slammer/bin/REMATCH_3--Address_Resolution_Service--SQL_Slammer\n'
p89
I0
tp90
a(I5400
S'start_time     : 1500328288\nlast_update    : 1500333696\nfuzzer_pid     : 3874\ncycles_done    : 0\nexecs_done     : 1290179\nexecs_per_sec  : 150.27\npaths_total    : 112\npaths_favored  : 18\npaths_found    : 111\npaths_imported : 0\nmax_depth      : 6\ncur_path       : 98\npending_favs   : 0\npending_total  : 86\nvariable_paths : 0\nbitmap_cvg     : 0.79%\nunique_crashes : 3\nunique_hangs   : 0\nlast_path      : 1500333596\nlast_crash     : 1500333171\nlast_hang      : 0\nexec_timeout   : 40\nafl_banner     : fuzzer-master\nafl_version    : 1.85b\ncommand_line   : /home/skaramcheti/.virtualenvs/afl/bin/afl-unix/afl-fuzz -i /dev/shm/work/REMATCH_3--Address_Resolution_Service--SQL_Slammer/input -o /dev/shm/work/REMATCH_3--Address_Resolution_Service--SQL_Slammer/sync -m 4G -Q -M fuzzer-master -x /dev/shm/work/REMATCH_3--Address_Resolution_Service--SQL_Slammer/REMATCH_3--Address_Resolution_Service--SQL_Slammer.dict -- data/linux/processed-challenges/REMATCH_3--Address_Resolution_Service--SQL_Slammer/bin/REMATCH_3--Address_Resolution_Service--SQL_Slammer\n'
p91
I2
tp92
a(I5520
S'start_time     : 1500328288\nlast_update    : 1500333817\nfuzzer_pid     : 3874\ncycles_done    : 0\nexecs_done     : 1308972\nexecs_per_sec  : 155.46\npaths_total    : 113\npaths_favored  : 18\npaths_found    : 112\npaths_imported : 0\nmax_depth      : 6\ncur_path       : 98\npending_favs   : 0\npending_total  : 87\nvariable_paths : 0\nbitmap_cvg     : 0.79%\nunique_crashes : 3\nunique_hangs   : 0\nlast_path      : 1500333767\nlast_crash     : 1500333171\nlast_hang      : 0\nexec_timeout   : 40\nafl_banner     : fuzzer-master\nafl_version    : 1.85b\ncommand_line   : /home/skaramcheti/.virtualenvs/afl/bin/afl-unix/afl-fuzz -i /dev/shm/work/REMATCH_3--Address_Resolution_Service--SQL_Slammer/input -o /dev/shm/work/REMATCH_3--Address_Resolution_Service--SQL_Slammer/sync -m 4G -Q -M fuzzer-master -x /dev/shm/work/REMATCH_3--Address_Resolution_Service--SQL_Slammer/REMATCH_3--Address_Resolution_Service--SQL_Slammer.dict -- data/linux/processed-challenges/REMATCH_3--Address_Resolution_Service--SQL_Slammer/bin/REMATCH_3--Address_Resolution_Service--SQL_Slammer\n'
p93
I1
tp94
a(I5640
S'start_time     : 1500328288\nlast_update    : 1500333937\nfuzzer_pid     : 3874\ncycles_done    : 0\nexecs_done     : 1327437\nexecs_per_sec  : 155.24\npaths_total    : 113\npaths_favored  : 18\npaths_found    : 112\npaths_imported : 0\nmax_depth      : 6\ncur_path       : 98\npending_favs   : 0\npending_total  : 87\nvariable_paths : 0\nbitmap_cvg     : 0.79%\nunique_crashes : 3\nunique_hangs   : 0\nlast_path      : 1500333767\nlast_crash     : 1500333171\nlast_hang      : 0\nexec_timeout   : 40\nafl_banner     : fuzzer-master\nafl_version    : 1.85b\ncommand_line   : /home/skaramcheti/.virtualenvs/afl/bin/afl-unix/afl-fuzz -i /dev/shm/work/REMATCH_3--Address_Resolution_Service--SQL_Slammer/input -o /dev/shm/work/REMATCH_3--Address_Resolution_Service--SQL_Slammer/sync -m 4G -Q -M fuzzer-master -x /dev/shm/work/REMATCH_3--Address_Resolution_Service--SQL_Slammer/REMATCH_3--Address_Resolution_Service--SQL_Slammer.dict -- data/linux/processed-challenges/REMATCH_3--Address_Resolution_Service--SQL_Slammer/bin/REMATCH_3--Address_Resolution_Service--SQL_Slammer\n'
p95
I0
tp96
a(I5760
S'start_time     : 1500328288\nlast_update    : 1500334057\nfuzzer_pid     : 3874\ncycles_done    : 0\nexecs_done     : 1345911\nexecs_per_sec  : 147.34\npaths_total    : 113\npaths_favored  : 18\npaths_found    : 112\npaths_imported : 0\nmax_depth      : 6\ncur_path       : 98\npending_favs   : 0\npending_total  : 87\nvariable_paths : 0\nbitmap_cvg     : 0.79%\nunique_crashes : 3\nunique_hangs   : 0\nlast_path      : 1500333767\nlast_crash     : 1500333171\nlast_hang      : 0\nexec_timeout   : 40\nafl_banner     : fuzzer-master\nafl_version    : 1.85b\ncommand_line   : /home/skaramcheti/.virtualenvs/afl/bin/afl-unix/afl-fuzz -i /dev/shm/work/REMATCH_3--Address_Resolution_Service--SQL_Slammer/input -o /dev/shm/work/REMATCH_3--Address_Resolution_Service--SQL_Slammer/sync -m 4G -Q -M fuzzer-master -x /dev/shm/work/REMATCH_3--Address_Resolution_Service--SQL_Slammer/REMATCH_3--Address_Resolution_Service--SQL_Slammer.dict -- data/linux/processed-challenges/REMATCH_3--Address_Resolution_Service--SQL_Slammer/bin/REMATCH_3--Address_Resolution_Service--SQL_Slammer\n'
p97
I0
tp98
a(I5880
S'start_time     : 1500328288\nlast_update    : 1500334177\nfuzzer_pid     : 3874\ncycles_done    : 0\nexecs_done     : 1364099\nexecs_per_sec  : 131.82\npaths_total    : 113\npaths_favored  : 18\npaths_found    : 112\npaths_imported : 0\nmax_depth      : 6\ncur_path       : 100\npending_favs   : 0\npending_total  : 86\nvariable_paths : 0\nbitmap_cvg     : 0.79%\nunique_crashes : 3\nunique_hangs   : 0\nlast_path      : 1500333767\nlast_crash     : 1500333171\nlast_hang      : 0\nexec_timeout   : 40\nafl_banner     : fuzzer-master\nafl_version    : 1.85b\ncommand_line   : /home/skaramcheti/.virtualenvs/afl/bin/afl-unix/afl-fuzz -i /dev/shm/work/REMATCH_3--Address_Resolution_Service--SQL_Slammer/input -o /dev/shm/work/REMATCH_3--Address_Resolution_Service--SQL_Slammer/sync -m 4G -Q -M fuzzer-master -x /dev/shm/work/REMATCH_3--Address_Resolution_Service--SQL_Slammer/REMATCH_3--Address_Resolution_Service--SQL_Slammer.dict -- data/linux/processed-challenges/REMATCH_3--Address_Resolution_Service--SQL_Slammer/bin/REMATCH_3--Address_Resolution_Service--SQL_Slammer\n'
p99
I0
tp100
a(I6000
S'start_time     : 1500328288\nlast_update    : 1500334297\nfuzzer_pid     : 3874\ncycles_done    : 0\nexecs_done     : 1380006\nexecs_per_sec  : 133.23\npaths_total    : 113\npaths_favored  : 18\npaths_found    : 112\npaths_imported : 0\nmax_depth      : 6\ncur_path       : 100\npending_favs   : 0\npending_total  : 86\nvariable_paths : 0\nbitmap_cvg     : 0.79%\nunique_crashes : 3\nunique_hangs   : 0\nlast_path      : 1500333767\nlast_crash     : 1500333171\nlast_hang      : 0\nexec_timeout   : 40\nafl_banner     : fuzzer-master\nafl_version    : 1.85b\ncommand_line   : /home/skaramcheti/.virtualenvs/afl/bin/afl-unix/afl-fuzz -i /dev/shm/work/REMATCH_3--Address_Resolution_Service--SQL_Slammer/input -o /dev/shm/work/REMATCH_3--Address_Resolution_Service--SQL_Slammer/sync -m 4G -Q -M fuzzer-master -x /dev/shm/work/REMATCH_3--Address_Resolution_Service--SQL_Slammer/REMATCH_3--Address_Resolution_Service--SQL_Slammer.dict -- data/linux/processed-challenges/REMATCH_3--Address_Resolution_Service--SQL_Slammer/bin/REMATCH_3--Address_Resolution_Service--SQL_Slammer\n'
p101
I0
tp102
a(I6120
S'start_time     : 1500328288\nlast_update    : 1500334418\nfuzzer_pid     : 3874\ncycles_done    : 1\nexecs_done     : 1409128\nexecs_per_sec  : 281.40\npaths_total    : 113\npaths_favored  : 18\npaths_found    : 112\npaths_imported : 0\nmax_depth      : 6\ncur_path       : 17\npending_favs   : 0\npending_total  : 84\nvariable_paths : 0\nbitmap_cvg     : 0.79%\nunique_crashes : 3\nunique_hangs   : 0\nlast_path      : 1500333767\nlast_crash     : 1500333171\nlast_hang      : 0\nexec_timeout   : 40\nafl_banner     : fuzzer-master\nafl_version    : 1.85b\ncommand_line   : /home/skaramcheti/.virtualenvs/afl/bin/afl-unix/afl-fuzz -i /dev/shm/work/REMATCH_3--Address_Resolution_Service--SQL_Slammer/input -o /dev/shm/work/REMATCH_3--Address_Resolution_Service--SQL_Slammer/sync -m 4G -Q -M fuzzer-master -x /dev/shm/work/REMATCH_3--Address_Resolution_Service--SQL_Slammer/REMATCH_3--Address_Resolution_Service--SQL_Slammer.dict -- data/linux/processed-challenges/REMATCH_3--Address_Resolution_Service--SQL_Slammer/bin/REMATCH_3--Address_Resolution_Service--SQL_Slammer\n'
p103
I0
tp104
a(I6240
S'start_time     : 1500328288\nlast_update    : 1500334538\nfuzzer_pid     : 3874\ncycles_done    : 1\nexecs_done     : 1442447\nexecs_per_sec  : 279.77\npaths_total    : 113\npaths_favored  : 18\npaths_found    : 112\npaths_imported : 0\nmax_depth      : 6\ncur_path       : 31\npending_favs   : 0\npending_total  : 81\nvariable_paths : 0\nbitmap_cvg     : 0.79%\nunique_crashes : 3\nunique_hangs   : 0\nlast_path      : 1500333767\nlast_crash     : 1500333171\nlast_hang      : 0\nexec_timeout   : 40\nafl_banner     : fuzzer-master\nafl_version    : 1.85b\ncommand_line   : /home/skaramcheti/.virtualenvs/afl/bin/afl-unix/afl-fuzz -i /dev/shm/work/REMATCH_3--Address_Resolution_Service--SQL_Slammer/input -o /dev/shm/work/REMATCH_3--Address_Resolution_Service--SQL_Slammer/sync -m 4G -Q -M fuzzer-master -x /dev/shm/work/REMATCH_3--Address_Resolution_Service--SQL_Slammer/REMATCH_3--Address_Resolution_Service--SQL_Slammer.dict -- data/linux/processed-challenges/REMATCH_3--Address_Resolution_Service--SQL_Slammer/bin/REMATCH_3--Address_Resolution_Service--SQL_Slammer\n'
p105
I0
tp106
a(I6360
S'start_time     : 1500328288\nlast_update    : 1500334658\nfuzzer_pid     : 3874\ncycles_done    : 1\nexecs_done     : 1475824\nexecs_per_sec  : 274.86\npaths_total    : 113\npaths_favored  : 18\npaths_found    : 112\npaths_imported : 0\nmax_depth      : 6\ncur_path       : 44\npending_favs   : 0\npending_total  : 80\nvariable_paths : 0\nbitmap_cvg     : 0.79%\nunique_crashes : 3\nunique_hangs   : 0\nlast_path      : 1500333767\nlast_crash     : 1500333171\nlast_hang      : 0\nexec_timeout   : 40\nafl_banner     : fuzzer-master\nafl_version    : 1.85b\ncommand_line   : /home/skaramcheti/.virtualenvs/afl/bin/afl-unix/afl-fuzz -i /dev/shm/work/REMATCH_3--Address_Resolution_Service--SQL_Slammer/input -o /dev/shm/work/REMATCH_3--Address_Resolution_Service--SQL_Slammer/sync -m 4G -Q -M fuzzer-master -x /dev/shm/work/REMATCH_3--Address_Resolution_Service--SQL_Slammer/REMATCH_3--Address_Resolution_Service--SQL_Slammer.dict -- data/linux/processed-challenges/REMATCH_3--Address_Resolution_Service--SQL_Slammer/bin/REMATCH_3--Address_Resolution_Service--SQL_Slammer\n'
p107
I0
tp108
a(I6480
S'start_time     : 1500328288\nlast_update    : 1500334778\nfuzzer_pid     : 3874\ncycles_done    : 1\nexecs_done     : 1509162\nexecs_per_sec  : 277.26\npaths_total    : 113\npaths_favored  : 18\npaths_found    : 112\npaths_imported : 0\nmax_depth      : 6\ncur_path       : 56\npending_favs   : 0\npending_total  : 79\nvariable_paths : 0\nbitmap_cvg     : 0.79%\nunique_crashes : 3\nunique_hangs   : 0\nlast_path      : 1500333767\nlast_crash     : 1500333171\nlast_hang      : 0\nexec_timeout   : 40\nafl_banner     : fuzzer-master\nafl_version    : 1.85b\ncommand_line   : /home/skaramcheti/.virtualenvs/afl/bin/afl-unix/afl-fuzz -i /dev/shm/work/REMATCH_3--Address_Resolution_Service--SQL_Slammer/input -o /dev/shm/work/REMATCH_3--Address_Resolution_Service--SQL_Slammer/sync -m 4G -Q -M fuzzer-master -x /dev/shm/work/REMATCH_3--Address_Resolution_Service--SQL_Slammer/REMATCH_3--Address_Resolution_Service--SQL_Slammer.dict -- data/linux/processed-challenges/REMATCH_3--Address_Resolution_Service--SQL_Slammer/bin/REMATCH_3--Address_Resolution_Service--SQL_Slammer\n'
p109
I0
tp110
a(I6600
S'start_time     : 1500328288\nlast_update    : 1500334899\nfuzzer_pid     : 3874\ncycles_done    : 1\nexecs_done     : 1541389\nexecs_per_sec  : 284.71\npaths_total    : 114\npaths_favored  : 18\npaths_found    : 113\npaths_imported : 0\nmax_depth      : 6\ncur_path       : 65\npending_favs   : 0\npending_total  : 78\nvariable_paths : 0\nbitmap_cvg     : 0.79%\nunique_crashes : 3\nunique_hangs   : 0\nlast_path      : 1500334888\nlast_crash     : 1500333171\nlast_hang      : 0\nexec_timeout   : 40\nafl_banner     : fuzzer-master\nafl_version    : 1.85b\ncommand_line   : /home/skaramcheti/.virtualenvs/afl/bin/afl-unix/afl-fuzz -i /dev/shm/work/REMATCH_3--Address_Resolution_Service--SQL_Slammer/input -o /dev/shm/work/REMATCH_3--Address_Resolution_Service--SQL_Slammer/sync -m 4G -Q -M fuzzer-master -x /dev/shm/work/REMATCH_3--Address_Resolution_Service--SQL_Slammer/REMATCH_3--Address_Resolution_Service--SQL_Slammer.dict -- data/linux/processed-challenges/REMATCH_3--Address_Resolution_Service--SQL_Slammer/bin/REMATCH_3--Address_Resolution_Service--SQL_Slammer\n'
p111
I1
tp112
a(I6720
S'start_time     : 1500328288\nlast_update    : 1500334959\nfuzzer_pid     : 3874\ncycles_done    : 1\nexecs_done     : 1558524\nexecs_per_sec  : 287.09\npaths_total    : 115\npaths_favored  : 18\npaths_found    : 114\npaths_imported : 0\nmax_depth      : 6\ncur_path       : 65\npending_favs   : 0\npending_total  : 79\nvariable_paths : 0\nbitmap_cvg     : 0.79%\nunique_crashes : 3\nunique_hangs   : 0\nlast_path      : 1500334922\nlast_crash     : 1500333171\nlast_hang      : 0\nexec_timeout   : 40\nafl_banner     : fuzzer-master\nafl_version    : 1.85b\ncommand_line   : /home/skaramcheti/.virtualenvs/afl/bin/afl-unix/afl-fuzz -i /dev/shm/work/REMATCH_3--Address_Resolution_Service--SQL_Slammer/input -o /dev/shm/work/REMATCH_3--Address_Resolution_Service--SQL_Slammer/sync -m 4G -Q -M fuzzer-master -x /dev/shm/work/REMATCH_3--Address_Resolution_Service--SQL_Slammer/REMATCH_3--Address_Resolution_Service--SQL_Slammer.dict -- data/linux/processed-challenges/REMATCH_3--Address_Resolution_Service--SQL_Slammer/bin/REMATCH_3--Address_Resolution_Service--SQL_Slammer\n'
p113
I1
tp114
a(I6840
S'start_time     : 1500328288\nlast_update    : 1500335079\nfuzzer_pid     : 3874\ncycles_done    : 1\nexecs_done     : 1592256\nexecs_per_sec  : 276.36\npaths_total    : 116\npaths_favored  : 18\npaths_found    : 115\npaths_imported : 0\nmax_depth      : 6\ncur_path       : 67\npending_favs   : 0\npending_total  : 78\nvariable_paths : 0\nbitmap_cvg     : 0.79%\nunique_crashes : 3\nunique_hangs   : 0\nlast_path      : 1500335077\nlast_crash     : 1500333171\nlast_hang      : 0\nexec_timeout   : 40\nafl_banner     : fuzzer-master\nafl_version    : 1.85b\ncommand_line   : /home/skaramcheti/.virtualenvs/afl/bin/afl-unix/afl-fuzz -i /dev/shm/work/REMATCH_3--Address_Resolution_Service--SQL_Slammer/input -o /dev/shm/work/REMATCH_3--Address_Resolution_Service--SQL_Slammer/sync -m 4G -Q -M fuzzer-master -x /dev/shm/work/REMATCH_3--Address_Resolution_Service--SQL_Slammer/REMATCH_3--Address_Resolution_Service--SQL_Slammer.dict -- data/linux/processed-challenges/REMATCH_3--Address_Resolution_Service--SQL_Slammer/bin/REMATCH_3--Address_Resolution_Service--SQL_Slammer\n'
p115
I3
tp116
a(I6960
S'start_time     : 1500328288\nlast_update    : 1500335199\nfuzzer_pid     : 3874\ncycles_done    : 1\nexecs_done     : 1625671\nexecs_per_sec  : 272.79\npaths_total    : 119\npaths_favored  : 18\npaths_found    : 118\npaths_imported : 0\nmax_depth      : 6\ncur_path       : 67\npending_favs   : 0\npending_total  : 81\nvariable_paths : 0\nbitmap_cvg     : 0.79%\nunique_crashes : 3\nunique_hangs   : 0\nlast_path      : 1500335178\nlast_crash     : 1500333171\nlast_hang      : 0\nexec_timeout   : 40\nafl_banner     : fuzzer-master\nafl_version    : 1.85b\ncommand_line   : /home/skaramcheti/.virtualenvs/afl/bin/afl-unix/afl-fuzz -i /dev/shm/work/REMATCH_3--Address_Resolution_Service--SQL_Slammer/input -o /dev/shm/work/REMATCH_3--Address_Resolution_Service--SQL_Slammer/sync -m 4G -Q -M fuzzer-master -x /dev/shm/work/REMATCH_3--Address_Resolution_Service--SQL_Slammer/REMATCH_3--Address_Resolution_Service--SQL_Slammer.dict -- data/linux/processed-challenges/REMATCH_3--Address_Resolution_Service--SQL_Slammer/bin/REMATCH_3--Address_Resolution_Service--SQL_Slammer\n'
p117
I1
tp118
a(I7080
S'start_time     : 1500328288\nlast_update    : 1500335319\nfuzzer_pid     : 3874\ncycles_done    : 1\nexecs_done     : 1659221\nexecs_per_sec  : 284.39\npaths_total    : 119\npaths_favored  : 18\npaths_found    : 118\npaths_imported : 0\nmax_depth      : 6\ncur_path       : 67\npending_favs   : 0\npending_total  : 81\nvariable_paths : 0\nbitmap_cvg     : 0.79%\nunique_crashes : 3\nunique_hangs   : 0\nlast_path      : 1500335178\nlast_crash     : 1500333171\nlast_hang      : 0\nexec_timeout   : 40\nafl_banner     : fuzzer-master\nafl_version    : 1.85b\ncommand_line   : /home/skaramcheti/.virtualenvs/afl/bin/afl-unix/afl-fuzz -i /dev/shm/work/REMATCH_3--Address_Resolution_Service--SQL_Slammer/input -o /dev/shm/work/REMATCH_3--Address_Resolution_Service--SQL_Slammer/sync -m 4G -Q -M fuzzer-master -x /dev/shm/work/REMATCH_3--Address_Resolution_Service--SQL_Slammer/REMATCH_3--Address_Resolution_Service--SQL_Slammer.dict -- data/linux/processed-challenges/REMATCH_3--Address_Resolution_Service--SQL_Slammer/bin/REMATCH_3--Address_Resolution_Service--SQL_Slammer\n'
p119
I0
tp120
a(I7200
S'start_time     : 1500328288\nlast_update    : 1500335440\nfuzzer_pid     : 3874\ncycles_done    : 1\nexecs_done     : 1692896\nexecs_per_sec  : 281.25\npaths_total    : 119\npaths_favored  : 18\npaths_found    : 118\npaths_imported : 0\nmax_depth      : 6\ncur_path       : 67\npending_favs   : 0\npending_total  : 81\nvariable_paths : 0\nbitmap_cvg     : 0.79%\nunique_crashes : 3\nunique_hangs   : 0\nlast_path      : 1500335178\nlast_crash     : 1500333171\nlast_hang      : 0\nexec_timeout   : 40\nafl_banner     : fuzzer-master\nafl_version    : 1.85b\ncommand_line   : /home/skaramcheti/.virtualenvs/afl/bin/afl-unix/afl-fuzz -i /dev/shm/work/REMATCH_3--Address_Resolution_Service--SQL_Slammer/input -o /dev/shm/work/REMATCH_3--Address_Resolution_Service--SQL_Slammer/sync -m 4G -Q -M fuzzer-master -x /dev/shm/work/REMATCH_3--Address_Resolution_Service--SQL_Slammer/REMATCH_3--Address_Resolution_Service--SQL_Slammer.dict -- data/linux/processed-challenges/REMATCH_3--Address_Resolution_Service--SQL_Slammer/bin/REMATCH_3--Address_Resolution_Service--SQL_Slammer\n'
p121
I0
tp122
a(I7320
S'start_time     : 1500328288\nlast_update    : 1500335560\nfuzzer_pid     : 3874\ncycles_done    : 1\nexecs_done     : 1726996\nexecs_per_sec  : 281.93\npaths_total    : 119\npaths_favored  : 18\npaths_found    : 118\npaths_imported : 0\nmax_depth      : 6\ncur_path       : 67\npending_favs   : 0\npending_total  : 81\nvariable_paths : 0\nbitmap_cvg     : 0.79%\nunique_crashes : 3\nunique_hangs   : 0\nlast_path      : 1500335178\nlast_crash     : 1500333171\nlast_hang      : 0\nexec_timeout   : 40\nafl_banner     : fuzzer-master\nafl_version    : 1.85b\ncommand_line   : /home/skaramcheti/.virtualenvs/afl/bin/afl-unix/afl-fuzz -i /dev/shm/work/REMATCH_3--Address_Resolution_Service--SQL_Slammer/input -o /dev/shm/work/REMATCH_3--Address_Resolution_Service--SQL_Slammer/sync -m 4G -Q -M fuzzer-master -x /dev/shm/work/REMATCH_3--Address_Resolution_Service--SQL_Slammer/REMATCH_3--Address_Resolution_Service--SQL_Slammer.dict -- data/linux/processed-challenges/REMATCH_3--Address_Resolution_Service--SQL_Slammer/bin/REMATCH_3--Address_Resolution_Service--SQL_Slammer\n'
p123
I0
tp124
a(I7440
S'start_time     : 1500328288\nlast_update    : 1500335680\nfuzzer_pid     : 3874\ncycles_done    : 1\nexecs_done     : 1760049\nexecs_per_sec  : 272.89\npaths_total    : 119\npaths_favored  : 18\npaths_found    : 118\npaths_imported : 0\nmax_depth      : 6\ncur_path       : 72\npending_favs   : 0\npending_total  : 79\nvariable_paths : 0\nbitmap_cvg     : 0.79%\nunique_crashes : 3\nunique_hangs   : 0\nlast_path      : 1500335178\nlast_crash     : 1500333171\nlast_hang      : 0\nexec_timeout   : 40\nafl_banner     : fuzzer-master\nafl_version    : 1.85b\ncommand_line   : /home/skaramcheti/.virtualenvs/afl/bin/afl-unix/afl-fuzz -i /dev/shm/work/REMATCH_3--Address_Resolution_Service--SQL_Slammer/input -o /dev/shm/work/REMATCH_3--Address_Resolution_Service--SQL_Slammer/sync -m 4G -Q -M fuzzer-master -x /dev/shm/work/REMATCH_3--Address_Resolution_Service--SQL_Slammer/REMATCH_3--Address_Resolution_Service--SQL_Slammer.dict -- data/linux/processed-challenges/REMATCH_3--Address_Resolution_Service--SQL_Slammer/bin/REMATCH_3--Address_Resolution_Service--SQL_Slammer\n'
p125
I0
tp126
a(I7560
S'start_time     : 1500328288\nlast_update    : 1500335800\nfuzzer_pid     : 3874\ncycles_done    : 1\nexecs_done     : 1789812\nexecs_per_sec  : 253.47\npaths_total    : 121\npaths_favored  : 18\npaths_found    : 120\npaths_imported : 0\nmax_depth      : 6\ncur_path       : 74\npending_favs   : 0\npending_total  : 80\nvariable_paths : 0\nbitmap_cvg     : 0.79%\nunique_crashes : 3\nunique_hangs   : 0\nlast_path      : 1500335791\nlast_crash     : 1500333171\nlast_hang      : 0\nexec_timeout   : 40\nafl_banner     : fuzzer-master\nafl_version    : 1.85b\ncommand_line   : /home/skaramcheti/.virtualenvs/afl/bin/afl-unix/afl-fuzz -i /dev/shm/work/REMATCH_3--Address_Resolution_Service--SQL_Slammer/input -o /dev/shm/work/REMATCH_3--Address_Resolution_Service--SQL_Slammer/sync -m 4G -Q -M fuzzer-master -x /dev/shm/work/REMATCH_3--Address_Resolution_Service--SQL_Slammer/REMATCH_3--Address_Resolution_Service--SQL_Slammer.dict -- data/linux/processed-challenges/REMATCH_3--Address_Resolution_Service--SQL_Slammer/bin/REMATCH_3--Address_Resolution_Service--SQL_Slammer\n'
p127
I4
tp128
a(I7680
S'start_time     : 1500328288\nlast_update    : 1500335920\nfuzzer_pid     : 3874\ncycles_done    : 1\nexecs_done     : 1820307\nexecs_per_sec  : 260.17\npaths_total    : 125\npaths_favored  : 18\npaths_found    : 124\npaths_imported : 0\nmax_depth      : 6\ncur_path       : 74\npending_favs   : 0\npending_total  : 84\nvariable_paths : 0\nbitmap_cvg     : 0.79%\nunique_crashes : 3\nunique_hangs   : 0\nlast_path      : 1500335867\nlast_crash     : 1500333171\nlast_hang      : 0\nexec_timeout   : 40\nafl_banner     : fuzzer-master\nafl_version    : 1.85b\ncommand_line   : /home/skaramcheti/.virtualenvs/afl/bin/afl-unix/afl-fuzz -i /dev/shm/work/REMATCH_3--Address_Resolution_Service--SQL_Slammer/input -o /dev/shm/work/REMATCH_3--Address_Resolution_Service--SQL_Slammer/sync -m 4G -Q -M fuzzer-master -x /dev/shm/work/REMATCH_3--Address_Resolution_Service--SQL_Slammer/REMATCH_3--Address_Resolution_Service--SQL_Slammer.dict -- data/linux/processed-challenges/REMATCH_3--Address_Resolution_Service--SQL_Slammer/bin/REMATCH_3--Address_Resolution_Service--SQL_Slammer\n'
p129
I3
tp130
a(I7800
S'start_time     : 1500328288\nlast_update    : 1500336041\nfuzzer_pid     : 3874\ncycles_done    : 1\nexecs_done     : 1850672\nexecs_per_sec  : 258.32\npaths_total    : 126\npaths_favored  : 18\npaths_found    : 125\npaths_imported : 0\nmax_depth      : 6\ncur_path       : 74\npending_favs   : 0\npending_total  : 85\nvariable_paths : 0\nbitmap_cvg     : 0.79%\nunique_crashes : 3\nunique_hangs   : 0\nlast_path      : 1500335921\nlast_crash     : 1500333171\nlast_hang      : 0\nexec_timeout   : 40\nafl_banner     : fuzzer-master\nafl_version    : 1.85b\ncommand_line   : /home/skaramcheti/.virtualenvs/afl/bin/afl-unix/afl-fuzz -i /dev/shm/work/REMATCH_3--Address_Resolution_Service--SQL_Slammer/input -o /dev/shm/work/REMATCH_3--Address_Resolution_Service--SQL_Slammer/sync -m 4G -Q -M fuzzer-master -x /dev/shm/work/REMATCH_3--Address_Resolution_Service--SQL_Slammer/REMATCH_3--Address_Resolution_Service--SQL_Slammer.dict -- data/linux/processed-challenges/REMATCH_3--Address_Resolution_Service--SQL_Slammer/bin/REMATCH_3--Address_Resolution_Service--SQL_Slammer\n'
p131
I0
tp132
a(I7920
S'start_time     : 1500328288\nlast_update    : 1500336161\nfuzzer_pid     : 3874\ncycles_done    : 1\nexecs_done     : 1881065\nexecs_per_sec  : 250.29\npaths_total    : 126\npaths_favored  : 18\npaths_found    : 125\npaths_imported : 0\nmax_depth      : 6\ncur_path       : 74\npending_favs   : 0\npending_total  : 85\nvariable_paths : 0\nbitmap_cvg     : 0.79%\nunique_crashes : 3\nunique_hangs   : 0\nlast_path      : 1500335921\nlast_crash     : 1500333171\nlast_hang      : 0\nexec_timeout   : 40\nafl_banner     : fuzzer-master\nafl_version    : 1.85b\ncommand_line   : /home/skaramcheti/.virtualenvs/afl/bin/afl-unix/afl-fuzz -i /dev/shm/work/REMATCH_3--Address_Resolution_Service--SQL_Slammer/input -o /dev/shm/work/REMATCH_3--Address_Resolution_Service--SQL_Slammer/sync -m 4G -Q -M fuzzer-master -x /dev/shm/work/REMATCH_3--Address_Resolution_Service--SQL_Slammer/REMATCH_3--Address_Resolution_Service--SQL_Slammer.dict -- data/linux/processed-challenges/REMATCH_3--Address_Resolution_Service--SQL_Slammer/bin/REMATCH_3--Address_Resolution_Service--SQL_Slammer\n'
p133
I0
tp134
a(I8040
S'start_time     : 1500328288\nlast_update    : 1500336281\nfuzzer_pid     : 3874\ncycles_done    : 1\nexecs_done     : 1911452\nexecs_per_sec  : 253.09\npaths_total    : 126\npaths_favored  : 18\npaths_found    : 125\npaths_imported : 0\nmax_depth      : 6\ncur_path       : 74\npending_favs   : 0\npending_total  : 85\nvariable_paths : 0\nbitmap_cvg     : 0.79%\nunique_crashes : 3\nunique_hangs   : 0\nlast_path      : 1500335921\nlast_crash     : 1500333171\nlast_hang      : 0\nexec_timeout   : 40\nafl_banner     : fuzzer-master\nafl_version    : 1.85b\ncommand_line   : /home/skaramcheti/.virtualenvs/afl/bin/afl-unix/afl-fuzz -i /dev/shm/work/REMATCH_3--Address_Resolution_Service--SQL_Slammer/input -o /dev/shm/work/REMATCH_3--Address_Resolution_Service--SQL_Slammer/sync -m 4G -Q -M fuzzer-master -x /dev/shm/work/REMATCH_3--Address_Resolution_Service--SQL_Slammer/REMATCH_3--Address_Resolution_Service--SQL_Slammer.dict -- data/linux/processed-challenges/REMATCH_3--Address_Resolution_Service--SQL_Slammer/bin/REMATCH_3--Address_Resolution_Service--SQL_Slammer\n'
p135
I0
tp136
a(I8160
S'start_time     : 1500328288\nlast_update    : 1500336401\nfuzzer_pid     : 3874\ncycles_done    : 1\nexecs_done     : 1941932\nexecs_per_sec  : 252.01\npaths_total    : 126\npaths_favored  : 18\npaths_found    : 125\npaths_imported : 0\nmax_depth      : 6\ncur_path       : 74\npending_favs   : 0\npending_total  : 85\nvariable_paths : 0\nbitmap_cvg     : 0.79%\nunique_crashes : 3\nunique_hangs   : 0\nlast_path      : 1500335921\nlast_crash     : 1500333171\nlast_hang      : 0\nexec_timeout   : 40\nafl_banner     : fuzzer-master\nafl_version    : 1.85b\ncommand_line   : /home/skaramcheti/.virtualenvs/afl/bin/afl-unix/afl-fuzz -i /dev/shm/work/REMATCH_3--Address_Resolution_Service--SQL_Slammer/input -o /dev/shm/work/REMATCH_3--Address_Resolution_Service--SQL_Slammer/sync -m 4G -Q -M fuzzer-master -x /dev/shm/work/REMATCH_3--Address_Resolution_Service--SQL_Slammer/REMATCH_3--Address_Resolution_Service--SQL_Slammer.dict -- data/linux/processed-challenges/REMATCH_3--Address_Resolution_Service--SQL_Slammer/bin/REMATCH_3--Address_Resolution_Service--SQL_Slammer\n'
p137
I0
tp138
a(I8280
S'start_time     : 1500328288\nlast_update    : 1500336521\nfuzzer_pid     : 3874\ncycles_done    : 1\nexecs_done     : 1973989\nexecs_per_sec  : 274.80\npaths_total    : 128\npaths_favored  : 18\npaths_found    : 127\npaths_imported : 0\nmax_depth      : 6\ncur_path       : 83\npending_favs   : 0\npending_total  : 86\nvariable_paths : 0\nbitmap_cvg     : 0.79%\nunique_crashes : 6\nunique_hangs   : 0\nlast_path      : 1500336503\nlast_crash     : 1500336514\nlast_hang      : 0\nexec_timeout   : 40\nafl_banner     : fuzzer-master\nafl_version    : 1.85b\ncommand_line   : /home/skaramcheti/.virtualenvs/afl/bin/afl-unix/afl-fuzz -i /dev/shm/work/REMATCH_3--Address_Resolution_Service--SQL_Slammer/input -o /dev/shm/work/REMATCH_3--Address_Resolution_Service--SQL_Slammer/sync -m 4G -Q -M fuzzer-master -x /dev/shm/work/REMATCH_3--Address_Resolution_Service--SQL_Slammer/REMATCH_3--Address_Resolution_Service--SQL_Slammer.dict -- data/linux/processed-challenges/REMATCH_3--Address_Resolution_Service--SQL_Slammer/bin/REMATCH_3--Address_Resolution_Service--SQL_Slammer\n'
p139
I5
tp140
a(I8400
S'start_time     : 1500328288\nlast_update    : 1500336642\nfuzzer_pid     : 3874\ncycles_done    : 1\nexecs_done     : 2006794\nexecs_per_sec  : 275.80\npaths_total    : 133\npaths_favored  : 18\npaths_found    : 132\npaths_imported : 0\nmax_depth      : 6\ncur_path       : 83\npending_favs   : 0\npending_total  : 91\nvariable_paths : 0\nbitmap_cvg     : 0.81%\nunique_crashes : 12\nunique_hangs   : 0\nlast_path      : 1500336626\nlast_crash     : 1500336612\nlast_hang      : 0\nexec_timeout   : 40\nafl_banner     : fuzzer-master\nafl_version    : 1.85b\ncommand_line   : /home/skaramcheti/.virtualenvs/afl/bin/afl-unix/afl-fuzz -i /dev/shm/work/REMATCH_3--Address_Resolution_Service--SQL_Slammer/input -o /dev/shm/work/REMATCH_3--Address_Resolution_Service--SQL_Slammer/sync -m 4G -Q -M fuzzer-master -x /dev/shm/work/REMATCH_3--Address_Resolution_Service--SQL_Slammer/REMATCH_3--Address_Resolution_Service--SQL_Slammer.dict -- data/linux/processed-challenges/REMATCH_3--Address_Resolution_Service--SQL_Slammer/bin/REMATCH_3--Address_Resolution_Service--SQL_Slammer\n'
p141
I2
tp142
a(I8520
S'start_time     : 1500328288\nlast_update    : 1500336762\nfuzzer_pid     : 3874\ncycles_done    : 1\nexecs_done     : 2039584\nexecs_per_sec  : 278.98\npaths_total    : 133\npaths_favored  : 18\npaths_found    : 132\npaths_imported : 0\nmax_depth      : 6\ncur_path       : 83\npending_favs   : 0\npending_total  : 91\nvariable_paths : 0\nbitmap_cvg     : 0.81%\nunique_crashes : 18\nunique_hangs   : 0\nlast_path      : 1500336626\nlast_crash     : 1500336738\nlast_hang      : 0\nexec_timeout   : 40\nafl_banner     : fuzzer-master\nafl_version    : 1.85b\ncommand_line   : /home/skaramcheti/.virtualenvs/afl/bin/afl-unix/afl-fuzz -i /dev/shm/work/REMATCH_3--Address_Resolution_Service--SQL_Slammer/input -o /dev/shm/work/REMATCH_3--Address_Resolution_Service--SQL_Slammer/sync -m 4G -Q -M fuzzer-master -x /dev/shm/work/REMATCH_3--Address_Resolution_Service--SQL_Slammer/REMATCH_3--Address_Resolution_Service--SQL_Slammer.dict -- data/linux/processed-challenges/REMATCH_3--Address_Resolution_Service--SQL_Slammer/bin/REMATCH_3--Address_Resolution_Service--SQL_Slammer\n'
p143
I0
tp144
a(I8640
S'start_time     : 1500328288\nlast_update    : 1500336882\nfuzzer_pid     : 3874\ncycles_done    : 1\nexecs_done     : 2072454\nexecs_per_sec  : 274.51\npaths_total    : 135\npaths_favored  : 18\npaths_found    : 134\npaths_imported : 0\nmax_depth      : 6\ncur_path       : 83\npending_favs   : 0\npending_total  : 93\nvariable_paths : 0\nbitmap_cvg     : 0.82%\nunique_crashes : 18\nunique_hangs   : 0\nlast_path      : 1500336836\nlast_crash     : 1500336738\nlast_hang      : 0\nexec_timeout   : 40\nafl_banner     : fuzzer-master\nafl_version    : 1.85b\ncommand_line   : /home/skaramcheti/.virtualenvs/afl/bin/afl-unix/afl-fuzz -i /dev/shm/work/REMATCH_3--Address_Resolution_Service--SQL_Slammer/input -o /dev/shm/work/REMATCH_3--Address_Resolution_Service--SQL_Slammer/sync -m 4G -Q -M fuzzer-master -x /dev/shm/work/REMATCH_3--Address_Resolution_Service--SQL_Slammer/REMATCH_3--Address_Resolution_Service--SQL_Slammer.dict -- data/linux/processed-challenges/REMATCH_3--Address_Resolution_Service--SQL_Slammer/bin/REMATCH_3--Address_Resolution_Service--SQL_Slammer\n'
p145
I2
tp146
a(I8760
S'start_time     : 1500328288\nlast_update    : 1500337002\nfuzzer_pid     : 3874\ncycles_done    : 1\nexecs_done     : 2105099\nexecs_per_sec  : 270.23\npaths_total    : 135\npaths_favored  : 18\npaths_found    : 134\npaths_imported : 0\nmax_depth      : 6\ncur_path       : 83\npending_favs   : 0\npending_total  : 93\nvariable_paths : 0\nbitmap_cvg     : 0.82%\nunique_crashes : 18\nunique_hangs   : 0\nlast_path      : 1500336836\nlast_crash     : 1500336738\nlast_hang      : 0\nexec_timeout   : 40\nafl_banner     : fuzzer-master\nafl_version    : 1.85b\ncommand_line   : /home/skaramcheti/.virtualenvs/afl/bin/afl-unix/afl-fuzz -i /dev/shm/work/REMATCH_3--Address_Resolution_Service--SQL_Slammer/input -o /dev/shm/work/REMATCH_3--Address_Resolution_Service--SQL_Slammer/sync -m 4G -Q -M fuzzer-master -x /dev/shm/work/REMATCH_3--Address_Resolution_Service--SQL_Slammer/REMATCH_3--Address_Resolution_Service--SQL_Slammer.dict -- data/linux/processed-challenges/REMATCH_3--Address_Resolution_Service--SQL_Slammer/bin/REMATCH_3--Address_Resolution_Service--SQL_Slammer\n'
p147
I0
tp148
a(I8880
S'start_time     : 1500328288\nlast_update    : 1500337122\nfuzzer_pid     : 3874\ncycles_done    : 1\nexecs_done     : 2137774\nexecs_per_sec  : 278.46\npaths_total    : 136\npaths_favored  : 21\npaths_found    : 135\npaths_imported : 0\nmax_depth      : 7\ncur_path       : 130\npending_favs   : 3\npending_total  : 93\nvariable_paths : 0\nbitmap_cvg     : 0.82%\nunique_crashes : 21\nunique_hangs   : 0\nlast_path      : 1500337087\nlast_crash     : 1500337082\nlast_hang      : 0\nexec_timeout   : 40\nafl_banner     : fuzzer-master\nafl_version    : 1.85b\ncommand_line   : /home/skaramcheti/.virtualenvs/afl/bin/afl-unix/afl-fuzz -i /dev/shm/work/REMATCH_3--Address_Resolution_Service--SQL_Slammer/input -o /dev/shm/work/REMATCH_3--Address_Resolution_Service--SQL_Slammer/sync -m 4G -Q -M fuzzer-master -x /dev/shm/work/REMATCH_3--Address_Resolution_Service--SQL_Slammer/REMATCH_3--Address_Resolution_Service--SQL_Slammer.dict -- data/linux/processed-challenges/REMATCH_3--Address_Resolution_Service--SQL_Slammer/bin/REMATCH_3--Address_Resolution_Service--SQL_Slammer\n'
p149
I1
tp150
a(I9000
S'start_time     : 1500328288\nlast_update    : 1500337242\nfuzzer_pid     : 3874\ncycles_done    : 1\nexecs_done     : 2170954\nexecs_per_sec  : 279.98\npaths_total    : 136\npaths_favored  : 21\npaths_found    : 135\npaths_imported : 0\nmax_depth      : 7\ncur_path       : 130\npending_favs   : 3\npending_total  : 93\nvariable_paths : 0\nbitmap_cvg     : 0.82%\nunique_crashes : 24\nunique_hangs   : 0\nlast_path      : 1500337087\nlast_crash     : 1500337192\nlast_hang      : 0\nexec_timeout   : 40\nafl_banner     : fuzzer-master\nafl_version    : 1.85b\ncommand_line   : /home/skaramcheti/.virtualenvs/afl/bin/afl-unix/afl-fuzz -i /dev/shm/work/REMATCH_3--Address_Resolution_Service--SQL_Slammer/input -o /dev/shm/work/REMATCH_3--Address_Resolution_Service--SQL_Slammer/sync -m 4G -Q -M fuzzer-master -x /dev/shm/work/REMATCH_3--Address_Resolution_Service--SQL_Slammer/REMATCH_3--Address_Resolution_Service--SQL_Slammer.dict -- data/linux/processed-challenges/REMATCH_3--Address_Resolution_Service--SQL_Slammer/bin/REMATCH_3--Address_Resolution_Service--SQL_Slammer\n'
p151
I0
tp152
a(I9120
S'start_time     : 1500328288\nlast_update    : 1500337363\nfuzzer_pid     : 3874\ncycles_done    : 1\nexecs_done     : 2205161\nexecs_per_sec  : 285.07\npaths_total    : 136\npaths_favored  : 22\npaths_found    : 135\npaths_imported : 0\nmax_depth      : 7\ncur_path       : 132\npending_favs   : 3\npending_total  : 92\nvariable_paths : 0\nbitmap_cvg     : 0.82%\nunique_crashes : 24\nunique_hangs   : 0\nlast_path      : 1500337087\nlast_crash     : 1500337192\nlast_hang      : 0\nexec_timeout   : 40\nafl_banner     : fuzzer-master\nafl_version    : 1.85b\ncommand_line   : /home/skaramcheti/.virtualenvs/afl/bin/afl-unix/afl-fuzz -i /dev/shm/work/REMATCH_3--Address_Resolution_Service--SQL_Slammer/input -o /dev/shm/work/REMATCH_3--Address_Resolution_Service--SQL_Slammer/sync -m 4G -Q -M fuzzer-master -x /dev/shm/work/REMATCH_3--Address_Resolution_Service--SQL_Slammer/REMATCH_3--Address_Resolution_Service--SQL_Slammer.dict -- data/linux/processed-challenges/REMATCH_3--Address_Resolution_Service--SQL_Slammer/bin/REMATCH_3--Address_Resolution_Service--SQL_Slammer\n'
p153
I1
tp154
a(I9240
S'start_time     : 1500328288\nlast_update    : 1500337483\nfuzzer_pid     : 3874\ncycles_done    : 1\nexecs_done     : 2238523\nexecs_per_sec  : 261.00\npaths_total    : 138\npaths_favored  : 22\npaths_found    : 137\npaths_imported : 0\nmax_depth      : 7\ncur_path       : 134\npending_favs   : 2\npending_total  : 93\nvariable_paths : 0\nbitmap_cvg     : 0.82%\nunique_crashes : 24\nunique_hangs   : 0\nlast_path      : 1500337463\nlast_crash     : 1500337192\nlast_hang      : 0\nexec_timeout   : 40\nafl_banner     : fuzzer-master\nafl_version    : 1.85b\ncommand_line   : /home/skaramcheti/.virtualenvs/afl/bin/afl-unix/afl-fuzz -i /dev/shm/work/REMATCH_3--Address_Resolution_Service--SQL_Slammer/input -o /dev/shm/work/REMATCH_3--Address_Resolution_Service--SQL_Slammer/sync -m 4G -Q -M fuzzer-master -x /dev/shm/work/REMATCH_3--Address_Resolution_Service--SQL_Slammer/REMATCH_3--Address_Resolution_Service--SQL_Slammer.dict -- data/linux/processed-challenges/REMATCH_3--Address_Resolution_Service--SQL_Slammer/bin/REMATCH_3--Address_Resolution_Service--SQL_Slammer\n'
p155
I1
tp156
a(I9360
S'start_time     : 1500328288\nlast_update    : 1500337603\nfuzzer_pid     : 3874\ncycles_done    : 1\nexecs_done     : 2271382\nexecs_per_sec  : 282.42\npaths_total    : 138\npaths_favored  : 22\npaths_found    : 137\npaths_imported : 0\nmax_depth      : 7\ncur_path       : 134\npending_favs   : 2\npending_total  : 93\nvariable_paths : 0\nbitmap_cvg     : 0.82%\nunique_crashes : 24\nunique_hangs   : 0\nlast_path      : 1500337463\nlast_crash     : 1500337192\nlast_hang      : 0\nexec_timeout   : 40\nafl_banner     : fuzzer-master\nafl_version    : 1.85b\ncommand_line   : /home/skaramcheti/.virtualenvs/afl/bin/afl-unix/afl-fuzz -i /dev/shm/work/REMATCH_3--Address_Resolution_Service--SQL_Slammer/input -o /dev/shm/work/REMATCH_3--Address_Resolution_Service--SQL_Slammer/sync -m 4G -Q -M fuzzer-master -x /dev/shm/work/REMATCH_3--Address_Resolution_Service--SQL_Slammer/REMATCH_3--Address_Resolution_Service--SQL_Slammer.dict -- data/linux/processed-challenges/REMATCH_3--Address_Resolution_Service--SQL_Slammer/bin/REMATCH_3--Address_Resolution_Service--SQL_Slammer\n'
p157
I0
tp158
a(I9480
S'start_time     : 1500328288\nlast_update    : 1500337723\nfuzzer_pid     : 3874\ncycles_done    : 1\nexecs_done     : 2299413\nexecs_per_sec  : 221.79\npaths_total    : 138\npaths_favored  : 23\npaths_found    : 137\npaths_imported : 0\nmax_depth      : 7\ncur_path       : 135\npending_favs   : 2\npending_total  : 92\nvariable_paths : 0\nbitmap_cvg     : 0.82%\nunique_crashes : 24\nunique_hangs   : 0\nlast_path      : 1500337463\nlast_crash     : 1500337192\nlast_hang      : 0\nexec_timeout   : 40\nafl_banner     : fuzzer-master\nafl_version    : 1.85b\ncommand_line   : /home/skaramcheti/.virtualenvs/afl/bin/afl-unix/afl-fuzz -i /dev/shm/work/REMATCH_3--Address_Resolution_Service--SQL_Slammer/input -o /dev/shm/work/REMATCH_3--Address_Resolution_Service--SQL_Slammer/sync -m 4G -Q -M fuzzer-master -x /dev/shm/work/REMATCH_3--Address_Resolution_Service--SQL_Slammer/REMATCH_3--Address_Resolution_Service--SQL_Slammer.dict -- data/linux/processed-challenges/REMATCH_3--Address_Resolution_Service--SQL_Slammer/bin/REMATCH_3--Address_Resolution_Service--SQL_Slammer\n'
p159
I0
tp160
a(I9600
S'start_time     : 1500328288\nlast_update    : 1500337843\nfuzzer_pid     : 3874\ncycles_done    : 1\nexecs_done     : 2328320\nexecs_per_sec  : 229.12\npaths_total    : 138\npaths_favored  : 23\npaths_found    : 137\npaths_imported : 0\nmax_depth      : 7\ncur_path       : 137\npending_favs   : 1\npending_total  : 91\nvariable_paths : 0\nbitmap_cvg     : 0.82%\nunique_crashes : 32\nunique_hangs   : 0\nlast_path      : 1500337463\nlast_crash     : 1500337797\nlast_hang      : 0\nexec_timeout   : 40\nafl_banner     : fuzzer-master\nafl_version    : 1.85b\ncommand_line   : /home/skaramcheti/.virtualenvs/afl/bin/afl-unix/afl-fuzz -i /dev/shm/work/REMATCH_3--Address_Resolution_Service--SQL_Slammer/input -o /dev/shm/work/REMATCH_3--Address_Resolution_Service--SQL_Slammer/sync -m 4G -Q -M fuzzer-master -x /dev/shm/work/REMATCH_3--Address_Resolution_Service--SQL_Slammer/REMATCH_3--Address_Resolution_Service--SQL_Slammer.dict -- data/linux/processed-challenges/REMATCH_3--Address_Resolution_Service--SQL_Slammer/bin/REMATCH_3--Address_Resolution_Service--SQL_Slammer\n'
p161
I0
tp162
a(I9720
S'start_time     : 1500328288\nlast_update    : 1500337963\nfuzzer_pid     : 3874\ncycles_done    : 1\nexecs_done     : 2358071\nexecs_per_sec  : 260.89\npaths_total    : 138\npaths_favored  : 23\npaths_found    : 137\npaths_imported : 0\nmax_depth      : 7\ncur_path       : 137\npending_favs   : 1\npending_total  : 91\nvariable_paths : 0\nbitmap_cvg     : 0.82%\nunique_crashes : 32\nunique_hangs   : 0\nlast_path      : 1500337463\nlast_crash     : 1500337797\nlast_hang      : 0\nexec_timeout   : 40\nafl_banner     : fuzzer-master\nafl_version    : 1.85b\ncommand_line   : /home/skaramcheti/.virtualenvs/afl/bin/afl-unix/afl-fuzz -i /dev/shm/work/REMATCH_3--Address_Resolution_Service--SQL_Slammer/input -o /dev/shm/work/REMATCH_3--Address_Resolution_Service--SQL_Slammer/sync -m 4G -Q -M fuzzer-master -x /dev/shm/work/REMATCH_3--Address_Resolution_Service--SQL_Slammer/REMATCH_3--Address_Resolution_Service--SQL_Slammer.dict -- data/linux/processed-challenges/REMATCH_3--Address_Resolution_Service--SQL_Slammer/bin/REMATCH_3--Address_Resolution_Service--SQL_Slammer\n'
p163
I0
tp164
a(I9840
S'start_time     : 1500328288\nlast_update    : 1500338084\nfuzzer_pid     : 3874\ncycles_done    : 2\nexecs_done     : 2390882\nexecs_per_sec  : 273.57\npaths_total    : 138\npaths_favored  : 23\npaths_found    : 137\npaths_imported : 0\nmax_depth      : 7\ncur_path       : 8\npending_favs   : 0\npending_total  : 87\nvariable_paths : 0\nbitmap_cvg     : 0.82%\nunique_crashes : 32\nunique_hangs   : 0\nlast_path      : 1500337463\nlast_crash     : 1500337797\nlast_hang      : 0\nexec_timeout   : 40\nafl_banner     : fuzzer-master\nafl_version    : 1.85b\ncommand_line   : /home/skaramcheti/.virtualenvs/afl/bin/afl-unix/afl-fuzz -i /dev/shm/work/REMATCH_3--Address_Resolution_Service--SQL_Slammer/input -o /dev/shm/work/REMATCH_3--Address_Resolution_Service--SQL_Slammer/sync -m 4G -Q -M fuzzer-master -x /dev/shm/work/REMATCH_3--Address_Resolution_Service--SQL_Slammer/REMATCH_3--Address_Resolution_Service--SQL_Slammer.dict -- data/linux/processed-challenges/REMATCH_3--Address_Resolution_Service--SQL_Slammer/bin/REMATCH_3--Address_Resolution_Service--SQL_Slammer\n'
p165
I0
tp166
a(I9960
S'start_time     : 1500328288\nlast_update    : 1500338204\nfuzzer_pid     : 3874\ncycles_done    : 2\nexecs_done     : 2423977\nexecs_per_sec  : 276.73\npaths_total    : 138\npaths_favored  : 23\npaths_found    : 137\npaths_imported : 0\nmax_depth      : 7\ncur_path       : 19\npending_favs   : 0\npending_total  : 83\nvariable_paths : 0\nbitmap_cvg     : 0.82%\nunique_crashes : 32\nunique_hangs   : 0\nlast_path      : 1500337463\nlast_crash     : 1500337797\nlast_hang      : 0\nexec_timeout   : 40\nafl_banner     : fuzzer-master\nafl_version    : 1.85b\ncommand_line   : /home/skaramcheti/.virtualenvs/afl/bin/afl-unix/afl-fuzz -i /dev/shm/work/REMATCH_3--Address_Resolution_Service--SQL_Slammer/input -o /dev/shm/work/REMATCH_3--Address_Resolution_Service--SQL_Slammer/sync -m 4G -Q -M fuzzer-master -x /dev/shm/work/REMATCH_3--Address_Resolution_Service--SQL_Slammer/REMATCH_3--Address_Resolution_Service--SQL_Slammer.dict -- data/linux/processed-challenges/REMATCH_3--Address_Resolution_Service--SQL_Slammer/bin/REMATCH_3--Address_Resolution_Service--SQL_Slammer\n'
p167
I0
tp168
a(I10080
S'start_time     : 1500328288\nlast_update    : 1500338324\nfuzzer_pid     : 3874\ncycles_done    : 2\nexecs_done     : 2455169\nexecs_per_sec  : 279.29\npaths_total    : 138\npaths_favored  : 23\npaths_found    : 137\npaths_imported : 0\nmax_depth      : 7\ncur_path       : 33\npending_favs   : 0\npending_total  : 81\nvariable_paths : 0\nbitmap_cvg     : 0.82%\nunique_crashes : 32\nunique_hangs   : 0\nlast_path      : 1500337463\nlast_crash     : 1500337797\nlast_hang      : 0\nexec_timeout   : 40\nafl_banner     : fuzzer-master\nafl_version    : 1.85b\ncommand_line   : /home/skaramcheti/.virtualenvs/afl/bin/afl-unix/afl-fuzz -i /dev/shm/work/REMATCH_3--Address_Resolution_Service--SQL_Slammer/input -o /dev/shm/work/REMATCH_3--Address_Resolution_Service--SQL_Slammer/sync -m 4G -Q -M fuzzer-master -x /dev/shm/work/REMATCH_3--Address_Resolution_Service--SQL_Slammer/REMATCH_3--Address_Resolution_Service--SQL_Slammer.dict -- data/linux/processed-challenges/REMATCH_3--Address_Resolution_Service--SQL_Slammer/bin/REMATCH_3--Address_Resolution_Service--SQL_Slammer\n'
p169
I0
tp170
a(I10200
S'start_time     : 1500328288\nlast_update    : 1500338444\nfuzzer_pid     : 3874\ncycles_done    : 2\nexecs_done     : 2488210\nexecs_per_sec  : 271.10\npaths_total    : 138\npaths_favored  : 23\npaths_found    : 137\npaths_imported : 0\nmax_depth      : 7\ncur_path       : 43\npending_favs   : 0\npending_total  : 79\nvariable_paths : 0\nbitmap_cvg     : 0.82%\nunique_crashes : 32\nunique_hangs   : 0\nlast_path      : 1500337463\nlast_crash     : 1500337797\nlast_hang      : 0\nexec_timeout   : 40\nafl_banner     : fuzzer-master\nafl_version    : 1.85b\ncommand_line   : /home/skaramcheti/.virtualenvs/afl/bin/afl-unix/afl-fuzz -i /dev/shm/work/REMATCH_3--Address_Resolution_Service--SQL_Slammer/input -o /dev/shm/work/REMATCH_3--Address_Resolution_Service--SQL_Slammer/sync -m 4G -Q -M fuzzer-master -x /dev/shm/work/REMATCH_3--Address_Resolution_Service--SQL_Slammer/REMATCH_3--Address_Resolution_Service--SQL_Slammer.dict -- data/linux/processed-challenges/REMATCH_3--Address_Resolution_Service--SQL_Slammer/bin/REMATCH_3--Address_Resolution_Service--SQL_Slammer\n'
p171
I0
tp172
a(I10320
S'start_time     : 1500328288\nlast_update    : 1500338564\nfuzzer_pid     : 3874\ncycles_done    : 2\nexecs_done     : 2521465\nexecs_per_sec  : 279.06\npaths_total    : 138\npaths_favored  : 23\npaths_found    : 137\npaths_imported : 0\nmax_depth      : 7\ncur_path       : 51\npending_favs   : 0\npending_total  : 77\nvariable_paths : 0\nbitmap_cvg     : 0.82%\nunique_crashes : 32\nunique_hangs   : 0\nlast_path      : 1500337463\nlast_crash     : 1500337797\nlast_hang      : 0\nexec_timeout   : 40\nafl_banner     : fuzzer-master\nafl_version    : 1.85b\ncommand_line   : /home/skaramcheti/.virtualenvs/afl/bin/afl-unix/afl-fuzz -i /dev/shm/work/REMATCH_3--Address_Resolution_Service--SQL_Slammer/input -o /dev/shm/work/REMATCH_3--Address_Resolution_Service--SQL_Slammer/sync -m 4G -Q -M fuzzer-master -x /dev/shm/work/REMATCH_3--Address_Resolution_Service--SQL_Slammer/REMATCH_3--Address_Resolution_Service--SQL_Slammer.dict -- data/linux/processed-challenges/REMATCH_3--Address_Resolution_Service--SQL_Slammer/bin/REMATCH_3--Address_Resolution_Service--SQL_Slammer\n'
p173
I0
tp174
a(I10440
S'start_time     : 1500328288\nlast_update    : 1500338685\nfuzzer_pid     : 3874\ncycles_done    : 2\nexecs_done     : 2553594\nexecs_per_sec  : 266.35\npaths_total    : 138\npaths_favored  : 23\npaths_found    : 137\npaths_imported : 0\nmax_depth      : 7\ncur_path       : 61\npending_favs   : 0\npending_total  : 74\nvariable_paths : 0\nbitmap_cvg     : 0.82%\nunique_crashes : 32\nunique_hangs   : 0\nlast_path      : 1500337463\nlast_crash     : 1500337797\nlast_hang      : 0\nexec_timeout   : 40\nafl_banner     : fuzzer-master\nafl_version    : 1.85b\ncommand_line   : /home/skaramcheti/.virtualenvs/afl/bin/afl-unix/afl-fuzz -i /dev/shm/work/REMATCH_3--Address_Resolution_Service--SQL_Slammer/input -o /dev/shm/work/REMATCH_3--Address_Resolution_Service--SQL_Slammer/sync -m 4G -Q -M fuzzer-master -x /dev/shm/work/REMATCH_3--Address_Resolution_Service--SQL_Slammer/REMATCH_3--Address_Resolution_Service--SQL_Slammer.dict -- data/linux/processed-challenges/REMATCH_3--Address_Resolution_Service--SQL_Slammer/bin/REMATCH_3--Address_Resolution_Service--SQL_Slammer\n'
p175
I0
tp176
a(I10560
S'start_time     : 1500328288\nlast_update    : 1500338805\nfuzzer_pid     : 3874\ncycles_done    : 2\nexecs_done     : 2581403\nexecs_per_sec  : 283.85\npaths_total    : 138\npaths_favored  : 23\npaths_found    : 137\npaths_imported : 0\nmax_depth      : 7\ncur_path       : 68\npending_favs   : 0\npending_total  : 72\nvariable_paths : 0\nbitmap_cvg     : 0.82%\nunique_crashes : 32\nunique_hangs   : 0\nlast_path      : 1500337463\nlast_crash     : 1500337797\nlast_hang      : 0\nexec_timeout   : 40\nafl_banner     : fuzzer-master\nafl_version    : 1.85b\ncommand_line   : /home/skaramcheti/.virtualenvs/afl/bin/afl-unix/afl-fuzz -i /dev/shm/work/REMATCH_3--Address_Resolution_Service--SQL_Slammer/input -o /dev/shm/work/REMATCH_3--Address_Resolution_Service--SQL_Slammer/sync -m 4G -Q -M fuzzer-master -x /dev/shm/work/REMATCH_3--Address_Resolution_Service--SQL_Slammer/REMATCH_3--Address_Resolution_Service--SQL_Slammer.dict -- data/linux/processed-challenges/REMATCH_3--Address_Resolution_Service--SQL_Slammer/bin/REMATCH_3--Address_Resolution_Service--SQL_Slammer\n'
p177
I0
tp178
a(I10680
S'start_time     : 1500328288\nlast_update    : 1500338925\nfuzzer_pid     : 3874\ncycles_done    : 2\nexecs_done     : 2605556\nexecs_per_sec  : 153.64\npaths_total    : 138\npaths_favored  : 23\npaths_found    : 137\npaths_imported : 0\nmax_depth      : 7\ncur_path       : 79\npending_favs   : 0\npending_total  : 71\nvariable_paths : 0\nbitmap_cvg     : 0.82%\nunique_crashes : 32\nunique_hangs   : 0\nlast_path      : 1500337463\nlast_crash     : 1500337797\nlast_hang      : 0\nexec_timeout   : 40\nafl_banner     : fuzzer-master\nafl_version    : 1.85b\ncommand_line   : /home/skaramcheti/.virtualenvs/afl/bin/afl-unix/afl-fuzz -i /dev/shm/work/REMATCH_3--Address_Resolution_Service--SQL_Slammer/input -o /dev/shm/work/REMATCH_3--Address_Resolution_Service--SQL_Slammer/sync -m 4G -Q -M fuzzer-master -x /dev/shm/work/REMATCH_3--Address_Resolution_Service--SQL_Slammer/REMATCH_3--Address_Resolution_Service--SQL_Slammer.dict -- data/linux/processed-challenges/REMATCH_3--Address_Resolution_Service--SQL_Slammer/bin/REMATCH_3--Address_Resolution_Service--SQL_Slammer\n'
p179
I0
tp180
a.