(lp0
(I0
S'start_time     : 1500133759\nlast_update    : 1500133759\nfuzzer_pid     : 20005\ncycles_done    : 0\nexecs_done     : 10\nexecs_per_sec  : 227.27\npaths_total    : 1\npaths_favored  : 1\npaths_found    : 0\npaths_imported : 0\nmax_depth      : 1\ncur_path       : 0\npending_favs   : 1\npending_total  : 1\nvariable_paths : 0\nbitmap_cvg     : 0.04%\nunique_crashes : 0\nunique_hangs   : 0\nlast_path      : 0\nlast_crash     : 0\nlast_hang      : 0\nexec_timeout   : 20\nafl_banner     : fuzzer-master\nafl_version    : 1.85b\ncommand_line   : /home/skaramcheti/.virtualenvs/afl/bin/afl-unix/afl-fuzz -i /dev/shm/work/String_Storage_and_Retrieval/input -o /dev/shm/work/String_Storage_and_Retrieval/sync -m 4G -Q -M fuzzer-master -x /dev/shm/work/String_Storage_and_Retrieval/String_Storage_and_Retrieval.dict -- data/linux/processed-challenges/String_Storage_and_Retrieval/bin/String_Storage_and_Retrieval\n'
p1
I17
tp2
a(I120
S'start_time     : 1500133759\nlast_update    : 1500133879\nfuzzer_pid     : 20005\ncycles_done    : 0\nexecs_done     : 180516\nexecs_per_sec  : 1470.61\npaths_total    : 45\npaths_favored  : 12\npaths_found    : 44\npaths_imported : 0\nmax_depth      : 3\ncur_path       : 12\npending_favs   : 12\npending_total  : 44\nvariable_paths : 0\nbitmap_cvg     : 0.28%\nunique_crashes : 7\nunique_hangs   : 0\nlast_path      : 1500133873\nlast_crash     : 1500133867\nlast_hang      : 0\nexec_timeout   : 20\nafl_banner     : fuzzer-master\nafl_version    : 1.85b\ncommand_line   : /home/skaramcheti/.virtualenvs/afl/bin/afl-unix/afl-fuzz -i /dev/shm/work/String_Storage_and_Retrieval/input -o /dev/shm/work/String_Storage_and_Retrieval/sync -m 4G -Q -M fuzzer-master -x /dev/shm/work/String_Storage_and_Retrieval/String_Storage_and_Retrieval.dict -- data/linux/processed-challenges/String_Storage_and_Retrieval/bin/String_Storage_and_Retrieval\n'
p3
I29
tp4
a(I240
S'start_time     : 1500133759\nlast_update    : 1500133999\nfuzzer_pid     : 20005\ncycles_done    : 0\nexecs_done     : 354147\nexecs_per_sec  : 1318.14\npaths_total    : 54\npaths_favored  : 18\npaths_found    : 53\npaths_imported : 0\nmax_depth      : 3\ncur_path       : 22\npending_favs   : 15\npending_total  : 48\nvariable_paths : 0\nbitmap_cvg     : 0.29%\nunique_crashes : 16\nunique_hangs   : 0\nlast_path      : 1500133989\nlast_crash     : 1500133986\nlast_hang      : 0\nexec_timeout   : 20\nafl_banner     : fuzzer-master\nafl_version    : 1.85b\ncommand_line   : /home/skaramcheti/.virtualenvs/afl/bin/afl-unix/afl-fuzz -i /dev/shm/work/String_Storage_and_Retrieval/input -o /dev/shm/work/String_Storage_and_Retrieval/sync -m 4G -Q -M fuzzer-master -x /dev/shm/work/String_Storage_and_Retrieval/String_Storage_and_Retrieval.dict -- data/linux/processed-challenges/String_Storage_and_Retrieval/bin/String_Storage_and_Retrieval\n'
p5
I8
tp6
a(I360
S'start_time     : 1500133759\nlast_update    : 1500134119\nfuzzer_pid     : 20005\ncycles_done    : 0\nexecs_done     : 518071\nexecs_per_sec  : 1352.13\npaths_total    : 67\npaths_favored  : 21\npaths_found    : 66\npaths_imported : 0\nmax_depth      : 4\ncur_path       : 46\npending_favs   : 8\npending_total  : 51\nvariable_paths : 0\nbitmap_cvg     : 0.30%\nunique_crashes : 33\nunique_hangs   : 0\nlast_path      : 1500134076\nlast_crash     : 1500134116\nlast_hang      : 0\nexec_timeout   : 20\nafl_banner     : fuzzer-master\nafl_version    : 1.85b\ncommand_line   : /home/skaramcheti/.virtualenvs/afl/bin/afl-unix/afl-fuzz -i /dev/shm/work/String_Storage_and_Retrieval/input -o /dev/shm/work/String_Storage_and_Retrieval/sync -m 4G -Q -M fuzzer-master -x /dev/shm/work/String_Storage_and_Retrieval/String_Storage_and_Retrieval.dict -- data/linux/processed-challenges/String_Storage_and_Retrieval/bin/String_Storage_and_Retrieval\n'
p7
I13
tp8
a(I480
S'start_time     : 1500133759\nlast_update    : 1500134240\nfuzzer_pid     : 20005\ncycles_done    : 0\nexecs_done     : 678971\nexecs_per_sec  : 1368.54\npaths_total    : 69\npaths_favored  : 24\npaths_found    : 68\npaths_imported : 0\nmax_depth      : 4\ncur_path       : 61\npending_favs   : 4\npending_total  : 45\nvariable_paths : 0\nbitmap_cvg     : 0.30%\nunique_crashes : 40\nunique_hangs   : 0\nlast_path      : 1500134166\nlast_crash     : 1500134198\nlast_hang      : 0\nexec_timeout   : 20\nafl_banner     : fuzzer-master\nafl_version    : 1.85b\ncommand_line   : /home/skaramcheti/.virtualenvs/afl/bin/afl-unix/afl-fuzz -i /dev/shm/work/String_Storage_and_Retrieval/input -o /dev/shm/work/String_Storage_and_Retrieval/sync -m 4G -Q -M fuzzer-master -x /dev/shm/work/String_Storage_and_Retrieval/String_Storage_and_Retrieval.dict -- data/linux/processed-challenges/String_Storage_and_Retrieval/bin/String_Storage_and_Retrieval\n'
p9
I2
tp10
a(I600
S'start_time     : 1500133759\nlast_update    : 1500134360\nfuzzer_pid     : 20005\ncycles_done    : 1\nexecs_done     : 845634\nexecs_per_sec  : 1368.70\npaths_total    : 69\npaths_favored  : 24\npaths_found    : 68\npaths_imported : 0\nmax_depth      : 4\ncur_path       : 45\npending_favs   : 0\npending_total  : 36\nvariable_paths : 0\nbitmap_cvg     : 0.30%\nunique_crashes : 42\nunique_hangs   : 0\nlast_path      : 1500134166\nlast_crash     : 1500134270\nlast_hang      : 0\nexec_timeout   : 20\nafl_banner     : fuzzer-master\nafl_version    : 1.85b\ncommand_line   : /home/skaramcheti/.virtualenvs/afl/bin/afl-unix/afl-fuzz -i /dev/shm/work/String_Storage_and_Retrieval/input -o /dev/shm/work/String_Storage_and_Retrieval/sync -m 4G -Q -M fuzzer-master -x /dev/shm/work/String_Storage_and_Retrieval/String_Storage_and_Retrieval.dict -- data/linux/processed-challenges/String_Storage_and_Retrieval/bin/String_Storage_and_Retrieval\n'
p11
I3
tp12
a(I720
S'start_time     : 1500133759\nlast_update    : 1500134480\nfuzzer_pid     : 20005\ncycles_done    : 1\nexecs_done     : 1010133\nexecs_per_sec  : 1342.29\npaths_total    : 75\npaths_favored  : 24\npaths_found    : 74\npaths_imported : 0\nmax_depth      : 4\ncur_path       : 52\npending_favs   : 0\npending_total  : 39\nvariable_paths : 0\nbitmap_cvg     : 0.30%\nunique_crashes : 42\nunique_hangs   : 0\nlast_path      : 1500134472\nlast_crash     : 1500134270\nlast_hang      : 0\nexec_timeout   : 20\nafl_banner     : fuzzer-master\nafl_version    : 1.85b\ncommand_line   : /home/skaramcheti/.virtualenvs/afl/bin/afl-unix/afl-fuzz -i /dev/shm/work/String_Storage_and_Retrieval/input -o /dev/shm/work/String_Storage_and_Retrieval/sync -m 4G -Q -M fuzzer-master -x /dev/shm/work/String_Storage_and_Retrieval/String_Storage_and_Retrieval.dict -- data/linux/processed-challenges/String_Storage_and_Retrieval/bin/String_Storage_and_Retrieval\n'
p13
I3
tp14
a(I840
S'start_time     : 1500133759\nlast_update    : 1500134600\nfuzzer_pid     : 20005\ncycles_done    : 1\nexecs_done     : 1169024\nexecs_per_sec  : 1293.63\npaths_total    : 77\npaths_favored  : 24\npaths_found    : 76\npaths_imported : 0\nmax_depth      : 5\ncur_path       : 65\npending_favs   : 0\npending_total  : 39\nvariable_paths : 0\nbitmap_cvg     : 0.30%\nunique_crashes : 43\nunique_hangs   : 0\nlast_path      : 1500134595\nlast_crash     : 1500134571\nlast_hang      : 0\nexec_timeout   : 20\nafl_banner     : fuzzer-master\nafl_version    : 1.85b\ncommand_line   : /home/skaramcheti/.virtualenvs/afl/bin/afl-unix/afl-fuzz -i /dev/shm/work/String_Storage_and_Retrieval/input -o /dev/shm/work/String_Storage_and_Retrieval/sync -m 4G -Q -M fuzzer-master -x /dev/shm/work/String_Storage_and_Retrieval/String_Storage_and_Retrieval.dict -- data/linux/processed-challenges/String_Storage_and_Retrieval/bin/String_Storage_and_Retrieval\n'
p15
I2
tp16
a(I960
S'start_time     : 1500133759\nlast_update    : 1500134721\nfuzzer_pid     : 20005\ncycles_done    : 1\nexecs_done     : 1300532\nexecs_per_sec  : 968.38\npaths_total    : 77\npaths_favored  : 24\npaths_found    : 76\npaths_imported : 0\nmax_depth      : 5\ncur_path       : 71\npending_favs   : 0\npending_total  : 37\nvariable_paths : 0\nbitmap_cvg     : 0.30%\nunique_crashes : 43\nunique_hangs   : 0\nlast_path      : 1500134595\nlast_crash     : 1500134571\nlast_hang      : 0\nexec_timeout   : 20\nafl_banner     : fuzzer-master\nafl_version    : 1.85b\ncommand_line   : /home/skaramcheti/.virtualenvs/afl/bin/afl-unix/afl-fuzz -i /dev/shm/work/String_Storage_and_Retrieval/input -o /dev/shm/work/String_Storage_and_Retrieval/sync -m 4G -Q -M fuzzer-master -x /dev/shm/work/String_Storage_and_Retrieval/String_Storage_and_Retrieval.dict -- data/linux/processed-challenges/String_Storage_and_Retrieval/bin/String_Storage_and_Retrieval\n'
p17
I0
tp18
a(I1080
S'start_time     : 1500133759\nlast_update    : 1500134841\nfuzzer_pid     : 20005\ncycles_done    : 1\nexecs_done     : 1417921\nexecs_per_sec  : 1009.46\npaths_total    : 77\npaths_favored  : 24\npaths_found    : 76\npaths_imported : 0\nmax_depth      : 5\ncur_path       : 76\npending_favs   : 0\npending_total  : 35\nvariable_paths : 0\nbitmap_cvg     : 0.30%\nunique_crashes : 43\nunique_hangs   : 0\nlast_path      : 1500134595\nlast_crash     : 1500134571\nlast_hang      : 0\nexec_timeout   : 20\nafl_banner     : fuzzer-master\nafl_version    : 1.85b\ncommand_line   : /home/skaramcheti/.virtualenvs/afl/bin/afl-unix/afl-fuzz -i /dev/shm/work/String_Storage_and_Retrieval/input -o /dev/shm/work/String_Storage_and_Retrieval/sync -m 4G -Q -M fuzzer-master -x /dev/shm/work/String_Storage_and_Retrieval/String_Storage_and_Retrieval.dict -- data/linux/processed-challenges/String_Storage_and_Retrieval/bin/String_Storage_and_Retrieval\n'
p19
I1
tp20
a(I1200
S'start_time     : 1500133759\nlast_update    : 1500134961\nfuzzer_pid     : 20005\ncycles_done    : 1\nexecs_done     : 1523781\nexecs_per_sec  : 749.65\npaths_total    : 78\npaths_favored  : 24\npaths_found    : 77\npaths_imported : 0\nmax_depth      : 6\ncur_path       : 77\npending_favs   : 0\npending_total  : 35\nvariable_paths : 0\nbitmap_cvg     : 0.30%\nunique_crashes : 43\nunique_hangs   : 0\nlast_path      : 1500134845\nlast_crash     : 1500134571\nlast_hang      : 0\nexec_timeout   : 20\nafl_banner     : fuzzer-master\nafl_version    : 1.85b\ncommand_line   : /home/skaramcheti/.virtualenvs/afl/bin/afl-unix/afl-fuzz -i /dev/shm/work/String_Storage_and_Retrieval/input -o /dev/shm/work/String_Storage_and_Retrieval/sync -m 4G -Q -M fuzzer-master -x /dev/shm/work/String_Storage_and_Retrieval/String_Storage_and_Retrieval.dict -- data/linux/processed-challenges/String_Storage_and_Retrieval/bin/String_Storage_and_Retrieval\n'
p21
I0
tp22
a(I1320
S'start_time     : 1500133759\nlast_update    : 1500135081\nfuzzer_pid     : 20005\ncycles_done    : 1\nexecs_done     : 1618095\nexecs_per_sec  : 674.71\npaths_total    : 79\npaths_favored  : 24\npaths_found    : 78\npaths_imported : 0\nmax_depth      : 7\ncur_path       : 78\npending_favs   : 0\npending_total  : 35\nvariable_paths : 0\nbitmap_cvg     : 0.30%\nunique_crashes : 43\nunique_hangs   : 0\nlast_path      : 1500135023\nlast_crash     : 1500134571\nlast_hang      : 0\nexec_timeout   : 20\nafl_banner     : fuzzer-master\nafl_version    : 1.85b\ncommand_line   : /home/skaramcheti/.virtualenvs/afl/bin/afl-unix/afl-fuzz -i /dev/shm/work/String_Storage_and_Retrieval/input -o /dev/shm/work/String_Storage_and_Retrieval/sync -m 4G -Q -M fuzzer-master -x /dev/shm/work/String_Storage_and_Retrieval/String_Storage_and_Retrieval.dict -- data/linux/processed-challenges/String_Storage_and_Retrieval/bin/String_Storage_and_Retrieval\n'
p23
I1
tp24
a(I1440
S'start_time     : 1500133759\nlast_update    : 1500135201\nfuzzer_pid     : 20005\ncycles_done    : 1\nexecs_done     : 1693563\nexecs_per_sec  : 625.09\npaths_total    : 79\npaths_favored  : 24\npaths_found    : 78\npaths_imported : 0\nmax_depth      : 7\ncur_path       : 78\npending_favs   : 0\npending_total  : 35\nvariable_paths : 0\nbitmap_cvg     : 0.30%\nunique_crashes : 43\nunique_hangs   : 0\nlast_path      : 1500135023\nlast_crash     : 1500134571\nlast_hang      : 0\nexec_timeout   : 20\nafl_banner     : fuzzer-master\nafl_version    : 1.85b\ncommand_line   : /home/skaramcheti/.virtualenvs/afl/bin/afl-unix/afl-fuzz -i /dev/shm/work/String_Storage_and_Retrieval/input -o /dev/shm/work/String_Storage_and_Retrieval/sync -m 4G -Q -M fuzzer-master -x /dev/shm/work/String_Storage_and_Retrieval/String_Storage_and_Retrieval.dict -- data/linux/processed-challenges/String_Storage_and_Retrieval/bin/String_Storage_and_Retrieval\n'
p25
I0
tp26
a(I1560
S'start_time     : 1500133759\nlast_update    : 1500135321\nfuzzer_pid     : 20005\ncycles_done    : 1\nexecs_done     : 1768936\nexecs_per_sec  : 630.55\npaths_total    : 79\npaths_favored  : 24\npaths_found    : 78\npaths_imported : 0\nmax_depth      : 7\ncur_path       : 78\npending_favs   : 0\npending_total  : 35\nvariable_paths : 0\nbitmap_cvg     : 0.30%\nunique_crashes : 43\nunique_hangs   : 0\nlast_path      : 1500135023\nlast_crash     : 1500134571\nlast_hang      : 0\nexec_timeout   : 20\nafl_banner     : fuzzer-master\nafl_version    : 1.85b\ncommand_line   : /home/skaramcheti/.virtualenvs/afl/bin/afl-unix/afl-fuzz -i /dev/shm/work/String_Storage_and_Retrieval/input -o /dev/shm/work/String_Storage_and_Retrieval/sync -m 4G -Q -M fuzzer-master -x /dev/shm/work/String_Storage_and_Retrieval/String_Storage_and_Retrieval.dict -- data/linux/processed-challenges/String_Storage_and_Retrieval/bin/String_Storage_and_Retrieval\n'
p27
I0
tp28
a(I1680
S'start_time     : 1500133759\nlast_update    : 1500135441\nfuzzer_pid     : 20005\ncycles_done    : 1\nexecs_done     : 1844253\nexecs_per_sec  : 585.83\npaths_total    : 80\npaths_favored  : 24\npaths_found    : 79\npaths_imported : 0\nmax_depth      : 8\ncur_path       : 79\npending_favs   : 0\npending_total  : 35\nvariable_paths : 0\nbitmap_cvg     : 0.30%\nunique_crashes : 43\nunique_hangs   : 0\nlast_path      : 1500135339\nlast_crash     : 1500134571\nlast_hang      : 0\nexec_timeout   : 20\nafl_banner     : fuzzer-master\nafl_version    : 1.85b\ncommand_line   : /home/skaramcheti/.virtualenvs/afl/bin/afl-unix/afl-fuzz -i /dev/shm/work/String_Storage_and_Retrieval/input -o /dev/shm/work/String_Storage_and_Retrieval/sync -m 4G -Q -M fuzzer-master -x /dev/shm/work/String_Storage_and_Retrieval/String_Storage_and_Retrieval.dict -- data/linux/processed-challenges/String_Storage_and_Retrieval/bin/String_Storage_and_Retrieval\n'
p29
I1
tp30
a(I1800
S'start_time     : 1500133759\nlast_update    : 1500135562\nfuzzer_pid     : 20005\ncycles_done    : 1\nexecs_done     : 1913445\nexecs_per_sec  : 579.34\npaths_total    : 80\npaths_favored  : 24\npaths_found    : 79\npaths_imported : 0\nmax_depth      : 8\ncur_path       : 79\npending_favs   : 0\npending_total  : 35\nvariable_paths : 0\nbitmap_cvg     : 0.30%\nunique_crashes : 43\nunique_hangs   : 0\nlast_path      : 1500135339\nlast_crash     : 1500134571\nlast_hang      : 0\nexec_timeout   : 20\nafl_banner     : fuzzer-master\nafl_version    : 1.85b\ncommand_line   : /home/skaramcheti/.virtualenvs/afl/bin/afl-unix/afl-fuzz -i /dev/shm/work/String_Storage_and_Retrieval/input -o /dev/shm/work/String_Storage_and_Retrieval/sync -m 4G -Q -M fuzzer-master -x /dev/shm/work/String_Storage_and_Retrieval/String_Storage_and_Retrieval.dict -- data/linux/processed-challenges/String_Storage_and_Retrieval/bin/String_Storage_and_Retrieval\n'
p31
I0
tp32
a(I1920
S'start_time     : 1500133759\nlast_update    : 1500135682\nfuzzer_pid     : 20005\ncycles_done    : 1\nexecs_done     : 1982458\nexecs_per_sec  : 578.67\npaths_total    : 80\npaths_favored  : 24\npaths_found    : 79\npaths_imported : 0\nmax_depth      : 8\ncur_path       : 79\npending_favs   : 0\npending_total  : 35\nvariable_paths : 0\nbitmap_cvg     : 0.30%\nunique_crashes : 43\nunique_hangs   : 0\nlast_path      : 1500135339\nlast_crash     : 1500134571\nlast_hang      : 0\nexec_timeout   : 20\nafl_banner     : fuzzer-master\nafl_version    : 1.85b\ncommand_line   : /home/skaramcheti/.virtualenvs/afl/bin/afl-unix/afl-fuzz -i /dev/shm/work/String_Storage_and_Retrieval/input -o /dev/shm/work/String_Storage_and_Retrieval/sync -m 4G -Q -M fuzzer-master -x /dev/shm/work/String_Storage_and_Retrieval/String_Storage_and_Retrieval.dict -- data/linux/processed-challenges/String_Storage_and_Retrieval/bin/String_Storage_and_Retrieval\n'
p33
I0
tp34
a(I2040
S'start_time     : 1500133759\nlast_update    : 1500135802\nfuzzer_pid     : 20005\ncycles_done    : 2\nexecs_done     : 2105621\nexecs_per_sec  : 1371.33\npaths_total    : 80\npaths_favored  : 24\npaths_found    : 79\npaths_imported : 0\nmax_depth      : 8\ncur_path       : 41\npending_favs   : 0\npending_total  : 29\nvariable_paths : 0\nbitmap_cvg     : 0.30%\nunique_crashes : 43\nunique_hangs   : 0\nlast_path      : 1500135339\nlast_crash     : 1500134571\nlast_hang      : 0\nexec_timeout   : 20\nafl_banner     : fuzzer-master\nafl_version    : 1.85b\ncommand_line   : /home/skaramcheti/.virtualenvs/afl/bin/afl-unix/afl-fuzz -i /dev/shm/work/String_Storage_and_Retrieval/input -o /dev/shm/work/String_Storage_and_Retrieval/sync -m 4G -Q -M fuzzer-master -x /dev/shm/work/String_Storage_and_Retrieval/String_Storage_and_Retrieval.dict -- data/linux/processed-challenges/String_Storage_and_Retrieval/bin/String_Storage_and_Retrieval\n'
p35
I0
tp36
a(I2160
S'start_time     : 1500133759\nlast_update    : 1500135923\nfuzzer_pid     : 20005\ncycles_done    : 2\nexecs_done     : 2263913\nexecs_per_sec  : 1106.36\npaths_total    : 80\npaths_favored  : 24\npaths_found    : 79\npaths_imported : 0\nmax_depth      : 8\ncur_path       : 70\npending_favs   : 0\npending_total  : 28\nvariable_paths : 0\nbitmap_cvg     : 0.30%\nunique_crashes : 43\nunique_hangs   : 0\nlast_path      : 1500135339\nlast_crash     : 1500134571\nlast_hang      : 0\nexec_timeout   : 20\nafl_banner     : fuzzer-master\nafl_version    : 1.85b\ncommand_line   : /home/skaramcheti/.virtualenvs/afl/bin/afl-unix/afl-fuzz -i /dev/shm/work/String_Storage_and_Retrieval/input -o /dev/shm/work/String_Storage_and_Retrieval/sync -m 4G -Q -M fuzzer-master -x /dev/shm/work/String_Storage_and_Retrieval/String_Storage_and_Retrieval.dict -- data/linux/processed-challenges/String_Storage_and_Retrieval/bin/String_Storage_and_Retrieval\n'
p37
I0
tp38
a(I2280
S'start_time     : 1500133759\nlast_update    : 1500136043\nfuzzer_pid     : 20005\ncycles_done    : 2\nexecs_done     : 2355706\nexecs_per_sec  : 544.53\npaths_total    : 81\npaths_favored  : 24\npaths_found    : 80\npaths_imported : 0\nmax_depth      : 8\ncur_path       : 80\npending_favs   : 0\npending_total  : 28\nvariable_paths : 0\nbitmap_cvg     : 0.30%\nunique_crashes : 43\nunique_hangs   : 0\nlast_path      : 1500135932\nlast_crash     : 1500134571\nlast_hang      : 0\nexec_timeout   : 20\nafl_banner     : fuzzer-master\nafl_version    : 1.85b\ncommand_line   : /home/skaramcheti/.virtualenvs/afl/bin/afl-unix/afl-fuzz -i /dev/shm/work/String_Storage_and_Retrieval/input -o /dev/shm/work/String_Storage_and_Retrieval/sync -m 4G -Q -M fuzzer-master -x /dev/shm/work/String_Storage_and_Retrieval/String_Storage_and_Retrieval.dict -- data/linux/processed-challenges/String_Storage_and_Retrieval/bin/String_Storage_and_Retrieval\n'
p39
I1
tp40
a(I2400
S'start_time     : 1500133759\nlast_update    : 1500136163\nfuzzer_pid     : 20005\ncycles_done    : 2\nexecs_done     : 2422026\nexecs_per_sec  : 548.60\npaths_total    : 81\npaths_favored  : 24\npaths_found    : 80\npaths_imported : 0\nmax_depth      : 8\ncur_path       : 80\npending_favs   : 0\npending_total  : 28\nvariable_paths : 0\nbitmap_cvg     : 0.30%\nunique_crashes : 43\nunique_hangs   : 0\nlast_path      : 1500135932\nlast_crash     : 1500134571\nlast_hang      : 0\nexec_timeout   : 20\nafl_banner     : fuzzer-master\nafl_version    : 1.85b\ncommand_line   : /home/skaramcheti/.virtualenvs/afl/bin/afl-unix/afl-fuzz -i /dev/shm/work/String_Storage_and_Retrieval/input -o /dev/shm/work/String_Storage_and_Retrieval/sync -m 4G -Q -M fuzzer-master -x /dev/shm/work/String_Storage_and_Retrieval/String_Storage_and_Retrieval.dict -- data/linux/processed-challenges/String_Storage_and_Retrieval/bin/String_Storage_and_Retrieval\n'
p41
I0
tp42
a(I2520
S'start_time     : 1500133759\nlast_update    : 1500136283\nfuzzer_pid     : 20005\ncycles_done    : 2\nexecs_done     : 2488034\nexecs_per_sec  : 535.59\npaths_total    : 81\npaths_favored  : 24\npaths_found    : 80\npaths_imported : 0\nmax_depth      : 8\ncur_path       : 80\npending_favs   : 0\npending_total  : 28\nvariable_paths : 0\nbitmap_cvg     : 0.30%\nunique_crashes : 43\nunique_hangs   : 0\nlast_path      : 1500135932\nlast_crash     : 1500134571\nlast_hang      : 0\nexec_timeout   : 20\nafl_banner     : fuzzer-master\nafl_version    : 1.85b\ncommand_line   : /home/skaramcheti/.virtualenvs/afl/bin/afl-unix/afl-fuzz -i /dev/shm/work/String_Storage_and_Retrieval/input -o /dev/shm/work/String_Storage_and_Retrieval/sync -m 4G -Q -M fuzzer-master -x /dev/shm/work/String_Storage_and_Retrieval/String_Storage_and_Retrieval.dict -- data/linux/processed-challenges/String_Storage_and_Retrieval/bin/String_Storage_and_Retrieval\n'
p43
I0
tp44
a(I2640
S'start_time     : 1500133759\nlast_update    : 1500136403\nfuzzer_pid     : 20005\ncycles_done    : 2\nexecs_done     : 2558194\nexecs_per_sec  : 673.24\npaths_total    : 84\npaths_favored  : 24\npaths_found    : 83\npaths_imported : 0\nmax_depth      : 8\ncur_path       : 80\npending_favs   : 0\npending_total  : 31\nvariable_paths : 0\nbitmap_cvg     : 0.34%\nunique_crashes : 44\nunique_hangs   : 0\nlast_path      : 1500136383\nlast_crash     : 1500136400\nlast_hang      : 0\nexec_timeout   : 20\nafl_banner     : fuzzer-master\nafl_version    : 1.85b\ncommand_line   : /home/skaramcheti/.virtualenvs/afl/bin/afl-unix/afl-fuzz -i /dev/shm/work/String_Storage_and_Retrieval/input -o /dev/shm/work/String_Storage_and_Retrieval/sync -m 4G -Q -M fuzzer-master -x /dev/shm/work/String_Storage_and_Retrieval/String_Storage_and_Retrieval.dict -- data/linux/processed-challenges/String_Storage_and_Retrieval/bin/String_Storage_and_Retrieval\n'
p45
I3
tp46
a(I2760
S'start_time     : 1500133759\nlast_update    : 1500136524\nfuzzer_pid     : 20005\ncycles_done    : 2\nexecs_done     : 2638879\nexecs_per_sec  : 678.92\npaths_total    : 86\npaths_favored  : 24\npaths_found    : 85\npaths_imported : 0\nmax_depth      : 8\ncur_path       : 80\npending_favs   : 0\npending_total  : 33\nvariable_paths : 0\nbitmap_cvg     : 0.34%\nunique_crashes : 44\nunique_hangs   : 0\nlast_path      : 1500136423\nlast_crash     : 1500136400\nlast_hang      : 0\nexec_timeout   : 20\nafl_banner     : fuzzer-master\nafl_version    : 1.85b\ncommand_line   : /home/skaramcheti/.virtualenvs/afl/bin/afl-unix/afl-fuzz -i /dev/shm/work/String_Storage_and_Retrieval/input -o /dev/shm/work/String_Storage_and_Retrieval/sync -m 4G -Q -M fuzzer-master -x /dev/shm/work/String_Storage_and_Retrieval/String_Storage_and_Retrieval.dict -- data/linux/processed-challenges/String_Storage_and_Retrieval/bin/String_Storage_and_Retrieval\n'
p47
I2
tp48
a(I2880
S'start_time     : 1500133759\nlast_update    : 1500136644\nfuzzer_pid     : 20005\ncycles_done    : 2\nexecs_done     : 2706128\nexecs_per_sec  : 343.60\npaths_total    : 86\npaths_favored  : 25\npaths_found    : 85\npaths_imported : 0\nmax_depth      : 8\ncur_path       : 83\npending_favs   : 1\npending_total  : 32\nvariable_paths : 0\nbitmap_cvg     : 0.34%\nunique_crashes : 44\nunique_hangs   : 0\nlast_path      : 1500136423\nlast_crash     : 1500136400\nlast_hang      : 0\nexec_timeout   : 20\nafl_banner     : fuzzer-master\nafl_version    : 1.85b\ncommand_line   : /home/skaramcheti/.virtualenvs/afl/bin/afl-unix/afl-fuzz -i /dev/shm/work/String_Storage_and_Retrieval/input -o /dev/shm/work/String_Storage_and_Retrieval/sync -m 4G -Q -M fuzzer-master -x /dev/shm/work/String_Storage_and_Retrieval/String_Storage_and_Retrieval.dict -- data/linux/processed-challenges/String_Storage_and_Retrieval/bin/String_Storage_and_Retrieval\n'
p49
I0
tp50
a(I3000
S'start_time     : 1500133759\nlast_update    : 1500136764\nfuzzer_pid     : 20005\ncycles_done    : 2\nexecs_done     : 2746994\nexecs_per_sec  : 337.05\npaths_total    : 88\npaths_favored  : 25\npaths_found    : 87\npaths_imported : 0\nmax_depth      : 8\ncur_path       : 83\npending_favs   : 1\npending_total  : 34\nvariable_paths : 0\nbitmap_cvg     : 0.34%\nunique_crashes : 44\nunique_hangs   : 0\nlast_path      : 1500136763\nlast_crash     : 1500136400\nlast_hang      : 0\nexec_timeout   : 20\nafl_banner     : fuzzer-master\nafl_version    : 1.85b\ncommand_line   : /home/skaramcheti/.virtualenvs/afl/bin/afl-unix/afl-fuzz -i /dev/shm/work/String_Storage_and_Retrieval/input -o /dev/shm/work/String_Storage_and_Retrieval/sync -m 4G -Q -M fuzzer-master -x /dev/shm/work/String_Storage_and_Retrieval/String_Storage_and_Retrieval.dict -- data/linux/processed-challenges/String_Storage_and_Retrieval/bin/String_Storage_and_Retrieval\n'
p51
I2
tp52
a(I3120
S'start_time     : 1500133759\nlast_update    : 1500136884\nfuzzer_pid     : 20005\ncycles_done    : 2\nexecs_done     : 2788301\nexecs_per_sec  : 349.57\npaths_total    : 88\npaths_favored  : 25\npaths_found    : 87\npaths_imported : 0\nmax_depth      : 8\ncur_path       : 83\npending_favs   : 1\npending_total  : 34\nvariable_paths : 0\nbitmap_cvg     : 0.34%\nunique_crashes : 44\nunique_hangs   : 0\nlast_path      : 1500136763\nlast_crash     : 1500136400\nlast_hang      : 0\nexec_timeout   : 20\nafl_banner     : fuzzer-master\nafl_version    : 1.85b\ncommand_line   : /home/skaramcheti/.virtualenvs/afl/bin/afl-unix/afl-fuzz -i /dev/shm/work/String_Storage_and_Retrieval/input -o /dev/shm/work/String_Storage_and_Retrieval/sync -m 4G -Q -M fuzzer-master -x /dev/shm/work/String_Storage_and_Retrieval/String_Storage_and_Retrieval.dict -- data/linux/processed-challenges/String_Storage_and_Retrieval/bin/String_Storage_and_Retrieval\n'
p53
I0
tp54
a(I3240
S'start_time     : 1500133759\nlast_update    : 1500137005\nfuzzer_pid     : 20005\ncycles_done    : 2\nexecs_done     : 2831435\nexecs_per_sec  : 338.44\npaths_total    : 88\npaths_favored  : 26\npaths_found    : 87\npaths_imported : 0\nmax_depth      : 8\ncur_path       : 86\npending_favs   : 1\npending_total  : 33\nvariable_paths : 0\nbitmap_cvg     : 0.34%\nunique_crashes : 44\nunique_hangs   : 0\nlast_path      : 1500136763\nlast_crash     : 1500136400\nlast_hang      : 0\nexec_timeout   : 20\nafl_banner     : fuzzer-master\nafl_version    : 1.85b\ncommand_line   : /home/skaramcheti/.virtualenvs/afl/bin/afl-unix/afl-fuzz -i /dev/shm/work/String_Storage_and_Retrieval/input -o /dev/shm/work/String_Storage_and_Retrieval/sync -m 4G -Q -M fuzzer-master -x /dev/shm/work/String_Storage_and_Retrieval/String_Storage_and_Retrieval.dict -- data/linux/processed-challenges/String_Storage_and_Retrieval/bin/String_Storage_and_Retrieval\n'
p55
I0
tp56
a(I3360
S'start_time     : 1500133759\nlast_update    : 1500137125\nfuzzer_pid     : 20005\ncycles_done    : 2\nexecs_done     : 2872477\nexecs_per_sec  : 342.31\npaths_total    : 88\npaths_favored  : 26\npaths_found    : 87\npaths_imported : 0\nmax_depth      : 8\ncur_path       : 86\npending_favs   : 1\npending_total  : 33\nvariable_paths : 0\nbitmap_cvg     : 0.34%\nunique_crashes : 44\nunique_hangs   : 0\nlast_path      : 1500136763\nlast_crash     : 1500136400\nlast_hang      : 0\nexec_timeout   : 20\nafl_banner     : fuzzer-master\nafl_version    : 1.85b\ncommand_line   : /home/skaramcheti/.virtualenvs/afl/bin/afl-unix/afl-fuzz -i /dev/shm/work/String_Storage_and_Retrieval/input -o /dev/shm/work/String_Storage_and_Retrieval/sync -m 4G -Q -M fuzzer-master -x /dev/shm/work/String_Storage_and_Retrieval/String_Storage_and_Retrieval.dict -- data/linux/processed-challenges/String_Storage_and_Retrieval/bin/String_Storage_and_Retrieval\n'
p57
I0
tp58
a(I3480
S'start_time     : 1500133759\nlast_update    : 1500137245\nfuzzer_pid     : 20005\ncycles_done    : 2\nexecs_done     : 2913595\nexecs_per_sec  : 340.08\npaths_total    : 88\npaths_favored  : 26\npaths_found    : 87\npaths_imported : 0\nmax_depth      : 8\ncur_path       : 86\npending_favs   : 1\npending_total  : 33\nvariable_paths : 0\nbitmap_cvg     : 0.34%\nunique_crashes : 44\nunique_hangs   : 0\nlast_path      : 1500136763\nlast_crash     : 1500136400\nlast_hang      : 0\nexec_timeout   : 20\nafl_banner     : fuzzer-master\nafl_version    : 1.85b\ncommand_line   : /home/skaramcheti/.virtualenvs/afl/bin/afl-unix/afl-fuzz -i /dev/shm/work/String_Storage_and_Retrieval/input -o /dev/shm/work/String_Storage_and_Retrieval/sync -m 4G -Q -M fuzzer-master -x /dev/shm/work/String_Storage_and_Retrieval/String_Storage_and_Retrieval.dict -- data/linux/processed-challenges/String_Storage_and_Retrieval/bin/String_Storage_and_Retrieval\n'
p59
I0
tp60
a(I3600
S'start_time     : 1500133759\nlast_update    : 1500137365\nfuzzer_pid     : 20005\ncycles_done    : 3\nexecs_done     : 2981494\nexecs_per_sec  : 1377.32\npaths_total    : 89\npaths_favored  : 26\npaths_found    : 88\npaths_imported : 0\nmax_depth      : 8\ncur_path       : 20\npending_favs   : 0\npending_total  : 32\nvariable_paths : 0\nbitmap_cvg     : 0.34%\nunique_crashes : 44\nunique_hangs   : 0\nlast_path      : 1500137319\nlast_crash     : 1500136400\nlast_hang      : 0\nexec_timeout   : 20\nafl_banner     : fuzzer-master\nafl_version    : 1.85b\ncommand_line   : /home/skaramcheti/.virtualenvs/afl/bin/afl-unix/afl-fuzz -i /dev/shm/work/String_Storage_and_Retrieval/input -o /dev/shm/work/String_Storage_and_Retrieval/sync -m 4G -Q -M fuzzer-master -x /dev/shm/work/String_Storage_and_Retrieval/String_Storage_and_Retrieval.dict -- data/linux/processed-challenges/String_Storage_and_Retrieval/bin/String_Storage_and_Retrieval\n'
p61
I1
tp62
a(I3720
S'start_time     : 1500133759\nlast_update    : 1500137485\nfuzzer_pid     : 20005\ncycles_done    : 3\nexecs_done     : 3141758\nexecs_per_sec  : 1370.45\npaths_total    : 89\npaths_favored  : 26\npaths_found    : 88\npaths_imported : 0\nmax_depth      : 8\ncur_path       : 59\npending_favs   : 0\npending_total  : 28\nvariable_paths : 0\nbitmap_cvg     : 0.34%\nunique_crashes : 44\nunique_hangs   : 0\nlast_path      : 1500137319\nlast_crash     : 1500136400\nlast_hang      : 0\nexec_timeout   : 20\nafl_banner     : fuzzer-master\nafl_version    : 1.85b\ncommand_line   : /home/skaramcheti/.virtualenvs/afl/bin/afl-unix/afl-fuzz -i /dev/shm/work/String_Storage_and_Retrieval/input -o /dev/shm/work/String_Storage_and_Retrieval/sync -m 4G -Q -M fuzzer-master -x /dev/shm/work/String_Storage_and_Retrieval/String_Storage_and_Retrieval.dict -- data/linux/processed-challenges/String_Storage_and_Retrieval/bin/String_Storage_and_Retrieval\n'
p63
I0
tp64
a(I3840
S'start_time     : 1500133759\nlast_update    : 1500137606\nfuzzer_pid     : 20005\ncycles_done    : 3\nexecs_done     : 3274147\nexecs_per_sec  : 1137.05\npaths_total    : 89\npaths_favored  : 26\npaths_found    : 88\npaths_imported : 0\nmax_depth      : 8\ncur_path       : 76\npending_favs   : 0\npending_total  : 27\nvariable_paths : 0\nbitmap_cvg     : 0.34%\nunique_crashes : 44\nunique_hangs   : 0\nlast_path      : 1500137319\nlast_crash     : 1500136400\nlast_hang      : 0\nexec_timeout   : 20\nafl_banner     : fuzzer-master\nafl_version    : 1.85b\ncommand_line   : /home/skaramcheti/.virtualenvs/afl/bin/afl-unix/afl-fuzz -i /dev/shm/work/String_Storage_and_Retrieval/input -o /dev/shm/work/String_Storage_and_Retrieval/sync -m 4G -Q -M fuzzer-master -x /dev/shm/work/String_Storage_and_Retrieval/String_Storage_and_Retrieval.dict -- data/linux/processed-challenges/String_Storage_and_Retrieval/bin/String_Storage_and_Retrieval\n'
p65
I0
tp66
a(I3960
S'start_time     : 1500133759\nlast_update    : 1500137726\nfuzzer_pid     : 20005\ncycles_done    : 3\nexecs_done     : 3317040\nexecs_per_sec  : 206.93\npaths_total    : 90\npaths_favored  : 26\npaths_found    : 89\npaths_imported : 0\nmax_depth      : 8\ncur_path       : 81\npending_favs   : 0\npending_total  : 28\nvariable_paths : 0\nbitmap_cvg     : 0.34%\nunique_crashes : 44\nunique_hangs   : 0\nlast_path      : 1500137611\nlast_crash     : 1500136400\nlast_hang      : 0\nexec_timeout   : 20\nafl_banner     : fuzzer-master\nafl_version    : 1.85b\ncommand_line   : /home/skaramcheti/.virtualenvs/afl/bin/afl-unix/afl-fuzz -i /dev/shm/work/String_Storage_and_Retrieval/input -o /dev/shm/work/String_Storage_and_Retrieval/sync -m 4G -Q -M fuzzer-master -x /dev/shm/work/String_Storage_and_Retrieval/String_Storage_and_Retrieval.dict -- data/linux/processed-challenges/String_Storage_and_Retrieval/bin/String_Storage_and_Retrieval\n'
p67
I1
tp68
a(I4080
S'start_time     : 1500133759\nlast_update    : 1500137846\nfuzzer_pid     : 20005\ncycles_done    : 3\nexecs_done     : 3342092\nexecs_per_sec  : 208.35\npaths_total    : 90\npaths_favored  : 26\npaths_found    : 89\npaths_imported : 0\nmax_depth      : 8\ncur_path       : 81\npending_favs   : 0\npending_total  : 28\nvariable_paths : 0\nbitmap_cvg     : 0.34%\nunique_crashes : 44\nunique_hangs   : 0\nlast_path      : 1500137611\nlast_crash     : 1500136400\nlast_hang      : 0\nexec_timeout   : 20\nafl_banner     : fuzzer-master\nafl_version    : 1.85b\ncommand_line   : /home/skaramcheti/.virtualenvs/afl/bin/afl-unix/afl-fuzz -i /dev/shm/work/String_Storage_and_Retrieval/input -o /dev/shm/work/String_Storage_and_Retrieval/sync -m 4G -Q -M fuzzer-master -x /dev/shm/work/String_Storage_and_Retrieval/String_Storage_and_Retrieval.dict -- data/linux/processed-challenges/String_Storage_and_Retrieval/bin/String_Storage_and_Retrieval\n'
p69
I0
tp70
a(I4200
S'start_time     : 1500133759\nlast_update    : 1500137966\nfuzzer_pid     : 20005\ncycles_done    : 3\nexecs_done     : 3367223\nexecs_per_sec  : 212.68\npaths_total    : 90\npaths_favored  : 26\npaths_found    : 89\npaths_imported : 0\nmax_depth      : 8\ncur_path       : 81\npending_favs   : 0\npending_total  : 28\nvariable_paths : 0\nbitmap_cvg     : 0.34%\nunique_crashes : 44\nunique_hangs   : 0\nlast_path      : 1500137611\nlast_crash     : 1500136400\nlast_hang      : 0\nexec_timeout   : 20\nafl_banner     : fuzzer-master\nafl_version    : 1.85b\ncommand_line   : /home/skaramcheti/.virtualenvs/afl/bin/afl-unix/afl-fuzz -i /dev/shm/work/String_Storage_and_Retrieval/input -o /dev/shm/work/String_Storage_and_Retrieval/sync -m 4G -Q -M fuzzer-master -x /dev/shm/work/String_Storage_and_Retrieval/String_Storage_and_Retrieval.dict -- data/linux/processed-challenges/String_Storage_and_Retrieval/bin/String_Storage_and_Retrieval\n'
p71
I0
tp72
a(I4320
S'start_time     : 1500133759\nlast_update    : 1500138087\nfuzzer_pid     : 20005\ncycles_done    : 3\nexecs_done     : 3392370\nexecs_per_sec  : 214.36\npaths_total    : 90\npaths_favored  : 26\npaths_found    : 89\npaths_imported : 0\nmax_depth      : 8\ncur_path       : 81\npending_favs   : 0\npending_total  : 28\nvariable_paths : 0\nbitmap_cvg     : 0.34%\nunique_crashes : 44\nunique_hangs   : 0\nlast_path      : 1500137611\nlast_crash     : 1500136400\nlast_hang      : 0\nexec_timeout   : 20\nafl_banner     : fuzzer-master\nafl_version    : 1.85b\ncommand_line   : /home/skaramcheti/.virtualenvs/afl/bin/afl-unix/afl-fuzz -i /dev/shm/work/String_Storage_and_Retrieval/input -o /dev/shm/work/String_Storage_and_Retrieval/sync -m 4G -Q -M fuzzer-master -x /dev/shm/work/String_Storage_and_Retrieval/String_Storage_and_Retrieval.dict -- data/linux/processed-challenges/String_Storage_and_Retrieval/bin/String_Storage_and_Retrieval\n'
p73
I0
tp74
a(I4440
S'start_time     : 1500133759\nlast_update    : 1500138207\nfuzzer_pid     : 20005\ncycles_done    : 3\nexecs_done     : 3417486\nexecs_per_sec  : 212.27\npaths_total    : 90\npaths_favored  : 26\npaths_found    : 89\npaths_imported : 0\nmax_depth      : 8\ncur_path       : 81\npending_favs   : 0\npending_total  : 28\nvariable_paths : 0\nbitmap_cvg     : 0.34%\nunique_crashes : 44\nunique_hangs   : 0\nlast_path      : 1500137611\nlast_crash     : 1500136400\nlast_hang      : 0\nexec_timeout   : 20\nafl_banner     : fuzzer-master\nafl_version    : 1.85b\ncommand_line   : /home/skaramcheti/.virtualenvs/afl/bin/afl-unix/afl-fuzz -i /dev/shm/work/String_Storage_and_Retrieval/input -o /dev/shm/work/String_Storage_and_Retrieval/sync -m 4G -Q -M fuzzer-master -x /dev/shm/work/String_Storage_and_Retrieval/String_Storage_and_Retrieval.dict -- data/linux/processed-challenges/String_Storage_and_Retrieval/bin/String_Storage_and_Retrieval\n'
p75
I0
tp76
a(I4560
S'start_time     : 1500133759\nlast_update    : 1500138327\nfuzzer_pid     : 20005\ncycles_done    : 3\nexecs_done     : 3442518\nexecs_per_sec  : 205.42\npaths_total    : 90\npaths_favored  : 26\npaths_found    : 89\npaths_imported : 0\nmax_depth      : 8\ncur_path       : 81\npending_favs   : 0\npending_total  : 28\nvariable_paths : 0\nbitmap_cvg     : 0.34%\nunique_crashes : 44\nunique_hangs   : 0\nlast_path      : 1500137611\nlast_crash     : 1500136400\nlast_hang      : 0\nexec_timeout   : 20\nafl_banner     : fuzzer-master\nafl_version    : 1.85b\ncommand_line   : /home/skaramcheti/.virtualenvs/afl/bin/afl-unix/afl-fuzz -i /dev/shm/work/String_Storage_and_Retrieval/input -o /dev/shm/work/String_Storage_and_Retrieval/sync -m 4G -Q -M fuzzer-master -x /dev/shm/work/String_Storage_and_Retrieval/String_Storage_and_Retrieval.dict -- data/linux/processed-challenges/String_Storage_and_Retrieval/bin/String_Storage_and_Retrieval\n'
p77
I0
tp78
a(I4680
S'start_time     : 1500133759\nlast_update    : 1500138447\nfuzzer_pid     : 20005\ncycles_done    : 3\nexecs_done     : 3467326\nexecs_per_sec  : 206.75\npaths_total    : 90\npaths_favored  : 26\npaths_found    : 89\npaths_imported : 0\nmax_depth      : 8\ncur_path       : 81\npending_favs   : 0\npending_total  : 28\nvariable_paths : 0\nbitmap_cvg     : 0.34%\nunique_crashes : 44\nunique_hangs   : 0\nlast_path      : 1500137611\nlast_crash     : 1500136400\nlast_hang      : 0\nexec_timeout   : 20\nafl_banner     : fuzzer-master\nafl_version    : 1.85b\ncommand_line   : /home/skaramcheti/.virtualenvs/afl/bin/afl-unix/afl-fuzz -i /dev/shm/work/String_Storage_and_Retrieval/input -o /dev/shm/work/String_Storage_and_Retrieval/sync -m 4G -Q -M fuzzer-master -x /dev/shm/work/String_Storage_and_Retrieval/String_Storage_and_Retrieval.dict -- data/linux/processed-challenges/String_Storage_and_Retrieval/bin/String_Storage_and_Retrieval\n'
p79
I0
tp80
a(I4800
S'start_time     : 1500133759\nlast_update    : 1500138567\nfuzzer_pid     : 20005\ncycles_done    : 3\nexecs_done     : 3492094\nexecs_per_sec  : 207.99\npaths_total    : 90\npaths_favored  : 26\npaths_found    : 89\npaths_imported : 0\nmax_depth      : 8\ncur_path       : 81\npending_favs   : 0\npending_total  : 28\nvariable_paths : 0\nbitmap_cvg     : 0.34%\nunique_crashes : 44\nunique_hangs   : 0\nlast_path      : 1500137611\nlast_crash     : 1500136400\nlast_hang      : 0\nexec_timeout   : 20\nafl_banner     : fuzzer-master\nafl_version    : 1.85b\ncommand_line   : /home/skaramcheti/.virtualenvs/afl/bin/afl-unix/afl-fuzz -i /dev/shm/work/String_Storage_and_Retrieval/input -o /dev/shm/work/String_Storage_and_Retrieval/sync -m 4G -Q -M fuzzer-master -x /dev/shm/work/String_Storage_and_Retrieval/String_Storage_and_Retrieval.dict -- data/linux/processed-challenges/String_Storage_and_Retrieval/bin/String_Storage_and_Retrieval\n'
p81
I0
tp82
a(I4920
S'start_time     : 1500133759\nlast_update    : 1500138688\nfuzzer_pid     : 20005\ncycles_done    : 3\nexecs_done     : 3518797\nexecs_per_sec  : 243.43\npaths_total    : 91\npaths_favored  : 26\npaths_found    : 90\npaths_imported : 0\nmax_depth      : 8\ncur_path       : 81\npending_favs   : 0\npending_total  : 29\nvariable_paths : 0\nbitmap_cvg     : 0.36%\nunique_crashes : 44\nunique_hangs   : 0\nlast_path      : 1500138640\nlast_crash     : 1500136400\nlast_hang      : 0\nexec_timeout   : 20\nafl_banner     : fuzzer-master\nafl_version    : 1.85b\ncommand_line   : /home/skaramcheti/.virtualenvs/afl/bin/afl-unix/afl-fuzz -i /dev/shm/work/String_Storage_and_Retrieval/input -o /dev/shm/work/String_Storage_and_Retrieval/sync -m 4G -Q -M fuzzer-master -x /dev/shm/work/String_Storage_and_Retrieval/String_Storage_and_Retrieval.dict -- data/linux/processed-challenges/String_Storage_and_Retrieval/bin/String_Storage_and_Retrieval\n'
p83
I1
tp84
a(I5040
S'start_time     : 1500133759\nlast_update    : 1500138808\nfuzzer_pid     : 20005\ncycles_done    : 3\nexecs_done     : 3544811\nexecs_per_sec  : 170.22\npaths_total    : 92\npaths_favored  : 23\npaths_found    : 91\npaths_imported : 0\nmax_depth      : 8\ncur_path       : 90\npending_favs   : 2\npending_total  : 29\nvariable_paths : 0\nbitmap_cvg     : 0.36%\nunique_crashes : 44\nunique_hangs   : 0\nlast_path      : 1500138695\nlast_crash     : 1500136400\nlast_hang      : 0\nexec_timeout   : 20\nafl_banner     : fuzzer-master\nafl_version    : 1.85b\ncommand_line   : /home/skaramcheti/.virtualenvs/afl/bin/afl-unix/afl-fuzz -i /dev/shm/work/String_Storage_and_Retrieval/input -o /dev/shm/work/String_Storage_and_Retrieval/sync -m 4G -Q -M fuzzer-master -x /dev/shm/work/String_Storage_and_Retrieval/String_Storage_and_Retrieval.dict -- data/linux/processed-challenges/String_Storage_and_Retrieval/bin/String_Storage_and_Retrieval\n'
p85
I1
tp86
a(I5160
S'start_time     : 1500133759\nlast_update    : 1500138928\nfuzzer_pid     : 20005\ncycles_done    : 3\nexecs_done     : 3565499\nexecs_per_sec  : 173.26\npaths_total    : 92\npaths_favored  : 23\npaths_found    : 91\npaths_imported : 0\nmax_depth      : 8\ncur_path       : 90\npending_favs   : 2\npending_total  : 29\nvariable_paths : 0\nbitmap_cvg     : 0.36%\nunique_crashes : 44\nunique_hangs   : 0\nlast_path      : 1500138695\nlast_crash     : 1500136400\nlast_hang      : 0\nexec_timeout   : 20\nafl_banner     : fuzzer-master\nafl_version    : 1.85b\ncommand_line   : /home/skaramcheti/.virtualenvs/afl/bin/afl-unix/afl-fuzz -i /dev/shm/work/String_Storage_and_Retrieval/input -o /dev/shm/work/String_Storage_and_Retrieval/sync -m 4G -Q -M fuzzer-master -x /dev/shm/work/String_Storage_and_Retrieval/String_Storage_and_Retrieval.dict -- data/linux/processed-challenges/String_Storage_and_Retrieval/bin/String_Storage_and_Retrieval\n'
p87
I0
tp88
a(I5280
S'start_time     : 1500133759\nlast_update    : 1500139048\nfuzzer_pid     : 20005\ncycles_done    : 3\nexecs_done     : 3586281\nexecs_per_sec  : 174.35\npaths_total    : 92\npaths_favored  : 23\npaths_found    : 91\npaths_imported : 0\nmax_depth      : 8\ncur_path       : 90\npending_favs   : 2\npending_total  : 29\nvariable_paths : 0\nbitmap_cvg     : 0.36%\nunique_crashes : 45\nunique_hangs   : 0\nlast_path      : 1500138695\nlast_crash     : 1500138954\nlast_hang      : 0\nexec_timeout   : 20\nafl_banner     : fuzzer-master\nafl_version    : 1.85b\ncommand_line   : /home/skaramcheti/.virtualenvs/afl/bin/afl-unix/afl-fuzz -i /dev/shm/work/String_Storage_and_Retrieval/input -o /dev/shm/work/String_Storage_and_Retrieval/sync -m 4G -Q -M fuzzer-master -x /dev/shm/work/String_Storage_and_Retrieval/String_Storage_and_Retrieval.dict -- data/linux/processed-challenges/String_Storage_and_Retrieval/bin/String_Storage_and_Retrieval\n'
p89
I0
tp90
a(I5400
S'start_time     : 1500133759\nlast_update    : 1500139169\nfuzzer_pid     : 20005\ncycles_done    : 3\nexecs_done     : 3606984\nexecs_per_sec  : 171.60\npaths_total    : 92\npaths_favored  : 23\npaths_found    : 91\npaths_imported : 0\nmax_depth      : 8\ncur_path       : 90\npending_favs   : 2\npending_total  : 29\nvariable_paths : 0\nbitmap_cvg     : 0.36%\nunique_crashes : 45\nunique_hangs   : 0\nlast_path      : 1500138695\nlast_crash     : 1500138954\nlast_hang      : 0\nexec_timeout   : 20\nafl_banner     : fuzzer-master\nafl_version    : 1.85b\ncommand_line   : /home/skaramcheti/.virtualenvs/afl/bin/afl-unix/afl-fuzz -i /dev/shm/work/String_Storage_and_Retrieval/input -o /dev/shm/work/String_Storage_and_Retrieval/sync -m 4G -Q -M fuzzer-master -x /dev/shm/work/String_Storage_and_Retrieval/String_Storage_and_Retrieval.dict -- data/linux/processed-challenges/String_Storage_and_Retrieval/bin/String_Storage_and_Retrieval\n'
p91
I0
tp92
a(I5520
S'start_time     : 1500133759\nlast_update    : 1500139289\nfuzzer_pid     : 20005\ncycles_done    : 3\nexecs_done     : 3627879\nexecs_per_sec  : 173.19\npaths_total    : 92\npaths_favored  : 23\npaths_found    : 91\npaths_imported : 0\nmax_depth      : 8\ncur_path       : 90\npending_favs   : 2\npending_total  : 29\nvariable_paths : 0\nbitmap_cvg     : 0.36%\nunique_crashes : 45\nunique_hangs   : 0\nlast_path      : 1500138695\nlast_crash     : 1500138954\nlast_hang      : 0\nexec_timeout   : 20\nafl_banner     : fuzzer-master\nafl_version    : 1.85b\ncommand_line   : /home/skaramcheti/.virtualenvs/afl/bin/afl-unix/afl-fuzz -i /dev/shm/work/String_Storage_and_Retrieval/input -o /dev/shm/work/String_Storage_and_Retrieval/sync -m 4G -Q -M fuzzer-master -x /dev/shm/work/String_Storage_and_Retrieval/String_Storage_and_Retrieval.dict -- data/linux/processed-challenges/String_Storage_and_Retrieval/bin/String_Storage_and_Retrieval\n'
p93
I0
tp94
a(I5640
S'start_time     : 1500133759\nlast_update    : 1500139409\nfuzzer_pid     : 20005\ncycles_done    : 3\nexecs_done     : 3648697\nexecs_per_sec  : 172.14\npaths_total    : 92\npaths_favored  : 23\npaths_found    : 91\npaths_imported : 0\nmax_depth      : 8\ncur_path       : 90\npending_favs   : 2\npending_total  : 29\nvariable_paths : 0\nbitmap_cvg     : 0.36%\nunique_crashes : 45\nunique_hangs   : 0\nlast_path      : 1500138695\nlast_crash     : 1500138954\nlast_hang      : 0\nexec_timeout   : 20\nafl_banner     : fuzzer-master\nafl_version    : 1.85b\ncommand_line   : /home/skaramcheti/.virtualenvs/afl/bin/afl-unix/afl-fuzz -i /dev/shm/work/String_Storage_and_Retrieval/input -o /dev/shm/work/String_Storage_and_Retrieval/sync -m 4G -Q -M fuzzer-master -x /dev/shm/work/String_Storage_and_Retrieval/String_Storage_and_Retrieval.dict -- data/linux/processed-challenges/String_Storage_and_Retrieval/bin/String_Storage_and_Retrieval\n'
p95
I0
tp96
a(I5760
S'start_time     : 1500133759\nlast_update    : 1500139529\nfuzzer_pid     : 20005\ncycles_done    : 3\nexecs_done     : 3669423\nexecs_per_sec  : 173.86\npaths_total    : 92\npaths_favored  : 23\npaths_found    : 91\npaths_imported : 0\nmax_depth      : 8\ncur_path       : 90\npending_favs   : 2\npending_total  : 29\nvariable_paths : 0\nbitmap_cvg     : 0.36%\nunique_crashes : 45\nunique_hangs   : 0\nlast_path      : 1500138695\nlast_crash     : 1500138954\nlast_hang      : 0\nexec_timeout   : 20\nafl_banner     : fuzzer-master\nafl_version    : 1.85b\ncommand_line   : /home/skaramcheti/.virtualenvs/afl/bin/afl-unix/afl-fuzz -i /dev/shm/work/String_Storage_and_Retrieval/input -o /dev/shm/work/String_Storage_and_Retrieval/sync -m 4G -Q -M fuzzer-master -x /dev/shm/work/String_Storage_and_Retrieval/String_Storage_and_Retrieval.dict -- data/linux/processed-challenges/String_Storage_and_Retrieval/bin/String_Storage_and_Retrieval\n'
p97
I0
tp98
a(I5880
S'start_time     : 1500133759\nlast_update    : 1500139589\nfuzzer_pid     : 20005\ncycles_done    : 3\nexecs_done     : 3679782\nexecs_per_sec  : 173.14\npaths_total    : 92\npaths_favored  : 23\npaths_found    : 91\npaths_imported : 0\nmax_depth      : 8\ncur_path       : 90\npending_favs   : 2\npending_total  : 29\nvariable_paths : 0\nbitmap_cvg     : 0.36%\nunique_crashes : 45\nunique_hangs   : 0\nlast_path      : 1500138695\nlast_crash     : 1500138954\nlast_hang      : 0\nexec_timeout   : 20\nafl_banner     : fuzzer-master\nafl_version    : 1.85b\ncommand_line   : /home/skaramcheti/.virtualenvs/afl/bin/afl-unix/afl-fuzz -i /dev/shm/work/String_Storage_and_Retrieval/input -o /dev/shm/work/String_Storage_and_Retrieval/sync -m 4G -Q -M fuzzer-master -x /dev/shm/work/String_Storage_and_Retrieval/String_Storage_and_Retrieval.dict -- data/linux/processed-challenges/String_Storage_and_Retrieval/bin/String_Storage_and_Retrieval\n'
p99
I0
tp100
a(I6000
S'start_time     : 1500133759\nlast_update    : 1500139710\nfuzzer_pid     : 20005\ncycles_done    : 3\nexecs_done     : 3700548\nexecs_per_sec  : 174.03\npaths_total    : 92\npaths_favored  : 23\npaths_found    : 91\npaths_imported : 0\nmax_depth      : 8\ncur_path       : 90\npending_favs   : 2\npending_total  : 29\nvariable_paths : 0\nbitmap_cvg     : 0.36%\nunique_crashes : 45\nunique_hangs   : 0\nlast_path      : 1500138695\nlast_crash     : 1500138954\nlast_hang      : 0\nexec_timeout   : 20\nafl_banner     : fuzzer-master\nafl_version    : 1.85b\ncommand_line   : /home/skaramcheti/.virtualenvs/afl/bin/afl-unix/afl-fuzz -i /dev/shm/work/String_Storage_and_Retrieval/input -o /dev/shm/work/String_Storage_and_Retrieval/sync -m 4G -Q -M fuzzer-master -x /dev/shm/work/String_Storage_and_Retrieval/String_Storage_and_Retrieval.dict -- data/linux/processed-challenges/String_Storage_and_Retrieval/bin/String_Storage_and_Retrieval\n'
p101
I0
tp102
a(I6120
S'start_time     : 1500133759\nlast_update    : 1500139830\nfuzzer_pid     : 20005\ncycles_done    : 3\nexecs_done     : 3721290\nexecs_per_sec  : 170.92\npaths_total    : 92\npaths_favored  : 23\npaths_found    : 91\npaths_imported : 0\nmax_depth      : 8\ncur_path       : 90\npending_favs   : 2\npending_total  : 29\nvariable_paths : 0\nbitmap_cvg     : 0.36%\nunique_crashes : 45\nunique_hangs   : 0\nlast_path      : 1500138695\nlast_crash     : 1500138954\nlast_hang      : 0\nexec_timeout   : 20\nafl_banner     : fuzzer-master\nafl_version    : 1.85b\ncommand_line   : /home/skaramcheti/.virtualenvs/afl/bin/afl-unix/afl-fuzz -i /dev/shm/work/String_Storage_and_Retrieval/input -o /dev/shm/work/String_Storage_and_Retrieval/sync -m 4G -Q -M fuzzer-master -x /dev/shm/work/String_Storage_and_Retrieval/String_Storage_and_Retrieval.dict -- data/linux/processed-challenges/String_Storage_and_Retrieval/bin/String_Storage_and_Retrieval\n'
p103
I0
tp104
a(I6240
S'start_time     : 1500133759\nlast_update    : 1500139950\nfuzzer_pid     : 20005\ncycles_done    : 3\nexecs_done     : 3741771\nexecs_per_sec  : 167.85\npaths_total    : 92\npaths_favored  : 23\npaths_found    : 91\npaths_imported : 0\nmax_depth      : 8\ncur_path       : 90\npending_favs   : 2\npending_total  : 29\nvariable_paths : 0\nbitmap_cvg     : 0.36%\nunique_crashes : 45\nunique_hangs   : 0\nlast_path      : 1500138695\nlast_crash     : 1500138954\nlast_hang      : 0\nexec_timeout   : 20\nafl_banner     : fuzzer-master\nafl_version    : 1.85b\ncommand_line   : /home/skaramcheti/.virtualenvs/afl/bin/afl-unix/afl-fuzz -i /dev/shm/work/String_Storage_and_Retrieval/input -o /dev/shm/work/String_Storage_and_Retrieval/sync -m 4G -Q -M fuzzer-master -x /dev/shm/work/String_Storage_and_Retrieval/String_Storage_and_Retrieval.dict -- data/linux/processed-challenges/String_Storage_and_Retrieval/bin/String_Storage_and_Retrieval\n'
p105
I0
tp106
a(I6360
S'start_time     : 1500133759\nlast_update    : 1500140070\nfuzzer_pid     : 20005\ncycles_done    : 3\nexecs_done     : 3762312\nexecs_per_sec  : 174.35\npaths_total    : 92\npaths_favored  : 23\npaths_found    : 91\npaths_imported : 0\nmax_depth      : 8\ncur_path       : 90\npending_favs   : 2\npending_total  : 29\nvariable_paths : 0\nbitmap_cvg     : 0.36%\nunique_crashes : 45\nunique_hangs   : 0\nlast_path      : 1500138695\nlast_crash     : 1500138954\nlast_hang      : 0\nexec_timeout   : 20\nafl_banner     : fuzzer-master\nafl_version    : 1.85b\ncommand_line   : /home/skaramcheti/.virtualenvs/afl/bin/afl-unix/afl-fuzz -i /dev/shm/work/String_Storage_and_Retrieval/input -o /dev/shm/work/String_Storage_and_Retrieval/sync -m 4G -Q -M fuzzer-master -x /dev/shm/work/String_Storage_and_Retrieval/String_Storage_and_Retrieval.dict -- data/linux/processed-challenges/String_Storage_and_Retrieval/bin/String_Storage_and_Retrieval\n'
p107
I0
tp108
a(I6480
S'start_time     : 1500133759\nlast_update    : 1500140190\nfuzzer_pid     : 20005\ncycles_done    : 3\nexecs_done     : 3782808\nexecs_per_sec  : 171.40\npaths_total    : 92\npaths_favored  : 23\npaths_found    : 91\npaths_imported : 0\nmax_depth      : 8\ncur_path       : 90\npending_favs   : 2\npending_total  : 29\nvariable_paths : 0\nbitmap_cvg     : 0.36%\nunique_crashes : 45\nunique_hangs   : 0\nlast_path      : 1500138695\nlast_crash     : 1500138954\nlast_hang      : 0\nexec_timeout   : 20\nafl_banner     : fuzzer-master\nafl_version    : 1.85b\ncommand_line   : /home/skaramcheti/.virtualenvs/afl/bin/afl-unix/afl-fuzz -i /dev/shm/work/String_Storage_and_Retrieval/input -o /dev/shm/work/String_Storage_and_Retrieval/sync -m 4G -Q -M fuzzer-master -x /dev/shm/work/String_Storage_and_Retrieval/String_Storage_and_Retrieval.dict -- data/linux/processed-challenges/String_Storage_and_Retrieval/bin/String_Storage_and_Retrieval\n'
p109
I0
tp110
a(I6600
S'start_time     : 1500133759\nlast_update    : 1500140311\nfuzzer_pid     : 20005\ncycles_done    : 3\nexecs_done     : 3803351\nexecs_per_sec  : 171.56\npaths_total    : 92\npaths_favored  : 23\npaths_found    : 91\npaths_imported : 0\nmax_depth      : 8\ncur_path       : 90\npending_favs   : 2\npending_total  : 29\nvariable_paths : 0\nbitmap_cvg     : 0.36%\nunique_crashes : 45\nunique_hangs   : 0\nlast_path      : 1500138695\nlast_crash     : 1500138954\nlast_hang      : 0\nexec_timeout   : 20\nafl_banner     : fuzzer-master\nafl_version    : 1.85b\ncommand_line   : /home/skaramcheti/.virtualenvs/afl/bin/afl-unix/afl-fuzz -i /dev/shm/work/String_Storage_and_Retrieval/input -o /dev/shm/work/String_Storage_and_Retrieval/sync -m 4G -Q -M fuzzer-master -x /dev/shm/work/String_Storage_and_Retrieval/String_Storage_and_Retrieval.dict -- data/linux/processed-challenges/String_Storage_and_Retrieval/bin/String_Storage_and_Retrieval\n'
p111
I0
tp112
a(I6720
S'start_time     : 1500133759\nlast_update    : 1500140431\nfuzzer_pid     : 20005\ncycles_done    : 3\nexecs_done     : 3823766\nexecs_per_sec  : 170.24\npaths_total    : 92\npaths_favored  : 23\npaths_found    : 91\npaths_imported : 0\nmax_depth      : 8\ncur_path       : 90\npending_favs   : 2\npending_total  : 29\nvariable_paths : 0\nbitmap_cvg     : 0.36%\nunique_crashes : 45\nunique_hangs   : 0\nlast_path      : 1500138695\nlast_crash     : 1500138954\nlast_hang      : 0\nexec_timeout   : 20\nafl_banner     : fuzzer-master\nafl_version    : 1.85b\ncommand_line   : /home/skaramcheti/.virtualenvs/afl/bin/afl-unix/afl-fuzz -i /dev/shm/work/String_Storage_and_Retrieval/input -o /dev/shm/work/String_Storage_and_Retrieval/sync -m 4G -Q -M fuzzer-master -x /dev/shm/work/String_Storage_and_Retrieval/String_Storage_and_Retrieval.dict -- data/linux/processed-challenges/String_Storage_and_Retrieval/bin/String_Storage_and_Retrieval\n'
p113
I0
tp114
a(I6840
S'start_time     : 1500133759\nlast_update    : 1500140551\nfuzzer_pid     : 20005\ncycles_done    : 3\nexecs_done     : 3844235\nexecs_per_sec  : 170.32\npaths_total    : 92\npaths_favored  : 23\npaths_found    : 91\npaths_imported : 0\nmax_depth      : 8\ncur_path       : 90\npending_favs   : 2\npending_total  : 29\nvariable_paths : 0\nbitmap_cvg     : 0.36%\nunique_crashes : 45\nunique_hangs   : 0\nlast_path      : 1500138695\nlast_crash     : 1500138954\nlast_hang      : 0\nexec_timeout   : 20\nafl_banner     : fuzzer-master\nafl_version    : 1.85b\ncommand_line   : /home/skaramcheti/.virtualenvs/afl/bin/afl-unix/afl-fuzz -i /dev/shm/work/String_Storage_and_Retrieval/input -o /dev/shm/work/String_Storage_and_Retrieval/sync -m 4G -Q -M fuzzer-master -x /dev/shm/work/String_Storage_and_Retrieval/String_Storage_and_Retrieval.dict -- data/linux/processed-challenges/String_Storage_and_Retrieval/bin/String_Storage_and_Retrieval\n'
p115
I0
tp116
a(I6960
S'start_time     : 1500133759\nlast_update    : 1500140671\nfuzzer_pid     : 20005\ncycles_done    : 3\nexecs_done     : 3864815\nexecs_per_sec  : 171.46\npaths_total    : 92\npaths_favored  : 23\npaths_found    : 91\npaths_imported : 0\nmax_depth      : 8\ncur_path       : 90\npending_favs   : 2\npending_total  : 29\nvariable_paths : 0\nbitmap_cvg     : 0.36%\nunique_crashes : 45\nunique_hangs   : 0\nlast_path      : 1500138695\nlast_crash     : 1500138954\nlast_hang      : 0\nexec_timeout   : 20\nafl_banner     : fuzzer-master\nafl_version    : 1.85b\ncommand_line   : /home/skaramcheti/.virtualenvs/afl/bin/afl-unix/afl-fuzz -i /dev/shm/work/String_Storage_and_Retrieval/input -o /dev/shm/work/String_Storage_and_Retrieval/sync -m 4G -Q -M fuzzer-master -x /dev/shm/work/String_Storage_and_Retrieval/String_Storage_and_Retrieval.dict -- data/linux/processed-challenges/String_Storage_and_Retrieval/bin/String_Storage_and_Retrieval\n'
p117
I0
tp118
a(I7080
S'start_time     : 1500133759\nlast_update    : 1500140791\nfuzzer_pid     : 20005\ncycles_done    : 3\nexecs_done     : 3885316\nexecs_per_sec  : 173.79\npaths_total    : 92\npaths_favored  : 23\npaths_found    : 91\npaths_imported : 0\nmax_depth      : 8\ncur_path       : 90\npending_favs   : 2\npending_total  : 29\nvariable_paths : 0\nbitmap_cvg     : 0.36%\nunique_crashes : 45\nunique_hangs   : 0\nlast_path      : 1500138695\nlast_crash     : 1500138954\nlast_hang      : 0\nexec_timeout   : 20\nafl_banner     : fuzzer-master\nafl_version    : 1.85b\ncommand_line   : /home/skaramcheti/.virtualenvs/afl/bin/afl-unix/afl-fuzz -i /dev/shm/work/String_Storage_and_Retrieval/input -o /dev/shm/work/String_Storage_and_Retrieval/sync -m 4G -Q -M fuzzer-master -x /dev/shm/work/String_Storage_and_Retrieval/String_Storage_and_Retrieval.dict -- data/linux/processed-challenges/String_Storage_and_Retrieval/bin/String_Storage_and_Retrieval\n'
p119
I0
tp120
a(I7200
S'start_time     : 1500133759\nlast_update    : 1500140912\nfuzzer_pid     : 20005\ncycles_done    : 3\nexecs_done     : 3905883\nexecs_per_sec  : 170.13\npaths_total    : 92\npaths_favored  : 23\npaths_found    : 91\npaths_imported : 0\nmax_depth      : 8\ncur_path       : 90\npending_favs   : 2\npending_total  : 29\nvariable_paths : 0\nbitmap_cvg     : 0.36%\nunique_crashes : 45\nunique_hangs   : 0\nlast_path      : 1500138695\nlast_crash     : 1500138954\nlast_hang      : 0\nexec_timeout   : 20\nafl_banner     : fuzzer-master\nafl_version    : 1.85b\ncommand_line   : /home/skaramcheti/.virtualenvs/afl/bin/afl-unix/afl-fuzz -i /dev/shm/work/String_Storage_and_Retrieval/input -o /dev/shm/work/String_Storage_and_Retrieval/sync -m 4G -Q -M fuzzer-master -x /dev/shm/work/String_Storage_and_Retrieval/String_Storage_and_Retrieval.dict -- data/linux/processed-challenges/String_Storage_and_Retrieval/bin/String_Storage_and_Retrieval\n'
p121
I0
tp122
a(I7320
S'start_time     : 1500133759\nlast_update    : 1500141032\nfuzzer_pid     : 20005\ncycles_done    : 3\nexecs_done     : 3926512\nexecs_per_sec  : 171.55\npaths_total    : 92\npaths_favored  : 23\npaths_found    : 91\npaths_imported : 0\nmax_depth      : 8\ncur_path       : 90\npending_favs   : 2\npending_total  : 29\nvariable_paths : 0\nbitmap_cvg     : 0.36%\nunique_crashes : 45\nunique_hangs   : 1\nlast_path      : 1500138695\nlast_crash     : 1500138954\nlast_hang      : 1500141001\nexec_timeout   : 20\nafl_banner     : fuzzer-master\nafl_version    : 1.85b\ncommand_line   : /home/skaramcheti/.virtualenvs/afl/bin/afl-unix/afl-fuzz -i /dev/shm/work/String_Storage_and_Retrieval/input -o /dev/shm/work/String_Storage_and_Retrieval/sync -m 4G -Q -M fuzzer-master -x /dev/shm/work/String_Storage_and_Retrieval/String_Storage_and_Retrieval.dict -- data/linux/processed-challenges/String_Storage_and_Retrieval/bin/String_Storage_and_Retrieval\n'
p123
I0
tp124
a(I7440
S'start_time     : 1500133759\nlast_update    : 1500141152\nfuzzer_pid     : 20005\ncycles_done    : 3\nexecs_done     : 3947116\nexecs_per_sec  : 171.07\npaths_total    : 92\npaths_favored  : 23\npaths_found    : 91\npaths_imported : 0\nmax_depth      : 8\ncur_path       : 90\npending_favs   : 2\npending_total  : 29\nvariable_paths : 0\nbitmap_cvg     : 0.36%\nunique_crashes : 45\nunique_hangs   : 1\nlast_path      : 1500138695\nlast_crash     : 1500138954\nlast_hang      : 1500141001\nexec_timeout   : 20\nafl_banner     : fuzzer-master\nafl_version    : 1.85b\ncommand_line   : /home/skaramcheti/.virtualenvs/afl/bin/afl-unix/afl-fuzz -i /dev/shm/work/String_Storage_and_Retrieval/input -o /dev/shm/work/String_Storage_and_Retrieval/sync -m 4G -Q -M fuzzer-master -x /dev/shm/work/String_Storage_and_Retrieval/String_Storage_and_Retrieval.dict -- data/linux/processed-challenges/String_Storage_and_Retrieval/bin/String_Storage_and_Retrieval\n'
p125
I0
tp126
a(I7560
S'start_time     : 1500133759\nlast_update    : 1500141272\nfuzzer_pid     : 20005\ncycles_done    : 3\nexecs_done     : 3967691\nexecs_per_sec  : 169.31\npaths_total    : 92\npaths_favored  : 23\npaths_found    : 91\npaths_imported : 0\nmax_depth      : 8\ncur_path       : 90\npending_favs   : 2\npending_total  : 29\nvariable_paths : 0\nbitmap_cvg     : 0.36%\nunique_crashes : 45\nunique_hangs   : 1\nlast_path      : 1500138695\nlast_crash     : 1500138954\nlast_hang      : 1500141001\nexec_timeout   : 20\nafl_banner     : fuzzer-master\nafl_version    : 1.85b\ncommand_line   : /home/skaramcheti/.virtualenvs/afl/bin/afl-unix/afl-fuzz -i /dev/shm/work/String_Storage_and_Retrieval/input -o /dev/shm/work/String_Storage_and_Retrieval/sync -m 4G -Q -M fuzzer-master -x /dev/shm/work/String_Storage_and_Retrieval/String_Storage_and_Retrieval.dict -- data/linux/processed-challenges/String_Storage_and_Retrieval/bin/String_Storage_and_Retrieval\n'
p127
I0
tp128
a(I7680
S'start_time     : 1500133759\nlast_update    : 1500141392\nfuzzer_pid     : 20005\ncycles_done    : 3\nexecs_done     : 3988199\nexecs_per_sec  : 169.08\npaths_total    : 92\npaths_favored  : 23\npaths_found    : 91\npaths_imported : 0\nmax_depth      : 8\ncur_path       : 90\npending_favs   : 2\npending_total  : 29\nvariable_paths : 0\nbitmap_cvg     : 0.36%\nunique_crashes : 45\nunique_hangs   : 1\nlast_path      : 1500138695\nlast_crash     : 1500138954\nlast_hang      : 1500141001\nexec_timeout   : 20\nafl_banner     : fuzzer-master\nafl_version    : 1.85b\ncommand_line   : /home/skaramcheti/.virtualenvs/afl/bin/afl-unix/afl-fuzz -i /dev/shm/work/String_Storage_and_Retrieval/input -o /dev/shm/work/String_Storage_and_Retrieval/sync -m 4G -Q -M fuzzer-master -x /dev/shm/work/String_Storage_and_Retrieval/String_Storage_and_Retrieval.dict -- data/linux/processed-challenges/String_Storage_and_Retrieval/bin/String_Storage_and_Retrieval\n'
p129
I0
tp130
a(I7800
S'start_time     : 1500133759\nlast_update    : 1500141513\nfuzzer_pid     : 20005\ncycles_done    : 3\nexecs_done     : 4008836\nexecs_per_sec  : 171.86\npaths_total    : 92\npaths_favored  : 23\npaths_found    : 91\npaths_imported : 0\nmax_depth      : 8\ncur_path       : 90\npending_favs   : 2\npending_total  : 29\nvariable_paths : 0\nbitmap_cvg     : 0.36%\nunique_crashes : 45\nunique_hangs   : 1\nlast_path      : 1500138695\nlast_crash     : 1500138954\nlast_hang      : 1500141001\nexec_timeout   : 20\nafl_banner     : fuzzer-master\nafl_version    : 1.85b\ncommand_line   : /home/skaramcheti/.virtualenvs/afl/bin/afl-unix/afl-fuzz -i /dev/shm/work/String_Storage_and_Retrieval/input -o /dev/shm/work/String_Storage_and_Retrieval/sync -m 4G -Q -M fuzzer-master -x /dev/shm/work/String_Storage_and_Retrieval/String_Storage_and_Retrieval.dict -- data/linux/processed-challenges/String_Storage_and_Retrieval/bin/String_Storage_and_Retrieval\n'
p131
I0
tp132
a(I7920
S'start_time     : 1500133759\nlast_update    : 1500141633\nfuzzer_pid     : 20005\ncycles_done    : 3\nexecs_done     : 4029350\nexecs_per_sec  : 169.66\npaths_total    : 92\npaths_favored  : 23\npaths_found    : 91\npaths_imported : 0\nmax_depth      : 8\ncur_path       : 90\npending_favs   : 2\npending_total  : 29\nvariable_paths : 0\nbitmap_cvg     : 0.36%\nunique_crashes : 45\nunique_hangs   : 1\nlast_path      : 1500138695\nlast_crash     : 1500138954\nlast_hang      : 1500141001\nexec_timeout   : 20\nafl_banner     : fuzzer-master\nafl_version    : 1.85b\ncommand_line   : /home/skaramcheti/.virtualenvs/afl/bin/afl-unix/afl-fuzz -i /dev/shm/work/String_Storage_and_Retrieval/input -o /dev/shm/work/String_Storage_and_Retrieval/sync -m 4G -Q -M fuzzer-master -x /dev/shm/work/String_Storage_and_Retrieval/String_Storage_and_Retrieval.dict -- data/linux/processed-challenges/String_Storage_and_Retrieval/bin/String_Storage_and_Retrieval\n'
p133
I0
tp134
a(I8040
S'start_time     : 1500133759\nlast_update    : 1500141753\nfuzzer_pid     : 20005\ncycles_done    : 3\nexecs_done     : 4049792\nexecs_per_sec  : 165.52\npaths_total    : 92\npaths_favored  : 23\npaths_found    : 91\npaths_imported : 0\nmax_depth      : 8\ncur_path       : 90\npending_favs   : 2\npending_total  : 29\nvariable_paths : 0\nbitmap_cvg     : 0.36%\nunique_crashes : 45\nunique_hangs   : 1\nlast_path      : 1500138695\nlast_crash     : 1500138954\nlast_hang      : 1500141001\nexec_timeout   : 20\nafl_banner     : fuzzer-master\nafl_version    : 1.85b\ncommand_line   : /home/skaramcheti/.virtualenvs/afl/bin/afl-unix/afl-fuzz -i /dev/shm/work/String_Storage_and_Retrieval/input -o /dev/shm/work/String_Storage_and_Retrieval/sync -m 4G -Q -M fuzzer-master -x /dev/shm/work/String_Storage_and_Retrieval/String_Storage_and_Retrieval.dict -- data/linux/processed-challenges/String_Storage_and_Retrieval/bin/String_Storage_and_Retrieval\n'
p135
I0
tp136
a(I8160
S'start_time     : 1500133759\nlast_update    : 1500141873\nfuzzer_pid     : 20005\ncycles_done    : 3\nexecs_done     : 4070099\nexecs_per_sec  : 161.00\npaths_total    : 92\npaths_favored  : 23\npaths_found    : 91\npaths_imported : 0\nmax_depth      : 8\ncur_path       : 90\npending_favs   : 2\npending_total  : 29\nvariable_paths : 0\nbitmap_cvg     : 0.36%\nunique_crashes : 45\nunique_hangs   : 1\nlast_path      : 1500138695\nlast_crash     : 1500138954\nlast_hang      : 1500141001\nexec_timeout   : 20\nafl_banner     : fuzzer-master\nafl_version    : 1.85b\ncommand_line   : /home/skaramcheti/.virtualenvs/afl/bin/afl-unix/afl-fuzz -i /dev/shm/work/String_Storage_and_Retrieval/input -o /dev/shm/work/String_Storage_and_Retrieval/sync -m 4G -Q -M fuzzer-master -x /dev/shm/work/String_Storage_and_Retrieval/String_Storage_and_Retrieval.dict -- data/linux/processed-challenges/String_Storage_and_Retrieval/bin/String_Storage_and_Retrieval\n'
p137
I0
tp138
a(I8280
S'start_time     : 1500133759\nlast_update    : 1500141993\nfuzzer_pid     : 20005\ncycles_done    : 3\nexecs_done     : 4090533\nexecs_per_sec  : 167.41\npaths_total    : 92\npaths_favored  : 23\npaths_found    : 91\npaths_imported : 0\nmax_depth      : 8\ncur_path       : 90\npending_favs   : 2\npending_total  : 29\nvariable_paths : 0\nbitmap_cvg     : 0.36%\nunique_crashes : 45\nunique_hangs   : 1\nlast_path      : 1500138695\nlast_crash     : 1500138954\nlast_hang      : 1500141001\nexec_timeout   : 20\nafl_banner     : fuzzer-master\nafl_version    : 1.85b\ncommand_line   : /home/skaramcheti/.virtualenvs/afl/bin/afl-unix/afl-fuzz -i /dev/shm/work/String_Storage_and_Retrieval/input -o /dev/shm/work/String_Storage_and_Retrieval/sync -m 4G -Q -M fuzzer-master -x /dev/shm/work/String_Storage_and_Retrieval/String_Storage_and_Retrieval.dict -- data/linux/processed-challenges/String_Storage_and_Retrieval/bin/String_Storage_and_Retrieval\n'
p139
I0
tp140
a(I8400
S'start_time     : 1500133759\nlast_update    : 1500142114\nfuzzer_pid     : 20005\ncycles_done    : 3\nexecs_done     : 4110939\nexecs_per_sec  : 168.37\npaths_total    : 92\npaths_favored  : 23\npaths_found    : 91\npaths_imported : 0\nmax_depth      : 8\ncur_path       : 90\npending_favs   : 2\npending_total  : 29\nvariable_paths : 0\nbitmap_cvg     : 0.36%\nunique_crashes : 45\nunique_hangs   : 1\nlast_path      : 1500138695\nlast_crash     : 1500138954\nlast_hang      : 1500141001\nexec_timeout   : 20\nafl_banner     : fuzzer-master\nafl_version    : 1.85b\ncommand_line   : /home/skaramcheti/.virtualenvs/afl/bin/afl-unix/afl-fuzz -i /dev/shm/work/String_Storage_and_Retrieval/input -o /dev/shm/work/String_Storage_and_Retrieval/sync -m 4G -Q -M fuzzer-master -x /dev/shm/work/String_Storage_and_Retrieval/String_Storage_and_Retrieval.dict -- data/linux/processed-challenges/String_Storage_and_Retrieval/bin/String_Storage_and_Retrieval\n'
p141
I0
tp142
a(I8520
S'start_time     : 1500133759\nlast_update    : 1500142234\nfuzzer_pid     : 20005\ncycles_done    : 3\nexecs_done     : 4131489\nexecs_per_sec  : 170.88\npaths_total    : 92\npaths_favored  : 23\npaths_found    : 91\npaths_imported : 0\nmax_depth      : 8\ncur_path       : 90\npending_favs   : 2\npending_total  : 29\nvariable_paths : 0\nbitmap_cvg     : 0.36%\nunique_crashes : 45\nunique_hangs   : 1\nlast_path      : 1500138695\nlast_crash     : 1500138954\nlast_hang      : 1500141001\nexec_timeout   : 20\nafl_banner     : fuzzer-master\nafl_version    : 1.85b\ncommand_line   : /home/skaramcheti/.virtualenvs/afl/bin/afl-unix/afl-fuzz -i /dev/shm/work/String_Storage_and_Retrieval/input -o /dev/shm/work/String_Storage_and_Retrieval/sync -m 4G -Q -M fuzzer-master -x /dev/shm/work/String_Storage_and_Retrieval/String_Storage_and_Retrieval.dict -- data/linux/processed-challenges/String_Storage_and_Retrieval/bin/String_Storage_and_Retrieval\n'
p143
I0
tp144
a(I8640
S'start_time     : 1500133759\nlast_update    : 1500142354\nfuzzer_pid     : 20005\ncycles_done    : 3\nexecs_done     : 4152019\nexecs_per_sec  : 170.49\npaths_total    : 92\npaths_favored  : 23\npaths_found    : 91\npaths_imported : 0\nmax_depth      : 8\ncur_path       : 90\npending_favs   : 2\npending_total  : 29\nvariable_paths : 0\nbitmap_cvg     : 0.36%\nunique_crashes : 45\nunique_hangs   : 1\nlast_path      : 1500138695\nlast_crash     : 1500138954\nlast_hang      : 1500141001\nexec_timeout   : 20\nafl_banner     : fuzzer-master\nafl_version    : 1.85b\ncommand_line   : /home/skaramcheti/.virtualenvs/afl/bin/afl-unix/afl-fuzz -i /dev/shm/work/String_Storage_and_Retrieval/input -o /dev/shm/work/String_Storage_and_Retrieval/sync -m 4G -Q -M fuzzer-master -x /dev/shm/work/String_Storage_and_Retrieval/String_Storage_and_Retrieval.dict -- data/linux/processed-challenges/String_Storage_and_Retrieval/bin/String_Storage_and_Retrieval\n'
p145
I0
tp146
a(I8760
S'start_time     : 1500133759\nlast_update    : 1500142474\nfuzzer_pid     : 20005\ncycles_done    : 3\nexecs_done     : 4172467\nexecs_per_sec  : 171.94\npaths_total    : 92\npaths_favored  : 23\npaths_found    : 91\npaths_imported : 0\nmax_depth      : 8\ncur_path       : 90\npending_favs   : 2\npending_total  : 29\nvariable_paths : 0\nbitmap_cvg     : 0.36%\nunique_crashes : 45\nunique_hangs   : 1\nlast_path      : 1500138695\nlast_crash     : 1500138954\nlast_hang      : 1500141001\nexec_timeout   : 20\nafl_banner     : fuzzer-master\nafl_version    : 1.85b\ncommand_line   : /home/skaramcheti/.virtualenvs/afl/bin/afl-unix/afl-fuzz -i /dev/shm/work/String_Storage_and_Retrieval/input -o /dev/shm/work/String_Storage_and_Retrieval/sync -m 4G -Q -M fuzzer-master -x /dev/shm/work/String_Storage_and_Retrieval/String_Storage_and_Retrieval.dict -- data/linux/processed-challenges/String_Storage_and_Retrieval/bin/String_Storage_and_Retrieval\n'
p147
I0
tp148
a(I8880
S'start_time     : 1500133759\nlast_update    : 1500142594\nfuzzer_pid     : 20005\ncycles_done    : 3\nexecs_done     : 4192873\nexecs_per_sec  : 166.32\npaths_total    : 92\npaths_favored  : 23\npaths_found    : 91\npaths_imported : 0\nmax_depth      : 8\ncur_path       : 90\npending_favs   : 2\npending_total  : 29\nvariable_paths : 0\nbitmap_cvg     : 0.36%\nunique_crashes : 45\nunique_hangs   : 1\nlast_path      : 1500138695\nlast_crash     : 1500138954\nlast_hang      : 1500141001\nexec_timeout   : 20\nafl_banner     : fuzzer-master\nafl_version    : 1.85b\ncommand_line   : /home/skaramcheti/.virtualenvs/afl/bin/afl-unix/afl-fuzz -i /dev/shm/work/String_Storage_and_Retrieval/input -o /dev/shm/work/String_Storage_and_Retrieval/sync -m 4G -Q -M fuzzer-master -x /dev/shm/work/String_Storage_and_Retrieval/String_Storage_and_Retrieval.dict -- data/linux/processed-challenges/String_Storage_and_Retrieval/bin/String_Storage_and_Retrieval\n'
p149
I0
tp150
a(I9000
S'start_time     : 1500133759\nlast_update    : 1500142715\nfuzzer_pid     : 20005\ncycles_done    : 3\nexecs_done     : 4213393\nexecs_per_sec  : 171.76\npaths_total    : 92\npaths_favored  : 23\npaths_found    : 91\npaths_imported : 0\nmax_depth      : 8\ncur_path       : 90\npending_favs   : 2\npending_total  : 29\nvariable_paths : 0\nbitmap_cvg     : 0.36%\nunique_crashes : 45\nunique_hangs   : 1\nlast_path      : 1500138695\nlast_crash     : 1500138954\nlast_hang      : 1500141001\nexec_timeout   : 20\nafl_banner     : fuzzer-master\nafl_version    : 1.85b\ncommand_line   : /home/skaramcheti/.virtualenvs/afl/bin/afl-unix/afl-fuzz -i /dev/shm/work/String_Storage_and_Retrieval/input -o /dev/shm/work/String_Storage_and_Retrieval/sync -m 4G -Q -M fuzzer-master -x /dev/shm/work/String_Storage_and_Retrieval/String_Storage_and_Retrieval.dict -- data/linux/processed-challenges/String_Storage_and_Retrieval/bin/String_Storage_and_Retrieval\n'
p151
I0
tp152
a(I9120
S'start_time     : 1500133759\nlast_update    : 1500142835\nfuzzer_pid     : 20005\ncycles_done    : 3\nexecs_done     : 4233892\nexecs_per_sec  : 169.80\npaths_total    : 92\npaths_favored  : 23\npaths_found    : 91\npaths_imported : 0\nmax_depth      : 8\ncur_path       : 90\npending_favs   : 2\npending_total  : 29\nvariable_paths : 0\nbitmap_cvg     : 0.36%\nunique_crashes : 45\nunique_hangs   : 1\nlast_path      : 1500138695\nlast_crash     : 1500138954\nlast_hang      : 1500141001\nexec_timeout   : 20\nafl_banner     : fuzzer-master\nafl_version    : 1.85b\ncommand_line   : /home/skaramcheti/.virtualenvs/afl/bin/afl-unix/afl-fuzz -i /dev/shm/work/String_Storage_and_Retrieval/input -o /dev/shm/work/String_Storage_and_Retrieval/sync -m 4G -Q -M fuzzer-master -x /dev/shm/work/String_Storage_and_Retrieval/String_Storage_and_Retrieval.dict -- data/linux/processed-challenges/String_Storage_and_Retrieval/bin/String_Storage_and_Retrieval\n'
p153
I0
tp154
a(I9240
S'start_time     : 1500133759\nlast_update    : 1500142955\nfuzzer_pid     : 20005\ncycles_done    : 3\nexecs_done     : 4254505\nexecs_per_sec  : 169.78\npaths_total    : 92\npaths_favored  : 23\npaths_found    : 91\npaths_imported : 0\nmax_depth      : 8\ncur_path       : 90\npending_favs   : 2\npending_total  : 29\nvariable_paths : 0\nbitmap_cvg     : 0.36%\nunique_crashes : 45\nunique_hangs   : 1\nlast_path      : 1500138695\nlast_crash     : 1500138954\nlast_hang      : 1500141001\nexec_timeout   : 20\nafl_banner     : fuzzer-master\nafl_version    : 1.85b\ncommand_line   : /home/skaramcheti/.virtualenvs/afl/bin/afl-unix/afl-fuzz -i /dev/shm/work/String_Storage_and_Retrieval/input -o /dev/shm/work/String_Storage_and_Retrieval/sync -m 4G -Q -M fuzzer-master -x /dev/shm/work/String_Storage_and_Retrieval/String_Storage_and_Retrieval.dict -- data/linux/processed-challenges/String_Storage_and_Retrieval/bin/String_Storage_and_Retrieval\n'
p155
I0
tp156
a(I9360
S'start_time     : 1500133759\nlast_update    : 1500143075\nfuzzer_pid     : 20005\ncycles_done    : 3\nexecs_done     : 4275001\nexecs_per_sec  : 173.36\npaths_total    : 95\npaths_favored  : 23\npaths_found    : 94\npaths_imported : 0\nmax_depth      : 8\ncur_path       : 90\npending_favs   : 2\npending_total  : 32\nvariable_paths : 0\nbitmap_cvg     : 0.38%\nunique_crashes : 45\nunique_hangs   : 1\nlast_path      : 1500143028\nlast_crash     : 1500138954\nlast_hang      : 1500141001\nexec_timeout   : 20\nafl_banner     : fuzzer-master\nafl_version    : 1.85b\ncommand_line   : /home/skaramcheti/.virtualenvs/afl/bin/afl-unix/afl-fuzz -i /dev/shm/work/String_Storage_and_Retrieval/input -o /dev/shm/work/String_Storage_and_Retrieval/sync -m 4G -Q -M fuzzer-master -x /dev/shm/work/String_Storage_and_Retrieval/String_Storage_and_Retrieval.dict -- data/linux/processed-challenges/String_Storage_and_Retrieval/bin/String_Storage_and_Retrieval\n'
p157
I3
tp158
a(I9480
S'start_time     : 1500133759\nlast_update    : 1500143196\nfuzzer_pid     : 20005\ncycles_done    : 3\nexecs_done     : 4295512\nexecs_per_sec  : 184.73\npaths_total    : 96\npaths_favored  : 23\npaths_found    : 95\npaths_imported : 0\nmax_depth      : 8\ncur_path       : 90\npending_favs   : 2\npending_total  : 33\nvariable_paths : 0\nbitmap_cvg     : 0.39%\nunique_crashes : 45\nunique_hangs   : 1\nlast_path      : 1500143194\nlast_crash     : 1500138954\nlast_hang      : 1500141001\nexec_timeout   : 20\nafl_banner     : fuzzer-master\nafl_version    : 1.85b\ncommand_line   : /home/skaramcheti/.virtualenvs/afl/bin/afl-unix/afl-fuzz -i /dev/shm/work/String_Storage_and_Retrieval/input -o /dev/shm/work/String_Storage_and_Retrieval/sync -m 4G -Q -M fuzzer-master -x /dev/shm/work/String_Storage_and_Retrieval/String_Storage_and_Retrieval.dict -- data/linux/processed-challenges/String_Storage_and_Retrieval/bin/String_Storage_and_Retrieval\n'
p159
I1
tp160
a(I9600
S'start_time     : 1500133759\nlast_update    : 1500143316\nfuzzer_pid     : 20005\ncycles_done    : 3\nexecs_done     : 4318055\nexecs_per_sec  : 173.28\npaths_total    : 96\npaths_favored  : 26\npaths_found    : 95\npaths_imported : 0\nmax_depth      : 8\ncur_path       : 92\npending_favs   : 4\npending_total  : 32\nvariable_paths : 0\nbitmap_cvg     : 0.39%\nunique_crashes : 45\nunique_hangs   : 1\nlast_path      : 1500143194\nlast_crash     : 1500138954\nlast_hang      : 1500141001\nexec_timeout   : 20\nafl_banner     : fuzzer-master\nafl_version    : 1.85b\ncommand_line   : /home/skaramcheti/.virtualenvs/afl/bin/afl-unix/afl-fuzz -i /dev/shm/work/String_Storage_and_Retrieval/input -o /dev/shm/work/String_Storage_and_Retrieval/sync -m 4G -Q -M fuzzer-master -x /dev/shm/work/String_Storage_and_Retrieval/String_Storage_and_Retrieval.dict -- data/linux/processed-challenges/String_Storage_and_Retrieval/bin/String_Storage_and_Retrieval\n'
p161
I0
tp162
a(I9720
S'start_time     : 1500133759\nlast_update    : 1500143436\nfuzzer_pid     : 20005\ncycles_done    : 3\nexecs_done     : 4338809\nexecs_per_sec  : 175.39\npaths_total    : 96\npaths_favored  : 26\npaths_found    : 95\npaths_imported : 0\nmax_depth      : 8\ncur_path       : 92\npending_favs   : 4\npending_total  : 32\nvariable_paths : 0\nbitmap_cvg     : 0.39%\nunique_crashes : 45\nunique_hangs   : 1\nlast_path      : 1500143194\nlast_crash     : 1500138954\nlast_hang      : 1500141001\nexec_timeout   : 20\nafl_banner     : fuzzer-master\nafl_version    : 1.85b\ncommand_line   : /home/skaramcheti/.virtualenvs/afl/bin/afl-unix/afl-fuzz -i /dev/shm/work/String_Storage_and_Retrieval/input -o /dev/shm/work/String_Storage_and_Retrieval/sync -m 4G -Q -M fuzzer-master -x /dev/shm/work/String_Storage_and_Retrieval/String_Storage_and_Retrieval.dict -- data/linux/processed-challenges/String_Storage_and_Retrieval/bin/String_Storage_and_Retrieval\n'
p163
I0
tp164
a(I9840
S'start_time     : 1500133759\nlast_update    : 1500143556\nfuzzer_pid     : 20005\ncycles_done    : 3\nexecs_done     : 4359420\nexecs_per_sec  : 167.88\npaths_total    : 96\npaths_favored  : 26\npaths_found    : 95\npaths_imported : 0\nmax_depth      : 8\ncur_path       : 92\npending_favs   : 4\npending_total  : 32\nvariable_paths : 0\nbitmap_cvg     : 0.39%\nunique_crashes : 46\nunique_hangs   : 1\nlast_path      : 1500143194\nlast_crash     : 1500143461\nlast_hang      : 1500141001\nexec_timeout   : 20\nafl_banner     : fuzzer-master\nafl_version    : 1.85b\ncommand_line   : /home/skaramcheti/.virtualenvs/afl/bin/afl-unix/afl-fuzz -i /dev/shm/work/String_Storage_and_Retrieval/input -o /dev/shm/work/String_Storage_and_Retrieval/sync -m 4G -Q -M fuzzer-master -x /dev/shm/work/String_Storage_and_Retrieval/String_Storage_and_Retrieval.dict -- data/linux/processed-challenges/String_Storage_and_Retrieval/bin/String_Storage_and_Retrieval\n'
p165
I0
tp166
a(I9960
S'start_time     : 1500133759\nlast_update    : 1500143677\nfuzzer_pid     : 20005\ncycles_done    : 3\nexecs_done     : 4380126\nexecs_per_sec  : 172.91\npaths_total    : 96\npaths_favored  : 26\npaths_found    : 95\npaths_imported : 0\nmax_depth      : 8\ncur_path       : 92\npending_favs   : 4\npending_total  : 32\nvariable_paths : 0\nbitmap_cvg     : 0.39%\nunique_crashes : 46\nunique_hangs   : 1\nlast_path      : 1500143194\nlast_crash     : 1500143461\nlast_hang      : 1500141001\nexec_timeout   : 20\nafl_banner     : fuzzer-master\nafl_version    : 1.85b\ncommand_line   : /home/skaramcheti/.virtualenvs/afl/bin/afl-unix/afl-fuzz -i /dev/shm/work/String_Storage_and_Retrieval/input -o /dev/shm/work/String_Storage_and_Retrieval/sync -m 4G -Q -M fuzzer-master -x /dev/shm/work/String_Storage_and_Retrieval/String_Storage_and_Retrieval.dict -- data/linux/processed-challenges/String_Storage_and_Retrieval/bin/String_Storage_and_Retrieval\n'
p167
I0
tp168
a(I10080
S'start_time     : 1500133759\nlast_update    : 1500143797\nfuzzer_pid     : 20005\ncycles_done    : 3\nexecs_done     : 4401093\nexecs_per_sec  : 175.38\npaths_total    : 96\npaths_favored  : 26\npaths_found    : 95\npaths_imported : 0\nmax_depth      : 8\ncur_path       : 92\npending_favs   : 4\npending_total  : 32\nvariable_paths : 0\nbitmap_cvg     : 0.39%\nunique_crashes : 46\nunique_hangs   : 1\nlast_path      : 1500143194\nlast_crash     : 1500143461\nlast_hang      : 1500141001\nexec_timeout   : 20\nafl_banner     : fuzzer-master\nafl_version    : 1.85b\ncommand_line   : /home/skaramcheti/.virtualenvs/afl/bin/afl-unix/afl-fuzz -i /dev/shm/work/String_Storage_and_Retrieval/input -o /dev/shm/work/String_Storage_and_Retrieval/sync -m 4G -Q -M fuzzer-master -x /dev/shm/work/String_Storage_and_Retrieval/String_Storage_and_Retrieval.dict -- data/linux/processed-challenges/String_Storage_and_Retrieval/bin/String_Storage_and_Retrieval\n'
p169
I0
tp170
a(I10200
S'start_time     : 1500133759\nlast_update    : 1500143917\nfuzzer_pid     : 20005\ncycles_done    : 3\nexecs_done     : 4421893\nexecs_per_sec  : 173.64\npaths_total    : 96\npaths_favored  : 26\npaths_found    : 95\npaths_imported : 0\nmax_depth      : 8\ncur_path       : 92\npending_favs   : 4\npending_total  : 32\nvariable_paths : 0\nbitmap_cvg     : 0.39%\nunique_crashes : 46\nunique_hangs   : 2\nlast_path      : 1500143194\nlast_crash     : 1500143461\nlast_hang      : 1500143859\nexec_timeout   : 20\nafl_banner     : fuzzer-master\nafl_version    : 1.85b\ncommand_line   : /home/skaramcheti/.virtualenvs/afl/bin/afl-unix/afl-fuzz -i /dev/shm/work/String_Storage_and_Retrieval/input -o /dev/shm/work/String_Storage_and_Retrieval/sync -m 4G -Q -M fuzzer-master -x /dev/shm/work/String_Storage_and_Retrieval/String_Storage_and_Retrieval.dict -- data/linux/processed-challenges/String_Storage_and_Retrieval/bin/String_Storage_and_Retrieval\n'
p171
I0
tp172
a(I10320
S'start_time     : 1500133759\nlast_update    : 1500144037\nfuzzer_pid     : 20005\ncycles_done    : 3\nexecs_done     : 4442648\nexecs_per_sec  : 173.92\npaths_total    : 96\npaths_favored  : 26\npaths_found    : 95\npaths_imported : 0\nmax_depth      : 8\ncur_path       : 92\npending_favs   : 4\npending_total  : 32\nvariable_paths : 0\nbitmap_cvg     : 0.39%\nunique_crashes : 46\nunique_hangs   : 2\nlast_path      : 1500143194\nlast_crash     : 1500143461\nlast_hang      : 1500143859\nexec_timeout   : 20\nafl_banner     : fuzzer-master\nafl_version    : 1.85b\ncommand_line   : /home/skaramcheti/.virtualenvs/afl/bin/afl-unix/afl-fuzz -i /dev/shm/work/String_Storage_and_Retrieval/input -o /dev/shm/work/String_Storage_and_Retrieval/sync -m 4G -Q -M fuzzer-master -x /dev/shm/work/String_Storage_and_Retrieval/String_Storage_and_Retrieval.dict -- data/linux/processed-challenges/String_Storage_and_Retrieval/bin/String_Storage_and_Retrieval\n'
p173
I0
tp174
a(I10440
S'start_time     : 1500133759\nlast_update    : 1500144157\nfuzzer_pid     : 20005\ncycles_done    : 3\nexecs_done     : 4463354\nexecs_per_sec  : 171.25\npaths_total    : 96\npaths_favored  : 26\npaths_found    : 95\npaths_imported : 0\nmax_depth      : 8\ncur_path       : 92\npending_favs   : 4\npending_total  : 32\nvariable_paths : 0\nbitmap_cvg     : 0.39%\nunique_crashes : 46\nunique_hangs   : 2\nlast_path      : 1500143194\nlast_crash     : 1500143461\nlast_hang      : 1500143859\nexec_timeout   : 20\nafl_banner     : fuzzer-master\nafl_version    : 1.85b\ncommand_line   : /home/skaramcheti/.virtualenvs/afl/bin/afl-unix/afl-fuzz -i /dev/shm/work/String_Storage_and_Retrieval/input -o /dev/shm/work/String_Storage_and_Retrieval/sync -m 4G -Q -M fuzzer-master -x /dev/shm/work/String_Storage_and_Retrieval/String_Storage_and_Retrieval.dict -- data/linux/processed-challenges/String_Storage_and_Retrieval/bin/String_Storage_and_Retrieval\n'
p175
I0
tp176
a(I10560
S'start_time     : 1500133759\nlast_update    : 1500144278\nfuzzer_pid     : 20005\ncycles_done    : 3\nexecs_done     : 4484147\nexecs_per_sec  : 171.25\npaths_total    : 96\npaths_favored  : 26\npaths_found    : 95\npaths_imported : 0\nmax_depth      : 8\ncur_path       : 92\npending_favs   : 4\npending_total  : 32\nvariable_paths : 0\nbitmap_cvg     : 0.39%\nunique_crashes : 46\nunique_hangs   : 2\nlast_path      : 1500143194\nlast_crash     : 1500143461\nlast_hang      : 1500143859\nexec_timeout   : 20\nafl_banner     : fuzzer-master\nafl_version    : 1.85b\ncommand_line   : /home/skaramcheti/.virtualenvs/afl/bin/afl-unix/afl-fuzz -i /dev/shm/work/String_Storage_and_Retrieval/input -o /dev/shm/work/String_Storage_and_Retrieval/sync -m 4G -Q -M fuzzer-master -x /dev/shm/work/String_Storage_and_Retrieval/String_Storage_and_Retrieval.dict -- data/linux/processed-challenges/String_Storage_and_Retrieval/bin/String_Storage_and_Retrieval\n'
p177
I0
tp178
a(I10680
S'start_time     : 1500133759\nlast_update    : 1500144398\nfuzzer_pid     : 20005\ncycles_done    : 3\nexecs_done     : 4504778\nexecs_per_sec  : 172.06\npaths_total    : 96\npaths_favored  : 26\npaths_found    : 95\npaths_imported : 0\nmax_depth      : 8\ncur_path       : 92\npending_favs   : 4\npending_total  : 32\nvariable_paths : 0\nbitmap_cvg     : 0.39%\nunique_crashes : 46\nunique_hangs   : 2\nlast_path      : 1500143194\nlast_crash     : 1500143461\nlast_hang      : 1500143859\nexec_timeout   : 20\nafl_banner     : fuzzer-master\nafl_version    : 1.85b\ncommand_line   : /home/skaramcheti/.virtualenvs/afl/bin/afl-unix/afl-fuzz -i /dev/shm/work/String_Storage_and_Retrieval/input -o /dev/shm/work/String_Storage_and_Retrieval/sync -m 4G -Q -M fuzzer-master -x /dev/shm/work/String_Storage_and_Retrieval/String_Storage_and_Retrieval.dict -- data/linux/processed-challenges/String_Storage_and_Retrieval/bin/String_Storage_and_Retrieval\n'
p179
I0
tp180
a.