(lp0
(I0
S'start_time     : 1500068613\nlast_update    : 1500068613\nfuzzer_pid     : 31321\ncycles_done    : 0\nexecs_done     : 10\nexecs_per_sec  : 212.77\npaths_total    : 1\npaths_favored  : 1\npaths_found    : 0\npaths_imported : 0\nmax_depth      : 1\ncur_path       : 0\npending_favs   : 1\npending_total  : 1\nvariable_paths : 0\nbitmap_cvg     : 0.13%\nunique_crashes : 0\nunique_hangs   : 0\nlast_path      : 0\nlast_crash     : 0\nlast_hang      : 0\nexec_timeout   : 20\nafl_banner     : fuzzer-master\nafl_version    : 1.85b\ncommand_line   : /home/skaramcheti/.virtualenvs/afl/bin/afl-unix/afl-fuzz -i /dev/shm/work/Packet_Analyzer/input -o /dev/shm/work/Packet_Analyzer/sync -m 4G -Q -M fuzzer-master -x /dev/shm/work/Packet_Analyzer/Packet_Analyzer.dict -- data/linux/processed-challenges/Packet_Analyzer/bin/Packet_Analyzer\n'
p1
I2
tp2
a(I120
S'start_time     : 1500068613\nlast_update    : 1500068733\nfuzzer_pid     : 31321\ncycles_done    : 13\nexecs_done     : 138527\nexecs_per_sec  : 1167.01\npaths_total    : 2\npaths_favored  : 2\npaths_found    : 1\npaths_imported : 0\nmax_depth      : 2\ncur_path       : 0\npending_favs   : 0\npending_total  : 0\nvariable_paths : 0\nbitmap_cvg     : 0.13%\nunique_crashes : 0\nunique_hangs   : 0\nlast_path      : 1500068614\nlast_crash     : 0\nlast_hang      : 0\nexec_timeout   : 20\nafl_banner     : fuzzer-master\nafl_version    : 1.85b\ncommand_line   : /home/skaramcheti/.virtualenvs/afl/bin/afl-unix/afl-fuzz -i /dev/shm/work/Packet_Analyzer/input -o /dev/shm/work/Packet_Analyzer/sync -m 4G -Q -M fuzzer-master -x /dev/shm/work/Packet_Analyzer/Packet_Analyzer.dict -- data/linux/processed-challenges/Packet_Analyzer/bin/Packet_Analyzer\n'
p3
I0
tp4
a(I240
S'start_time     : 1500068613\nlast_update    : 1500068853\nfuzzer_pid     : 31321\ncycles_done    : 26\nexecs_done     : 277021\nexecs_per_sec  : 1145.29\npaths_total    : 2\npaths_favored  : 2\npaths_found    : 1\npaths_imported : 0\nmax_depth      : 2\ncur_path       : 1\npending_favs   : 0\npending_total  : 0\nvariable_paths : 0\nbitmap_cvg     : 0.13%\nunique_crashes : 0\nunique_hangs   : 0\nlast_path      : 1500068614\nlast_crash     : 0\nlast_hang      : 0\nexec_timeout   : 20\nafl_banner     : fuzzer-master\nafl_version    : 1.85b\ncommand_line   : /home/skaramcheti/.virtualenvs/afl/bin/afl-unix/afl-fuzz -i /dev/shm/work/Packet_Analyzer/input -o /dev/shm/work/Packet_Analyzer/sync -m 4G -Q -M fuzzer-master -x /dev/shm/work/Packet_Analyzer/Packet_Analyzer.dict -- data/linux/processed-challenges/Packet_Analyzer/bin/Packet_Analyzer\n'
p5
I0
tp6
a(I360
S'start_time     : 1500068613\nlast_update    : 1500068974\nfuzzer_pid     : 31321\ncycles_done    : 40\nexecs_done     : 413479\nexecs_per_sec  : 1097.17\npaths_total    : 2\npaths_favored  : 2\npaths_found    : 1\npaths_imported : 0\nmax_depth      : 2\ncur_path       : 1\npending_favs   : 0\npending_total  : 0\nvariable_paths : 0\nbitmap_cvg     : 0.13%\nunique_crashes : 0\nunique_hangs   : 0\nlast_path      : 1500068614\nlast_crash     : 0\nlast_hang      : 0\nexec_timeout   : 20\nafl_banner     : fuzzer-master\nafl_version    : 1.85b\ncommand_line   : /home/skaramcheti/.virtualenvs/afl/bin/afl-unix/afl-fuzz -i /dev/shm/work/Packet_Analyzer/input -o /dev/shm/work/Packet_Analyzer/sync -m 4G -Q -M fuzzer-master -x /dev/shm/work/Packet_Analyzer/Packet_Analyzer.dict -- data/linux/processed-challenges/Packet_Analyzer/bin/Packet_Analyzer\n'
p7
I0
tp8
a(I480
S'start_time     : 1500068613\nlast_update    : 1500069094\nfuzzer_pid     : 31321\ncycles_done    : 54\nexecs_done     : 549585\nexecs_per_sec  : 1149.68\npaths_total    : 2\npaths_favored  : 2\npaths_found    : 1\npaths_imported : 0\nmax_depth      : 2\ncur_path       : 0\npending_favs   : 0\npending_total  : 0\nvariable_paths : 0\nbitmap_cvg     : 0.13%\nunique_crashes : 0\nunique_hangs   : 0\nlast_path      : 1500068614\nlast_crash     : 0\nlast_hang      : 0\nexec_timeout   : 20\nafl_banner     : fuzzer-master\nafl_version    : 1.85b\ncommand_line   : /home/skaramcheti/.virtualenvs/afl/bin/afl-unix/afl-fuzz -i /dev/shm/work/Packet_Analyzer/input -o /dev/shm/work/Packet_Analyzer/sync -m 4G -Q -M fuzzer-master -x /dev/shm/work/Packet_Analyzer/Packet_Analyzer.dict -- data/linux/processed-challenges/Packet_Analyzer/bin/Packet_Analyzer\n'
p9
I0
tp10
a(I600
S'start_time     : 1500068613\nlast_update    : 1500069214\nfuzzer_pid     : 31321\ncycles_done    : 67\nexecs_done     : 685525\nexecs_per_sec  : 1131.74\npaths_total    : 2\npaths_favored  : 2\npaths_found    : 1\npaths_imported : 0\nmax_depth      : 2\ncur_path       : 1\npending_favs   : 0\npending_total  : 0\nvariable_paths : 0\nbitmap_cvg     : 0.13%\nunique_crashes : 0\nunique_hangs   : 0\nlast_path      : 1500068614\nlast_crash     : 0\nlast_hang      : 0\nexec_timeout   : 20\nafl_banner     : fuzzer-master\nafl_version    : 1.85b\ncommand_line   : /home/skaramcheti/.virtualenvs/afl/bin/afl-unix/afl-fuzz -i /dev/shm/work/Packet_Analyzer/input -o /dev/shm/work/Packet_Analyzer/sync -m 4G -Q -M fuzzer-master -x /dev/shm/work/Packet_Analyzer/Packet_Analyzer.dict -- data/linux/processed-challenges/Packet_Analyzer/bin/Packet_Analyzer\n'
p11
I0
tp12
a(I720
S'start_time     : 1500068613\nlast_update    : 1500069334\nfuzzer_pid     : 31321\ncycles_done    : 81\nexecs_done     : 821185\nexecs_per_sec  : 1133.63\npaths_total    : 2\npaths_favored  : 2\npaths_found    : 1\npaths_imported : 0\nmax_depth      : 2\ncur_path       : 0\npending_favs   : 0\npending_total  : 0\nvariable_paths : 0\nbitmap_cvg     : 0.13%\nunique_crashes : 0\nunique_hangs   : 0\nlast_path      : 1500068614\nlast_crash     : 0\nlast_hang      : 0\nexec_timeout   : 20\nafl_banner     : fuzzer-master\nafl_version    : 1.85b\ncommand_line   : /home/skaramcheti/.virtualenvs/afl/bin/afl-unix/afl-fuzz -i /dev/shm/work/Packet_Analyzer/input -o /dev/shm/work/Packet_Analyzer/sync -m 4G -Q -M fuzzer-master -x /dev/shm/work/Packet_Analyzer/Packet_Analyzer.dict -- data/linux/processed-challenges/Packet_Analyzer/bin/Packet_Analyzer\n'
p13
I0
tp14
a(I840
S'start_time     : 1500068613\nlast_update    : 1500069455\nfuzzer_pid     : 31321\ncycles_done    : 94\nexecs_done     : 957021\nexecs_per_sec  : 1144.77\npaths_total    : 2\npaths_favored  : 2\npaths_found    : 1\npaths_imported : 0\nmax_depth      : 2\ncur_path       : 1\npending_favs   : 0\npending_total  : 0\nvariable_paths : 0\nbitmap_cvg     : 0.13%\nunique_crashes : 0\nunique_hangs   : 0\nlast_path      : 1500068614\nlast_crash     : 0\nlast_hang      : 0\nexec_timeout   : 20\nafl_banner     : fuzzer-master\nafl_version    : 1.85b\ncommand_line   : /home/skaramcheti/.virtualenvs/afl/bin/afl-unix/afl-fuzz -i /dev/shm/work/Packet_Analyzer/input -o /dev/shm/work/Packet_Analyzer/sync -m 4G -Q -M fuzzer-master -x /dev/shm/work/Packet_Analyzer/Packet_Analyzer.dict -- data/linux/processed-challenges/Packet_Analyzer/bin/Packet_Analyzer\n'
p15
I0
tp16
a(I960
S'start_time     : 1500068613\nlast_update    : 1500069575\nfuzzer_pid     : 31321\ncycles_done    : 108\nexecs_done     : 1093458\nexecs_per_sec  : 1154.97\npaths_total    : 2\npaths_favored  : 2\npaths_found    : 1\npaths_imported : 0\nmax_depth      : 2\ncur_path       : 1\npending_favs   : 0\npending_total  : 0\nvariable_paths : 0\nbitmap_cvg     : 0.13%\nunique_crashes : 0\nunique_hangs   : 0\nlast_path      : 1500068614\nlast_crash     : 0\nlast_hang      : 0\nexec_timeout   : 20\nafl_banner     : fuzzer-master\nafl_version    : 1.85b\ncommand_line   : /home/skaramcheti/.virtualenvs/afl/bin/afl-unix/afl-fuzz -i /dev/shm/work/Packet_Analyzer/input -o /dev/shm/work/Packet_Analyzer/sync -m 4G -Q -M fuzzer-master -x /dev/shm/work/Packet_Analyzer/Packet_Analyzer.dict -- data/linux/processed-challenges/Packet_Analyzer/bin/Packet_Analyzer\n'
p17
I0
tp18
a(I1080
S'start_time     : 1500068613\nlast_update    : 1500069695\nfuzzer_pid     : 31321\ncycles_done    : 122\nexecs_done     : 1229746\nexecs_per_sec  : 1160.04\npaths_total    : 2\npaths_favored  : 2\npaths_found    : 1\npaths_imported : 0\nmax_depth      : 2\ncur_path       : 0\npending_favs   : 0\npending_total  : 0\nvariable_paths : 0\nbitmap_cvg     : 0.13%\nunique_crashes : 0\nunique_hangs   : 0\nlast_path      : 1500068614\nlast_crash     : 0\nlast_hang      : 0\nexec_timeout   : 20\nafl_banner     : fuzzer-master\nafl_version    : 1.85b\ncommand_line   : /home/skaramcheti/.virtualenvs/afl/bin/afl-unix/afl-fuzz -i /dev/shm/work/Packet_Analyzer/input -o /dev/shm/work/Packet_Analyzer/sync -m 4G -Q -M fuzzer-master -x /dev/shm/work/Packet_Analyzer/Packet_Analyzer.dict -- data/linux/processed-challenges/Packet_Analyzer/bin/Packet_Analyzer\n'
p19
I0
tp20
a(I1200
S'start_time     : 1500068613\nlast_update    : 1500069815\nfuzzer_pid     : 31321\ncycles_done    : 135\nexecs_done     : 1367230\nexecs_per_sec  : 1154.58\npaths_total    : 2\npaths_favored  : 2\npaths_found    : 1\npaths_imported : 0\nmax_depth      : 2\ncur_path       : 1\npending_favs   : 0\npending_total  : 0\nvariable_paths : 0\nbitmap_cvg     : 0.13%\nunique_crashes : 0\nunique_hangs   : 0\nlast_path      : 1500068614\nlast_crash     : 0\nlast_hang      : 0\nexec_timeout   : 20\nafl_banner     : fuzzer-master\nafl_version    : 1.85b\ncommand_line   : /home/skaramcheti/.virtualenvs/afl/bin/afl-unix/afl-fuzz -i /dev/shm/work/Packet_Analyzer/input -o /dev/shm/work/Packet_Analyzer/sync -m 4G -Q -M fuzzer-master -x /dev/shm/work/Packet_Analyzer/Packet_Analyzer.dict -- data/linux/processed-challenges/Packet_Analyzer/bin/Packet_Analyzer\n'
p21
I0
tp22
a(I1320
S'start_time     : 1500068613\nlast_update    : 1500069935\nfuzzer_pid     : 31321\ncycles_done    : 149\nexecs_done     : 1503919\nexecs_per_sec  : 1135.32\npaths_total    : 2\npaths_favored  : 2\npaths_found    : 1\npaths_imported : 0\nmax_depth      : 2\ncur_path       : 1\npending_favs   : 0\npending_total  : 0\nvariable_paths : 0\nbitmap_cvg     : 0.13%\nunique_crashes : 0\nunique_hangs   : 0\nlast_path      : 1500068614\nlast_crash     : 0\nlast_hang      : 0\nexec_timeout   : 20\nafl_banner     : fuzzer-master\nafl_version    : 1.85b\ncommand_line   : /home/skaramcheti/.virtualenvs/afl/bin/afl-unix/afl-fuzz -i /dev/shm/work/Packet_Analyzer/input -o /dev/shm/work/Packet_Analyzer/sync -m 4G -Q -M fuzzer-master -x /dev/shm/work/Packet_Analyzer/Packet_Analyzer.dict -- data/linux/processed-challenges/Packet_Analyzer/bin/Packet_Analyzer\n'
p23
I0
tp24
a(I1440
S'start_time     : 1500068613\nlast_update    : 1500070056\nfuzzer_pid     : 31321\ncycles_done    : 163\nexecs_done     : 1640344\nexecs_per_sec  : 1157.63\npaths_total    : 2\npaths_favored  : 2\npaths_found    : 1\npaths_imported : 0\nmax_depth      : 2\ncur_path       : 0\npending_favs   : 0\npending_total  : 0\nvariable_paths : 0\nbitmap_cvg     : 0.13%\nunique_crashes : 0\nunique_hangs   : 0\nlast_path      : 1500068614\nlast_crash     : 0\nlast_hang      : 0\nexec_timeout   : 20\nafl_banner     : fuzzer-master\nafl_version    : 1.85b\ncommand_line   : /home/skaramcheti/.virtualenvs/afl/bin/afl-unix/afl-fuzz -i /dev/shm/work/Packet_Analyzer/input -o /dev/shm/work/Packet_Analyzer/sync -m 4G -Q -M fuzzer-master -x /dev/shm/work/Packet_Analyzer/Packet_Analyzer.dict -- data/linux/processed-challenges/Packet_Analyzer/bin/Packet_Analyzer\n'
p25
I0
tp26
a(I1560
S'start_time     : 1500068613\nlast_update    : 1500070176\nfuzzer_pid     : 31321\ncycles_done    : 176\nexecs_done     : 1776515\nexecs_per_sec  : 1115.07\npaths_total    : 2\npaths_favored  : 2\npaths_found    : 1\npaths_imported : 0\nmax_depth      : 2\ncur_path       : 1\npending_favs   : 0\npending_total  : 0\nvariable_paths : 0\nbitmap_cvg     : 0.13%\nunique_crashes : 0\nunique_hangs   : 0\nlast_path      : 1500068614\nlast_crash     : 0\nlast_hang      : 0\nexec_timeout   : 20\nafl_banner     : fuzzer-master\nafl_version    : 1.85b\ncommand_line   : /home/skaramcheti/.virtualenvs/afl/bin/afl-unix/afl-fuzz -i /dev/shm/work/Packet_Analyzer/input -o /dev/shm/work/Packet_Analyzer/sync -m 4G -Q -M fuzzer-master -x /dev/shm/work/Packet_Analyzer/Packet_Analyzer.dict -- data/linux/processed-challenges/Packet_Analyzer/bin/Packet_Analyzer\n'
p27
I0
tp28
a(I1680
S'start_time     : 1500068613\nlast_update    : 1500070296\nfuzzer_pid     : 31321\ncycles_done    : 190\nexecs_done     : 1912489\nexecs_per_sec  : 1136.26\npaths_total    : 2\npaths_favored  : 2\npaths_found    : 1\npaths_imported : 0\nmax_depth      : 2\ncur_path       : 1\npending_favs   : 0\npending_total  : 0\nvariable_paths : 0\nbitmap_cvg     : 0.13%\nunique_crashes : 0\nunique_hangs   : 0\nlast_path      : 1500068614\nlast_crash     : 0\nlast_hang      : 0\nexec_timeout   : 20\nafl_banner     : fuzzer-master\nafl_version    : 1.85b\ncommand_line   : /home/skaramcheti/.virtualenvs/afl/bin/afl-unix/afl-fuzz -i /dev/shm/work/Packet_Analyzer/input -o /dev/shm/work/Packet_Analyzer/sync -m 4G -Q -M fuzzer-master -x /dev/shm/work/Packet_Analyzer/Packet_Analyzer.dict -- data/linux/processed-challenges/Packet_Analyzer/bin/Packet_Analyzer\n'
p29
I0
tp30
a(I1800
S'start_time     : 1500068613\nlast_update    : 1500070416\nfuzzer_pid     : 31321\ncycles_done    : 204\nexecs_done     : 2048523\nexecs_per_sec  : 1092.81\npaths_total    : 2\npaths_favored  : 2\npaths_found    : 1\npaths_imported : 0\nmax_depth      : 2\ncur_path       : 0\npending_favs   : 0\npending_total  : 0\nvariable_paths : 0\nbitmap_cvg     : 0.13%\nunique_crashes : 0\nunique_hangs   : 0\nlast_path      : 1500068614\nlast_crash     : 0\nlast_hang      : 0\nexec_timeout   : 20\nafl_banner     : fuzzer-master\nafl_version    : 1.85b\ncommand_line   : /home/skaramcheti/.virtualenvs/afl/bin/afl-unix/afl-fuzz -i /dev/shm/work/Packet_Analyzer/input -o /dev/shm/work/Packet_Analyzer/sync -m 4G -Q -M fuzzer-master -x /dev/shm/work/Packet_Analyzer/Packet_Analyzer.dict -- data/linux/processed-challenges/Packet_Analyzer/bin/Packet_Analyzer\n'
p31
I0
tp32
a(I1920
S'start_time     : 1500068613\nlast_update    : 1500070536\nfuzzer_pid     : 31321\ncycles_done    : 217\nexecs_done     : 2185390\nexecs_per_sec  : 1173.06\npaths_total    : 2\npaths_favored  : 2\npaths_found    : 1\npaths_imported : 0\nmax_depth      : 2\ncur_path       : 1\npending_favs   : 0\npending_total  : 0\nvariable_paths : 0\nbitmap_cvg     : 0.13%\nunique_crashes : 0\nunique_hangs   : 0\nlast_path      : 1500068614\nlast_crash     : 0\nlast_hang      : 0\nexec_timeout   : 20\nafl_banner     : fuzzer-master\nafl_version    : 1.85b\ncommand_line   : /home/skaramcheti/.virtualenvs/afl/bin/afl-unix/afl-fuzz -i /dev/shm/work/Packet_Analyzer/input -o /dev/shm/work/Packet_Analyzer/sync -m 4G -Q -M fuzzer-master -x /dev/shm/work/Packet_Analyzer/Packet_Analyzer.dict -- data/linux/processed-challenges/Packet_Analyzer/bin/Packet_Analyzer\n'
p33
I0
tp34
a(I2040
S'start_time     : 1500068613\nlast_update    : 1500070656\nfuzzer_pid     : 31321\ncycles_done    : 231\nexecs_done     : 2322469\nexecs_per_sec  : 1155.61\npaths_total    : 2\npaths_favored  : 2\npaths_found    : 1\npaths_imported : 0\nmax_depth      : 2\ncur_path       : 1\npending_favs   : 0\npending_total  : 0\nvariable_paths : 0\nbitmap_cvg     : 0.13%\nunique_crashes : 0\nunique_hangs   : 0\nlast_path      : 1500068614\nlast_crash     : 0\nlast_hang      : 0\nexec_timeout   : 20\nafl_banner     : fuzzer-master\nafl_version    : 1.85b\ncommand_line   : /home/skaramcheti/.virtualenvs/afl/bin/afl-unix/afl-fuzz -i /dev/shm/work/Packet_Analyzer/input -o /dev/shm/work/Packet_Analyzer/sync -m 4G -Q -M fuzzer-master -x /dev/shm/work/Packet_Analyzer/Packet_Analyzer.dict -- data/linux/processed-challenges/Packet_Analyzer/bin/Packet_Analyzer\n'
p35
I0
tp36
a(I2160
S'start_time     : 1500068613\nlast_update    : 1500070776\nfuzzer_pid     : 31321\ncycles_done    : 245\nexecs_done     : 2460528\nexecs_per_sec  : 1168.99\npaths_total    : 2\npaths_favored  : 2\npaths_found    : 1\npaths_imported : 0\nmax_depth      : 2\ncur_path       : 0\npending_favs   : 0\npending_total  : 0\nvariable_paths : 0\nbitmap_cvg     : 0.13%\nunique_crashes : 0\nunique_hangs   : 0\nlast_path      : 1500068614\nlast_crash     : 0\nlast_hang      : 0\nexec_timeout   : 20\nafl_banner     : fuzzer-master\nafl_version    : 1.85b\ncommand_line   : /home/skaramcheti/.virtualenvs/afl/bin/afl-unix/afl-fuzz -i /dev/shm/work/Packet_Analyzer/input -o /dev/shm/work/Packet_Analyzer/sync -m 4G -Q -M fuzzer-master -x /dev/shm/work/Packet_Analyzer/Packet_Analyzer.dict -- data/linux/processed-challenges/Packet_Analyzer/bin/Packet_Analyzer\n'
p37
I0
tp38
a(I2280
S'start_time     : 1500068613\nlast_update    : 1500070897\nfuzzer_pid     : 31321\ncycles_done    : 258\nexecs_done     : 2596955\nexecs_per_sec  : 1123.62\npaths_total    : 2\npaths_favored  : 2\npaths_found    : 1\npaths_imported : 0\nmax_depth      : 2\ncur_path       : 1\npending_favs   : 0\npending_total  : 0\nvariable_paths : 0\nbitmap_cvg     : 0.13%\nunique_crashes : 0\nunique_hangs   : 0\nlast_path      : 1500068614\nlast_crash     : 0\nlast_hang      : 0\nexec_timeout   : 20\nafl_banner     : fuzzer-master\nafl_version    : 1.85b\ncommand_line   : /home/skaramcheti/.virtualenvs/afl/bin/afl-unix/afl-fuzz -i /dev/shm/work/Packet_Analyzer/input -o /dev/shm/work/Packet_Analyzer/sync -m 4G -Q -M fuzzer-master -x /dev/shm/work/Packet_Analyzer/Packet_Analyzer.dict -- data/linux/processed-challenges/Packet_Analyzer/bin/Packet_Analyzer\n'
p39
I0
tp40
a(I2400
S'start_time     : 1500068613\nlast_update    : 1500071017\nfuzzer_pid     : 31321\ncycles_done    : 272\nexecs_done     : 2734029\nexecs_per_sec  : 1108.75\npaths_total    : 2\npaths_favored  : 2\npaths_found    : 1\npaths_imported : 0\nmax_depth      : 2\ncur_path       : 1\npending_favs   : 0\npending_total  : 0\nvariable_paths : 0\nbitmap_cvg     : 0.13%\nunique_crashes : 0\nunique_hangs   : 0\nlast_path      : 1500068614\nlast_crash     : 0\nlast_hang      : 0\nexec_timeout   : 20\nafl_banner     : fuzzer-master\nafl_version    : 1.85b\ncommand_line   : /home/skaramcheti/.virtualenvs/afl/bin/afl-unix/afl-fuzz -i /dev/shm/work/Packet_Analyzer/input -o /dev/shm/work/Packet_Analyzer/sync -m 4G -Q -M fuzzer-master -x /dev/shm/work/Packet_Analyzer/Packet_Analyzer.dict -- data/linux/processed-challenges/Packet_Analyzer/bin/Packet_Analyzer\n'
p41
I0
tp42
a(I2520
S'start_time     : 1500068613\nlast_update    : 1500071137\nfuzzer_pid     : 31321\ncycles_done    : 286\nexecs_done     : 2872599\nexecs_per_sec  : 1139.79\npaths_total    : 2\npaths_favored  : 2\npaths_found    : 1\npaths_imported : 0\nmax_depth      : 2\ncur_path       : 1\npending_favs   : 0\npending_total  : 0\nvariable_paths : 0\nbitmap_cvg     : 0.13%\nunique_crashes : 0\nunique_hangs   : 0\nlast_path      : 1500068614\nlast_crash     : 0\nlast_hang      : 0\nexec_timeout   : 20\nafl_banner     : fuzzer-master\nafl_version    : 1.85b\ncommand_line   : /home/skaramcheti/.virtualenvs/afl/bin/afl-unix/afl-fuzz -i /dev/shm/work/Packet_Analyzer/input -o /dev/shm/work/Packet_Analyzer/sync -m 4G -Q -M fuzzer-master -x /dev/shm/work/Packet_Analyzer/Packet_Analyzer.dict -- data/linux/processed-challenges/Packet_Analyzer/bin/Packet_Analyzer\n'
p43
I0
tp44
a(I2640
S'start_time     : 1500068613\nlast_update    : 1500071257\nfuzzer_pid     : 31321\ncycles_done    : 300\nexecs_done     : 3009865\nexecs_per_sec  : 1134.47\npaths_total    : 2\npaths_favored  : 2\npaths_found    : 1\npaths_imported : 0\nmax_depth      : 2\ncur_path       : 0\npending_favs   : 0\npending_total  : 0\nvariable_paths : 0\nbitmap_cvg     : 0.13%\nunique_crashes : 0\nunique_hangs   : 0\nlast_path      : 1500068614\nlast_crash     : 0\nlast_hang      : 0\nexec_timeout   : 20\nafl_banner     : fuzzer-master\nafl_version    : 1.85b\ncommand_line   : /home/skaramcheti/.virtualenvs/afl/bin/afl-unix/afl-fuzz -i /dev/shm/work/Packet_Analyzer/input -o /dev/shm/work/Packet_Analyzer/sync -m 4G -Q -M fuzzer-master -x /dev/shm/work/Packet_Analyzer/Packet_Analyzer.dict -- data/linux/processed-challenges/Packet_Analyzer/bin/Packet_Analyzer\n'
p45
I0
tp46
a(I2760
S'start_time     : 1500068613\nlast_update    : 1500071377\nfuzzer_pid     : 31321\ncycles_done    : 313\nexecs_done     : 3145877\nexecs_per_sec  : 1151.00\npaths_total    : 2\npaths_favored  : 2\npaths_found    : 1\npaths_imported : 0\nmax_depth      : 2\ncur_path       : 1\npending_favs   : 0\npending_total  : 0\nvariable_paths : 0\nbitmap_cvg     : 0.13%\nunique_crashes : 0\nunique_hangs   : 0\nlast_path      : 1500068614\nlast_crash     : 0\nlast_hang      : 0\nexec_timeout   : 20\nafl_banner     : fuzzer-master\nafl_version    : 1.85b\ncommand_line   : /home/skaramcheti/.virtualenvs/afl/bin/afl-unix/afl-fuzz -i /dev/shm/work/Packet_Analyzer/input -o /dev/shm/work/Packet_Analyzer/sync -m 4G -Q -M fuzzer-master -x /dev/shm/work/Packet_Analyzer/Packet_Analyzer.dict -- data/linux/processed-challenges/Packet_Analyzer/bin/Packet_Analyzer\n'
p47
I0
tp48
a(I2880
S'start_time     : 1500068613\nlast_update    : 1500071497\nfuzzer_pid     : 31321\ncycles_done    : 327\nexecs_done     : 3281053\nexecs_per_sec  : 1113.21\npaths_total    : 2\npaths_favored  : 2\npaths_found    : 1\npaths_imported : 0\nmax_depth      : 2\ncur_path       : 0\npending_favs   : 0\npending_total  : 0\nvariable_paths : 0\nbitmap_cvg     : 0.13%\nunique_crashes : 0\nunique_hangs   : 0\nlast_path      : 1500068614\nlast_crash     : 0\nlast_hang      : 0\nexec_timeout   : 20\nafl_banner     : fuzzer-master\nafl_version    : 1.85b\ncommand_line   : /home/skaramcheti/.virtualenvs/afl/bin/afl-unix/afl-fuzz -i /dev/shm/work/Packet_Analyzer/input -o /dev/shm/work/Packet_Analyzer/sync -m 4G -Q -M fuzzer-master -x /dev/shm/work/Packet_Analyzer/Packet_Analyzer.dict -- data/linux/processed-challenges/Packet_Analyzer/bin/Packet_Analyzer\n'
p49
I0
tp50
a(I3000
S'start_time     : 1500068613\nlast_update    : 1500071618\nfuzzer_pid     : 31321\ncycles_done    : 340\nexecs_done     : 3415173\nexecs_per_sec  : 1109.25\npaths_total    : 2\npaths_favored  : 2\npaths_found    : 1\npaths_imported : 0\nmax_depth      : 2\ncur_path       : 1\npending_favs   : 0\npending_total  : 0\nvariable_paths : 0\nbitmap_cvg     : 0.13%\nunique_crashes : 0\nunique_hangs   : 0\nlast_path      : 1500068614\nlast_crash     : 0\nlast_hang      : 0\nexec_timeout   : 20\nafl_banner     : fuzzer-master\nafl_version    : 1.85b\ncommand_line   : /home/skaramcheti/.virtualenvs/afl/bin/afl-unix/afl-fuzz -i /dev/shm/work/Packet_Analyzer/input -o /dev/shm/work/Packet_Analyzer/sync -m 4G -Q -M fuzzer-master -x /dev/shm/work/Packet_Analyzer/Packet_Analyzer.dict -- data/linux/processed-challenges/Packet_Analyzer/bin/Packet_Analyzer\n'
p51
I0
tp52
a(I3120
S'start_time     : 1500068613\nlast_update    : 1500071738\nfuzzer_pid     : 31321\ncycles_done    : 354\nexecs_done     : 3551449\nexecs_per_sec  : 1140.56\npaths_total    : 2\npaths_favored  : 2\npaths_found    : 1\npaths_imported : 0\nmax_depth      : 2\ncur_path       : 0\npending_favs   : 0\npending_total  : 0\nvariable_paths : 0\nbitmap_cvg     : 0.13%\nunique_crashes : 0\nunique_hangs   : 0\nlast_path      : 1500068614\nlast_crash     : 0\nlast_hang      : 0\nexec_timeout   : 20\nafl_banner     : fuzzer-master\nafl_version    : 1.85b\ncommand_line   : /home/skaramcheti/.virtualenvs/afl/bin/afl-unix/afl-fuzz -i /dev/shm/work/Packet_Analyzer/input -o /dev/shm/work/Packet_Analyzer/sync -m 4G -Q -M fuzzer-master -x /dev/shm/work/Packet_Analyzer/Packet_Analyzer.dict -- data/linux/processed-challenges/Packet_Analyzer/bin/Packet_Analyzer\n'
p53
I0
tp54
a(I3240
S'start_time     : 1500068613\nlast_update    : 1500071858\nfuzzer_pid     : 31321\ncycles_done    : 368\nexecs_done     : 3688721\nexecs_per_sec  : 1145.53\npaths_total    : 2\npaths_favored  : 2\npaths_found    : 1\npaths_imported : 0\nmax_depth      : 2\ncur_path       : 0\npending_favs   : 0\npending_total  : 0\nvariable_paths : 0\nbitmap_cvg     : 0.13%\nunique_crashes : 0\nunique_hangs   : 0\nlast_path      : 1500068614\nlast_crash     : 0\nlast_hang      : 0\nexec_timeout   : 20\nafl_banner     : fuzzer-master\nafl_version    : 1.85b\ncommand_line   : /home/skaramcheti/.virtualenvs/afl/bin/afl-unix/afl-fuzz -i /dev/shm/work/Packet_Analyzer/input -o /dev/shm/work/Packet_Analyzer/sync -m 4G -Q -M fuzzer-master -x /dev/shm/work/Packet_Analyzer/Packet_Analyzer.dict -- data/linux/processed-challenges/Packet_Analyzer/bin/Packet_Analyzer\n'
p55
I0
tp56
a(I3360
S'start_time     : 1500068613\nlast_update    : 1500071978\nfuzzer_pid     : 31321\ncycles_done    : 381\nexecs_done     : 3827230\nexecs_per_sec  : 1158.53\npaths_total    : 2\npaths_favored  : 2\npaths_found    : 1\npaths_imported : 0\nmax_depth      : 2\ncur_path       : 1\npending_favs   : 0\npending_total  : 0\nvariable_paths : 0\nbitmap_cvg     : 0.13%\nunique_crashes : 0\nunique_hangs   : 0\nlast_path      : 1500068614\nlast_crash     : 0\nlast_hang      : 0\nexec_timeout   : 20\nafl_banner     : fuzzer-master\nafl_version    : 1.85b\ncommand_line   : /home/skaramcheti/.virtualenvs/afl/bin/afl-unix/afl-fuzz -i /dev/shm/work/Packet_Analyzer/input -o /dev/shm/work/Packet_Analyzer/sync -m 4G -Q -M fuzzer-master -x /dev/shm/work/Packet_Analyzer/Packet_Analyzer.dict -- data/linux/processed-challenges/Packet_Analyzer/bin/Packet_Analyzer\n'
p57
I0
tp58
a(I3480
S'start_time     : 1500068613\nlast_update    : 1500072098\nfuzzer_pid     : 31321\ncycles_done    : 395\nexecs_done     : 3965827\nexecs_per_sec  : 1168.55\npaths_total    : 2\npaths_favored  : 2\npaths_found    : 1\npaths_imported : 0\nmax_depth      : 2\ncur_path       : 1\npending_favs   : 0\npending_total  : 0\nvariable_paths : 0\nbitmap_cvg     : 0.13%\nunique_crashes : 0\nunique_hangs   : 0\nlast_path      : 1500068614\nlast_crash     : 0\nlast_hang      : 0\nexec_timeout   : 20\nafl_banner     : fuzzer-master\nafl_version    : 1.85b\ncommand_line   : /home/skaramcheti/.virtualenvs/afl/bin/afl-unix/afl-fuzz -i /dev/shm/work/Packet_Analyzer/input -o /dev/shm/work/Packet_Analyzer/sync -m 4G -Q -M fuzzer-master -x /dev/shm/work/Packet_Analyzer/Packet_Analyzer.dict -- data/linux/processed-challenges/Packet_Analyzer/bin/Packet_Analyzer\n'
p59
I0
tp60
a(I3600
S'start_time     : 1500068613\nlast_update    : 1500072218\nfuzzer_pid     : 31321\ncycles_done    : 409\nexecs_done     : 4105528\nexecs_per_sec  : 1173.65\npaths_total    : 2\npaths_favored  : 2\npaths_found    : 1\npaths_imported : 0\nmax_depth      : 2\ncur_path       : 1\npending_favs   : 0\npending_total  : 0\nvariable_paths : 0\nbitmap_cvg     : 0.13%\nunique_crashes : 0\nunique_hangs   : 0\nlast_path      : 1500068614\nlast_crash     : 0\nlast_hang      : 0\nexec_timeout   : 20\nafl_banner     : fuzzer-master\nafl_version    : 1.85b\ncommand_line   : /home/skaramcheti/.virtualenvs/afl/bin/afl-unix/afl-fuzz -i /dev/shm/work/Packet_Analyzer/input -o /dev/shm/work/Packet_Analyzer/sync -m 4G -Q -M fuzzer-master -x /dev/shm/work/Packet_Analyzer/Packet_Analyzer.dict -- data/linux/processed-challenges/Packet_Analyzer/bin/Packet_Analyzer\n'
p61
I0
tp62
a(I3720
S'start_time     : 1500068613\nlast_update    : 1500072338\nfuzzer_pid     : 31321\ncycles_done    : 423\nexecs_done     : 4245367\nexecs_per_sec  : 1168.98\npaths_total    : 2\npaths_favored  : 2\npaths_found    : 1\npaths_imported : 0\nmax_depth      : 2\ncur_path       : 1\npending_favs   : 0\npending_total  : 0\nvariable_paths : 0\nbitmap_cvg     : 0.13%\nunique_crashes : 0\nunique_hangs   : 0\nlast_path      : 1500068614\nlast_crash     : 0\nlast_hang      : 0\nexec_timeout   : 20\nafl_banner     : fuzzer-master\nafl_version    : 1.85b\ncommand_line   : /home/skaramcheti/.virtualenvs/afl/bin/afl-unix/afl-fuzz -i /dev/shm/work/Packet_Analyzer/input -o /dev/shm/work/Packet_Analyzer/sync -m 4G -Q -M fuzzer-master -x /dev/shm/work/Packet_Analyzer/Packet_Analyzer.dict -- data/linux/processed-challenges/Packet_Analyzer/bin/Packet_Analyzer\n'
p63
I0
tp64
a(I3840
S'start_time     : 1500068613\nlast_update    : 1500072459\nfuzzer_pid     : 31321\ncycles_done    : 437\nexecs_done     : 4387299\nexecs_per_sec  : 1184.77\npaths_total    : 2\npaths_favored  : 2\npaths_found    : 1\npaths_imported : 0\nmax_depth      : 2\ncur_path       : 1\npending_favs   : 0\npending_total  : 0\nvariable_paths : 0\nbitmap_cvg     : 0.13%\nunique_crashes : 0\nunique_hangs   : 0\nlast_path      : 1500068614\nlast_crash     : 0\nlast_hang      : 0\nexec_timeout   : 20\nafl_banner     : fuzzer-master\nafl_version    : 1.85b\ncommand_line   : /home/skaramcheti/.virtualenvs/afl/bin/afl-unix/afl-fuzz -i /dev/shm/work/Packet_Analyzer/input -o /dev/shm/work/Packet_Analyzer/sync -m 4G -Q -M fuzzer-master -x /dev/shm/work/Packet_Analyzer/Packet_Analyzer.dict -- data/linux/processed-challenges/Packet_Analyzer/bin/Packet_Analyzer\n'
p65
I0
tp66
a(I3960
S'start_time     : 1500068613\nlast_update    : 1500072579\nfuzzer_pid     : 31321\ncycles_done    : 451\nexecs_done     : 4527069\nexecs_per_sec  : 1182.95\npaths_total    : 2\npaths_favored  : 2\npaths_found    : 1\npaths_imported : 0\nmax_depth      : 2\ncur_path       : 1\npending_favs   : 0\npending_total  : 0\nvariable_paths : 0\nbitmap_cvg     : 0.13%\nunique_crashes : 0\nunique_hangs   : 0\nlast_path      : 1500068614\nlast_crash     : 0\nlast_hang      : 0\nexec_timeout   : 20\nafl_banner     : fuzzer-master\nafl_version    : 1.85b\ncommand_line   : /home/skaramcheti/.virtualenvs/afl/bin/afl-unix/afl-fuzz -i /dev/shm/work/Packet_Analyzer/input -o /dev/shm/work/Packet_Analyzer/sync -m 4G -Q -M fuzzer-master -x /dev/shm/work/Packet_Analyzer/Packet_Analyzer.dict -- data/linux/processed-challenges/Packet_Analyzer/bin/Packet_Analyzer\n'
p67
I0
tp68
a(I4080
S'start_time     : 1500068613\nlast_update    : 1500072699\nfuzzer_pid     : 31321\ncycles_done    : 466\nexecs_done     : 4669095\nexecs_per_sec  : 1138.53\npaths_total    : 2\npaths_favored  : 2\npaths_found    : 1\npaths_imported : 0\nmax_depth      : 2\ncur_path       : 0\npending_favs   : 0\npending_total  : 0\nvariable_paths : 0\nbitmap_cvg     : 0.13%\nunique_crashes : 0\nunique_hangs   : 0\nlast_path      : 1500068614\nlast_crash     : 0\nlast_hang      : 0\nexec_timeout   : 20\nafl_banner     : fuzzer-master\nafl_version    : 1.85b\ncommand_line   : /home/skaramcheti/.virtualenvs/afl/bin/afl-unix/afl-fuzz -i /dev/shm/work/Packet_Analyzer/input -o /dev/shm/work/Packet_Analyzer/sync -m 4G -Q -M fuzzer-master -x /dev/shm/work/Packet_Analyzer/Packet_Analyzer.dict -- data/linux/processed-challenges/Packet_Analyzer/bin/Packet_Analyzer\n'
p69
I0
tp70
a(I4200
S'start_time     : 1500068613\nlast_update    : 1500072819\nfuzzer_pid     : 31321\ncycles_done    : 480\nexecs_done     : 4808734\nexecs_per_sec  : 1187.98\npaths_total    : 2\npaths_favored  : 2\npaths_found    : 1\npaths_imported : 0\nmax_depth      : 2\ncur_path       : 0\npending_favs   : 0\npending_total  : 0\nvariable_paths : 0\nbitmap_cvg     : 0.13%\nunique_crashes : 0\nunique_hangs   : 0\nlast_path      : 1500068614\nlast_crash     : 0\nlast_hang      : 0\nexec_timeout   : 20\nafl_banner     : fuzzer-master\nafl_version    : 1.85b\ncommand_line   : /home/skaramcheti/.virtualenvs/afl/bin/afl-unix/afl-fuzz -i /dev/shm/work/Packet_Analyzer/input -o /dev/shm/work/Packet_Analyzer/sync -m 4G -Q -M fuzzer-master -x /dev/shm/work/Packet_Analyzer/Packet_Analyzer.dict -- data/linux/processed-challenges/Packet_Analyzer/bin/Packet_Analyzer\n'
p71
I0
tp72
a(I4320
S'start_time     : 1500068613\nlast_update    : 1500072939\nfuzzer_pid     : 31321\ncycles_done    : 494\nexecs_done     : 4948573\nexecs_per_sec  : 1184.29\npaths_total    : 2\npaths_favored  : 2\npaths_found    : 1\npaths_imported : 0\nmax_depth      : 2\ncur_path       : 0\npending_favs   : 0\npending_total  : 0\nvariable_paths : 0\nbitmap_cvg     : 0.13%\nunique_crashes : 0\nunique_hangs   : 0\nlast_path      : 1500068614\nlast_crash     : 0\nlast_hang      : 0\nexec_timeout   : 20\nafl_banner     : fuzzer-master\nafl_version    : 1.85b\ncommand_line   : /home/skaramcheti/.virtualenvs/afl/bin/afl-unix/afl-fuzz -i /dev/shm/work/Packet_Analyzer/input -o /dev/shm/work/Packet_Analyzer/sync -m 4G -Q -M fuzzer-master -x /dev/shm/work/Packet_Analyzer/Packet_Analyzer.dict -- data/linux/processed-challenges/Packet_Analyzer/bin/Packet_Analyzer\n'
p73
I0
tp74
a(I4440
S'start_time     : 1500068613\nlast_update    : 1500073060\nfuzzer_pid     : 31321\ncycles_done    : 508\nexecs_done     : 5088611\nexecs_per_sec  : 1154.75\npaths_total    : 2\npaths_favored  : 2\npaths_found    : 1\npaths_imported : 0\nmax_depth      : 2\ncur_path       : 0\npending_favs   : 0\npending_total  : 0\nvariable_paths : 0\nbitmap_cvg     : 0.13%\nunique_crashes : 0\nunique_hangs   : 0\nlast_path      : 1500068614\nlast_crash     : 0\nlast_hang      : 0\nexec_timeout   : 20\nafl_banner     : fuzzer-master\nafl_version    : 1.85b\ncommand_line   : /home/skaramcheti/.virtualenvs/afl/bin/afl-unix/afl-fuzz -i /dev/shm/work/Packet_Analyzer/input -o /dev/shm/work/Packet_Analyzer/sync -m 4G -Q -M fuzzer-master -x /dev/shm/work/Packet_Analyzer/Packet_Analyzer.dict -- data/linux/processed-challenges/Packet_Analyzer/bin/Packet_Analyzer\n'
p75
I0
tp76
a(I4560
S'start_time     : 1500068613\nlast_update    : 1500073180\nfuzzer_pid     : 31321\ncycles_done    : 522\nexecs_done     : 5228090\nexecs_per_sec  : 1187.78\npaths_total    : 2\npaths_favored  : 2\npaths_found    : 1\npaths_imported : 0\nmax_depth      : 2\ncur_path       : 0\npending_favs   : 0\npending_total  : 0\nvariable_paths : 0\nbitmap_cvg     : 0.13%\nunique_crashes : 0\nunique_hangs   : 0\nlast_path      : 1500068614\nlast_crash     : 0\nlast_hang      : 0\nexec_timeout   : 20\nafl_banner     : fuzzer-master\nafl_version    : 1.85b\ncommand_line   : /home/skaramcheti/.virtualenvs/afl/bin/afl-unix/afl-fuzz -i /dev/shm/work/Packet_Analyzer/input -o /dev/shm/work/Packet_Analyzer/sync -m 4G -Q -M fuzzer-master -x /dev/shm/work/Packet_Analyzer/Packet_Analyzer.dict -- data/linux/processed-challenges/Packet_Analyzer/bin/Packet_Analyzer\n'
p77
I0
tp78
a(I4680
S'start_time     : 1500068613\nlast_update    : 1500073300\nfuzzer_pid     : 31321\ncycles_done    : 535\nexecs_done     : 5367322\nexecs_per_sec  : 1154.45\npaths_total    : 2\npaths_favored  : 2\npaths_found    : 1\npaths_imported : 0\nmax_depth      : 2\ncur_path       : 1\npending_favs   : 0\npending_total  : 0\nvariable_paths : 0\nbitmap_cvg     : 0.13%\nunique_crashes : 0\nunique_hangs   : 0\nlast_path      : 1500068614\nlast_crash     : 0\nlast_hang      : 0\nexec_timeout   : 20\nafl_banner     : fuzzer-master\nafl_version    : 1.85b\ncommand_line   : /home/skaramcheti/.virtualenvs/afl/bin/afl-unix/afl-fuzz -i /dev/shm/work/Packet_Analyzer/input -o /dev/shm/work/Packet_Analyzer/sync -m 4G -Q -M fuzzer-master -x /dev/shm/work/Packet_Analyzer/Packet_Analyzer.dict -- data/linux/processed-challenges/Packet_Analyzer/bin/Packet_Analyzer\n'
p79
I0
tp80
a(I4800
S'start_time     : 1500068613\nlast_update    : 1500073420\nfuzzer_pid     : 31321\ncycles_done    : 549\nexecs_done     : 5505643\nexecs_per_sec  : 1160.06\npaths_total    : 2\npaths_favored  : 2\npaths_found    : 1\npaths_imported : 0\nmax_depth      : 2\ncur_path       : 1\npending_favs   : 0\npending_total  : 0\nvariable_paths : 0\nbitmap_cvg     : 0.13%\nunique_crashes : 0\nunique_hangs   : 0\nlast_path      : 1500068614\nlast_crash     : 0\nlast_hang      : 0\nexec_timeout   : 20\nafl_banner     : fuzzer-master\nafl_version    : 1.85b\ncommand_line   : /home/skaramcheti/.virtualenvs/afl/bin/afl-unix/afl-fuzz -i /dev/shm/work/Packet_Analyzer/input -o /dev/shm/work/Packet_Analyzer/sync -m 4G -Q -M fuzzer-master -x /dev/shm/work/Packet_Analyzer/Packet_Analyzer.dict -- data/linux/processed-challenges/Packet_Analyzer/bin/Packet_Analyzer\n'
p81
I0
tp82
a(I4920
S'start_time     : 1500068613\nlast_update    : 1500073541\nfuzzer_pid     : 31321\ncycles_done    : 563\nexecs_done     : 5644263\nexecs_per_sec  : 1164.29\npaths_total    : 2\npaths_favored  : 2\npaths_found    : 1\npaths_imported : 0\nmax_depth      : 2\ncur_path       : 1\npending_favs   : 0\npending_total  : 0\nvariable_paths : 0\nbitmap_cvg     : 0.13%\nunique_crashes : 0\nunique_hangs   : 0\nlast_path      : 1500068614\nlast_crash     : 0\nlast_hang      : 0\nexec_timeout   : 20\nafl_banner     : fuzzer-master\nafl_version    : 1.85b\ncommand_line   : /home/skaramcheti/.virtualenvs/afl/bin/afl-unix/afl-fuzz -i /dev/shm/work/Packet_Analyzer/input -o /dev/shm/work/Packet_Analyzer/sync -m 4G -Q -M fuzzer-master -x /dev/shm/work/Packet_Analyzer/Packet_Analyzer.dict -- data/linux/processed-challenges/Packet_Analyzer/bin/Packet_Analyzer\n'
p83
I0
tp84
a(I5040
S'start_time     : 1500068613\nlast_update    : 1500073661\nfuzzer_pid     : 31321\ncycles_done    : 577\nexecs_done     : 5782467\nexecs_per_sec  : 1137.59\npaths_total    : 2\npaths_favored  : 2\npaths_found    : 1\npaths_imported : 0\nmax_depth      : 2\ncur_path       : 1\npending_favs   : 0\npending_total  : 0\nvariable_paths : 0\nbitmap_cvg     : 0.13%\nunique_crashes : 0\nunique_hangs   : 0\nlast_path      : 1500068614\nlast_crash     : 0\nlast_hang      : 0\nexec_timeout   : 20\nafl_banner     : fuzzer-master\nafl_version    : 1.85b\ncommand_line   : /home/skaramcheti/.virtualenvs/afl/bin/afl-unix/afl-fuzz -i /dev/shm/work/Packet_Analyzer/input -o /dev/shm/work/Packet_Analyzer/sync -m 4G -Q -M fuzzer-master -x /dev/shm/work/Packet_Analyzer/Packet_Analyzer.dict -- data/linux/processed-challenges/Packet_Analyzer/bin/Packet_Analyzer\n'
p85
I0
tp86
a(I5160
S'start_time     : 1500068613\nlast_update    : 1500073781\nfuzzer_pid     : 31321\ncycles_done    : 591\nexecs_done     : 5920413\nexecs_per_sec  : 1167.69\npaths_total    : 2\npaths_favored  : 2\npaths_found    : 1\npaths_imported : 0\nmax_depth      : 2\ncur_path       : 0\npending_favs   : 0\npending_total  : 0\nvariable_paths : 0\nbitmap_cvg     : 0.13%\nunique_crashes : 0\nunique_hangs   : 0\nlast_path      : 1500068614\nlast_crash     : 0\nlast_hang      : 0\nexec_timeout   : 20\nafl_banner     : fuzzer-master\nafl_version    : 1.85b\ncommand_line   : /home/skaramcheti/.virtualenvs/afl/bin/afl-unix/afl-fuzz -i /dev/shm/work/Packet_Analyzer/input -o /dev/shm/work/Packet_Analyzer/sync -m 4G -Q -M fuzzer-master -x /dev/shm/work/Packet_Analyzer/Packet_Analyzer.dict -- data/linux/processed-challenges/Packet_Analyzer/bin/Packet_Analyzer\n'
p87
I0
tp88
a(I5280
S'start_time     : 1500068613\nlast_update    : 1500073902\nfuzzer_pid     : 31321\ncycles_done    : 605\nexecs_done     : 6058343\nexecs_per_sec  : 1156.48\npaths_total    : 2\npaths_favored  : 2\npaths_found    : 1\npaths_imported : 0\nmax_depth      : 2\ncur_path       : 0\npending_favs   : 0\npending_total  : 0\nvariable_paths : 0\nbitmap_cvg     : 0.13%\nunique_crashes : 0\nunique_hangs   : 0\nlast_path      : 1500068614\nlast_crash     : 0\nlast_hang      : 0\nexec_timeout   : 20\nafl_banner     : fuzzer-master\nafl_version    : 1.85b\ncommand_line   : /home/skaramcheti/.virtualenvs/afl/bin/afl-unix/afl-fuzz -i /dev/shm/work/Packet_Analyzer/input -o /dev/shm/work/Packet_Analyzer/sync -m 4G -Q -M fuzzer-master -x /dev/shm/work/Packet_Analyzer/Packet_Analyzer.dict -- data/linux/processed-challenges/Packet_Analyzer/bin/Packet_Analyzer\n'
p89
I0
tp90
a(I5400
S'start_time     : 1500068613\nlast_update    : 1500074022\nfuzzer_pid     : 31321\ncycles_done    : 619\nexecs_done     : 6198274\nexecs_per_sec  : 1187.51\npaths_total    : 2\npaths_favored  : 2\npaths_found    : 1\npaths_imported : 0\nmax_depth      : 2\ncur_path       : 0\npending_favs   : 0\npending_total  : 0\nvariable_paths : 0\nbitmap_cvg     : 0.13%\nunique_crashes : 0\nunique_hangs   : 0\nlast_path      : 1500068614\nlast_crash     : 0\nlast_hang      : 0\nexec_timeout   : 20\nafl_banner     : fuzzer-master\nafl_version    : 1.85b\ncommand_line   : /home/skaramcheti/.virtualenvs/afl/bin/afl-unix/afl-fuzz -i /dev/shm/work/Packet_Analyzer/input -o /dev/shm/work/Packet_Analyzer/sync -m 4G -Q -M fuzzer-master -x /dev/shm/work/Packet_Analyzer/Packet_Analyzer.dict -- data/linux/processed-challenges/Packet_Analyzer/bin/Packet_Analyzer\n'
p91
I0
tp92
a(I5520
S'start_time     : 1500068613\nlast_update    : 1500074142\nfuzzer_pid     : 31321\ncycles_done    : 633\nexecs_done     : 6337863\nexecs_per_sec  : 1147.26\npaths_total    : 2\npaths_favored  : 2\npaths_found    : 1\npaths_imported : 0\nmax_depth      : 2\ncur_path       : 0\npending_favs   : 0\npending_total  : 0\nvariable_paths : 0\nbitmap_cvg     : 0.13%\nunique_crashes : 0\nunique_hangs   : 0\nlast_path      : 1500068614\nlast_crash     : 0\nlast_hang      : 0\nexec_timeout   : 20\nafl_banner     : fuzzer-master\nafl_version    : 1.85b\ncommand_line   : /home/skaramcheti/.virtualenvs/afl/bin/afl-unix/afl-fuzz -i /dev/shm/work/Packet_Analyzer/input -o /dev/shm/work/Packet_Analyzer/sync -m 4G -Q -M fuzzer-master -x /dev/shm/work/Packet_Analyzer/Packet_Analyzer.dict -- data/linux/processed-challenges/Packet_Analyzer/bin/Packet_Analyzer\n'
p93
I0
tp94
a(I5640
S'start_time     : 1500068613\nlast_update    : 1500074262\nfuzzer_pid     : 31321\ncycles_done    : 647\nexecs_done     : 6477768\nexecs_per_sec  : 1157.70\npaths_total    : 2\npaths_favored  : 2\npaths_found    : 1\npaths_imported : 0\nmax_depth      : 2\ncur_path       : 0\npending_favs   : 0\npending_total  : 0\nvariable_paths : 0\nbitmap_cvg     : 0.13%\nunique_crashes : 0\nunique_hangs   : 0\nlast_path      : 1500068614\nlast_crash     : 0\nlast_hang      : 0\nexec_timeout   : 20\nafl_banner     : fuzzer-master\nafl_version    : 1.85b\ncommand_line   : /home/skaramcheti/.virtualenvs/afl/bin/afl-unix/afl-fuzz -i /dev/shm/work/Packet_Analyzer/input -o /dev/shm/work/Packet_Analyzer/sync -m 4G -Q -M fuzzer-master -x /dev/shm/work/Packet_Analyzer/Packet_Analyzer.dict -- data/linux/processed-challenges/Packet_Analyzer/bin/Packet_Analyzer\n'
p95
I0
tp96
a(I5760
S'start_time     : 1500068613\nlast_update    : 1500074382\nfuzzer_pid     : 31321\ncycles_done    : 660\nexecs_done     : 6614623\nexecs_per_sec  : 1132.56\npaths_total    : 2\npaths_favored  : 2\npaths_found    : 1\npaths_imported : 0\nmax_depth      : 2\ncur_path       : 1\npending_favs   : 0\npending_total  : 0\nvariable_paths : 0\nbitmap_cvg     : 0.13%\nunique_crashes : 0\nunique_hangs   : 0\nlast_path      : 1500068614\nlast_crash     : 0\nlast_hang      : 0\nexec_timeout   : 20\nafl_banner     : fuzzer-master\nafl_version    : 1.85b\ncommand_line   : /home/skaramcheti/.virtualenvs/afl/bin/afl-unix/afl-fuzz -i /dev/shm/work/Packet_Analyzer/input -o /dev/shm/work/Packet_Analyzer/sync -m 4G -Q -M fuzzer-master -x /dev/shm/work/Packet_Analyzer/Packet_Analyzer.dict -- data/linux/processed-challenges/Packet_Analyzer/bin/Packet_Analyzer\n'
p97
I0
tp98
a(I5880
S'start_time     : 1500068613\nlast_update    : 1500074503\nfuzzer_pid     : 31321\ncycles_done    : 674\nexecs_done     : 6752391\nexecs_per_sec  : 1178.26\npaths_total    : 2\npaths_favored  : 2\npaths_found    : 1\npaths_imported : 0\nmax_depth      : 2\ncur_path       : 0\npending_favs   : 0\npending_total  : 0\nvariable_paths : 0\nbitmap_cvg     : 0.13%\nunique_crashes : 0\nunique_hangs   : 0\nlast_path      : 1500068614\nlast_crash     : 0\nlast_hang      : 0\nexec_timeout   : 20\nafl_banner     : fuzzer-master\nafl_version    : 1.85b\ncommand_line   : /home/skaramcheti/.virtualenvs/afl/bin/afl-unix/afl-fuzz -i /dev/shm/work/Packet_Analyzer/input -o /dev/shm/work/Packet_Analyzer/sync -m 4G -Q -M fuzzer-master -x /dev/shm/work/Packet_Analyzer/Packet_Analyzer.dict -- data/linux/processed-challenges/Packet_Analyzer/bin/Packet_Analyzer\n'
p99
I0
tp100
a(I6000
S'start_time     : 1500068613\nlast_update    : 1500074623\nfuzzer_pid     : 31321\ncycles_done    : 688\nexecs_done     : 6891163\nexecs_per_sec  : 1142.01\npaths_total    : 2\npaths_favored  : 2\npaths_found    : 1\npaths_imported : 0\nmax_depth      : 2\ncur_path       : 0\npending_favs   : 0\npending_total  : 0\nvariable_paths : 0\nbitmap_cvg     : 0.13%\nunique_crashes : 0\nunique_hangs   : 0\nlast_path      : 1500068614\nlast_crash     : 0\nlast_hang      : 0\nexec_timeout   : 20\nafl_banner     : fuzzer-master\nafl_version    : 1.85b\ncommand_line   : /home/skaramcheti/.virtualenvs/afl/bin/afl-unix/afl-fuzz -i /dev/shm/work/Packet_Analyzer/input -o /dev/shm/work/Packet_Analyzer/sync -m 4G -Q -M fuzzer-master -x /dev/shm/work/Packet_Analyzer/Packet_Analyzer.dict -- data/linux/processed-challenges/Packet_Analyzer/bin/Packet_Analyzer\n'
p101
I0
tp102
a(I6120
S'start_time     : 1500068613\nlast_update    : 1500074743\nfuzzer_pid     : 31321\ncycles_done    : 702\nexecs_done     : 7030482\nexecs_per_sec  : 1152.54\npaths_total    : 2\npaths_favored  : 2\npaths_found    : 1\npaths_imported : 0\nmax_depth      : 2\ncur_path       : 0\npending_favs   : 0\npending_total  : 0\nvariable_paths : 0\nbitmap_cvg     : 0.13%\nunique_crashes : 0\nunique_hangs   : 0\nlast_path      : 1500068614\nlast_crash     : 0\nlast_hang      : 0\nexec_timeout   : 20\nafl_banner     : fuzzer-master\nafl_version    : 1.85b\ncommand_line   : /home/skaramcheti/.virtualenvs/afl/bin/afl-unix/afl-fuzz -i /dev/shm/work/Packet_Analyzer/input -o /dev/shm/work/Packet_Analyzer/sync -m 4G -Q -M fuzzer-master -x /dev/shm/work/Packet_Analyzer/Packet_Analyzer.dict -- data/linux/processed-challenges/Packet_Analyzer/bin/Packet_Analyzer\n'
p103
I0
tp104
a(I6240
S'start_time     : 1500068613\nlast_update    : 1500074864\nfuzzer_pid     : 31321\ncycles_done    : 716\nexecs_done     : 7169171\nexecs_per_sec  : 1167.36\npaths_total    : 2\npaths_favored  : 2\npaths_found    : 1\npaths_imported : 0\nmax_depth      : 2\ncur_path       : 0\npending_favs   : 0\npending_total  : 0\nvariable_paths : 0\nbitmap_cvg     : 0.13%\nunique_crashes : 0\nunique_hangs   : 0\nlast_path      : 1500068614\nlast_crash     : 0\nlast_hang      : 0\nexec_timeout   : 20\nafl_banner     : fuzzer-master\nafl_version    : 1.85b\ncommand_line   : /home/skaramcheti/.virtualenvs/afl/bin/afl-unix/afl-fuzz -i /dev/shm/work/Packet_Analyzer/input -o /dev/shm/work/Packet_Analyzer/sync -m 4G -Q -M fuzzer-master -x /dev/shm/work/Packet_Analyzer/Packet_Analyzer.dict -- data/linux/processed-challenges/Packet_Analyzer/bin/Packet_Analyzer\n'
p105
I0
tp106
a(I6360
S'start_time     : 1500068613\nlast_update    : 1500074984\nfuzzer_pid     : 31321\ncycles_done    : 730\nexecs_done     : 7309309\nexecs_per_sec  : 1183.96\npaths_total    : 2\npaths_favored  : 2\npaths_found    : 1\npaths_imported : 0\nmax_depth      : 2\ncur_path       : 0\npending_favs   : 0\npending_total  : 0\nvariable_paths : 0\nbitmap_cvg     : 0.13%\nunique_crashes : 0\nunique_hangs   : 0\nlast_path      : 1500068614\nlast_crash     : 0\nlast_hang      : 0\nexec_timeout   : 20\nafl_banner     : fuzzer-master\nafl_version    : 1.85b\ncommand_line   : /home/skaramcheti/.virtualenvs/afl/bin/afl-unix/afl-fuzz -i /dev/shm/work/Packet_Analyzer/input -o /dev/shm/work/Packet_Analyzer/sync -m 4G -Q -M fuzzer-master -x /dev/shm/work/Packet_Analyzer/Packet_Analyzer.dict -- data/linux/processed-challenges/Packet_Analyzer/bin/Packet_Analyzer\n'
p107
I0
tp108
a(I6480
S'start_time     : 1500068613\nlast_update    : 1500075104\nfuzzer_pid     : 31321\ncycles_done    : 744\nexecs_done     : 7449378\nexecs_per_sec  : 1150.12\npaths_total    : 2\npaths_favored  : 2\npaths_found    : 1\npaths_imported : 0\nmax_depth      : 2\ncur_path       : 0\npending_favs   : 0\npending_total  : 0\nvariable_paths : 0\nbitmap_cvg     : 0.13%\nunique_crashes : 0\nunique_hangs   : 0\nlast_path      : 1500068614\nlast_crash     : 0\nlast_hang      : 0\nexec_timeout   : 20\nafl_banner     : fuzzer-master\nafl_version    : 1.85b\ncommand_line   : /home/skaramcheti/.virtualenvs/afl/bin/afl-unix/afl-fuzz -i /dev/shm/work/Packet_Analyzer/input -o /dev/shm/work/Packet_Analyzer/sync -m 4G -Q -M fuzzer-master -x /dev/shm/work/Packet_Analyzer/Packet_Analyzer.dict -- data/linux/processed-challenges/Packet_Analyzer/bin/Packet_Analyzer\n'
p109
I0
tp110
a(I6600
S'start_time     : 1500068613\nlast_update    : 1500075224\nfuzzer_pid     : 31321\ncycles_done    : 758\nexecs_done     : 7588872\nexecs_per_sec  : 1179.65\npaths_total    : 2\npaths_favored  : 2\npaths_found    : 1\npaths_imported : 0\nmax_depth      : 2\ncur_path       : 0\npending_favs   : 0\npending_total  : 0\nvariable_paths : 0\nbitmap_cvg     : 0.13%\nunique_crashes : 0\nunique_hangs   : 1\nlast_path      : 1500068614\nlast_crash     : 0\nlast_hang      : 1500075117\nexec_timeout   : 20\nafl_banner     : fuzzer-master\nafl_version    : 1.85b\ncommand_line   : /home/skaramcheti/.virtualenvs/afl/bin/afl-unix/afl-fuzz -i /dev/shm/work/Packet_Analyzer/input -o /dev/shm/work/Packet_Analyzer/sync -m 4G -Q -M fuzzer-master -x /dev/shm/work/Packet_Analyzer/Packet_Analyzer.dict -- data/linux/processed-challenges/Packet_Analyzer/bin/Packet_Analyzer\n'
p111
I0
tp112
a(I6720
S'start_time     : 1500068613\nlast_update    : 1500075344\nfuzzer_pid     : 31321\ncycles_done    : 771\nexecs_done     : 7727241\nexecs_per_sec  : 1120.99\npaths_total    : 2\npaths_favored  : 2\npaths_found    : 1\npaths_imported : 0\nmax_depth      : 2\ncur_path       : 1\npending_favs   : 0\npending_total  : 0\nvariable_paths : 0\nbitmap_cvg     : 0.13%\nunique_crashes : 0\nunique_hangs   : 1\nlast_path      : 1500068614\nlast_crash     : 0\nlast_hang      : 1500075117\nexec_timeout   : 20\nafl_banner     : fuzzer-master\nafl_version    : 1.85b\ncommand_line   : /home/skaramcheti/.virtualenvs/afl/bin/afl-unix/afl-fuzz -i /dev/shm/work/Packet_Analyzer/input -o /dev/shm/work/Packet_Analyzer/sync -m 4G -Q -M fuzzer-master -x /dev/shm/work/Packet_Analyzer/Packet_Analyzer.dict -- data/linux/processed-challenges/Packet_Analyzer/bin/Packet_Analyzer\n'
p113
I0
tp114
a(I6840
S'start_time     : 1500068613\nlast_update    : 1500075464\nfuzzer_pid     : 31321\ncycles_done    : 785\nexecs_done     : 7866287\nexecs_per_sec  : 1152.73\npaths_total    : 2\npaths_favored  : 2\npaths_found    : 1\npaths_imported : 0\nmax_depth      : 2\ncur_path       : 1\npending_favs   : 0\npending_total  : 0\nvariable_paths : 0\nbitmap_cvg     : 0.13%\nunique_crashes : 0\nunique_hangs   : 1\nlast_path      : 1500068614\nlast_crash     : 0\nlast_hang      : 1500075117\nexec_timeout   : 20\nafl_banner     : fuzzer-master\nafl_version    : 1.85b\ncommand_line   : /home/skaramcheti/.virtualenvs/afl/bin/afl-unix/afl-fuzz -i /dev/shm/work/Packet_Analyzer/input -o /dev/shm/work/Packet_Analyzer/sync -m 4G -Q -M fuzzer-master -x /dev/shm/work/Packet_Analyzer/Packet_Analyzer.dict -- data/linux/processed-challenges/Packet_Analyzer/bin/Packet_Analyzer\n'
p115
I0
tp116
a(I6960
S'start_time     : 1500068613\nlast_update    : 1500075525\nfuzzer_pid     : 31321\ncycles_done    : 792\nexecs_done     : 7935873\nexecs_per_sec  : 1167.86\npaths_total    : 2\npaths_favored  : 2\npaths_found    : 1\npaths_imported : 0\nmax_depth      : 2\ncur_path       : 1\npending_favs   : 0\npending_total  : 0\nvariable_paths : 0\nbitmap_cvg     : 0.13%\nunique_crashes : 0\nunique_hangs   : 1\nlast_path      : 1500068614\nlast_crash     : 0\nlast_hang      : 1500075117\nexec_timeout   : 20\nafl_banner     : fuzzer-master\nafl_version    : 1.85b\ncommand_line   : /home/skaramcheti/.virtualenvs/afl/bin/afl-unix/afl-fuzz -i /dev/shm/work/Packet_Analyzer/input -o /dev/shm/work/Packet_Analyzer/sync -m 4G -Q -M fuzzer-master -x /dev/shm/work/Packet_Analyzer/Packet_Analyzer.dict -- data/linux/processed-challenges/Packet_Analyzer/bin/Packet_Analyzer\n'
p117
I0
tp118
a(I7080
S'start_time     : 1500068613\nlast_update    : 1500075645\nfuzzer_pid     : 31321\ncycles_done    : 806\nexecs_done     : 8074777\nexecs_per_sec  : 1144.60\npaths_total    : 2\npaths_favored  : 2\npaths_found    : 1\npaths_imported : 0\nmax_depth      : 2\ncur_path       : 1\npending_favs   : 0\npending_total  : 0\nvariable_paths : 0\nbitmap_cvg     : 0.13%\nunique_crashes : 0\nunique_hangs   : 1\nlast_path      : 1500068614\nlast_crash     : 0\nlast_hang      : 1500075117\nexec_timeout   : 20\nafl_banner     : fuzzer-master\nafl_version    : 1.85b\ncommand_line   : /home/skaramcheti/.virtualenvs/afl/bin/afl-unix/afl-fuzz -i /dev/shm/work/Packet_Analyzer/input -o /dev/shm/work/Packet_Analyzer/sync -m 4G -Q -M fuzzer-master -x /dev/shm/work/Packet_Analyzer/Packet_Analyzer.dict -- data/linux/processed-challenges/Packet_Analyzer/bin/Packet_Analyzer\n'
p119
I0
tp120
a(I7200
S'start_time     : 1500068613\nlast_update    : 1500075765\nfuzzer_pid     : 31321\ncycles_done    : 820\nexecs_done     : 8213391\nexecs_per_sec  : 1138.93\npaths_total    : 2\npaths_favored  : 2\npaths_found    : 1\npaths_imported : 0\nmax_depth      : 2\ncur_path       : 1\npending_favs   : 0\npending_total  : 0\nvariable_paths : 0\nbitmap_cvg     : 0.13%\nunique_crashes : 0\nunique_hangs   : 1\nlast_path      : 1500068614\nlast_crash     : 0\nlast_hang      : 1500075117\nexec_timeout   : 20\nafl_banner     : fuzzer-master\nafl_version    : 1.85b\ncommand_line   : /home/skaramcheti/.virtualenvs/afl/bin/afl-unix/afl-fuzz -i /dev/shm/work/Packet_Analyzer/input -o /dev/shm/work/Packet_Analyzer/sync -m 4G -Q -M fuzzer-master -x /dev/shm/work/Packet_Analyzer/Packet_Analyzer.dict -- data/linux/processed-challenges/Packet_Analyzer/bin/Packet_Analyzer\n'
p121
I0
tp122
a(I7320
S'start_time     : 1500068613\nlast_update    : 1500075885\nfuzzer_pid     : 31321\ncycles_done    : 834\nexecs_done     : 8355344\nexecs_per_sec  : 1192.56\npaths_total    : 2\npaths_favored  : 2\npaths_found    : 1\npaths_imported : 0\nmax_depth      : 2\ncur_path       : 1\npending_favs   : 0\npending_total  : 0\nvariable_paths : 0\nbitmap_cvg     : 0.13%\nunique_crashes : 0\nunique_hangs   : 1\nlast_path      : 1500068614\nlast_crash     : 0\nlast_hang      : 1500075117\nexec_timeout   : 20\nafl_banner     : fuzzer-master\nafl_version    : 1.85b\ncommand_line   : /home/skaramcheti/.virtualenvs/afl/bin/afl-unix/afl-fuzz -i /dev/shm/work/Packet_Analyzer/input -o /dev/shm/work/Packet_Analyzer/sync -m 4G -Q -M fuzzer-master -x /dev/shm/work/Packet_Analyzer/Packet_Analyzer.dict -- data/linux/processed-challenges/Packet_Analyzer/bin/Packet_Analyzer\n'
p123
I0
tp124
a(I7440
S'start_time     : 1500068613\nlast_update    : 1500076005\nfuzzer_pid     : 31321\ncycles_done    : 848\nexecs_done     : 8495436\nexecs_per_sec  : 1179.32\npaths_total    : 2\npaths_favored  : 2\npaths_found    : 1\npaths_imported : 0\nmax_depth      : 2\ncur_path       : 1\npending_favs   : 0\npending_total  : 0\nvariable_paths : 0\nbitmap_cvg     : 0.13%\nunique_crashes : 0\nunique_hangs   : 1\nlast_path      : 1500068614\nlast_crash     : 0\nlast_hang      : 1500075117\nexec_timeout   : 20\nafl_banner     : fuzzer-master\nafl_version    : 1.85b\ncommand_line   : /home/skaramcheti/.virtualenvs/afl/bin/afl-unix/afl-fuzz -i /dev/shm/work/Packet_Analyzer/input -o /dev/shm/work/Packet_Analyzer/sync -m 4G -Q -M fuzzer-master -x /dev/shm/work/Packet_Analyzer/Packet_Analyzer.dict -- data/linux/processed-challenges/Packet_Analyzer/bin/Packet_Analyzer\n'
p125
I0
tp126
a(I7560
S'start_time     : 1500068613\nlast_update    : 1500076126\nfuzzer_pid     : 31321\ncycles_done    : 862\nexecs_done     : 8637391\nexecs_per_sec  : 1173.68\npaths_total    : 2\npaths_favored  : 2\npaths_found    : 1\npaths_imported : 0\nmax_depth      : 2\ncur_path       : 1\npending_favs   : 0\npending_total  : 0\nvariable_paths : 0\nbitmap_cvg     : 0.13%\nunique_crashes : 0\nunique_hangs   : 1\nlast_path      : 1500068614\nlast_crash     : 0\nlast_hang      : 1500075117\nexec_timeout   : 20\nafl_banner     : fuzzer-master\nafl_version    : 1.85b\ncommand_line   : /home/skaramcheti/.virtualenvs/afl/bin/afl-unix/afl-fuzz -i /dev/shm/work/Packet_Analyzer/input -o /dev/shm/work/Packet_Analyzer/sync -m 4G -Q -M fuzzer-master -x /dev/shm/work/Packet_Analyzer/Packet_Analyzer.dict -- data/linux/processed-challenges/Packet_Analyzer/bin/Packet_Analyzer\n'
p127
I0
tp128
a(I7680
S'start_time     : 1500068613\nlast_update    : 1500076246\nfuzzer_pid     : 31321\ncycles_done    : 877\nexecs_done     : 8777469\nexecs_per_sec  : 1164.02\npaths_total    : 2\npaths_favored  : 2\npaths_found    : 1\npaths_imported : 0\nmax_depth      : 2\ncur_path       : 0\npending_favs   : 0\npending_total  : 0\nvariable_paths : 0\nbitmap_cvg     : 0.13%\nunique_crashes : 0\nunique_hangs   : 1\nlast_path      : 1500068614\nlast_crash     : 0\nlast_hang      : 1500075117\nexec_timeout   : 20\nafl_banner     : fuzzer-master\nafl_version    : 1.85b\ncommand_line   : /home/skaramcheti/.virtualenvs/afl/bin/afl-unix/afl-fuzz -i /dev/shm/work/Packet_Analyzer/input -o /dev/shm/work/Packet_Analyzer/sync -m 4G -Q -M fuzzer-master -x /dev/shm/work/Packet_Analyzer/Packet_Analyzer.dict -- data/linux/processed-challenges/Packet_Analyzer/bin/Packet_Analyzer\n'
p129
I0
tp130
a(I7800
S'start_time     : 1500068613\nlast_update    : 1500076366\nfuzzer_pid     : 31321\ncycles_done    : 890\nexecs_done     : 8916678\nexecs_per_sec  : 1202.09\npaths_total    : 2\npaths_favored  : 2\npaths_found    : 1\npaths_imported : 0\nmax_depth      : 2\ncur_path       : 1\npending_favs   : 0\npending_total  : 0\nvariable_paths : 0\nbitmap_cvg     : 0.13%\nunique_crashes : 0\nunique_hangs   : 1\nlast_path      : 1500068614\nlast_crash     : 0\nlast_hang      : 1500075117\nexec_timeout   : 20\nafl_banner     : fuzzer-master\nafl_version    : 1.85b\ncommand_line   : /home/skaramcheti/.virtualenvs/afl/bin/afl-unix/afl-fuzz -i /dev/shm/work/Packet_Analyzer/input -o /dev/shm/work/Packet_Analyzer/sync -m 4G -Q -M fuzzer-master -x /dev/shm/work/Packet_Analyzer/Packet_Analyzer.dict -- data/linux/processed-challenges/Packet_Analyzer/bin/Packet_Analyzer\n'
p131
I0
tp132
a(I7920
S'start_time     : 1500068613\nlast_update    : 1500076486\nfuzzer_pid     : 31321\ncycles_done    : 904\nexecs_done     : 9056356\nexecs_per_sec  : 1146.73\npaths_total    : 2\npaths_favored  : 2\npaths_found    : 1\npaths_imported : 0\nmax_depth      : 2\ncur_path       : 1\npending_favs   : 0\npending_total  : 0\nvariable_paths : 0\nbitmap_cvg     : 0.13%\nunique_crashes : 0\nunique_hangs   : 1\nlast_path      : 1500068614\nlast_crash     : 0\nlast_hang      : 1500075117\nexec_timeout   : 20\nafl_banner     : fuzzer-master\nafl_version    : 1.85b\ncommand_line   : /home/skaramcheti/.virtualenvs/afl/bin/afl-unix/afl-fuzz -i /dev/shm/work/Packet_Analyzer/input -o /dev/shm/work/Packet_Analyzer/sync -m 4G -Q -M fuzzer-master -x /dev/shm/work/Packet_Analyzer/Packet_Analyzer.dict -- data/linux/processed-challenges/Packet_Analyzer/bin/Packet_Analyzer\n'
p133
I0
tp134
a(I8040
S'start_time     : 1500068613\nlast_update    : 1500076607\nfuzzer_pid     : 31321\ncycles_done    : 918\nexecs_done     : 9193413\nexecs_per_sec  : 1119.00\npaths_total    : 2\npaths_favored  : 2\npaths_found    : 1\npaths_imported : 0\nmax_depth      : 2\ncur_path       : 1\npending_favs   : 0\npending_total  : 0\nvariable_paths : 0\nbitmap_cvg     : 0.13%\nunique_crashes : 0\nunique_hangs   : 1\nlast_path      : 1500068614\nlast_crash     : 0\nlast_hang      : 1500075117\nexec_timeout   : 20\nafl_banner     : fuzzer-master\nafl_version    : 1.85b\ncommand_line   : /home/skaramcheti/.virtualenvs/afl/bin/afl-unix/afl-fuzz -i /dev/shm/work/Packet_Analyzer/input -o /dev/shm/work/Packet_Analyzer/sync -m 4G -Q -M fuzzer-master -x /dev/shm/work/Packet_Analyzer/Packet_Analyzer.dict -- data/linux/processed-challenges/Packet_Analyzer/bin/Packet_Analyzer\n'
p135
I0
tp136
a(I8160
S'start_time     : 1500068613\nlast_update    : 1500076727\nfuzzer_pid     : 31321\ncycles_done    : 932\nexecs_done     : 9337000\nexecs_per_sec  : 1190.57\npaths_total    : 2\npaths_favored  : 2\npaths_found    : 1\npaths_imported : 0\nmax_depth      : 2\ncur_path       : 1\npending_favs   : 0\npending_total  : 0\nvariable_paths : 0\nbitmap_cvg     : 0.13%\nunique_crashes : 0\nunique_hangs   : 1\nlast_path      : 1500068614\nlast_crash     : 0\nlast_hang      : 1500075117\nexec_timeout   : 20\nafl_banner     : fuzzer-master\nafl_version    : 1.85b\ncommand_line   : /home/skaramcheti/.virtualenvs/afl/bin/afl-unix/afl-fuzz -i /dev/shm/work/Packet_Analyzer/input -o /dev/shm/work/Packet_Analyzer/sync -m 4G -Q -M fuzzer-master -x /dev/shm/work/Packet_Analyzer/Packet_Analyzer.dict -- data/linux/processed-challenges/Packet_Analyzer/bin/Packet_Analyzer\n'
p137
I0
tp138
a(I8280
S'start_time     : 1500068613\nlast_update    : 1500076847\nfuzzer_pid     : 31321\ncycles_done    : 947\nexecs_done     : 9478412\nexecs_per_sec  : 1167.39\npaths_total    : 2\npaths_favored  : 2\npaths_found    : 1\npaths_imported : 0\nmax_depth      : 2\ncur_path       : 0\npending_favs   : 0\npending_total  : 0\nvariable_paths : 0\nbitmap_cvg     : 0.13%\nunique_crashes : 0\nunique_hangs   : 1\nlast_path      : 1500068614\nlast_crash     : 0\nlast_hang      : 1500075117\nexec_timeout   : 20\nafl_banner     : fuzzer-master\nafl_version    : 1.85b\ncommand_line   : /home/skaramcheti/.virtualenvs/afl/bin/afl-unix/afl-fuzz -i /dev/shm/work/Packet_Analyzer/input -o /dev/shm/work/Packet_Analyzer/sync -m 4G -Q -M fuzzer-master -x /dev/shm/work/Packet_Analyzer/Packet_Analyzer.dict -- data/linux/processed-challenges/Packet_Analyzer/bin/Packet_Analyzer\n'
p139
I0
tp140
a(I8400
S'start_time     : 1500068613\nlast_update    : 1500076967\nfuzzer_pid     : 31321\ncycles_done    : 961\nexecs_done     : 9619838\nexecs_per_sec  : 1156.31\npaths_total    : 2\npaths_favored  : 2\npaths_found    : 1\npaths_imported : 0\nmax_depth      : 2\ncur_path       : 0\npending_favs   : 0\npending_total  : 0\nvariable_paths : 0\nbitmap_cvg     : 0.13%\nunique_crashes : 0\nunique_hangs   : 1\nlast_path      : 1500068614\nlast_crash     : 0\nlast_hang      : 1500075117\nexec_timeout   : 20\nafl_banner     : fuzzer-master\nafl_version    : 1.85b\ncommand_line   : /home/skaramcheti/.virtualenvs/afl/bin/afl-unix/afl-fuzz -i /dev/shm/work/Packet_Analyzer/input -o /dev/shm/work/Packet_Analyzer/sync -m 4G -Q -M fuzzer-master -x /dev/shm/work/Packet_Analyzer/Packet_Analyzer.dict -- data/linux/processed-challenges/Packet_Analyzer/bin/Packet_Analyzer\n'
p141
I0
tp142
a(I8520
S'start_time     : 1500068613\nlast_update    : 1500077088\nfuzzer_pid     : 31321\ncycles_done    : 975\nexecs_done     : 9758711\nexecs_per_sec  : 1178.34\npaths_total    : 2\npaths_favored  : 2\npaths_found    : 1\npaths_imported : 0\nmax_depth      : 2\ncur_path       : 0\npending_favs   : 0\npending_total  : 0\nvariable_paths : 0\nbitmap_cvg     : 0.13%\nunique_crashes : 0\nunique_hangs   : 1\nlast_path      : 1500068614\nlast_crash     : 0\nlast_hang      : 1500075117\nexec_timeout   : 20\nafl_banner     : fuzzer-master\nafl_version    : 1.85b\ncommand_line   : /home/skaramcheti/.virtualenvs/afl/bin/afl-unix/afl-fuzz -i /dev/shm/work/Packet_Analyzer/input -o /dev/shm/work/Packet_Analyzer/sync -m 4G -Q -M fuzzer-master -x /dev/shm/work/Packet_Analyzer/Packet_Analyzer.dict -- data/linux/processed-challenges/Packet_Analyzer/bin/Packet_Analyzer\n'
p143
I0
tp144
a(I8640
S'start_time     : 1500068613\nlast_update    : 1500077208\nfuzzer_pid     : 31321\ncycles_done    : 989\nexecs_done     : 9899654\nexecs_per_sec  : 1166.44\npaths_total    : 2\npaths_favored  : 2\npaths_found    : 1\npaths_imported : 0\nmax_depth      : 2\ncur_path       : 0\npending_favs   : 0\npending_total  : 0\nvariable_paths : 0\nbitmap_cvg     : 0.13%\nunique_crashes : 0\nunique_hangs   : 1\nlast_path      : 1500068614\nlast_crash     : 0\nlast_hang      : 1500075117\nexec_timeout   : 20\nafl_banner     : fuzzer-master\nafl_version    : 1.85b\ncommand_line   : /home/skaramcheti/.virtualenvs/afl/bin/afl-unix/afl-fuzz -i /dev/shm/work/Packet_Analyzer/input -o /dev/shm/work/Packet_Analyzer/sync -m 4G -Q -M fuzzer-master -x /dev/shm/work/Packet_Analyzer/Packet_Analyzer.dict -- data/linux/processed-challenges/Packet_Analyzer/bin/Packet_Analyzer\n'
p145
I0
tp146
a(I8760
S'start_time     : 1500068613\nlast_update    : 1500077328\nfuzzer_pid     : 31321\ncycles_done    : 1003\nexecs_done     : 10039447\nexecs_per_sec  : 1152.58\npaths_total    : 2\npaths_favored  : 2\npaths_found    : 1\npaths_imported : 0\nmax_depth      : 2\ncur_path       : 0\npending_favs   : 0\npending_total  : 0\nvariable_paths : 0\nbitmap_cvg     : 0.13%\nunique_crashes : 0\nunique_hangs   : 1\nlast_path      : 1500068614\nlast_crash     : 0\nlast_hang      : 1500075117\nexec_timeout   : 20\nafl_banner     : fuzzer-master\nafl_version    : 1.85b\ncommand_line   : /home/skaramcheti/.virtualenvs/afl/bin/afl-unix/afl-fuzz -i /dev/shm/work/Packet_Analyzer/input -o /dev/shm/work/Packet_Analyzer/sync -m 4G -Q -M fuzzer-master -x /dev/shm/work/Packet_Analyzer/Packet_Analyzer.dict -- data/linux/processed-challenges/Packet_Analyzer/bin/Packet_Analyzer\n'
p147
I0
tp148
a(I8880
S'start_time     : 1500068613\nlast_update    : 1500077448\nfuzzer_pid     : 31321\ncycles_done    : 1017\nexecs_done     : 10179102\nexecs_per_sec  : 1156.27\npaths_total    : 2\npaths_favored  : 2\npaths_found    : 1\npaths_imported : 0\nmax_depth      : 2\ncur_path       : 0\npending_favs   : 0\npending_total  : 0\nvariable_paths : 0\nbitmap_cvg     : 0.13%\nunique_crashes : 0\nunique_hangs   : 1\nlast_path      : 1500068614\nlast_crash     : 0\nlast_hang      : 1500075117\nexec_timeout   : 20\nafl_banner     : fuzzer-master\nafl_version    : 1.85b\ncommand_line   : /home/skaramcheti/.virtualenvs/afl/bin/afl-unix/afl-fuzz -i /dev/shm/work/Packet_Analyzer/input -o /dev/shm/work/Packet_Analyzer/sync -m 4G -Q -M fuzzer-master -x /dev/shm/work/Packet_Analyzer/Packet_Analyzer.dict -- data/linux/processed-challenges/Packet_Analyzer/bin/Packet_Analyzer\n'
p149
I0
tp150
a(I9000
S'start_time     : 1500068613\nlast_update    : 1500077568\nfuzzer_pid     : 31321\ncycles_done    : 1030\nexecs_done     : 10317207\nexecs_per_sec  : 1165.24\npaths_total    : 2\npaths_favored  : 2\npaths_found    : 1\npaths_imported : 0\nmax_depth      : 2\ncur_path       : 1\npending_favs   : 0\npending_total  : 0\nvariable_paths : 0\nbitmap_cvg     : 0.13%\nunique_crashes : 0\nunique_hangs   : 1\nlast_path      : 1500068614\nlast_crash     : 0\nlast_hang      : 1500075117\nexec_timeout   : 20\nafl_banner     : fuzzer-master\nafl_version    : 1.85b\ncommand_line   : /home/skaramcheti/.virtualenvs/afl/bin/afl-unix/afl-fuzz -i /dev/shm/work/Packet_Analyzer/input -o /dev/shm/work/Packet_Analyzer/sync -m 4G -Q -M fuzzer-master -x /dev/shm/work/Packet_Analyzer/Packet_Analyzer.dict -- data/linux/processed-challenges/Packet_Analyzer/bin/Packet_Analyzer\n'
p151
I0
tp152
a(I9120
S'start_time     : 1500068613\nlast_update    : 1500077689\nfuzzer_pid     : 31321\ncycles_done    : 1044\nexecs_done     : 10456493\nexecs_per_sec  : 1138.80\npaths_total    : 2\npaths_favored  : 2\npaths_found    : 1\npaths_imported : 0\nmax_depth      : 2\ncur_path       : 1\npending_favs   : 0\npending_total  : 0\nvariable_paths : 0\nbitmap_cvg     : 0.13%\nunique_crashes : 0\nunique_hangs   : 1\nlast_path      : 1500068614\nlast_crash     : 0\nlast_hang      : 1500075117\nexec_timeout   : 20\nafl_banner     : fuzzer-master\nafl_version    : 1.85b\ncommand_line   : /home/skaramcheti/.virtualenvs/afl/bin/afl-unix/afl-fuzz -i /dev/shm/work/Packet_Analyzer/input -o /dev/shm/work/Packet_Analyzer/sync -m 4G -Q -M fuzzer-master -x /dev/shm/work/Packet_Analyzer/Packet_Analyzer.dict -- data/linux/processed-challenges/Packet_Analyzer/bin/Packet_Analyzer\n'
p153
I0
tp154
a(I9240
S'start_time     : 1500068613\nlast_update    : 1500077809\nfuzzer_pid     : 31321\ncycles_done    : 1058\nexecs_done     : 10593633\nexecs_per_sec  : 1120.99\npaths_total    : 2\npaths_favored  : 2\npaths_found    : 1\npaths_imported : 0\nmax_depth      : 2\ncur_path       : 1\npending_favs   : 0\npending_total  : 0\nvariable_paths : 0\nbitmap_cvg     : 0.13%\nunique_crashes : 0\nunique_hangs   : 1\nlast_path      : 1500068614\nlast_crash     : 0\nlast_hang      : 1500075117\nexec_timeout   : 20\nafl_banner     : fuzzer-master\nafl_version    : 1.85b\ncommand_line   : /home/skaramcheti/.virtualenvs/afl/bin/afl-unix/afl-fuzz -i /dev/shm/work/Packet_Analyzer/input -o /dev/shm/work/Packet_Analyzer/sync -m 4G -Q -M fuzzer-master -x /dev/shm/work/Packet_Analyzer/Packet_Analyzer.dict -- data/linux/processed-challenges/Packet_Analyzer/bin/Packet_Analyzer\n'
p155
I0
tp156
a(I9360
S'start_time     : 1500068613\nlast_update    : 1500077929\nfuzzer_pid     : 31321\ncycles_done    : 1072\nexecs_done     : 10731537\nexecs_per_sec  : 1145.12\npaths_total    : 2\npaths_favored  : 2\npaths_found    : 1\npaths_imported : 0\nmax_depth      : 2\ncur_path       : 0\npending_favs   : 0\npending_total  : 0\nvariable_paths : 0\nbitmap_cvg     : 0.13%\nunique_crashes : 0\nunique_hangs   : 1\nlast_path      : 1500068614\nlast_crash     : 0\nlast_hang      : 1500075117\nexec_timeout   : 20\nafl_banner     : fuzzer-master\nafl_version    : 1.85b\ncommand_line   : /home/skaramcheti/.virtualenvs/afl/bin/afl-unix/afl-fuzz -i /dev/shm/work/Packet_Analyzer/input -o /dev/shm/work/Packet_Analyzer/sync -m 4G -Q -M fuzzer-master -x /dev/shm/work/Packet_Analyzer/Packet_Analyzer.dict -- data/linux/processed-challenges/Packet_Analyzer/bin/Packet_Analyzer\n'
p157
I0
tp158
a(I9480
S'start_time     : 1500068613\nlast_update    : 1500078050\nfuzzer_pid     : 31321\ncycles_done    : 1086\nexecs_done     : 10869073\nexecs_per_sec  : 1140.15\npaths_total    : 2\npaths_favored  : 2\npaths_found    : 1\npaths_imported : 0\nmax_depth      : 2\ncur_path       : 0\npending_favs   : 0\npending_total  : 0\nvariable_paths : 0\nbitmap_cvg     : 0.13%\nunique_crashes : 0\nunique_hangs   : 1\nlast_path      : 1500068614\nlast_crash     : 0\nlast_hang      : 1500075117\nexec_timeout   : 20\nafl_banner     : fuzzer-master\nafl_version    : 1.85b\ncommand_line   : /home/skaramcheti/.virtualenvs/afl/bin/afl-unix/afl-fuzz -i /dev/shm/work/Packet_Analyzer/input -o /dev/shm/work/Packet_Analyzer/sync -m 4G -Q -M fuzzer-master -x /dev/shm/work/Packet_Analyzer/Packet_Analyzer.dict -- data/linux/processed-challenges/Packet_Analyzer/bin/Packet_Analyzer\n'
p159
I0
tp160
a(I9600
S'start_time     : 1500068613\nlast_update    : 1500078170\nfuzzer_pid     : 31321\ncycles_done    : 1099\nexecs_done     : 11005811\nexecs_per_sec  : 1154.96\npaths_total    : 2\npaths_favored  : 2\npaths_found    : 1\npaths_imported : 0\nmax_depth      : 2\ncur_path       : 1\npending_favs   : 0\npending_total  : 0\nvariable_paths : 0\nbitmap_cvg     : 0.13%\nunique_crashes : 0\nunique_hangs   : 1\nlast_path      : 1500068614\nlast_crash     : 0\nlast_hang      : 1500075117\nexec_timeout   : 20\nafl_banner     : fuzzer-master\nafl_version    : 1.85b\ncommand_line   : /home/skaramcheti/.virtualenvs/afl/bin/afl-unix/afl-fuzz -i /dev/shm/work/Packet_Analyzer/input -o /dev/shm/work/Packet_Analyzer/sync -m 4G -Q -M fuzzer-master -x /dev/shm/work/Packet_Analyzer/Packet_Analyzer.dict -- data/linux/processed-challenges/Packet_Analyzer/bin/Packet_Analyzer\n'
p161
I0
tp162
a(I9720
S'start_time     : 1500068613\nlast_update    : 1500078290\nfuzzer_pid     : 31321\ncycles_done    : 1113\nexecs_done     : 11145022\nexecs_per_sec  : 1168.09\npaths_total    : 2\npaths_favored  : 2\npaths_found    : 1\npaths_imported : 0\nmax_depth      : 2\ncur_path       : 1\npending_favs   : 0\npending_total  : 0\nvariable_paths : 0\nbitmap_cvg     : 0.13%\nunique_crashes : 0\nunique_hangs   : 2\nlast_path      : 1500068614\nlast_crash     : 0\nlast_hang      : 1500078172\nexec_timeout   : 20\nafl_banner     : fuzzer-master\nafl_version    : 1.85b\ncommand_line   : /home/skaramcheti/.virtualenvs/afl/bin/afl-unix/afl-fuzz -i /dev/shm/work/Packet_Analyzer/input -o /dev/shm/work/Packet_Analyzer/sync -m 4G -Q -M fuzzer-master -x /dev/shm/work/Packet_Analyzer/Packet_Analyzer.dict -- data/linux/processed-challenges/Packet_Analyzer/bin/Packet_Analyzer\n'
p163
I0
tp164
a(I9840
S'start_time     : 1500068613\nlast_update    : 1500078410\nfuzzer_pid     : 31321\ncycles_done    : 1127\nexecs_done     : 11282219\nexecs_per_sec  : 1114.91\npaths_total    : 2\npaths_favored  : 2\npaths_found    : 1\npaths_imported : 0\nmax_depth      : 2\ncur_path       : 0\npending_favs   : 0\npending_total  : 0\nvariable_paths : 0\nbitmap_cvg     : 0.13%\nunique_crashes : 0\nunique_hangs   : 2\nlast_path      : 1500068614\nlast_crash     : 0\nlast_hang      : 1500078172\nexec_timeout   : 20\nafl_banner     : fuzzer-master\nafl_version    : 1.85b\ncommand_line   : /home/skaramcheti/.virtualenvs/afl/bin/afl-unix/afl-fuzz -i /dev/shm/work/Packet_Analyzer/input -o /dev/shm/work/Packet_Analyzer/sync -m 4G -Q -M fuzzer-master -x /dev/shm/work/Packet_Analyzer/Packet_Analyzer.dict -- data/linux/processed-challenges/Packet_Analyzer/bin/Packet_Analyzer\n'
p165
I0
tp166
a(I9960
S'start_time     : 1500068613\nlast_update    : 1500078530\nfuzzer_pid     : 31321\ncycles_done    : 1141\nexecs_done     : 11419125\nexecs_per_sec  : 1152.99\npaths_total    : 2\npaths_favored  : 2\npaths_found    : 1\npaths_imported : 0\nmax_depth      : 2\ncur_path       : 0\npending_favs   : 0\npending_total  : 0\nvariable_paths : 0\nbitmap_cvg     : 0.13%\nunique_crashes : 0\nunique_hangs   : 2\nlast_path      : 1500068614\nlast_crash     : 0\nlast_hang      : 1500078172\nexec_timeout   : 20\nafl_banner     : fuzzer-master\nafl_version    : 1.85b\ncommand_line   : /home/skaramcheti/.virtualenvs/afl/bin/afl-unix/afl-fuzz -i /dev/shm/work/Packet_Analyzer/input -o /dev/shm/work/Packet_Analyzer/sync -m 4G -Q -M fuzzer-master -x /dev/shm/work/Packet_Analyzer/Packet_Analyzer.dict -- data/linux/processed-challenges/Packet_Analyzer/bin/Packet_Analyzer\n'
p167
I0
tp168
a(I10080
S'start_time     : 1500068613\nlast_update    : 1500078651\nfuzzer_pid     : 31321\ncycles_done    : 1154\nexecs_done     : 11554667\nexecs_per_sec  : 1113.16\npaths_total    : 2\npaths_favored  : 2\npaths_found    : 1\npaths_imported : 0\nmax_depth      : 2\ncur_path       : 1\npending_favs   : 0\npending_total  : 0\nvariable_paths : 0\nbitmap_cvg     : 0.13%\nunique_crashes : 0\nunique_hangs   : 3\nlast_path      : 1500068614\nlast_crash     : 0\nlast_hang      : 1500078601\nexec_timeout   : 20\nafl_banner     : fuzzer-master\nafl_version    : 1.85b\ncommand_line   : /home/skaramcheti/.virtualenvs/afl/bin/afl-unix/afl-fuzz -i /dev/shm/work/Packet_Analyzer/input -o /dev/shm/work/Packet_Analyzer/sync -m 4G -Q -M fuzzer-master -x /dev/shm/work/Packet_Analyzer/Packet_Analyzer.dict -- data/linux/processed-challenges/Packet_Analyzer/bin/Packet_Analyzer\n'
p169
I0
tp170
a(I10200
S'start_time     : 1500068613\nlast_update    : 1500078771\nfuzzer_pid     : 31321\ncycles_done    : 1168\nexecs_done     : 11690867\nexecs_per_sec  : 1092.21\npaths_total    : 2\npaths_favored  : 2\npaths_found    : 1\npaths_imported : 0\nmax_depth      : 2\ncur_path       : 0\npending_favs   : 0\npending_total  : 0\nvariable_paths : 0\nbitmap_cvg     : 0.13%\nunique_crashes : 0\nunique_hangs   : 3\nlast_path      : 1500068614\nlast_crash     : 0\nlast_hang      : 1500078601\nexec_timeout   : 20\nafl_banner     : fuzzer-master\nafl_version    : 1.85b\ncommand_line   : /home/skaramcheti/.virtualenvs/afl/bin/afl-unix/afl-fuzz -i /dev/shm/work/Packet_Analyzer/input -o /dev/shm/work/Packet_Analyzer/sync -m 4G -Q -M fuzzer-master -x /dev/shm/work/Packet_Analyzer/Packet_Analyzer.dict -- data/linux/processed-challenges/Packet_Analyzer/bin/Packet_Analyzer\n'
p171
I0
tp172
a(I10320
S'start_time     : 1500068613\nlast_update    : 1500078891\nfuzzer_pid     : 31321\ncycles_done    : 1181\nexecs_done     : 11823536\nexecs_per_sec  : 1072.02\npaths_total    : 2\npaths_favored  : 2\npaths_found    : 1\npaths_imported : 0\nmax_depth      : 2\ncur_path       : 1\npending_favs   : 0\npending_total  : 0\nvariable_paths : 0\nbitmap_cvg     : 0.13%\nunique_crashes : 0\nunique_hangs   : 3\nlast_path      : 1500068614\nlast_crash     : 0\nlast_hang      : 1500078601\nexec_timeout   : 20\nafl_banner     : fuzzer-master\nafl_version    : 1.85b\ncommand_line   : /home/skaramcheti/.virtualenvs/afl/bin/afl-unix/afl-fuzz -i /dev/shm/work/Packet_Analyzer/input -o /dev/shm/work/Packet_Analyzer/sync -m 4G -Q -M fuzzer-master -x /dev/shm/work/Packet_Analyzer/Packet_Analyzer.dict -- data/linux/processed-challenges/Packet_Analyzer/bin/Packet_Analyzer\n'
p173
I0
tp174
a(I10440
S'start_time     : 1500068613\nlast_update    : 1500079011\nfuzzer_pid     : 31321\ncycles_done    : 1194\nexecs_done     : 11957263\nexecs_per_sec  : 1114.10\npaths_total    : 2\npaths_favored  : 2\npaths_found    : 1\npaths_imported : 0\nmax_depth      : 2\ncur_path       : 1\npending_favs   : 0\npending_total  : 0\nvariable_paths : 0\nbitmap_cvg     : 0.13%\nunique_crashes : 0\nunique_hangs   : 3\nlast_path      : 1500068614\nlast_crash     : 0\nlast_hang      : 1500078601\nexec_timeout   : 20\nafl_banner     : fuzzer-master\nafl_version    : 1.85b\ncommand_line   : /home/skaramcheti/.virtualenvs/afl/bin/afl-unix/afl-fuzz -i /dev/shm/work/Packet_Analyzer/input -o /dev/shm/work/Packet_Analyzer/sync -m 4G -Q -M fuzzer-master -x /dev/shm/work/Packet_Analyzer/Packet_Analyzer.dict -- data/linux/processed-challenges/Packet_Analyzer/bin/Packet_Analyzer\n'
p175
I0
tp176
a(I10560
S'start_time     : 1500068613\nlast_update    : 1500079132\nfuzzer_pid     : 31321\ncycles_done    : 1208\nexecs_done     : 12092731\nexecs_per_sec  : 1148.04\npaths_total    : 2\npaths_favored  : 2\npaths_found    : 1\npaths_imported : 0\nmax_depth      : 2\ncur_path       : 1\npending_favs   : 0\npending_total  : 0\nvariable_paths : 0\nbitmap_cvg     : 0.13%\nunique_crashes : 0\nunique_hangs   : 3\nlast_path      : 1500068614\nlast_crash     : 0\nlast_hang      : 1500078601\nexec_timeout   : 20\nafl_banner     : fuzzer-master\nafl_version    : 1.85b\ncommand_line   : /home/skaramcheti/.virtualenvs/afl/bin/afl-unix/afl-fuzz -i /dev/shm/work/Packet_Analyzer/input -o /dev/shm/work/Packet_Analyzer/sync -m 4G -Q -M fuzzer-master -x /dev/shm/work/Packet_Analyzer/Packet_Analyzer.dict -- data/linux/processed-challenges/Packet_Analyzer/bin/Packet_Analyzer\n'
p177
I0
tp178
a(I10680
S'start_time     : 1500068613\nlast_update    : 1500079252\nfuzzer_pid     : 31321\ncycles_done    : 1221\nexecs_done     : 12226770\nexecs_per_sec  : 1148.05\npaths_total    : 2\npaths_favored  : 2\npaths_found    : 1\npaths_imported : 0\nmax_depth      : 2\ncur_path       : 1\npending_favs   : 0\npending_total  : 0\nvariable_paths : 0\nbitmap_cvg     : 0.13%\nunique_crashes : 0\nunique_hangs   : 3\nlast_path      : 1500068614\nlast_crash     : 0\nlast_hang      : 1500078601\nexec_timeout   : 20\nafl_banner     : fuzzer-master\nafl_version    : 1.85b\ncommand_line   : /home/skaramcheti/.virtualenvs/afl/bin/afl-unix/afl-fuzz -i /dev/shm/work/Packet_Analyzer/input -o /dev/shm/work/Packet_Analyzer/sync -m 4G -Q -M fuzzer-master -x /dev/shm/work/Packet_Analyzer/Packet_Analyzer.dict -- data/linux/processed-challenges/Packet_Analyzer/bin/Packet_Analyzer\n'
p179
I0
tp180
a.