(lp0
(I0
S'start_time     : 1500220055\nlast_update    : 1500220055\nfuzzer_pid     : 25887\ncycles_done    : 0\nexecs_done     : 10\nexecs_per_sec  : 222.22\npaths_total    : 1\npaths_favored  : 1\npaths_found    : 0\npaths_imported : 0\nmax_depth      : 1\ncur_path       : 0\npending_favs   : 1\npending_total  : 1\nvariable_paths : 0\nbitmap_cvg     : 0.07%\nunique_crashes : 0\nunique_hangs   : 0\nlast_path      : 0\nlast_crash     : 0\nlast_hang      : 0\nexec_timeout   : 20\nafl_banner     : fuzzer-master\nafl_version    : 1.85b\ncommand_line   : /home/skaramcheti/.virtualenvs/afl/bin/afl-unix/afl-fuzz -i /dev/shm/work/LMS/input -o /dev/shm/work/LMS/sync -m 4G -Q -M fuzzer-master -x /dev/shm/work/LMS/LMS.dict -- data/linux/processed-challenges/LMS/bin/LMS\n'
p1
I10
tp2
a(I120
S'start_time     : 1500220055\nlast_update    : 1500220175\nfuzzer_pid     : 25887\ncycles_done    : 0\nexecs_done     : 160755\nexecs_per_sec  : 1282.12\npaths_total    : 13\npaths_favored  : 1\npaths_found    : 12\npaths_imported : 0\nmax_depth      : 2\ncur_path       : 0\npending_favs   : 1\npending_total  : 13\nvariable_paths : 0\nbitmap_cvg     : 0.15%\nunique_crashes : 0\nunique_hangs   : 0\nlast_path      : 1500220139\nlast_crash     : 0\nlast_hang      : 0\nexec_timeout   : 20\nafl_banner     : fuzzer-master\nafl_version    : 1.85b\ncommand_line   : /home/skaramcheti/.virtualenvs/afl/bin/afl-unix/afl-fuzz -i /dev/shm/work/LMS/input -o /dev/shm/work/LMS/sync -m 4G -Q -M fuzzer-master -x /dev/shm/work/LMS/LMS.dict -- data/linux/processed-challenges/LMS/bin/LMS\n'
p3
I3
tp4
a(I240
S'start_time     : 1500220055\nlast_update    : 1500220295\nfuzzer_pid     : 25887\ncycles_done    : 0\nexecs_done     : 293489\nexecs_per_sec  : 1070.37\npaths_total    : 34\npaths_favored  : 19\npaths_found    : 33\npaths_imported : 0\nmax_depth      : 4\ncur_path       : 18\npending_favs   : 13\npending_total  : 26\nvariable_paths : 0\nbitmap_cvg     : 0.29%\nunique_crashes : 0\nunique_hangs   : 0\nlast_path      : 1500220278\nlast_crash     : 0\nlast_hang      : 0\nexec_timeout   : 20\nafl_banner     : fuzzer-master\nafl_version    : 1.85b\ncommand_line   : /home/skaramcheti/.virtualenvs/afl/bin/afl-unix/afl-fuzz -i /dev/shm/work/LMS/input -o /dev/shm/work/LMS/sync -m 4G -Q -M fuzzer-master -x /dev/shm/work/LMS/LMS.dict -- data/linux/processed-challenges/LMS/bin/LMS\n'
p5
I21
tp6
a(I360
S'start_time     : 1500220055\nlast_update    : 1500220415\nfuzzer_pid     : 25887\ncycles_done    : 0\nexecs_done     : 413024\nexecs_per_sec  : 986.85\npaths_total    : 34\npaths_favored  : 19\npaths_found    : 33\npaths_imported : 0\nmax_depth      : 4\ncur_path       : 23\npending_favs   : 8\npending_total  : 21\nvariable_paths : 0\nbitmap_cvg     : 0.29%\nunique_crashes : 0\nunique_hangs   : 0\nlast_path      : 1500220278\nlast_crash     : 0\nlast_hang      : 0\nexec_timeout   : 20\nafl_banner     : fuzzer-master\nafl_version    : 1.85b\ncommand_line   : /home/skaramcheti/.virtualenvs/afl/bin/afl-unix/afl-fuzz -i /dev/shm/work/LMS/input -o /dev/shm/work/LMS/sync -m 4G -Q -M fuzzer-master -x /dev/shm/work/LMS/LMS.dict -- data/linux/processed-challenges/LMS/bin/LMS\n'
p7
I0
tp8
a(I480
S'start_time     : 1500220055\nlast_update    : 1500220535\nfuzzer_pid     : 25887\ncycles_done    : 0\nexecs_done     : 531525\nexecs_per_sec  : 899.17\npaths_total    : 35\npaths_favored  : 19\npaths_found    : 34\npaths_imported : 0\nmax_depth      : 5\ncur_path       : 30\npending_favs   : 2\npending_total  : 16\nvariable_paths : 0\nbitmap_cvg     : 0.31%\nunique_crashes : 0\nunique_hangs   : 0\nlast_path      : 1500220533\nlast_crash     : 0\nlast_hang      : 0\nexec_timeout   : 20\nafl_banner     : fuzzer-master\nafl_version    : 1.85b\ncommand_line   : /home/skaramcheti/.virtualenvs/afl/bin/afl-unix/afl-fuzz -i /dev/shm/work/LMS/input -o /dev/shm/work/LMS/sync -m 4G -Q -M fuzzer-master -x /dev/shm/work/LMS/LMS.dict -- data/linux/processed-challenges/LMS/bin/LMS\n'
p9
I3
tp10
a(I600
S'start_time     : 1500220055\nlast_update    : 1500220656\nfuzzer_pid     : 25887\ncycles_done    : 0\nexecs_done     : 644094\nexecs_per_sec  : 942.78\npaths_total    : 41\npaths_favored  : 24\npaths_found    : 40\npaths_imported : 0\nmax_depth      : 6\ncur_path       : 36\npending_favs   : 3\npending_total  : 18\nvariable_paths : 0\nbitmap_cvg     : 0.40%\nunique_crashes : 0\nunique_hangs   : 0\nlast_path      : 1500220656\nlast_crash     : 0\nlast_hang      : 0\nexec_timeout   : 20\nafl_banner     : fuzzer-master\nafl_version    : 1.85b\ncommand_line   : /home/skaramcheti/.virtualenvs/afl/bin/afl-unix/afl-fuzz -i /dev/shm/work/LMS/input -o /dev/shm/work/LMS/sync -m 4G -Q -M fuzzer-master -x /dev/shm/work/LMS/LMS.dict -- data/linux/processed-challenges/LMS/bin/LMS\n'
p11
I4
tp12
a(I720
S'start_time     : 1500220055\nlast_update    : 1500220776\nfuzzer_pid     : 25887\ncycles_done    : 0\nexecs_done     : 759530\nexecs_per_sec  : 952.33\npaths_total    : 46\npaths_favored  : 27\npaths_found    : 45\npaths_imported : 0\nmax_depth      : 7\ncur_path       : 42\npending_favs   : 3\npending_total  : 19\nvariable_paths : 0\nbitmap_cvg     : 0.41%\nunique_crashes : 0\nunique_hangs   : 0\nlast_path      : 1500220763\nlast_crash     : 0\nlast_hang      : 0\nexec_timeout   : 20\nafl_banner     : fuzzer-master\nafl_version    : 1.85b\ncommand_line   : /home/skaramcheti/.virtualenvs/afl/bin/afl-unix/afl-fuzz -i /dev/shm/work/LMS/input -o /dev/shm/work/LMS/sync -m 4G -Q -M fuzzer-master -x /dev/shm/work/LMS/LMS.dict -- data/linux/processed-challenges/LMS/bin/LMS\n'
p13
I6
tp14
a(I840
S'start_time     : 1500220055\nlast_update    : 1500220896\nfuzzer_pid     : 25887\ncycles_done    : 0\nexecs_done     : 879039\nexecs_per_sec  : 1052.00\npaths_total    : 50\npaths_favored  : 30\npaths_found    : 49\npaths_imported : 0\nmax_depth      : 8\ncur_path       : 45\npending_favs   : 4\npending_total  : 20\nvariable_paths : 0\nbitmap_cvg     : 0.41%\nunique_crashes : 0\nunique_hangs   : 0\nlast_path      : 1500220890\nlast_crash     : 0\nlast_hang      : 0\nexec_timeout   : 20\nafl_banner     : fuzzer-master\nafl_version    : 1.85b\ncommand_line   : /home/skaramcheti/.virtualenvs/afl/bin/afl-unix/afl-fuzz -i /dev/shm/work/LMS/input -o /dev/shm/work/LMS/sync -m 4G -Q -M fuzzer-master -x /dev/shm/work/LMS/LMS.dict -- data/linux/processed-challenges/LMS/bin/LMS\n'
p15
I3
tp16
a(I960
S'start_time     : 1500220055\nlast_update    : 1500221016\nfuzzer_pid     : 25887\ncycles_done    : 0\nexecs_done     : 992419\nexecs_per_sec  : 734.30\npaths_total    : 53\npaths_favored  : 29\npaths_found    : 52\npaths_imported : 0\nmax_depth      : 10\ncur_path       : 50\npending_favs   : 3\npending_total  : 20\nvariable_paths : 0\nbitmap_cvg     : 0.43%\nunique_crashes : 0\nunique_hangs   : 0\nlast_path      : 1500221003\nlast_crash     : 0\nlast_hang      : 0\nexec_timeout   : 20\nafl_banner     : fuzzer-master\nafl_version    : 1.85b\ncommand_line   : /home/skaramcheti/.virtualenvs/afl/bin/afl-unix/afl-fuzz -i /dev/shm/work/LMS/input -o /dev/shm/work/LMS/sync -m 4G -Q -M fuzzer-master -x /dev/shm/work/LMS/LMS.dict -- data/linux/processed-challenges/LMS/bin/LMS\n'
p17
I3
tp18
a(I1080
S'start_time     : 1500220055\nlast_update    : 1500221137\nfuzzer_pid     : 25887\ncycles_done    : 0\nexecs_done     : 1114674\nexecs_per_sec  : 1027.93\npaths_total    : 83\npaths_favored  : 30\npaths_found    : 82\npaths_imported : 0\nmax_depth      : 10\ncur_path       : 51\npending_favs   : 3\npending_total  : 49\nvariable_paths : 0\nbitmap_cvg     : 0.51%\nunique_crashes : 1\nunique_hangs   : 0\nlast_path      : 1500221129\nlast_crash     : 1500221041\nlast_hang      : 0\nexec_timeout   : 20\nafl_banner     : fuzzer-master\nafl_version    : 1.85b\ncommand_line   : /home/skaramcheti/.virtualenvs/afl/bin/afl-unix/afl-fuzz -i /dev/shm/work/LMS/input -o /dev/shm/work/LMS/sync -m 4G -Q -M fuzzer-master -x /dev/shm/work/LMS/LMS.dict -- data/linux/processed-challenges/LMS/bin/LMS\n'
p19
I30
tp20
a(I1200
S'start_time     : 1500220055\nlast_update    : 1500221257\nfuzzer_pid     : 25887\ncycles_done    : 0\nexecs_done     : 1236477\nexecs_per_sec  : 953.62\npaths_total    : 85\npaths_favored  : 42\npaths_found    : 84\npaths_imported : 0\nmax_depth      : 11\ncur_path       : 53\npending_favs   : 27\npending_total  : 49\nvariable_paths : 0\nbitmap_cvg     : 0.51%\nunique_crashes : 1\nunique_hangs   : 1\nlast_path      : 1500221215\nlast_crash     : 1500221041\nlast_hang      : 1500221209\nexec_timeout   : 20\nafl_banner     : fuzzer-master\nafl_version    : 1.85b\ncommand_line   : /home/skaramcheti/.virtualenvs/afl/bin/afl-unix/afl-fuzz -i /dev/shm/work/LMS/input -o /dev/shm/work/LMS/sync -m 4G -Q -M fuzzer-master -x /dev/shm/work/LMS/LMS.dict -- data/linux/processed-challenges/LMS/bin/LMS\n'
p21
I2
tp22
a(I1320
S'start_time     : 1500220055\nlast_update    : 1500221377\nfuzzer_pid     : 25887\ncycles_done    : 0\nexecs_done     : 1359075\nexecs_per_sec  : 1020.74\npaths_total    : 88\npaths_favored  : 42\npaths_found    : 87\npaths_imported : 0\nmax_depth      : 11\ncur_path       : 53\npending_favs   : 27\npending_total  : 52\nvariable_paths : 0\nbitmap_cvg     : 0.51%\nunique_crashes : 1\nunique_hangs   : 1\nlast_path      : 1500221360\nlast_crash     : 1500221041\nlast_hang      : 1500221209\nexec_timeout   : 20\nafl_banner     : fuzzer-master\nafl_version    : 1.85b\ncommand_line   : /home/skaramcheti/.virtualenvs/afl/bin/afl-unix/afl-fuzz -i /dev/shm/work/LMS/input -o /dev/shm/work/LMS/sync -m 4G -Q -M fuzzer-master -x /dev/shm/work/LMS/LMS.dict -- data/linux/processed-challenges/LMS/bin/LMS\n'
p23
I3
tp24
a(I1440
S'start_time     : 1500220055\nlast_update    : 1500221497\nfuzzer_pid     : 25887\ncycles_done    : 0\nexecs_done     : 1484693\nexecs_per_sec  : 1064.50\npaths_total    : 91\npaths_favored  : 43\npaths_found    : 90\npaths_imported : 0\nmax_depth      : 11\ncur_path       : 54\npending_favs   : 27\npending_total  : 54\nvariable_paths : 0\nbitmap_cvg     : 0.52%\nunique_crashes : 1\nunique_hangs   : 1\nlast_path      : 1500221445\nlast_crash     : 1500221041\nlast_hang      : 1500221209\nexec_timeout   : 20\nafl_banner     : fuzzer-master\nafl_version    : 1.85b\ncommand_line   : /home/skaramcheti/.virtualenvs/afl/bin/afl-unix/afl-fuzz -i /dev/shm/work/LMS/input -o /dev/shm/work/LMS/sync -m 4G -Q -M fuzzer-master -x /dev/shm/work/LMS/LMS.dict -- data/linux/processed-challenges/LMS/bin/LMS\n'
p25
I3
tp26
a(I1560
S'start_time     : 1500220055\nlast_update    : 1500221618\nfuzzer_pid     : 25887\ncycles_done    : 0\nexecs_done     : 1610159\nexecs_per_sec  : 1063.22\npaths_total    : 93\npaths_favored  : 45\npaths_found    : 92\npaths_imported : 0\nmax_depth      : 11\ncur_path       : 56\npending_favs   : 28\npending_total  : 54\nvariable_paths : 0\nbitmap_cvg     : 0.52%\nunique_crashes : 1\nunique_hangs   : 1\nlast_path      : 1500221602\nlast_crash     : 1500221041\nlast_hang      : 1500221209\nexec_timeout   : 20\nafl_banner     : fuzzer-master\nafl_version    : 1.85b\ncommand_line   : /home/skaramcheti/.virtualenvs/afl/bin/afl-unix/afl-fuzz -i /dev/shm/work/LMS/input -o /dev/shm/work/LMS/sync -m 4G -Q -M fuzzer-master -x /dev/shm/work/LMS/LMS.dict -- data/linux/processed-challenges/LMS/bin/LMS\n'
p27
I2
tp28
a(I1680
S'start_time     : 1500220055\nlast_update    : 1500221738\nfuzzer_pid     : 25887\ncycles_done    : 0\nexecs_done     : 1732721\nexecs_per_sec  : 1001.88\npaths_total    : 95\npaths_favored  : 46\npaths_found    : 94\npaths_imported : 0\nmax_depth      : 11\ncur_path       : 57\npending_favs   : 29\npending_total  : 55\nvariable_paths : 0\nbitmap_cvg     : 0.52%\nunique_crashes : 1\nunique_hangs   : 2\nlast_path      : 1500221656\nlast_crash     : 1500221041\nlast_hang      : 1500221713\nexec_timeout   : 20\nafl_banner     : fuzzer-master\nafl_version    : 1.85b\ncommand_line   : /home/skaramcheti/.virtualenvs/afl/bin/afl-unix/afl-fuzz -i /dev/shm/work/LMS/input -o /dev/shm/work/LMS/sync -m 4G -Q -M fuzzer-master -x /dev/shm/work/LMS/LMS.dict -- data/linux/processed-challenges/LMS/bin/LMS\n'
p29
I2
tp30
a(I1800
S'start_time     : 1500220055\nlast_update    : 1500221858\nfuzzer_pid     : 25887\ncycles_done    : 0\nexecs_done     : 1858573\nexecs_per_sec  : 1072.10\npaths_total    : 98\npaths_favored  : 46\npaths_found    : 97\npaths_imported : 0\nmax_depth      : 11\ncur_path       : 58\npending_favs   : 28\npending_total  : 57\nvariable_paths : 0\nbitmap_cvg     : 0.53%\nunique_crashes : 1\nunique_hangs   : 2\nlast_path      : 1500221831\nlast_crash     : 1500221041\nlast_hang      : 1500221713\nexec_timeout   : 20\nafl_banner     : fuzzer-master\nafl_version    : 1.85b\ncommand_line   : /home/skaramcheti/.virtualenvs/afl/bin/afl-unix/afl-fuzz -i /dev/shm/work/LMS/input -o /dev/shm/work/LMS/sync -m 4G -Q -M fuzzer-master -x /dev/shm/work/LMS/LMS.dict -- data/linux/processed-challenges/LMS/bin/LMS\n'
p31
I3
tp32
a(I1920
S'start_time     : 1500220055\nlast_update    : 1500221978\nfuzzer_pid     : 25887\ncycles_done    : 0\nexecs_done     : 1984062\nexecs_per_sec  : 1005.57\npaths_total    : 99\npaths_favored  : 49\npaths_found    : 98\npaths_imported : 0\nmax_depth      : 11\ncur_path       : 60\npending_favs   : 29\npending_total  : 56\nvariable_paths : 0\nbitmap_cvg     : 0.53%\nunique_crashes : 1\nunique_hangs   : 2\nlast_path      : 1500221943\nlast_crash     : 1500221041\nlast_hang      : 1500221713\nexec_timeout   : 20\nafl_banner     : fuzzer-master\nafl_version    : 1.85b\ncommand_line   : /home/skaramcheti/.virtualenvs/afl/bin/afl-unix/afl-fuzz -i /dev/shm/work/LMS/input -o /dev/shm/work/LMS/sync -m 4G -Q -M fuzzer-master -x /dev/shm/work/LMS/LMS.dict -- data/linux/processed-challenges/LMS/bin/LMS\n'
p33
I1
tp34
a(I2040
S'start_time     : 1500220055\nlast_update    : 1500222099\nfuzzer_pid     : 25887\ncycles_done    : 0\nexecs_done     : 2105200\nexecs_per_sec  : 1021.07\npaths_total    : 100\npaths_favored  : 50\npaths_found    : 99\npaths_imported : 0\nmax_depth      : 11\ncur_path       : 63\npending_favs   : 28\npending_total  : 55\nvariable_paths : 0\nbitmap_cvg     : 0.53%\nunique_crashes : 1\nunique_hangs   : 2\nlast_path      : 1500222078\nlast_crash     : 1500221041\nlast_hang      : 1500221713\nexec_timeout   : 20\nafl_banner     : fuzzer-master\nafl_version    : 1.85b\ncommand_line   : /home/skaramcheti/.virtualenvs/afl/bin/afl-unix/afl-fuzz -i /dev/shm/work/LMS/input -o /dev/shm/work/LMS/sync -m 4G -Q -M fuzzer-master -x /dev/shm/work/LMS/LMS.dict -- data/linux/processed-challenges/LMS/bin/LMS\n'
p35
I1
tp36
a(I2160
S'start_time     : 1500220055\nlast_update    : 1500222219\nfuzzer_pid     : 25887\ncycles_done    : 0\nexecs_done     : 2229068\nexecs_per_sec  : 1007.79\npaths_total    : 100\npaths_favored  : 51\npaths_found    : 99\npaths_imported : 0\nmax_depth      : 11\ncur_path       : 66\npending_favs   : 26\npending_total  : 52\nvariable_paths : 0\nbitmap_cvg     : 0.53%\nunique_crashes : 1\nunique_hangs   : 2\nlast_path      : 1500222078\nlast_crash     : 1500221041\nlast_hang      : 1500221713\nexec_timeout   : 20\nafl_banner     : fuzzer-master\nafl_version    : 1.85b\ncommand_line   : /home/skaramcheti/.virtualenvs/afl/bin/afl-unix/afl-fuzz -i /dev/shm/work/LMS/input -o /dev/shm/work/LMS/sync -m 4G -Q -M fuzzer-master -x /dev/shm/work/LMS/LMS.dict -- data/linux/processed-challenges/LMS/bin/LMS\n'
p37
I0
tp38
a(I2280
S'start_time     : 1500220055\nlast_update    : 1500222339\nfuzzer_pid     : 25887\ncycles_done    : 0\nexecs_done     : 2355659\nexecs_per_sec  : 983.35\npaths_total    : 101\npaths_favored  : 51\npaths_found    : 100\npaths_imported : 0\nmax_depth      : 11\ncur_path       : 68\npending_favs   : 24\npending_total  : 51\nvariable_paths : 0\nbitmap_cvg     : 0.53%\nunique_crashes : 1\nunique_hangs   : 2\nlast_path      : 1500222285\nlast_crash     : 1500221041\nlast_hang      : 1500221713\nexec_timeout   : 20\nafl_banner     : fuzzer-master\nafl_version    : 1.85b\ncommand_line   : /home/skaramcheti/.virtualenvs/afl/bin/afl-unix/afl-fuzz -i /dev/shm/work/LMS/input -o /dev/shm/work/LMS/sync -m 4G -Q -M fuzzer-master -x /dev/shm/work/LMS/LMS.dict -- data/linux/processed-challenges/LMS/bin/LMS\n'
p39
I1
tp40
a(I2400
S'start_time     : 1500220055\nlast_update    : 1500222459\nfuzzer_pid     : 25887\ncycles_done    : 0\nexecs_done     : 2477851\nexecs_per_sec  : 993.42\npaths_total    : 102\npaths_favored  : 52\npaths_found    : 101\npaths_imported : 0\nmax_depth      : 11\ncur_path       : 72\npending_favs   : 23\npending_total  : 50\nvariable_paths : 0\nbitmap_cvg     : 0.53%\nunique_crashes : 1\nunique_hangs   : 2\nlast_path      : 1500222355\nlast_crash     : 1500221041\nlast_hang      : 1500221713\nexec_timeout   : 20\nafl_banner     : fuzzer-master\nafl_version    : 1.85b\ncommand_line   : /home/skaramcheti/.virtualenvs/afl/bin/afl-unix/afl-fuzz -i /dev/shm/work/LMS/input -o /dev/shm/work/LMS/sync -m 4G -Q -M fuzzer-master -x /dev/shm/work/LMS/LMS.dict -- data/linux/processed-challenges/LMS/bin/LMS\n'
p41
I1
tp42
a(I2520
S'start_time     : 1500220055\nlast_update    : 1500222580\nfuzzer_pid     : 25887\ncycles_done    : 0\nexecs_done     : 2593776\nexecs_per_sec  : 47.95\npaths_total    : 103\npaths_favored  : 52\npaths_found    : 102\npaths_imported : 0\nmax_depth      : 11\ncur_path       : 77\npending_favs   : 20\npending_total  : 48\nvariable_paths : 0\nbitmap_cvg     : 0.53%\nunique_crashes : 1\nunique_hangs   : 3\nlast_path      : 1500222568\nlast_crash     : 1500221041\nlast_hang      : 1500222569\nexec_timeout   : 20\nafl_banner     : fuzzer-master\nafl_version    : 1.85b\ncommand_line   : /home/skaramcheti/.virtualenvs/afl/bin/afl-unix/afl-fuzz -i /dev/shm/work/LMS/input -o /dev/shm/work/LMS/sync -m 4G -Q -M fuzzer-master -x /dev/shm/work/LMS/LMS.dict -- data/linux/processed-challenges/LMS/bin/LMS\n'
p43
I1
tp44
a(I2640
S'start_time     : 1500220055\nlast_update    : 1500222700\nfuzzer_pid     : 25887\ncycles_done    : 0\nexecs_done     : 2695990\nexecs_per_sec  : 986.76\npaths_total    : 109\npaths_favored  : 52\npaths_found    : 108\npaths_imported : 0\nmax_depth      : 11\ncur_path       : 77\npending_favs   : 20\npending_total  : 54\nvariable_paths : 0\nbitmap_cvg     : 0.55%\nunique_crashes : 1\nunique_hangs   : 6\nlast_path      : 1500222654\nlast_crash     : 1500221041\nlast_hang      : 1500222599\nexec_timeout   : 20\nafl_banner     : fuzzer-master\nafl_version    : 1.85b\ncommand_line   : /home/skaramcheti/.virtualenvs/afl/bin/afl-unix/afl-fuzz -i /dev/shm/work/LMS/input -o /dev/shm/work/LMS/sync -m 4G -Q -M fuzzer-master -x /dev/shm/work/LMS/LMS.dict -- data/linux/processed-challenges/LMS/bin/LMS\n'
p45
I6
tp46
a(I2760
S'start_time     : 1500220055\nlast_update    : 1500222820\nfuzzer_pid     : 25887\ncycles_done    : 0\nexecs_done     : 2807417\nexecs_per_sec  : 1012.36\npaths_total    : 110\npaths_favored  : 57\npaths_found    : 109\npaths_imported : 0\nmax_depth      : 11\ncur_path       : 80\npending_favs   : 24\npending_total  : 53\nvariable_paths : 0\nbitmap_cvg     : 0.55%\nunique_crashes : 1\nunique_hangs   : 6\nlast_path      : 1500222729\nlast_crash     : 1500221041\nlast_hang      : 1500222599\nexec_timeout   : 20\nafl_banner     : fuzzer-master\nafl_version    : 1.85b\ncommand_line   : /home/skaramcheti/.virtualenvs/afl/bin/afl-unix/afl-fuzz -i /dev/shm/work/LMS/input -o /dev/shm/work/LMS/sync -m 4G -Q -M fuzzer-master -x /dev/shm/work/LMS/LMS.dict -- data/linux/processed-challenges/LMS/bin/LMS\n'
p47
I1
tp48
a(I2880
S'start_time     : 1500220055\nlast_update    : 1500222940\nfuzzer_pid     : 25887\ncycles_done    : 0\nexecs_done     : 2923385\nexecs_per_sec  : 1024.43\npaths_total    : 110\npaths_favored  : 57\npaths_found    : 109\npaths_imported : 0\nmax_depth      : 11\ncur_path       : 83\npending_favs   : 21\npending_total  : 50\nvariable_paths : 0\nbitmap_cvg     : 0.55%\nunique_crashes : 1\nunique_hangs   : 6\nlast_path      : 1500222729\nlast_crash     : 1500221041\nlast_hang      : 1500222599\nexec_timeout   : 20\nafl_banner     : fuzzer-master\nafl_version    : 1.85b\ncommand_line   : /home/skaramcheti/.virtualenvs/afl/bin/afl-unix/afl-fuzz -i /dev/shm/work/LMS/input -o /dev/shm/work/LMS/sync -m 4G -Q -M fuzzer-master -x /dev/shm/work/LMS/LMS.dict -- data/linux/processed-challenges/LMS/bin/LMS\n'
p49
I1
tp50
a(I3000
S'start_time     : 1500220055\nlast_update    : 1500223060\nfuzzer_pid     : 25887\ncycles_done    : 0\nexecs_done     : 3047834\nexecs_per_sec  : 978.79\npaths_total    : 113\npaths_favored  : 57\npaths_found    : 112\npaths_imported : 0\nmax_depth      : 11\ncur_path       : 84\npending_favs   : 20\npending_total  : 52\nvariable_paths : 0\nbitmap_cvg     : 0.55%\nunique_crashes : 1\nunique_hangs   : 6\nlast_path      : 1500222984\nlast_crash     : 1500221041\nlast_hang      : 1500222599\nexec_timeout   : 20\nafl_banner     : fuzzer-master\nafl_version    : 1.85b\ncommand_line   : /home/skaramcheti/.virtualenvs/afl/bin/afl-unix/afl-fuzz -i /dev/shm/work/LMS/input -o /dev/shm/work/LMS/sync -m 4G -Q -M fuzzer-master -x /dev/shm/work/LMS/LMS.dict -- data/linux/processed-challenges/LMS/bin/LMS\n'
p51
I2
tp52
a(I3120
S'start_time     : 1500220055\nlast_update    : 1500223180\nfuzzer_pid     : 25887\ncycles_done    : 0\nexecs_done     : 3171125\nexecs_per_sec  : 1004.03\npaths_total    : 113\npaths_favored  : 57\npaths_found    : 112\npaths_imported : 0\nmax_depth      : 11\ncur_path       : 88\npending_favs   : 18\npending_total  : 50\nvariable_paths : 0\nbitmap_cvg     : 0.55%\nunique_crashes : 1\nunique_hangs   : 6\nlast_path      : 1500222984\nlast_crash     : 1500221041\nlast_hang      : 1500222599\nexec_timeout   : 20\nafl_banner     : fuzzer-master\nafl_version    : 1.85b\ncommand_line   : /home/skaramcheti/.virtualenvs/afl/bin/afl-unix/afl-fuzz -i /dev/shm/work/LMS/input -o /dev/shm/work/LMS/sync -m 4G -Q -M fuzzer-master -x /dev/shm/work/LMS/LMS.dict -- data/linux/processed-challenges/LMS/bin/LMS\n'
p53
I0
tp54
a(I3240
S'start_time     : 1500220055\nlast_update    : 1500223300\nfuzzer_pid     : 25887\ncycles_done    : 0\nexecs_done     : 3292809\nexecs_per_sec  : 1007.21\npaths_total    : 114\npaths_favored  : 58\npaths_found    : 113\npaths_imported : 0\nmax_depth      : 12\ncur_path       : 92\npending_favs   : 16\npending_total  : 48\nvariable_paths : 0\nbitmap_cvg     : 0.55%\nunique_crashes : 1\nunique_hangs   : 6\nlast_path      : 1500223227\nlast_crash     : 1500221041\nlast_hang      : 1500222599\nexec_timeout   : 20\nafl_banner     : fuzzer-master\nafl_version    : 1.85b\ncommand_line   : /home/skaramcheti/.virtualenvs/afl/bin/afl-unix/afl-fuzz -i /dev/shm/work/LMS/input -o /dev/shm/work/LMS/sync -m 4G -Q -M fuzzer-master -x /dev/shm/work/LMS/LMS.dict -- data/linux/processed-challenges/LMS/bin/LMS\n'
p55
I1
tp56
a(I3360
S'start_time     : 1500220055\nlast_update    : 1500223420\nfuzzer_pid     : 25887\ncycles_done    : 0\nexecs_done     : 3377224\nexecs_per_sec  : 871.13\npaths_total    : 115\npaths_favored  : 58\npaths_found    : 114\npaths_imported : 0\nmax_depth      : 12\ncur_path       : 93\npending_favs   : 15\npending_total  : 48\nvariable_paths : 0\nbitmap_cvg     : 0.55%\nunique_crashes : 2\nunique_hangs   : 6\nlast_path      : 1500223312\nlast_crash     : 1500223406\nlast_hang      : 1500222599\nexec_timeout   : 20\nafl_banner     : fuzzer-master\nafl_version    : 1.85b\ncommand_line   : /home/skaramcheti/.virtualenvs/afl/bin/afl-unix/afl-fuzz -i /dev/shm/work/LMS/input -o /dev/shm/work/LMS/sync -m 4G -Q -M fuzzer-master -x /dev/shm/work/LMS/LMS.dict -- data/linux/processed-challenges/LMS/bin/LMS\n'
p57
I1
tp58
a(I3480
S'start_time     : 1500220055\nlast_update    : 1500223541\nfuzzer_pid     : 25887\ncycles_done    : 0\nexecs_done     : 3460302\nexecs_per_sec  : 898.06\npaths_total    : 116\npaths_favored  : 58\npaths_found    : 115\npaths_imported : 0\nmax_depth      : 12\ncur_path       : 94\npending_favs   : 14\npending_total  : 48\nvariable_paths : 0\nbitmap_cvg     : 0.55%\nunique_crashes : 4\nunique_hangs   : 6\nlast_path      : 1500223510\nlast_crash     : 1500223431\nlast_hang      : 1500222599\nexec_timeout   : 20\nafl_banner     : fuzzer-master\nafl_version    : 1.85b\ncommand_line   : /home/skaramcheti/.virtualenvs/afl/bin/afl-unix/afl-fuzz -i /dev/shm/work/LMS/input -o /dev/shm/work/LMS/sync -m 4G -Q -M fuzzer-master -x /dev/shm/work/LMS/LMS.dict -- data/linux/processed-challenges/LMS/bin/LMS\n'
p59
I1
tp60
a(I3600
S'start_time     : 1500220055\nlast_update    : 1500223661\nfuzzer_pid     : 25887\ncycles_done    : 0\nexecs_done     : 3580839\nexecs_per_sec  : 1058.66\npaths_total    : 116\npaths_favored  : 59\npaths_found    : 115\npaths_imported : 0\nmax_depth      : 12\ncur_path       : 97\npending_favs   : 12\npending_total  : 45\nvariable_paths : 0\nbitmap_cvg     : 0.55%\nunique_crashes : 4\nunique_hangs   : 6\nlast_path      : 1500223510\nlast_crash     : 1500223431\nlast_hang      : 1500222599\nexec_timeout   : 20\nafl_banner     : fuzzer-master\nafl_version    : 1.85b\ncommand_line   : /home/skaramcheti/.virtualenvs/afl/bin/afl-unix/afl-fuzz -i /dev/shm/work/LMS/input -o /dev/shm/work/LMS/sync -m 4G -Q -M fuzzer-master -x /dev/shm/work/LMS/LMS.dict -- data/linux/processed-challenges/LMS/bin/LMS\n'
p61
I0
tp62
a(I3720
S'start_time     : 1500220055\nlast_update    : 1500223781\nfuzzer_pid     : 25887\ncycles_done    : 0\nexecs_done     : 3705409\nexecs_per_sec  : 1022.20\npaths_total    : 116\npaths_favored  : 59\npaths_found    : 115\npaths_imported : 0\nmax_depth      : 12\ncur_path       : 101\npending_favs   : 9\npending_total  : 42\nvariable_paths : 0\nbitmap_cvg     : 0.55%\nunique_crashes : 4\nunique_hangs   : 6\nlast_path      : 1500223510\nlast_crash     : 1500223431\nlast_hang      : 1500222599\nexec_timeout   : 20\nafl_banner     : fuzzer-master\nafl_version    : 1.85b\ncommand_line   : /home/skaramcheti/.virtualenvs/afl/bin/afl-unix/afl-fuzz -i /dev/shm/work/LMS/input -o /dev/shm/work/LMS/sync -m 4G -Q -M fuzzer-master -x /dev/shm/work/LMS/LMS.dict -- data/linux/processed-challenges/LMS/bin/LMS\n'
p63
I0
tp64
a(I3840
S'start_time     : 1500220055\nlast_update    : 1500223901\nfuzzer_pid     : 25887\ncycles_done    : 0\nexecs_done     : 3797765\nexecs_per_sec  : 48.24\npaths_total    : 117\npaths_favored  : 59\npaths_found    : 116\npaths_imported : 0\nmax_depth      : 12\ncur_path       : 103\npending_favs   : 7\npending_total  : 41\nvariable_paths : 0\nbitmap_cvg     : 0.56%\nunique_crashes : 4\nunique_hangs   : 6\nlast_path      : 1500223886\nlast_crash     : 1500223431\nlast_hang      : 1500222599\nexec_timeout   : 20\nafl_banner     : fuzzer-master\nafl_version    : 1.85b\ncommand_line   : /home/skaramcheti/.virtualenvs/afl/bin/afl-unix/afl-fuzz -i /dev/shm/work/LMS/input -o /dev/shm/work/LMS/sync -m 4G -Q -M fuzzer-master -x /dev/shm/work/LMS/LMS.dict -- data/linux/processed-challenges/LMS/bin/LMS\n'
p65
I1
tp66
a(I3960
S'start_time     : 1500220055\nlast_update    : 1500224022\nfuzzer_pid     : 25887\ncycles_done    : 0\nexecs_done     : 3892300\nexecs_per_sec  : 1098.63\npaths_total    : 119\npaths_favored  : 58\npaths_found    : 118\npaths_imported : 0\nmax_depth      : 12\ncur_path       : 104\npending_favs   : 7\npending_total  : 42\nvariable_paths : 0\nbitmap_cvg     : 0.56%\nunique_crashes : 4\nunique_hangs   : 6\nlast_path      : 1500224010\nlast_crash     : 1500223431\nlast_hang      : 1500222599\nexec_timeout   : 20\nafl_banner     : fuzzer-master\nafl_version    : 1.85b\ncommand_line   : /home/skaramcheti/.virtualenvs/afl/bin/afl-unix/afl-fuzz -i /dev/shm/work/LMS/input -o /dev/shm/work/LMS/sync -m 4G -Q -M fuzzer-master -x /dev/shm/work/LMS/LMS.dict -- data/linux/processed-challenges/LMS/bin/LMS\n'
p67
I2
tp68
a(I4080
S'start_time     : 1500220055\nlast_update    : 1500224142\nfuzzer_pid     : 25887\ncycles_done    : 0\nexecs_done     : 4018027\nexecs_per_sec  : 1046.74\npaths_total    : 119\npaths_favored  : 58\npaths_found    : 118\npaths_imported : 0\nmax_depth      : 12\ncur_path       : 108\npending_favs   : 5\npending_total  : 39\nvariable_paths : 0\nbitmap_cvg     : 0.56%\nunique_crashes : 4\nunique_hangs   : 6\nlast_path      : 1500224010\nlast_crash     : 1500223431\nlast_hang      : 1500222599\nexec_timeout   : 20\nafl_banner     : fuzzer-master\nafl_version    : 1.85b\ncommand_line   : /home/skaramcheti/.virtualenvs/afl/bin/afl-unix/afl-fuzz -i /dev/shm/work/LMS/input -o /dev/shm/work/LMS/sync -m 4G -Q -M fuzzer-master -x /dev/shm/work/LMS/LMS.dict -- data/linux/processed-challenges/LMS/bin/LMS\n'
p69
I0
tp70
a(I4200
S'start_time     : 1500220055\nlast_update    : 1500224262\nfuzzer_pid     : 25887\ncycles_done    : 0\nexecs_done     : 4137535\nexecs_per_sec  : 998.89\npaths_total    : 119\npaths_favored  : 58\npaths_found    : 118\npaths_imported : 0\nmax_depth      : 12\ncur_path       : 116\npending_favs   : 2\npending_total  : 36\nvariable_paths : 0\nbitmap_cvg     : 0.56%\nunique_crashes : 4\nunique_hangs   : 6\nlast_path      : 1500224010\nlast_crash     : 1500223431\nlast_hang      : 1500222599\nexec_timeout   : 20\nafl_banner     : fuzzer-master\nafl_version    : 1.85b\ncommand_line   : /home/skaramcheti/.virtualenvs/afl/bin/afl-unix/afl-fuzz -i /dev/shm/work/LMS/input -o /dev/shm/work/LMS/sync -m 4G -Q -M fuzzer-master -x /dev/shm/work/LMS/LMS.dict -- data/linux/processed-challenges/LMS/bin/LMS\n'
p71
I0
tp72
a(I4320
S'start_time     : 1500220055\nlast_update    : 1500224382\nfuzzer_pid     : 25887\ncycles_done    : 0\nexecs_done     : 4259656\nexecs_per_sec  : 1054.97\npaths_total    : 120\npaths_favored  : 59\npaths_found    : 119\npaths_imported : 0\nmax_depth      : 13\ncur_path       : 117\npending_favs   : 2\npending_total  : 36\nvariable_paths : 0\nbitmap_cvg     : 0.56%\nunique_crashes : 4\nunique_hangs   : 6\nlast_path      : 1500224281\nlast_crash     : 1500223431\nlast_hang      : 1500222599\nexec_timeout   : 20\nafl_banner     : fuzzer-master\nafl_version    : 1.85b\ncommand_line   : /home/skaramcheti/.virtualenvs/afl/bin/afl-unix/afl-fuzz -i /dev/shm/work/LMS/input -o /dev/shm/work/LMS/sync -m 4G -Q -M fuzzer-master -x /dev/shm/work/LMS/LMS.dict -- data/linux/processed-challenges/LMS/bin/LMS\n'
p73
I1
tp74
a(I4440
S'start_time     : 1500220055\nlast_update    : 1500224502\nfuzzer_pid     : 25887\ncycles_done    : 0\nexecs_done     : 4378969\nexecs_per_sec  : 909.62\npaths_total    : 124\npaths_favored  : 59\npaths_found    : 123\npaths_imported : 0\nmax_depth      : 14\ncur_path       : 120\npending_favs   : 1\npending_total  : 38\nvariable_paths : 0\nbitmap_cvg     : 0.56%\nunique_crashes : 4\nunique_hangs   : 7\nlast_path      : 1500224493\nlast_crash     : 1500223431\nlast_hang      : 1500224452\nexec_timeout   : 20\nafl_banner     : fuzzer-master\nafl_version    : 1.85b\ncommand_line   : /home/skaramcheti/.virtualenvs/afl/bin/afl-unix/afl-fuzz -i /dev/shm/work/LMS/input -o /dev/shm/work/LMS/sync -m 4G -Q -M fuzzer-master -x /dev/shm/work/LMS/LMS.dict -- data/linux/processed-challenges/LMS/bin/LMS\n'
p75
I4
tp76
a(I4560
S'start_time     : 1500220055\nlast_update    : 1500224622\nfuzzer_pid     : 25887\ncycles_done    : 1\nexecs_done     : 4495468\nexecs_per_sec  : 1091.75\npaths_total    : 124\npaths_favored  : 59\npaths_found    : 123\npaths_imported : 0\nmax_depth      : 14\ncur_path       : 15\npending_favs   : 0\npending_total  : 35\nvariable_paths : 0\nbitmap_cvg     : 0.56%\nunique_crashes : 5\nunique_hangs   : 8\nlast_path      : 1500224493\nlast_crash     : 1500224580\nlast_hang      : 1500224516\nexec_timeout   : 20\nafl_banner     : fuzzer-master\nafl_version    : 1.85b\ncommand_line   : /home/skaramcheti/.virtualenvs/afl/bin/afl-unix/afl-fuzz -i /dev/shm/work/LMS/input -o /dev/shm/work/LMS/sync -m 4G -Q -M fuzzer-master -x /dev/shm/work/LMS/LMS.dict -- data/linux/processed-challenges/LMS/bin/LMS\n'
p77
I0
tp78
a(I4680
S'start_time     : 1500220055\nlast_update    : 1500224742\nfuzzer_pid     : 25887\ncycles_done    : 1\nexecs_done     : 4625327\nexecs_per_sec  : 1065.44\npaths_total    : 125\npaths_favored  : 59\npaths_found    : 124\npaths_imported : 0\nmax_depth      : 14\ncur_path       : 41\npending_favs   : 0\npending_total  : 35\nvariable_paths : 0\nbitmap_cvg     : 0.56%\nunique_crashes : 5\nunique_hangs   : 8\nlast_path      : 1500224729\nlast_crash     : 1500224580\nlast_hang      : 1500224516\nexec_timeout   : 20\nafl_banner     : fuzzer-master\nafl_version    : 1.85b\ncommand_line   : /home/skaramcheti/.virtualenvs/afl/bin/afl-unix/afl-fuzz -i /dev/shm/work/LMS/input -o /dev/shm/work/LMS/sync -m 4G -Q -M fuzzer-master -x /dev/shm/work/LMS/LMS.dict -- data/linux/processed-challenges/LMS/bin/LMS\n'
p79
I1
tp80
a(I4800
S'start_time     : 1500220055\nlast_update    : 1500224863\nfuzzer_pid     : 25887\ncycles_done    : 1\nexecs_done     : 4752924\nexecs_per_sec  : 1142.20\npaths_total    : 125\npaths_favored  : 59\npaths_found    : 124\npaths_imported : 0\nmax_depth      : 14\ncur_path       : 55\npending_favs   : 0\npending_total  : 33\nvariable_paths : 0\nbitmap_cvg     : 0.56%\nunique_crashes : 5\nunique_hangs   : 8\nlast_path      : 1500224729\nlast_crash     : 1500224580\nlast_hang      : 1500224516\nexec_timeout   : 20\nafl_banner     : fuzzer-master\nafl_version    : 1.85b\ncommand_line   : /home/skaramcheti/.virtualenvs/afl/bin/afl-unix/afl-fuzz -i /dev/shm/work/LMS/input -o /dev/shm/work/LMS/sync -m 4G -Q -M fuzzer-master -x /dev/shm/work/LMS/LMS.dict -- data/linux/processed-challenges/LMS/bin/LMS\n'
p81
I0
tp82
a(I4920
S'start_time     : 1500220055\nlast_update    : 1500224983\nfuzzer_pid     : 25887\ncycles_done    : 1\nexecs_done     : 4885748\nexecs_per_sec  : 1079.11\npaths_total    : 125\npaths_favored  : 59\npaths_found    : 124\npaths_imported : 0\nmax_depth      : 14\ncur_path       : 63\npending_favs   : 0\npending_total  : 33\nvariable_paths : 0\nbitmap_cvg     : 0.56%\nunique_crashes : 5\nunique_hangs   : 8\nlast_path      : 1500224729\nlast_crash     : 1500224580\nlast_hang      : 1500224516\nexec_timeout   : 20\nafl_banner     : fuzzer-master\nafl_version    : 1.85b\ncommand_line   : /home/skaramcheti/.virtualenvs/afl/bin/afl-unix/afl-fuzz -i /dev/shm/work/LMS/input -o /dev/shm/work/LMS/sync -m 4G -Q -M fuzzer-master -x /dev/shm/work/LMS/LMS.dict -- data/linux/processed-challenges/LMS/bin/LMS\n'
p83
I0
tp84
a(I5040
S'start_time     : 1500220055\nlast_update    : 1500225103\nfuzzer_pid     : 25887\ncycles_done    : 1\nexecs_done     : 5013921\nexecs_per_sec  : 928.92\npaths_total    : 125\npaths_favored  : 59\npaths_found    : 124\npaths_imported : 0\nmax_depth      : 14\ncur_path       : 70\npending_favs   : 0\npending_total  : 33\nvariable_paths : 0\nbitmap_cvg     : 0.56%\nunique_crashes : 5\nunique_hangs   : 8\nlast_path      : 1500224729\nlast_crash     : 1500224580\nlast_hang      : 1500224516\nexec_timeout   : 20\nafl_banner     : fuzzer-master\nafl_version    : 1.85b\ncommand_line   : /home/skaramcheti/.virtualenvs/afl/bin/afl-unix/afl-fuzz -i /dev/shm/work/LMS/input -o /dev/shm/work/LMS/sync -m 4G -Q -M fuzzer-master -x /dev/shm/work/LMS/LMS.dict -- data/linux/processed-challenges/LMS/bin/LMS\n'
p85
I0
tp86
a(I5160
S'start_time     : 1500220055\nlast_update    : 1500225223\nfuzzer_pid     : 25887\ncycles_done    : 1\nexecs_done     : 5143106\nexecs_per_sec  : 996.07\npaths_total    : 125\npaths_favored  : 59\npaths_found    : 124\npaths_imported : 0\nmax_depth      : 14\ncur_path       : 77\npending_favs   : 0\npending_total  : 32\nvariable_paths : 0\nbitmap_cvg     : 0.56%\nunique_crashes : 5\nunique_hangs   : 8\nlast_path      : 1500224729\nlast_crash     : 1500224580\nlast_hang      : 1500224516\nexec_timeout   : 20\nafl_banner     : fuzzer-master\nafl_version    : 1.85b\ncommand_line   : /home/skaramcheti/.virtualenvs/afl/bin/afl-unix/afl-fuzz -i /dev/shm/work/LMS/input -o /dev/shm/work/LMS/sync -m 4G -Q -M fuzzer-master -x /dev/shm/work/LMS/LMS.dict -- data/linux/processed-challenges/LMS/bin/LMS\n'
p87
I0
tp88
a(I5280
S'start_time     : 1500220055\nlast_update    : 1500225343\nfuzzer_pid     : 25887\ncycles_done    : 1\nexecs_done     : 5272945\nexecs_per_sec  : 1021.81\npaths_total    : 129\npaths_favored  : 60\npaths_found    : 128\npaths_imported : 0\nmax_depth      : 14\ncur_path       : 126\npending_favs   : 1\npending_total  : 36\nvariable_paths : 0\nbitmap_cvg     : 0.57%\nunique_crashes : 5\nunique_hangs   : 9\nlast_path      : 1500225336\nlast_crash     : 1500224580\nlast_hang      : 1500225333\nexec_timeout   : 20\nafl_banner     : fuzzer-master\nafl_version    : 1.85b\ncommand_line   : /home/skaramcheti/.virtualenvs/afl/bin/afl-unix/afl-fuzz -i /dev/shm/work/LMS/input -o /dev/shm/work/LMS/sync -m 4G -Q -M fuzzer-master -x /dev/shm/work/LMS/LMS.dict -- data/linux/processed-challenges/LMS/bin/LMS\n'
p89
I4
tp90
a(I5400
S'start_time     : 1500220055\nlast_update    : 1500225464\nfuzzer_pid     : 25887\ncycles_done    : 1\nexecs_done     : 5402021\nexecs_per_sec  : 1098.71\npaths_total    : 131\npaths_favored  : 60\npaths_found    : 130\npaths_imported : 0\nmax_depth      : 14\ncur_path       : 126\npending_favs   : 1\npending_total  : 38\nvariable_paths : 0\nbitmap_cvg     : 0.57%\nunique_crashes : 5\nunique_hangs   : 9\nlast_path      : 1500225380\nlast_crash     : 1500224580\nlast_hang      : 1500225333\nexec_timeout   : 20\nafl_banner     : fuzzer-master\nafl_version    : 1.85b\ncommand_line   : /home/skaramcheti/.virtualenvs/afl/bin/afl-unix/afl-fuzz -i /dev/shm/work/LMS/input -o /dev/shm/work/LMS/sync -m 4G -Q -M fuzzer-master -x /dev/shm/work/LMS/LMS.dict -- data/linux/processed-challenges/LMS/bin/LMS\n'
p91
I2
tp92
a(I5520
S'start_time     : 1500220055\nlast_update    : 1500225584\nfuzzer_pid     : 25887\ncycles_done    : 2\nexecs_done     : 5533129\nexecs_per_sec  : 1024.67\npaths_total    : 131\npaths_favored  : 60\npaths_found    : 130\npaths_imported : 0\nmax_depth      : 14\ncur_path       : 39\npending_favs   : 0\npending_total  : 36\nvariable_paths : 0\nbitmap_cvg     : 0.57%\nunique_crashes : 5\nunique_hangs   : 9\nlast_path      : 1500225380\nlast_crash     : 1500224580\nlast_hang      : 1500225333\nexec_timeout   : 20\nafl_banner     : fuzzer-master\nafl_version    : 1.85b\ncommand_line   : /home/skaramcheti/.virtualenvs/afl/bin/afl-unix/afl-fuzz -i /dev/shm/work/LMS/input -o /dev/shm/work/LMS/sync -m 4G -Q -M fuzzer-master -x /dev/shm/work/LMS/LMS.dict -- data/linux/processed-challenges/LMS/bin/LMS\n'
p93
I0
tp94
a(I5640
S'start_time     : 1500220055\nlast_update    : 1500225704\nfuzzer_pid     : 25887\ncycles_done    : 2\nexecs_done     : 5663503\nexecs_per_sec  : 1117.61\npaths_total    : 131\npaths_favored  : 60\npaths_found    : 130\npaths_imported : 0\nmax_depth      : 14\ncur_path       : 55\npending_favs   : 0\npending_total  : 35\nvariable_paths : 0\nbitmap_cvg     : 0.57%\nunique_crashes : 5\nunique_hangs   : 9\nlast_path      : 1500225380\nlast_crash     : 1500224580\nlast_hang      : 1500225333\nexec_timeout   : 20\nafl_banner     : fuzzer-master\nafl_version    : 1.85b\ncommand_line   : /home/skaramcheti/.virtualenvs/afl/bin/afl-unix/afl-fuzz -i /dev/shm/work/LMS/input -o /dev/shm/work/LMS/sync -m 4G -Q -M fuzzer-master -x /dev/shm/work/LMS/LMS.dict -- data/linux/processed-challenges/LMS/bin/LMS\n'
p95
I0
tp96
a(I5760
S'start_time     : 1500220055\nlast_update    : 1500225824\nfuzzer_pid     : 25887\ncycles_done    : 2\nexecs_done     : 5798345\nexecs_per_sec  : 1150.29\npaths_total    : 131\npaths_favored  : 60\npaths_found    : 130\npaths_imported : 0\nmax_depth      : 14\ncur_path       : 64\npending_favs   : 0\npending_total  : 35\nvariable_paths : 0\nbitmap_cvg     : 0.57%\nunique_crashes : 5\nunique_hangs   : 9\nlast_path      : 1500225380\nlast_crash     : 1500224580\nlast_hang      : 1500225333\nexec_timeout   : 20\nafl_banner     : fuzzer-master\nafl_version    : 1.85b\ncommand_line   : /home/skaramcheti/.virtualenvs/afl/bin/afl-unix/afl-fuzz -i /dev/shm/work/LMS/input -o /dev/shm/work/LMS/sync -m 4G -Q -M fuzzer-master -x /dev/shm/work/LMS/LMS.dict -- data/linux/processed-challenges/LMS/bin/LMS\n'
p97
I0
tp98
a(I5880
S'start_time     : 1500220055\nlast_update    : 1500225944\nfuzzer_pid     : 25887\ncycles_done    : 2\nexecs_done     : 5930985\nexecs_per_sec  : 1132.14\npaths_total    : 131\npaths_favored  : 60\npaths_found    : 130\npaths_imported : 0\nmax_depth      : 14\ncur_path       : 73\npending_favs   : 0\npending_total  : 35\nvariable_paths : 0\nbitmap_cvg     : 0.57%\nunique_crashes : 5\nunique_hangs   : 9\nlast_path      : 1500225380\nlast_crash     : 1500224580\nlast_hang      : 1500225333\nexec_timeout   : 20\nafl_banner     : fuzzer-master\nafl_version    : 1.85b\ncommand_line   : /home/skaramcheti/.virtualenvs/afl/bin/afl-unix/afl-fuzz -i /dev/shm/work/LMS/input -o /dev/shm/work/LMS/sync -m 4G -Q -M fuzzer-master -x /dev/shm/work/LMS/LMS.dict -- data/linux/processed-challenges/LMS/bin/LMS\n'
p99
I0
tp100
a(I6000
S'start_time     : 1500220055\nlast_update    : 1500226065\nfuzzer_pid     : 25887\ncycles_done    : 2\nexecs_done     : 6054709\nexecs_per_sec  : 1035.67\npaths_total    : 133\npaths_favored  : 60\npaths_found    : 132\npaths_imported : 0\nmax_depth      : 14\ncur_path       : 77\npending_favs   : 0\npending_total  : 37\nvariable_paths : 0\nbitmap_cvg     : 0.57%\nunique_crashes : 6\nunique_hangs   : 10\nlast_path      : 1500226010\nlast_crash     : 1500226063\nlast_hang      : 1500225987\nexec_timeout   : 20\nafl_banner     : fuzzer-master\nafl_version    : 1.85b\ncommand_line   : /home/skaramcheti/.virtualenvs/afl/bin/afl-unix/afl-fuzz -i /dev/shm/work/LMS/input -o /dev/shm/work/LMS/sync -m 4G -Q -M fuzzer-master -x /dev/shm/work/LMS/LMS.dict -- data/linux/processed-challenges/LMS/bin/LMS\n'
p101
I2
tp102
a(I6120
S'start_time     : 1500220055\nlast_update    : 1500226185\nfuzzer_pid     : 25887\ncycles_done    : 2\nexecs_done     : 6181334\nexecs_per_sec  : 1068.81\npaths_total    : 134\npaths_favored  : 60\npaths_found    : 133\npaths_imported : 0\nmax_depth      : 14\ncur_path       : 82\npending_favs   : 0\npending_total  : 38\nvariable_paths : 0\nbitmap_cvg     : 0.57%\nunique_crashes : 7\nunique_hangs   : 12\nlast_path      : 1500226159\nlast_crash     : 1500226082\nlast_hang      : 1500226177\nexec_timeout   : 20\nafl_banner     : fuzzer-master\nafl_version    : 1.85b\ncommand_line   : /home/skaramcheti/.virtualenvs/afl/bin/afl-unix/afl-fuzz -i /dev/shm/work/LMS/input -o /dev/shm/work/LMS/sync -m 4G -Q -M fuzzer-master -x /dev/shm/work/LMS/LMS.dict -- data/linux/processed-challenges/LMS/bin/LMS\n'
p103
I1
tp104
a(I6240
S'start_time     : 1500220055\nlast_update    : 1500226305\nfuzzer_pid     : 25887\ncycles_done    : 2\nexecs_done     : 6310714\nexecs_per_sec  : 1073.40\npaths_total    : 134\npaths_favored  : 60\npaths_found    : 133\npaths_imported : 0\nmax_depth      : 14\ncur_path       : 87\npending_favs   : 0\npending_total  : 38\nvariable_paths : 0\nbitmap_cvg     : 0.57%\nunique_crashes : 7\nunique_hangs   : 12\nlast_path      : 1500226159\nlast_crash     : 1500226082\nlast_hang      : 1500226177\nexec_timeout   : 20\nafl_banner     : fuzzer-master\nafl_version    : 1.85b\ncommand_line   : /home/skaramcheti/.virtualenvs/afl/bin/afl-unix/afl-fuzz -i /dev/shm/work/LMS/input -o /dev/shm/work/LMS/sync -m 4G -Q -M fuzzer-master -x /dev/shm/work/LMS/LMS.dict -- data/linux/processed-challenges/LMS/bin/LMS\n'
p105
I0
tp106
a(I6360
S'start_time     : 1500220055\nlast_update    : 1500226425\nfuzzer_pid     : 25887\ncycles_done    : 2\nexecs_done     : 6441479\nexecs_per_sec  : 1080.59\npaths_total    : 138\npaths_favored  : 60\npaths_found    : 137\npaths_imported : 0\nmax_depth      : 14\ncur_path       : 87\npending_favs   : 0\npending_total  : 42\nvariable_paths : 0\nbitmap_cvg     : 0.57%\nunique_crashes : 7\nunique_hangs   : 12\nlast_path      : 1500226342\nlast_crash     : 1500226082\nlast_hang      : 1500226177\nexec_timeout   : 20\nafl_banner     : fuzzer-master\nafl_version    : 1.85b\ncommand_line   : /home/skaramcheti/.virtualenvs/afl/bin/afl-unix/afl-fuzz -i /dev/shm/work/LMS/input -o /dev/shm/work/LMS/sync -m 4G -Q -M fuzzer-master -x /dev/shm/work/LMS/LMS.dict -- data/linux/processed-challenges/LMS/bin/LMS\n'
p107
I4
tp108
a(I6480
S'start_time     : 1500220055\nlast_update    : 1500226546\nfuzzer_pid     : 25887\ncycles_done    : 2\nexecs_done     : 6570070\nexecs_per_sec  : 1087.34\npaths_total    : 138\npaths_favored  : 60\npaths_found    : 137\npaths_imported : 0\nmax_depth      : 14\ncur_path       : 92\npending_favs   : 0\npending_total  : 40\nvariable_paths : 0\nbitmap_cvg     : 0.57%\nunique_crashes : 7\nunique_hangs   : 12\nlast_path      : 1500226342\nlast_crash     : 1500226082\nlast_hang      : 1500226177\nexec_timeout   : 20\nafl_banner     : fuzzer-master\nafl_version    : 1.85b\ncommand_line   : /home/skaramcheti/.virtualenvs/afl/bin/afl-unix/afl-fuzz -i /dev/shm/work/LMS/input -o /dev/shm/work/LMS/sync -m 4G -Q -M fuzzer-master -x /dev/shm/work/LMS/LMS.dict -- data/linux/processed-challenges/LMS/bin/LMS\n'
p109
I0
tp110
a(I6600
S'start_time     : 1500220055\nlast_update    : 1500226666\nfuzzer_pid     : 25887\ncycles_done    : 2\nexecs_done     : 6683776\nexecs_per_sec  : 1050.73\npaths_total    : 139\npaths_favored  : 60\npaths_found    : 138\npaths_imported : 0\nmax_depth      : 14\ncur_path       : 95\npending_favs   : 0\npending_total  : 41\nvariable_paths : 0\nbitmap_cvg     : 0.57%\nunique_crashes : 7\nunique_hangs   : 15\nlast_path      : 1500226581\nlast_crash     : 1500226082\nlast_hang      : 1500226631\nexec_timeout   : 20\nafl_banner     : fuzzer-master\nafl_version    : 1.85b\ncommand_line   : /home/skaramcheti/.virtualenvs/afl/bin/afl-unix/afl-fuzz -i /dev/shm/work/LMS/input -o /dev/shm/work/LMS/sync -m 4G -Q -M fuzzer-master -x /dev/shm/work/LMS/LMS.dict -- data/linux/processed-challenges/LMS/bin/LMS\n'
p111
I1
tp112
a(I6720
S'start_time     : 1500220055\nlast_update    : 1500226786\nfuzzer_pid     : 25887\ncycles_done    : 2\nexecs_done     : 6816692\nexecs_per_sec  : 1046.18\npaths_total    : 141\npaths_favored  : 60\npaths_found    : 140\npaths_imported : 0\nmax_depth      : 14\ncur_path       : 102\npending_favs   : 0\npending_total  : 43\nvariable_paths : 0\nbitmap_cvg     : 0.57%\nunique_crashes : 8\nunique_hangs   : 15\nlast_path      : 1500226773\nlast_crash     : 1500226779\nlast_hang      : 1500226631\nexec_timeout   : 20\nafl_banner     : fuzzer-master\nafl_version    : 1.85b\ncommand_line   : /home/skaramcheti/.virtualenvs/afl/bin/afl-unix/afl-fuzz -i /dev/shm/work/LMS/input -o /dev/shm/work/LMS/sync -m 4G -Q -M fuzzer-master -x /dev/shm/work/LMS/LMS.dict -- data/linux/processed-challenges/LMS/bin/LMS\n'
p113
I2
tp114
a(I6840
S'start_time     : 1500220055\nlast_update    : 1500226907\nfuzzer_pid     : 25887\ncycles_done    : 2\nexecs_done     : 6934615\nexecs_per_sec  : 888.62\npaths_total    : 142\npaths_favored  : 60\npaths_found    : 141\npaths_imported : 0\nmax_depth      : 14\ncur_path       : 136\npending_favs   : 1\npending_total  : 44\nvariable_paths : 0\nbitmap_cvg     : 0.57%\nunique_crashes : 10\nunique_hangs   : 15\nlast_path      : 1500226818\nlast_crash     : 1500226839\nlast_hang      : 1500226631\nexec_timeout   : 20\nafl_banner     : fuzzer-master\nafl_version    : 1.85b\ncommand_line   : /home/skaramcheti/.virtualenvs/afl/bin/afl-unix/afl-fuzz -i /dev/shm/work/LMS/input -o /dev/shm/work/LMS/sync -m 4G -Q -M fuzzer-master -x /dev/shm/work/LMS/LMS.dict -- data/linux/processed-challenges/LMS/bin/LMS\n'
p115
I1
tp116
a(I6960
S'start_time     : 1500220055\nlast_update    : 1500227027\nfuzzer_pid     : 25887\ncycles_done    : 2\nexecs_done     : 7057265\nexecs_per_sec  : 997.84\npaths_total    : 145\npaths_favored  : 60\npaths_found    : 144\npaths_imported : 0\nmax_depth      : 14\ncur_path       : 136\npending_favs   : 1\npending_total  : 47\nvariable_paths : 0\nbitmap_cvg     : 0.57%\nunique_crashes : 10\nunique_hangs   : 16\nlast_path      : 1500226977\nlast_crash     : 1500226839\nlast_hang      : 1500226951\nexec_timeout   : 20\nafl_banner     : fuzzer-master\nafl_version    : 1.85b\ncommand_line   : /home/skaramcheti/.virtualenvs/afl/bin/afl-unix/afl-fuzz -i /dev/shm/work/LMS/input -o /dev/shm/work/LMS/sync -m 4G -Q -M fuzzer-master -x /dev/shm/work/LMS/LMS.dict -- data/linux/processed-challenges/LMS/bin/LMS\n'
p117
I3
tp118
a(I7080
S'start_time     : 1500220055\nlast_update    : 1500227147\nfuzzer_pid     : 25887\ncycles_done    : 2\nexecs_done     : 7175948\nexecs_per_sec  : 853.68\npaths_total    : 147\npaths_favored  : 60\npaths_found    : 146\npaths_imported : 0\nmax_depth      : 14\ncur_path       : 145\npending_favs   : 1\npending_total  : 47\nvariable_paths : 0\nbitmap_cvg     : 0.57%\nunique_crashes : 10\nunique_hangs   : 16\nlast_path      : 1500227145\nlast_crash     : 1500226839\nlast_hang      : 1500226951\nexec_timeout   : 20\nafl_banner     : fuzzer-master\nafl_version    : 1.85b\ncommand_line   : /home/skaramcheti/.virtualenvs/afl/bin/afl-unix/afl-fuzz -i /dev/shm/work/LMS/input -o /dev/shm/work/LMS/sync -m 4G -Q -M fuzzer-master -x /dev/shm/work/LMS/LMS.dict -- data/linux/processed-challenges/LMS/bin/LMS\n'
p119
I2
tp120
a(I7200
S'start_time     : 1500220055\nlast_update    : 1500227267\nfuzzer_pid     : 25887\ncycles_done    : 2\nexecs_done     : 7288430\nexecs_per_sec  : 997.12\npaths_total    : 149\npaths_favored  : 60\npaths_found    : 148\npaths_imported : 0\nmax_depth      : 14\ncur_path       : 145\npending_favs   : 1\npending_total  : 49\nvariable_paths : 0\nbitmap_cvg     : 0.58%\nunique_crashes : 10\nunique_hangs   : 16\nlast_path      : 1500227212\nlast_crash     : 1500226839\nlast_hang      : 1500226951\nexec_timeout   : 20\nafl_banner     : fuzzer-master\nafl_version    : 1.85b\ncommand_line   : /home/skaramcheti/.virtualenvs/afl/bin/afl-unix/afl-fuzz -i /dev/shm/work/LMS/input -o /dev/shm/work/LMS/sync -m 4G -Q -M fuzzer-master -x /dev/shm/work/LMS/LMS.dict -- data/linux/processed-challenges/LMS/bin/LMS\n'
p121
I2
tp122
a(I7320
S'start_time     : 1500220055\nlast_update    : 1500227387\nfuzzer_pid     : 25887\ncycles_done    : 2\nexecs_done     : 7400166\nexecs_per_sec  : 971.83\npaths_total    : 150\npaths_favored  : 62\npaths_found    : 149\npaths_imported : 0\nmax_depth      : 15\ncur_path       : 146\npending_favs   : 2\npending_total  : 49\nvariable_paths : 0\nbitmap_cvg     : 0.58%\nunique_crashes : 10\nunique_hangs   : 16\nlast_path      : 1500227374\nlast_crash     : 1500226839\nlast_hang      : 1500226951\nexec_timeout   : 20\nafl_banner     : fuzzer-master\nafl_version    : 1.85b\ncommand_line   : /home/skaramcheti/.virtualenvs/afl/bin/afl-unix/afl-fuzz -i /dev/shm/work/LMS/input -o /dev/shm/work/LMS/sync -m 4G -Q -M fuzzer-master -x /dev/shm/work/LMS/LMS.dict -- data/linux/processed-challenges/LMS/bin/LMS\n'
p123
I1
tp124
a(I7440
S'start_time     : 1500220055\nlast_update    : 1500227508\nfuzzer_pid     : 25887\ncycles_done    : 2\nexecs_done     : 7500017\nexecs_per_sec  : 835.67\npaths_total    : 154\npaths_favored  : 62\npaths_found    : 153\npaths_imported : 0\nmax_depth      : 15\ncur_path       : 148\npending_favs   : 1\npending_total  : 52\nvariable_paths : 0\nbitmap_cvg     : 0.58%\nunique_crashes : 10\nunique_hangs   : 16\nlast_path      : 1500227506\nlast_crash     : 1500226839\nlast_hang      : 1500226951\nexec_timeout   : 20\nafl_banner     : fuzzer-master\nafl_version    : 1.85b\ncommand_line   : /home/skaramcheti/.virtualenvs/afl/bin/afl-unix/afl-fuzz -i /dev/shm/work/LMS/input -o /dev/shm/work/LMS/sync -m 4G -Q -M fuzzer-master -x /dev/shm/work/LMS/LMS.dict -- data/linux/processed-challenges/LMS/bin/LMS\n'
p125
I4
tp126
a(I7560
S'start_time     : 1500220055\nlast_update    : 1500227628\nfuzzer_pid     : 25887\ncycles_done    : 2\nexecs_done     : 7609899\nexecs_per_sec  : 920.08\npaths_total    : 158\npaths_favored  : 62\npaths_found    : 157\npaths_imported : 0\nmax_depth      : 15\ncur_path       : 148\npending_favs   : 1\npending_total  : 56\nvariable_paths : 0\nbitmap_cvg     : 0.58%\nunique_crashes : 10\nunique_hangs   : 16\nlast_path      : 1500227592\nlast_crash     : 1500226839\nlast_hang      : 1500226951\nexec_timeout   : 20\nafl_banner     : fuzzer-master\nafl_version    : 1.85b\ncommand_line   : /home/skaramcheti/.virtualenvs/afl/bin/afl-unix/afl-fuzz -i /dev/shm/work/LMS/input -o /dev/shm/work/LMS/sync -m 4G -Q -M fuzzer-master -x /dev/shm/work/LMS/LMS.dict -- data/linux/processed-challenges/LMS/bin/LMS\n'
p127
I4
tp128
a(I7680
S'start_time     : 1500220055\nlast_update    : 1500227688\nfuzzer_pid     : 25887\ncycles_done    : 2\nexecs_done     : 7650362\nexecs_per_sec  : 823.36\npaths_total    : 158\npaths_favored  : 63\npaths_found    : 157\npaths_imported : 0\nmax_depth      : 15\ncur_path       : 151\npending_favs   : 3\npending_total  : 55\nvariable_paths : 0\nbitmap_cvg     : 0.58%\nunique_crashes : 10\nunique_hangs   : 16\nlast_path      : 1500227592\nlast_crash     : 1500226839\nlast_hang      : 1500226951\nexec_timeout   : 20\nafl_banner     : fuzzer-master\nafl_version    : 1.85b\ncommand_line   : /home/skaramcheti/.virtualenvs/afl/bin/afl-unix/afl-fuzz -i /dev/shm/work/LMS/input -o /dev/shm/work/LMS/sync -m 4G -Q -M fuzzer-master -x /dev/shm/work/LMS/LMS.dict -- data/linux/processed-challenges/LMS/bin/LMS\n'
p129
I1
tp130
a(I7800
S'start_time     : 1500220055\nlast_update    : 1500227808\nfuzzer_pid     : 25887\ncycles_done    : 2\nexecs_done     : 7760550\nexecs_per_sec  : 923.51\npaths_total    : 159\npaths_favored  : 63\npaths_found    : 158\npaths_imported : 0\nmax_depth      : 16\ncur_path       : 151\npending_favs   : 3\npending_total  : 56\nvariable_paths : 0\nbitmap_cvg     : 0.58%\nunique_crashes : 10\nunique_hangs   : 16\nlast_path      : 1500227709\nlast_crash     : 1500226839\nlast_hang      : 1500226951\nexec_timeout   : 20\nafl_banner     : fuzzer-master\nafl_version    : 1.85b\ncommand_line   : /home/skaramcheti/.virtualenvs/afl/bin/afl-unix/afl-fuzz -i /dev/shm/work/LMS/input -o /dev/shm/work/LMS/sync -m 4G -Q -M fuzzer-master -x /dev/shm/work/LMS/LMS.dict -- data/linux/processed-challenges/LMS/bin/LMS\n'
p131
I0
tp132
a(I7920
S'start_time     : 1500220055\nlast_update    : 1500227928\nfuzzer_pid     : 25887\ncycles_done    : 2\nexecs_done     : 7876106\nexecs_per_sec  : 842.28\npaths_total    : 159\npaths_favored  : 63\npaths_found    : 158\npaths_imported : 0\nmax_depth      : 16\ncur_path       : 155\npending_favs   : 1\npending_total  : 54\nvariable_paths : 0\nbitmap_cvg     : 0.58%\nunique_crashes : 10\nunique_hangs   : 16\nlast_path      : 1500227709\nlast_crash     : 1500226839\nlast_hang      : 1500226951\nexec_timeout   : 20\nafl_banner     : fuzzer-master\nafl_version    : 1.85b\ncommand_line   : /home/skaramcheti/.virtualenvs/afl/bin/afl-unix/afl-fuzz -i /dev/shm/work/LMS/input -o /dev/shm/work/LMS/sync -m 4G -Q -M fuzzer-master -x /dev/shm/work/LMS/LMS.dict -- data/linux/processed-challenges/LMS/bin/LMS\n'
p133
I0
tp134
a(I8040
S'start_time     : 1500220055\nlast_update    : 1500228049\nfuzzer_pid     : 25887\ncycles_done    : 2\nexecs_done     : 7986796\nexecs_per_sec  : 593.76\npaths_total    : 159\npaths_favored  : 63\npaths_found    : 158\npaths_imported : 0\nmax_depth      : 16\ncur_path       : 156\npending_favs   : 0\npending_total  : 53\nvariable_paths : 0\nbitmap_cvg     : 0.58%\nunique_crashes : 10\nunique_hangs   : 17\nlast_path      : 1500227709\nlast_crash     : 1500226839\nlast_hang      : 1500228001\nexec_timeout   : 20\nafl_banner     : fuzzer-master\nafl_version    : 1.85b\ncommand_line   : /home/skaramcheti/.virtualenvs/afl/bin/afl-unix/afl-fuzz -i /dev/shm/work/LMS/input -o /dev/shm/work/LMS/sync -m 4G -Q -M fuzzer-master -x /dev/shm/work/LMS/LMS.dict -- data/linux/processed-challenges/LMS/bin/LMS\n'
p135
I1
tp136
a(I8160
S'start_time     : 1500220055\nlast_update    : 1500228169\nfuzzer_pid     : 25887\ncycles_done    : 2\nexecs_done     : 8087297\nexecs_per_sec  : 909.76\npaths_total    : 163\npaths_favored  : 63\npaths_found    : 162\npaths_imported : 0\nmax_depth      : 16\ncur_path       : 156\npending_favs   : 0\npending_total  : 57\nvariable_paths : 0\nbitmap_cvg     : 0.58%\nunique_crashes : 10\nunique_hangs   : 17\nlast_path      : 1500228165\nlast_crash     : 1500226839\nlast_hang      : 1500228001\nexec_timeout   : 20\nafl_banner     : fuzzer-master\nafl_version    : 1.85b\ncommand_line   : /home/skaramcheti/.virtualenvs/afl/bin/afl-unix/afl-fuzz -i /dev/shm/work/LMS/input -o /dev/shm/work/LMS/sync -m 4G -Q -M fuzzer-master -x /dev/shm/work/LMS/LMS.dict -- data/linux/processed-challenges/LMS/bin/LMS\n'
p137
I4
tp138
a(I8280
S'start_time     : 1500220055\nlast_update    : 1500228289\nfuzzer_pid     : 25887\ncycles_done    : 2\nexecs_done     : 8159395\nexecs_per_sec  : 465.32\npaths_total    : 165\npaths_favored  : 63\npaths_found    : 164\npaths_imported : 0\nmax_depth      : 16\ncur_path       : 157\npending_favs   : 0\npending_total  : 58\nvariable_paths : 0\nbitmap_cvg     : 0.58%\nunique_crashes : 10\nunique_hangs   : 17\nlast_path      : 1500228251\nlast_crash     : 1500226839\nlast_hang      : 1500228001\nexec_timeout   : 20\nafl_banner     : fuzzer-master\nafl_version    : 1.85b\ncommand_line   : /home/skaramcheti/.virtualenvs/afl/bin/afl-unix/afl-fuzz -i /dev/shm/work/LMS/input -o /dev/shm/work/LMS/sync -m 4G -Q -M fuzzer-master -x /dev/shm/work/LMS/LMS.dict -- data/linux/processed-challenges/LMS/bin/LMS\n'
p139
I2
tp140
a(I8400
S'start_time     : 1500220055\nlast_update    : 1500228409\nfuzzer_pid     : 25887\ncycles_done    : 2\nexecs_done     : 8255713\nexecs_per_sec  : 572.97\npaths_total    : 167\npaths_favored  : 63\npaths_found    : 166\npaths_imported : 0\nmax_depth      : 16\ncur_path       : 159\npending_favs   : 0\npending_total  : 59\nvariable_paths : 0\nbitmap_cvg     : 0.58%\nunique_crashes : 10\nunique_hangs   : 17\nlast_path      : 1500228383\nlast_crash     : 1500226839\nlast_hang      : 1500228001\nexec_timeout   : 20\nafl_banner     : fuzzer-master\nafl_version    : 1.85b\ncommand_line   : /home/skaramcheti/.virtualenvs/afl/bin/afl-unix/afl-fuzz -i /dev/shm/work/LMS/input -o /dev/shm/work/LMS/sync -m 4G -Q -M fuzzer-master -x /dev/shm/work/LMS/LMS.dict -- data/linux/processed-challenges/LMS/bin/LMS\n'
p141
I2
tp142
a(I8520
S'start_time     : 1500220055\nlast_update    : 1500228529\nfuzzer_pid     : 25887\ncycles_done    : 2\nexecs_done     : 8323324\nexecs_per_sec  : 699.49\npaths_total    : 169\npaths_favored  : 63\npaths_found    : 168\npaths_imported : 0\nmax_depth      : 17\ncur_path       : 159\npending_favs   : 0\npending_total  : 61\nvariable_paths : 0\nbitmap_cvg     : 0.58%\nunique_crashes : 10\nunique_hangs   : 18\nlast_path      : 1500228528\nlast_crash     : 1500226839\nlast_hang      : 1500228483\nexec_timeout   : 20\nafl_banner     : fuzzer-master\nafl_version    : 1.85b\ncommand_line   : /home/skaramcheti/.virtualenvs/afl/bin/afl-unix/afl-fuzz -i /dev/shm/work/LMS/input -o /dev/shm/work/LMS/sync -m 4G -Q -M fuzzer-master -x /dev/shm/work/LMS/LMS.dict -- data/linux/processed-challenges/LMS/bin/LMS\n'
p143
I6
tp144
a(I8640
S'start_time     : 1500220055\nlast_update    : 1500228649\nfuzzer_pid     : 25887\ncycles_done    : 2\nexecs_done     : 8417019\nexecs_per_sec  : 575.49\npaths_total    : 175\npaths_favored  : 62\npaths_found    : 174\npaths_imported : 0\nmax_depth      : 18\ncur_path       : 172\npending_favs   : 1\npending_total  : 66\nvariable_paths : 0\nbitmap_cvg     : 0.58%\nunique_crashes : 11\nunique_hangs   : 19\nlast_path      : 1500228640\nlast_crash     : 1500228642\nlast_hang      : 1500228545\nexec_timeout   : 20\nafl_banner     : fuzzer-master\nafl_version    : 1.85b\ncommand_line   : /home/skaramcheti/.virtualenvs/afl/bin/afl-unix/afl-fuzz -i /dev/shm/work/LMS/input -o /dev/shm/work/LMS/sync -m 4G -Q -M fuzzer-master -x /dev/shm/work/LMS/LMS.dict -- data/linux/processed-challenges/LMS/bin/LMS\n'
p145
I1
tp146
a(I8760
S'start_time     : 1500220055\nlast_update    : 1500228770\nfuzzer_pid     : 25887\ncycles_done    : 2\nexecs_done     : 8488563\nexecs_per_sec  : 823.59\npaths_total    : 175\npaths_favored  : 62\npaths_found    : 174\npaths_imported : 0\nmax_depth      : 18\ncur_path       : 172\npending_favs   : 1\npending_total  : 66\nvariable_paths : 0\nbitmap_cvg     : 0.58%\nunique_crashes : 21\nunique_hangs   : 19\nlast_path      : 1500228640\nlast_crash     : 1500228768\nlast_hang      : 1500228545\nexec_timeout   : 20\nafl_banner     : fuzzer-master\nafl_version    : 1.85b\ncommand_line   : /home/skaramcheti/.virtualenvs/afl/bin/afl-unix/afl-fuzz -i /dev/shm/work/LMS/input -o /dev/shm/work/LMS/sync -m 4G -Q -M fuzzer-master -x /dev/shm/work/LMS/LMS.dict -- data/linux/processed-challenges/LMS/bin/LMS\n'
p147
I1
tp148
a(I8880
S'start_time     : 1500220055\nlast_update    : 1500228890\nfuzzer_pid     : 25887\ncycles_done    : 2\nexecs_done     : 8590667\nexecs_per_sec  : 850.64\npaths_total    : 176\npaths_favored  : 62\npaths_found    : 175\npaths_imported : 0\nmax_depth      : 18\ncur_path       : 172\npending_favs   : 1\npending_total  : 67\nvariable_paths : 0\nbitmap_cvg     : 0.58%\nunique_crashes : 32\nunique_hangs   : 23\nlast_path      : 1500228783\nlast_crash     : 1500228875\nlast_hang      : 1500228816\nexec_timeout   : 20\nafl_banner     : fuzzer-master\nafl_version    : 1.85b\ncommand_line   : /home/skaramcheti/.virtualenvs/afl/bin/afl-unix/afl-fuzz -i /dev/shm/work/LMS/input -o /dev/shm/work/LMS/sync -m 4G -Q -M fuzzer-master -x /dev/shm/work/LMS/LMS.dict -- data/linux/processed-challenges/LMS/bin/LMS\n'
p149
I3
tp150
a(I9000
S'start_time     : 1500220055\nlast_update    : 1500229010\nfuzzer_pid     : 25887\ncycles_done    : 2\nexecs_done     : 8653632\nexecs_per_sec  : 442.75\npaths_total    : 179\npaths_favored  : 62\npaths_found    : 178\npaths_imported : 0\nmax_depth      : 19\ncur_path       : 176\npending_favs   : 0\npending_total  : 69\nvariable_paths : 0\nbitmap_cvg     : 0.58%\nunique_crashes : 33\nunique_hangs   : 23\nlast_path      : 1500228920\nlast_crash     : 1500228988\nlast_hang      : 1500228816\nexec_timeout   : 20\nafl_banner     : fuzzer-master\nafl_version    : 1.85b\ncommand_line   : /home/skaramcheti/.virtualenvs/afl/bin/afl-unix/afl-fuzz -i /dev/shm/work/LMS/input -o /dev/shm/work/LMS/sync -m 4G -Q -M fuzzer-master -x /dev/shm/work/LMS/LMS.dict -- data/linux/processed-challenges/LMS/bin/LMS\n'
p151
I1
tp152
a(I9120
S'start_time     : 1500220055\nlast_update    : 1500229130\nfuzzer_pid     : 25887\ncycles_done    : 2\nexecs_done     : 8736917\nexecs_per_sec  : 785.44\npaths_total    : 182\npaths_favored  : 62\npaths_found    : 181\npaths_imported : 0\nmax_depth      : 19\ncur_path       : 176\npending_favs   : 0\npending_total  : 72\nvariable_paths : 0\nbitmap_cvg     : 0.58%\nunique_crashes : 34\nunique_hangs   : 27\nlast_path      : 1500229086\nlast_crash     : 1500229076\nlast_hang      : 1500229117\nexec_timeout   : 20\nafl_banner     : fuzzer-master\nafl_version    : 1.85b\ncommand_line   : /home/skaramcheti/.virtualenvs/afl/bin/afl-unix/afl-fuzz -i /dev/shm/work/LMS/input -o /dev/shm/work/LMS/sync -m 4G -Q -M fuzzer-master -x /dev/shm/work/LMS/LMS.dict -- data/linux/processed-challenges/LMS/bin/LMS\n'
p153
I3
tp154
a(I9240
S'start_time     : 1500220055\nlast_update    : 1500229250\nfuzzer_pid     : 25887\ncycles_done    : 2\nexecs_done     : 8816872\nexecs_per_sec  : 326.37\npaths_total    : 184\npaths_favored  : 62\npaths_found    : 183\npaths_imported : 0\nmax_depth      : 19\ncur_path       : 180\npending_favs   : 0\npending_total  : 73\nvariable_paths : 0\nbitmap_cvg     : 0.58%\nunique_crashes : 34\nunique_hangs   : 29\nlast_path      : 1500229191\nlast_crash     : 1500229076\nlast_hang      : 1500229148\nexec_timeout   : 20\nafl_banner     : fuzzer-master\nafl_version    : 1.85b\ncommand_line   : /home/skaramcheti/.virtualenvs/afl/bin/afl-unix/afl-fuzz -i /dev/shm/work/LMS/input -o /dev/shm/work/LMS/sync -m 4G -Q -M fuzzer-master -x /dev/shm/work/LMS/LMS.dict -- data/linux/processed-challenges/LMS/bin/LMS\n'
p155
I1
tp156
a(I9360
S'start_time     : 1500220055\nlast_update    : 1500229371\nfuzzer_pid     : 25887\ncycles_done    : 2\nexecs_done     : 8855804\nexecs_per_sec  : 319.22\npaths_total    : 184\npaths_favored  : 62\npaths_found    : 183\npaths_imported : 0\nmax_depth      : 19\ncur_path       : 180\npending_favs   : 0\npending_total  : 73\nvariable_paths : 0\nbitmap_cvg     : 0.58%\nunique_crashes : 34\nunique_hangs   : 29\nlast_path      : 1500229191\nlast_crash     : 1500229076\nlast_hang      : 1500229148\nexec_timeout   : 20\nafl_banner     : fuzzer-master\nafl_version    : 1.85b\ncommand_line   : /home/skaramcheti/.virtualenvs/afl/bin/afl-unix/afl-fuzz -i /dev/shm/work/LMS/input -o /dev/shm/work/LMS/sync -m 4G -Q -M fuzzer-master -x /dev/shm/work/LMS/LMS.dict -- data/linux/processed-challenges/LMS/bin/LMS\n'
p157
I0
tp158
a(I9480
S'start_time     : 1500220055\nlast_update    : 1500229491\nfuzzer_pid     : 25887\ncycles_done    : 2\nexecs_done     : 8897688\nexecs_per_sec  : 614.30\npaths_total    : 184\npaths_favored  : 62\npaths_found    : 183\npaths_imported : 0\nmax_depth      : 19\ncur_path       : 180\npending_favs   : 0\npending_total  : 73\nvariable_paths : 0\nbitmap_cvg     : 0.58%\nunique_crashes : 34\nunique_hangs   : 30\nlast_path      : 1500229191\nlast_crash     : 1500229076\nlast_hang      : 1500229459\nexec_timeout   : 20\nafl_banner     : fuzzer-master\nafl_version    : 1.85b\ncommand_line   : /home/skaramcheti/.virtualenvs/afl/bin/afl-unix/afl-fuzz -i /dev/shm/work/LMS/input -o /dev/shm/work/LMS/sync -m 4G -Q -M fuzzer-master -x /dev/shm/work/LMS/LMS.dict -- data/linux/processed-challenges/LMS/bin/LMS\n'
p159
I0
tp160
a(I9600
S'start_time     : 1500220055\nlast_update    : 1500229611\nfuzzer_pid     : 25887\ncycles_done    : 2\nexecs_done     : 8964192\nexecs_per_sec  : 646.26\npaths_total    : 185\npaths_favored  : 62\npaths_found    : 184\npaths_imported : 0\nmax_depth      : 20\ncur_path       : 180\npending_favs   : 0\npending_total  : 74\nvariable_paths : 0\nbitmap_cvg     : 0.58%\nunique_crashes : 34\nunique_hangs   : 31\nlast_path      : 1500229552\nlast_crash     : 1500229076\nlast_hang      : 1500229559\nexec_timeout   : 20\nafl_banner     : fuzzer-master\nafl_version    : 1.85b\ncommand_line   : /home/skaramcheti/.virtualenvs/afl/bin/afl-unix/afl-fuzz -i /dev/shm/work/LMS/input -o /dev/shm/work/LMS/sync -m 4G -Q -M fuzzer-master -x /dev/shm/work/LMS/LMS.dict -- data/linux/processed-challenges/LMS/bin/LMS\n'
p161
I1
tp162
a(I9720
S'start_time     : 1500220055\nlast_update    : 1500229731\nfuzzer_pid     : 25887\ncycles_done    : 2\nexecs_done     : 9022396\nexecs_per_sec  : 322.07\npaths_total    : 185\npaths_favored  : 62\npaths_found    : 184\npaths_imported : 0\nmax_depth      : 20\ncur_path       : 184\npending_favs   : 0\npending_total  : 73\nvariable_paths : 0\nbitmap_cvg     : 0.58%\nunique_crashes : 37\nunique_hangs   : 31\nlast_path      : 1500229552\nlast_crash     : 1500229699\nlast_hang      : 1500229559\nexec_timeout   : 20\nafl_banner     : fuzzer-master\nafl_version    : 1.85b\ncommand_line   : /home/skaramcheti/.virtualenvs/afl/bin/afl-unix/afl-fuzz -i /dev/shm/work/LMS/input -o /dev/shm/work/LMS/sync -m 4G -Q -M fuzzer-master -x /dev/shm/work/LMS/LMS.dict -- data/linux/processed-challenges/LMS/bin/LMS\n'
p163
I0
tp164
a(I9840
S'start_time     : 1500220055\nlast_update    : 1500229852\nfuzzer_pid     : 25887\ncycles_done    : 2\nexecs_done     : 9060086\nexecs_per_sec  : 327.82\npaths_total    : 185\npaths_favored  : 62\npaths_found    : 184\npaths_imported : 0\nmax_depth      : 20\ncur_path       : 184\npending_favs   : 0\npending_total  : 73\nvariable_paths : 0\nbitmap_cvg     : 0.58%\nunique_crashes : 37\nunique_hangs   : 31\nlast_path      : 1500229552\nlast_crash     : 1500229699\nlast_hang      : 1500229559\nexec_timeout   : 20\nafl_banner     : fuzzer-master\nafl_version    : 1.85b\ncommand_line   : /home/skaramcheti/.virtualenvs/afl/bin/afl-unix/afl-fuzz -i /dev/shm/work/LMS/input -o /dev/shm/work/LMS/sync -m 4G -Q -M fuzzer-master -x /dev/shm/work/LMS/LMS.dict -- data/linux/processed-challenges/LMS/bin/LMS\n'
p165
I0
tp166
a(I9960
S'start_time     : 1500220055\nlast_update    : 1500229972\nfuzzer_pid     : 25887\ncycles_done    : 2\nexecs_done     : 9099207\nexecs_per_sec  : 332.78\npaths_total    : 185\npaths_favored  : 62\npaths_found    : 184\npaths_imported : 0\nmax_depth      : 20\ncur_path       : 184\npending_favs   : 0\npending_total  : 73\nvariable_paths : 0\nbitmap_cvg     : 0.58%\nunique_crashes : 37\nunique_hangs   : 31\nlast_path      : 1500229552\nlast_crash     : 1500229699\nlast_hang      : 1500229559\nexec_timeout   : 20\nafl_banner     : fuzzer-master\nafl_version    : 1.85b\ncommand_line   : /home/skaramcheti/.virtualenvs/afl/bin/afl-unix/afl-fuzz -i /dev/shm/work/LMS/input -o /dev/shm/work/LMS/sync -m 4G -Q -M fuzzer-master -x /dev/shm/work/LMS/LMS.dict -- data/linux/processed-challenges/LMS/bin/LMS\n'
p167
I0
tp168
a(I10080
S'start_time     : 1500220055\nlast_update    : 1500230092\nfuzzer_pid     : 25887\ncycles_done    : 2\nexecs_done     : 9158161\nexecs_per_sec  : 599.81\npaths_total    : 186\npaths_favored  : 62\npaths_found    : 185\npaths_imported : 0\nmax_depth      : 21\ncur_path       : 184\npending_favs   : 0\npending_total  : 74\nvariable_paths : 0\nbitmap_cvg     : 0.58%\nunique_crashes : 37\nunique_hangs   : 33\nlast_path      : 1500230041\nlast_crash     : 1500229699\nlast_hang      : 1500230068\nexec_timeout   : 20\nafl_banner     : fuzzer-master\nafl_version    : 1.85b\ncommand_line   : /home/skaramcheti/.virtualenvs/afl/bin/afl-unix/afl-fuzz -i /dev/shm/work/LMS/input -o /dev/shm/work/LMS/sync -m 4G -Q -M fuzzer-master -x /dev/shm/work/LMS/LMS.dict -- data/linux/processed-challenges/LMS/bin/LMS\n'
p169
I2
tp170
a(I10200
S'start_time     : 1500220055\nlast_update    : 1500230212\nfuzzer_pid     : 25887\ncycles_done    : 2\nexecs_done     : 9222185\nexecs_per_sec  : 248.51\npaths_total    : 187\npaths_favored  : 63\npaths_found    : 186\npaths_imported : 0\nmax_depth      : 21\ncur_path       : 185\npending_favs   : 1\npending_total  : 74\nvariable_paths : 0\nbitmap_cvg     : 0.58%\nunique_crashes : 38\nunique_hangs   : 33\nlast_path      : 1500230101\nlast_crash     : 1500230153\nlast_hang      : 1500230068\nexec_timeout   : 20\nafl_banner     : fuzzer-master\nafl_version    : 1.85b\ncommand_line   : /home/skaramcheti/.virtualenvs/afl/bin/afl-unix/afl-fuzz -i /dev/shm/work/LMS/input -o /dev/shm/work/LMS/sync -m 4G -Q -M fuzzer-master -x /dev/shm/work/LMS/LMS.dict -- data/linux/processed-challenges/LMS/bin/LMS\n'
p171
I0
tp172
a(I10320
S'start_time     : 1500220055\nlast_update    : 1500230332\nfuzzer_pid     : 25887\ncycles_done    : 3\nexecs_done     : 9326051\nexecs_per_sec  : 1043.90\npaths_total    : 187\npaths_favored  : 63\npaths_found    : 186\npaths_imported : 0\nmax_depth      : 21\ncur_path       : 52\npending_favs   : 0\npending_total  : 72\nvariable_paths : 0\nbitmap_cvg     : 0.58%\nunique_crashes : 38\nunique_hangs   : 33\nlast_path      : 1500230101\nlast_crash     : 1500230153\nlast_hang      : 1500230068\nexec_timeout   : 20\nafl_banner     : fuzzer-master\nafl_version    : 1.85b\ncommand_line   : /home/skaramcheti/.virtualenvs/afl/bin/afl-unix/afl-fuzz -i /dev/shm/work/LMS/input -o /dev/shm/work/LMS/sync -m 4G -Q -M fuzzer-master -x /dev/shm/work/LMS/LMS.dict -- data/linux/processed-challenges/LMS/bin/LMS\n'
p173
I0
tp174
a(I10440
S'start_time     : 1500220055\nlast_update    : 1500230452\nfuzzer_pid     : 25887\ncycles_done    : 3\nexecs_done     : 9460375\nexecs_per_sec  : 1111.92\npaths_total    : 187\npaths_favored  : 63\npaths_found    : 186\npaths_imported : 0\nmax_depth      : 21\ncur_path       : 61\npending_favs   : 0\npending_total  : 72\nvariable_paths : 0\nbitmap_cvg     : 0.58%\nunique_crashes : 38\nunique_hangs   : 33\nlast_path      : 1500230101\nlast_crash     : 1500230153\nlast_hang      : 1500230068\nexec_timeout   : 20\nafl_banner     : fuzzer-master\nafl_version    : 1.85b\ncommand_line   : /home/skaramcheti/.virtualenvs/afl/bin/afl-unix/afl-fuzz -i /dev/shm/work/LMS/input -o /dev/shm/work/LMS/sync -m 4G -Q -M fuzzer-master -x /dev/shm/work/LMS/LMS.dict -- data/linux/processed-challenges/LMS/bin/LMS\n'
p175
I0
tp176
a(I10560
S'start_time     : 1500220055\nlast_update    : 1500230573\nfuzzer_pid     : 25887\ncycles_done    : 3\nexecs_done     : 9592716\nexecs_per_sec  : 1091.64\npaths_total    : 187\npaths_favored  : 63\npaths_found    : 186\npaths_imported : 0\nmax_depth      : 21\ncur_path       : 72\npending_favs   : 0\npending_total  : 72\nvariable_paths : 0\nbitmap_cvg     : 0.58%\nunique_crashes : 38\nunique_hangs   : 33\nlast_path      : 1500230101\nlast_crash     : 1500230153\nlast_hang      : 1500230068\nexec_timeout   : 20\nafl_banner     : fuzzer-master\nafl_version    : 1.85b\ncommand_line   : /home/skaramcheti/.virtualenvs/afl/bin/afl-unix/afl-fuzz -i /dev/shm/work/LMS/input -o /dev/shm/work/LMS/sync -m 4G -Q -M fuzzer-master -x /dev/shm/work/LMS/LMS.dict -- data/linux/processed-challenges/LMS/bin/LMS\n'
p177
I0
tp178
a(I10680
S'start_time     : 1500220055\nlast_update    : 1500230693\nfuzzer_pid     : 25887\ncycles_done    : 3\nexecs_done     : 9719010\nexecs_per_sec  : 1092.59\npaths_total    : 187\npaths_favored  : 63\npaths_found    : 186\npaths_imported : 0\nmax_depth      : 21\ncur_path       : 79\npending_favs   : 0\npending_total  : 71\nvariable_paths : 0\nbitmap_cvg     : 0.58%\nunique_crashes : 38\nunique_hangs   : 33\nlast_path      : 1500230101\nlast_crash     : 1500230153\nlast_hang      : 1500230068\nexec_timeout   : 20\nafl_banner     : fuzzer-master\nafl_version    : 1.85b\ncommand_line   : /home/skaramcheti/.virtualenvs/afl/bin/afl-unix/afl-fuzz -i /dev/shm/work/LMS/input -o /dev/shm/work/LMS/sync -m 4G -Q -M fuzzer-master -x /dev/shm/work/LMS/LMS.dict -- data/linux/processed-challenges/LMS/bin/LMS\n'
p179
I0
tp180
a.